
bs:     file format elf32-littlearm


Disassembly of section .init:

00008b04 <_init>:
    8b04:	e92d4008 	push	{r3, lr}
    8b08:	eb00009f 	bl	8d8c <call_gmon_start>
    8b0c:	e8bd8008 	pop	{r3, pc}

Disassembly of section .plt:

00008b10 <.plt>:
    8b10:	e52de004 	push	{lr}		; (str lr, [sp, #-4]!)
    8b14:	e59fe004 	ldr	lr, [pc, #4]	; 8b20 <_init+0x1c>
    8b18:	e08fe00e 	add	lr, pc, lr
    8b1c:	e5bef008 	ldr	pc, [lr, #8]!
    8b20:	0001e5e4 	.word	0x0001e5e4
    8b24:	e28fc600 	add	ip, pc, #0
    8b28:	e28cca1e 	add	ip, ip, #122880	; 0x1e000
    8b2c:	e5bcf5e4 	ldr	pc, [ip, #1508]!	; 0x5e4
    8b30:	e28fc600 	add	ip, pc, #0
    8b34:	e28cca1e 	add	ip, ip, #122880	; 0x1e000
    8b38:	e5bcf5dc 	ldr	pc, [ip, #1500]!	; 0x5dc
    8b3c:	e28fc600 	add	ip, pc, #0
    8b40:	e28cca1e 	add	ip, ip, #122880	; 0x1e000
    8b44:	e5bcf5d4 	ldr	pc, [ip, #1492]!	; 0x5d4
    8b48:	e28fc600 	add	ip, pc, #0
    8b4c:	e28cca1e 	add	ip, ip, #122880	; 0x1e000
    8b50:	e5bcf5cc 	ldr	pc, [ip, #1484]!	; 0x5cc
    8b54:	e28fc600 	add	ip, pc, #0
    8b58:	e28cca1e 	add	ip, ip, #122880	; 0x1e000
    8b5c:	e5bcf5c4 	ldr	pc, [ip, #1476]!	; 0x5c4
    8b60:	e28fc600 	add	ip, pc, #0
    8b64:	e28cca1e 	add	ip, ip, #122880	; 0x1e000
    8b68:	e5bcf5bc 	ldr	pc, [ip, #1468]!	; 0x5bc
    8b6c:	e28fc600 	add	ip, pc, #0
    8b70:	e28cca1e 	add	ip, ip, #122880	; 0x1e000
    8b74:	e5bcf5b4 	ldr	pc, [ip, #1460]!	; 0x5b4
    8b78:	e28fc600 	add	ip, pc, #0
    8b7c:	e28cca1e 	add	ip, ip, #122880	; 0x1e000
    8b80:	e5bcf5ac 	ldr	pc, [ip, #1452]!	; 0x5ac
    8b84:	e28fc600 	add	ip, pc, #0
    8b88:	e28cca1e 	add	ip, ip, #122880	; 0x1e000
    8b8c:	e5bcf5a4 	ldr	pc, [ip, #1444]!	; 0x5a4
    8b90:	e28fc600 	add	ip, pc, #0
    8b94:	e28cca1e 	add	ip, ip, #122880	; 0x1e000
    8b98:	e5bcf59c 	ldr	pc, [ip, #1436]!	; 0x59c
    8b9c:	e28fc600 	add	ip, pc, #0
    8ba0:	e28cca1e 	add	ip, ip, #122880	; 0x1e000
    8ba4:	e5bcf594 	ldr	pc, [ip, #1428]!	; 0x594
    8ba8:	e28fc600 	add	ip, pc, #0
    8bac:	e28cca1e 	add	ip, ip, #122880	; 0x1e000
    8bb0:	e5bcf58c 	ldr	pc, [ip, #1420]!	; 0x58c
    8bb4:	e28fc600 	add	ip, pc, #0
    8bb8:	e28cca1e 	add	ip, ip, #122880	; 0x1e000
    8bbc:	e5bcf584 	ldr	pc, [ip, #1412]!	; 0x584
    8bc0:	e28fc600 	add	ip, pc, #0
    8bc4:	e28cca1e 	add	ip, ip, #122880	; 0x1e000
    8bc8:	e5bcf57c 	ldr	pc, [ip, #1404]!	; 0x57c
    8bcc:	e28fc600 	add	ip, pc, #0
    8bd0:	e28cca1e 	add	ip, ip, #122880	; 0x1e000
    8bd4:	e5bcf574 	ldr	pc, [ip, #1396]!	; 0x574
    8bd8:	e28fc600 	add	ip, pc, #0
    8bdc:	e28cca1e 	add	ip, ip, #122880	; 0x1e000
    8be0:	e5bcf56c 	ldr	pc, [ip, #1388]!	; 0x56c
    8be4:	e28fc600 	add	ip, pc, #0
    8be8:	e28cca1e 	add	ip, ip, #122880	; 0x1e000
    8bec:	e5bcf564 	ldr	pc, [ip, #1380]!	; 0x564
    8bf0:	e28fc600 	add	ip, pc, #0
    8bf4:	e28cca1e 	add	ip, ip, #122880	; 0x1e000
    8bf8:	e5bcf55c 	ldr	pc, [ip, #1372]!	; 0x55c
    8bfc:	e28fc600 	add	ip, pc, #0
    8c00:	e28cca1e 	add	ip, ip, #122880	; 0x1e000
    8c04:	e5bcf554 	ldr	pc, [ip, #1364]!	; 0x554
    8c08:	e28fc600 	add	ip, pc, #0
    8c0c:	e28cca1e 	add	ip, ip, #122880	; 0x1e000
    8c10:	e5bcf54c 	ldr	pc, [ip, #1356]!	; 0x54c
    8c14:	e28fc600 	add	ip, pc, #0
    8c18:	e28cca1e 	add	ip, ip, #122880	; 0x1e000
    8c1c:	e5bcf544 	ldr	pc, [ip, #1348]!	; 0x544
    8c20:	e28fc600 	add	ip, pc, #0
    8c24:	e28cca1e 	add	ip, ip, #122880	; 0x1e000
    8c28:	e5bcf53c 	ldr	pc, [ip, #1340]!	; 0x53c
    8c2c:	e28fc600 	add	ip, pc, #0
    8c30:	e28cca1e 	add	ip, ip, #122880	; 0x1e000
    8c34:	e5bcf534 	ldr	pc, [ip, #1332]!	; 0x534
    8c38:	e28fc600 	add	ip, pc, #0
    8c3c:	e28cca1e 	add	ip, ip, #122880	; 0x1e000
    8c40:	e5bcf52c 	ldr	pc, [ip, #1324]!	; 0x52c
    8c44:	e28fc600 	add	ip, pc, #0
    8c48:	e28cca1e 	add	ip, ip, #122880	; 0x1e000
    8c4c:	e5bcf524 	ldr	pc, [ip, #1316]!	; 0x524
    8c50:	e28fc600 	add	ip, pc, #0
    8c54:	e28cca1e 	add	ip, ip, #122880	; 0x1e000
    8c58:	e5bcf51c 	ldr	pc, [ip, #1308]!	; 0x51c
    8c5c:	e28fc600 	add	ip, pc, #0
    8c60:	e28cca1e 	add	ip, ip, #122880	; 0x1e000
    8c64:	e5bcf514 	ldr	pc, [ip, #1300]!	; 0x514
    8c68:	e28fc600 	add	ip, pc, #0
    8c6c:	e28cca1e 	add	ip, ip, #122880	; 0x1e000
    8c70:	e5bcf50c 	ldr	pc, [ip, #1292]!	; 0x50c
    8c74:	e28fc600 	add	ip, pc, #0
    8c78:	e28cca1e 	add	ip, ip, #122880	; 0x1e000
    8c7c:	e5bcf504 	ldr	pc, [ip, #1284]!	; 0x504
    8c80:	e28fc600 	add	ip, pc, #0
    8c84:	e28cca1e 	add	ip, ip, #122880	; 0x1e000
    8c88:	e5bcf4fc 	ldr	pc, [ip, #1276]!	; 0x4fc
    8c8c:	e28fc600 	add	ip, pc, #0
    8c90:	e28cca1e 	add	ip, ip, #122880	; 0x1e000
    8c94:	e5bcf4f4 	ldr	pc, [ip, #1268]!	; 0x4f4
    8c98:	e28fc600 	add	ip, pc, #0
    8c9c:	e28cca1e 	add	ip, ip, #122880	; 0x1e000
    8ca0:	e5bcf4ec 	ldr	pc, [ip, #1260]!	; 0x4ec
    8ca4:	e28fc600 	add	ip, pc, #0
    8ca8:	e28cca1e 	add	ip, ip, #122880	; 0x1e000
    8cac:	e5bcf4e4 	ldr	pc, [ip, #1252]!	; 0x4e4
    8cb0:	e28fc600 	add	ip, pc, #0
    8cb4:	e28cca1e 	add	ip, ip, #122880	; 0x1e000
    8cb8:	e5bcf4dc 	ldr	pc, [ip, #1244]!	; 0x4dc
    8cbc:	e28fc600 	add	ip, pc, #0
    8cc0:	e28cca1e 	add	ip, ip, #122880	; 0x1e000
    8cc4:	e5bcf4d4 	ldr	pc, [ip, #1236]!	; 0x4d4
    8cc8:	e28fc600 	add	ip, pc, #0
    8ccc:	e28cca1e 	add	ip, ip, #122880	; 0x1e000
    8cd0:	e5bcf4cc 	ldr	pc, [ip, #1228]!	; 0x4cc
    8cd4:	e28fc600 	add	ip, pc, #0
    8cd8:	e28cca1e 	add	ip, ip, #122880	; 0x1e000
    8cdc:	e5bcf4c4 	ldr	pc, [ip, #1220]!	; 0x4c4
    8ce0:	e28fc600 	add	ip, pc, #0
    8ce4:	e28cca1e 	add	ip, ip, #122880	; 0x1e000
    8ce8:	e5bcf4bc 	ldr	pc, [ip, #1212]!	; 0x4bc
    8cec:	e28fc600 	add	ip, pc, #0
    8cf0:	e28cca1e 	add	ip, ip, #122880	; 0x1e000
    8cf4:	e5bcf4b4 	ldr	pc, [ip, #1204]!	; 0x4b4
    8cf8:	e28fc600 	add	ip, pc, #0
    8cfc:	e28cca1e 	add	ip, ip, #122880	; 0x1e000
    8d00:	e5bcf4ac 	ldr	pc, [ip, #1196]!	; 0x4ac
    8d04:	e28fc600 	add	ip, pc, #0
    8d08:	e28cca1e 	add	ip, ip, #122880	; 0x1e000
    8d0c:	e5bcf4a4 	ldr	pc, [ip, #1188]!	; 0x4a4
    8d10:	e28fc600 	add	ip, pc, #0
    8d14:	e28cca1e 	add	ip, ip, #122880	; 0x1e000
    8d18:	e5bcf49c 	ldr	pc, [ip, #1180]!	; 0x49c
    8d1c:	e28fc600 	add	ip, pc, #0
    8d20:	e28cca1e 	add	ip, ip, #122880	; 0x1e000
    8d24:	e5bcf494 	ldr	pc, [ip, #1172]!	; 0x494
    8d28:	e28fc600 	add	ip, pc, #0
    8d2c:	e28cca1e 	add	ip, ip, #122880	; 0x1e000
    8d30:	e5bcf48c 	ldr	pc, [ip, #1164]!	; 0x48c
    8d34:	e28fc600 	add	ip, pc, #0
    8d38:	e28cca1e 	add	ip, ip, #122880	; 0x1e000
    8d3c:	e5bcf484 	ldr	pc, [ip, #1156]!	; 0x484
    8d40:	e28fc600 	add	ip, pc, #0
    8d44:	e28cca1e 	add	ip, ip, #122880	; 0x1e000
    8d48:	e5bcf47c 	ldr	pc, [ip, #1148]!	; 0x47c

Disassembly of section .text:

00008d50 <_start>:
    8d50:	e3a0b000 	mov	fp, #0
    8d54:	e3a0e000 	mov	lr, #0
    8d58:	e49d1004 	pop	{r1}		; (ldr r1, [sp], #4)
    8d5c:	e1a0200d 	mov	r2, sp
    8d60:	e52d2004 	push	{r2}		; (str r2, [sp, #-4]!)
    8d64:	e52d0004 	push	{r0}		; (str r0, [sp, #-4]!)
    8d68:	e59fc010 	ldr	ip, [pc, #16]	; 8d80 <_start+0x30>
    8d6c:	e52dc004 	push	{ip}		; (str ip, [sp, #-4]!)
    8d70:	e59f000c 	ldr	r0, [pc, #12]	; 8d84 <_start+0x34>
    8d74:	e59f300c 	ldr	r3, [pc, #12]	; 8d88 <_start+0x38>
    8d78:	ebffffa5 	bl	8c14 <_init+0x110>
    8d7c:	ebffffe0 	bl	8d04 <_init+0x200>
    8d80:	0001e3f0 	.word	0x0001e3f0
    8d84:	0000a260 	.word	0x0000a260
    8d88:	0001e390 	.word	0x0001e390

00008d8c <call_gmon_start>:
    8d8c:	e59f3014 	ldr	r3, [pc, #20]	; 8da8 <call_gmon_start+0x1c>
    8d90:	e59f2014 	ldr	r2, [pc, #20]	; 8dac <call_gmon_start+0x20>
    8d94:	e08f3003 	add	r3, pc, r3
    8d98:	e7933002 	ldr	r3, [r3, r2]
    8d9c:	e3530000 	cmp	r3, #0
    8da0:	012fff1e 	bxeq	lr
    8da4:	eaffffa0 	b	8c2c <_init+0x128>
    8da8:	0001e368 	.word	0x0001e368
    8dac:	000000c4 	.word	0x000000c4

00008db0 <__do_global_dtors_aux>:
    8db0:	e59f3010 	ldr	r3, [pc, #16]	; 8dc8 <__do_global_dtors_aux+0x18>
    8db4:	e5d32000 	ldrb	r2, [r3]
    8db8:	e3520000 	cmp	r2, #0
    8dbc:	03a02001 	moveq	r2, #1
    8dc0:	05c32000 	strbeq	r2, [r3]
    8dc4:	e12fff1e 	bx	lr
    8dc8:	000275d8 	.word	0x000275d8

00008dcc <frame_dummy>:
    8dcc:	e59f0020 	ldr	r0, [pc, #32]	; 8df4 <frame_dummy+0x28>
    8dd0:	e92d4008 	push	{r3, lr}
    8dd4:	e5903000 	ldr	r3, [r0]
    8dd8:	e3530000 	cmp	r3, #0
    8ddc:	08bd8008 	popeq	{r3, pc}
    8de0:	e59f3010 	ldr	r3, [pc, #16]	; 8df8 <frame_dummy+0x2c>
    8de4:	e3530000 	cmp	r3, #0
    8de8:	08bd8008 	popeq	{r3, pc}
    8dec:	e12fff33 	blx	r3
    8df0:	e8bd8008 	pop	{r3, pc}
    8df4:	00027008 	.word	0x00027008
    8df8:	00000000 	.word	0x00000000

00008dfc <ff>:
    8dfc:	e92d4800 	push	{fp, lr}
    8e00:	e28db004 	add	fp, sp, #4
    8e04:	e24dd018 	sub	sp, sp, #24
    8e08:	e50b0018 	str	r0, [fp, #-24]
    8e0c:	e3a03000 	mov	r3, #0
    8e10:	e50b3010 	str	r3, [fp, #-16]
    8e14:	e3a03000 	mov	r3, #0
    8e18:	e50b3014 	str	r3, [fp, #-20]
    8e1c:	e51b0018 	ldr	r0, [fp, #-24]
    8e20:	eb000326 	bl	9ac0 <send_greetz>
    8e24:	e50b0008 	str	r0, [fp, #-8]
    8e28:	e51b3008 	ldr	r3, [fp, #-8]
    8e2c:	e3730001 	cmn	r3, #1
    8e30:	1a000002 	bne	8e40 <ff+0x44>
    8e34:	e3e03000 	mvn	r3, #0
    8e38:	ea000018 	b	8ea0 <ff+0xa4>
    8e3c:	e1a00000 	nop			; (mov r0, r0)
    8e40:	e24b2010 	sub	r2, fp, #16
    8e44:	e24b3014 	sub	r3, fp, #20
    8e48:	e51b0018 	ldr	r0, [fp, #-24]
    8e4c:	e1a01002 	mov	r1, r2
    8e50:	e1a02003 	mov	r2, r3
    8e54:	eb00034c 	bl	9b8c <get_meta>
    8e58:	e50b000c 	str	r0, [fp, #-12]
    8e5c:	e51b300c 	ldr	r3, [fp, #-12]
    8e60:	e3530000 	cmp	r3, #0
    8e64:	1a000001 	bne	8e70 <ff+0x74>
    8e68:	e3a03000 	mov	r3, #0
    8e6c:	ea00000b 	b	8ea0 <ff+0xa4>
    8e70:	e51b2010 	ldr	r2, [fp, #-16]
    8e74:	e51b3014 	ldr	r3, [fp, #-20]
    8e78:	e51b0018 	ldr	r0, [fp, #-24]
    8e7c:	e51b100c 	ldr	r1, [fp, #-12]
    8e80:	eb000009 	bl	8eac <handle_checks>
    8e84:	e1a03000 	mov	r3, r0
    8e88:	e3530000 	cmp	r3, #0
    8e8c:	1affffea 	bne	8e3c <ff+0x40>
    8e90:	e1a00000 	nop			; (mov r0, r0)
    8e94:	e51b0018 	ldr	r0, [fp, #-24]
    8e98:	ebffff9f 	bl	8d1c <_init+0x218>
    8e9c:	e3a03001 	mov	r3, #1
    8ea0:	e1a00003 	mov	r0, r3
    8ea4:	e24bd004 	sub	sp, fp, #4
    8ea8:	e8bd8800 	pop	{fp, pc}

00008eac <handle_checks>:
    8eac:	e92d4800 	push	{fp, lr}
    8eb0:	e28db004 	add	fp, sp, #4
    8eb4:	e24dde45 	sub	sp, sp, #1104	; 0x450
    8eb8:	e24dd008 	sub	sp, sp, #8
    8ebc:	e50b0450 	str	r0, [fp, #-1104]	; 0x450
    8ec0:	e50b1454 	str	r1, [fp, #-1108]	; 0x454
    8ec4:	e50b2458 	str	r2, [fp, #-1112]	; 0x458
    8ec8:	e50b345c 	str	r3, [fp, #-1116]	; 0x45c
    8ecc:	e24b3d11 	sub	r3, fp, #1088	; 0x440
    8ed0:	e2433004 	sub	r3, r3, #4
    8ed4:	e1a02003 	mov	r2, r3
    8ed8:	e3a03b01 	mov	r3, #1024	; 0x400
    8edc:	e1a00002 	mov	r0, r2
    8ee0:	e3a01000 	mov	r1, #0
    8ee4:	e1a02003 	mov	r2, r3
    8ee8:	ebffff6a 	bl	8c98 <_init+0x194>
    8eec:	e24b3044 	sub	r3, fp, #68	; 0x44
    8ef0:	e1a02003 	mov	r2, r3
    8ef4:	e3a03040 	mov	r3, #64	; 0x40
    8ef8:	e1a00002 	mov	r0, r2
    8efc:	e3a01000 	mov	r1, #0
    8f00:	e1a02003 	mov	r2, r3
    8f04:	ebffff63 	bl	8c98 <_init+0x194>
    8f08:	e3a03000 	mov	r3, #0
    8f0c:	e50b3448 	str	r3, [fp, #-1096]	; 0x448
    8f10:	e59f3ba0 	ldr	r3, [pc, #2976]	; 9ab8 <handle_checks+0xc0c>
    8f14:	e1a00003 	mov	r0, r3
    8f18:	e51b1454 	ldr	r1, [fp, #-1108]	; 0x454
    8f1c:	e51b2458 	ldr	r2, [fp, #-1112]	; 0x458
    8f20:	e51b345c 	ldr	r3, [fp, #-1116]	; 0x45c
    8f24:	ebffff0a 	bl	8b54 <_init+0x50>
    8f28:	e24b3d11 	sub	r3, fp, #1088	; 0x440
    8f2c:	e2433004 	sub	r3, r3, #4
    8f30:	e51b0450 	ldr	r0, [fp, #-1104]	; 0x450
    8f34:	e1a01003 	mov	r1, r3
    8f38:	e51b2454 	ldr	r2, [fp, #-1108]	; 0x454
    8f3c:	eb005330 	bl	1dc04 <recvdata>
    8f40:	e1a03000 	mov	r3, r0
    8f44:	e3730001 	cmn	r3, #1
    8f48:	1a000001 	bne	8f54 <handle_checks+0xa8>
    8f4c:	e3a03000 	mov	r3, #0
    8f50:	ea0002d5 	b	9aac <handle_checks+0xc00>
    8f54:	e51b3458 	ldr	r3, [fp, #-1112]	; 0x458
    8f58:	e203303f 	and	r3, r3, #63	; 0x3f
    8f5c:	e353003f 	cmp	r3, #63	; 0x3f
    8f60:	979ff103 	ldrls	pc, [pc, r3, lsl #2]
    8f64:	ea0002b7 	b	9a48 <handle_checks+0xb9c>
    8f68:	00009068 	.word	0x00009068
    8f6c:	00009094 	.word	0x00009094
    8f70:	000090c0 	.word	0x000090c0
    8f74:	000090ec 	.word	0x000090ec
    8f78:	00009118 	.word	0x00009118
    8f7c:	00009144 	.word	0x00009144
    8f80:	00009170 	.word	0x00009170
    8f84:	0000919c 	.word	0x0000919c
    8f88:	000091c8 	.word	0x000091c8
    8f8c:	000091f4 	.word	0x000091f4
    8f90:	00009220 	.word	0x00009220
    8f94:	0000924c 	.word	0x0000924c
    8f98:	00009278 	.word	0x00009278
    8f9c:	000092a4 	.word	0x000092a4
    8fa0:	000092d0 	.word	0x000092d0
    8fa4:	000092fc 	.word	0x000092fc
    8fa8:	00009328 	.word	0x00009328
    8fac:	00009354 	.word	0x00009354
    8fb0:	00009380 	.word	0x00009380
    8fb4:	000093ac 	.word	0x000093ac
    8fb8:	000093d8 	.word	0x000093d8
    8fbc:	00009404 	.word	0x00009404
    8fc0:	00009430 	.word	0x00009430
    8fc4:	0000945c 	.word	0x0000945c
    8fc8:	00009488 	.word	0x00009488
    8fcc:	000094b4 	.word	0x000094b4
    8fd0:	000094e0 	.word	0x000094e0
    8fd4:	000094ec 	.word	0x000094ec
    8fd8:	00009518 	.word	0x00009518
    8fdc:	00009544 	.word	0x00009544
    8fe0:	00009570 	.word	0x00009570
    8fe4:	0000959c 	.word	0x0000959c
    8fe8:	000095c8 	.word	0x000095c8
    8fec:	000095f4 	.word	0x000095f4
    8ff0:	00009620 	.word	0x00009620
    8ff4:	0000964c 	.word	0x0000964c
    8ff8:	00009678 	.word	0x00009678
    8ffc:	000096a4 	.word	0x000096a4
    9000:	000096d0 	.word	0x000096d0
    9004:	000096fc 	.word	0x000096fc
    9008:	00009728 	.word	0x00009728
    900c:	00009754 	.word	0x00009754
    9010:	00009780 	.word	0x00009780
    9014:	000097ac 	.word	0x000097ac
    9018:	000097d8 	.word	0x000097d8
    901c:	00009804 	.word	0x00009804
    9020:	00009830 	.word	0x00009830
    9024:	0000985c 	.word	0x0000985c
    9028:	00009888 	.word	0x00009888
    902c:	000098b4 	.word	0x000098b4
    9030:	000098e0 	.word	0x000098e0
    9034:	0000990c 	.word	0x0000990c
    9038:	00009938 	.word	0x00009938
    903c:	00009964 	.word	0x00009964
    9040:	00009990 	.word	0x00009990
    9044:	000099bc 	.word	0x000099bc
    9048:	000099e8 	.word	0x000099e8
    904c:	000099f4 	.word	0x000099f4
    9050:	00009a00 	.word	0x00009a00
    9054:	00009a0c 	.word	0x00009a0c
    9058:	00009a18 	.word	0x00009a18
    905c:	00009a24 	.word	0x00009a24
    9060:	00009a30 	.word	0x00009a30
    9064:	00009a3c 	.word	0x00009a3c
    9068:	e51b2454 	ldr	r2, [fp, #-1108]	; 0x454
    906c:	e24b1d11 	sub	r1, fp, #1088	; 0x440
    9070:	e2411004 	sub	r1, r1, #4
    9074:	e24b3044 	sub	r3, fp, #68	; 0x44
    9078:	e1a00001 	mov	r0, r1
    907c:	e1a01002 	mov	r1, r2
    9080:	e1a02003 	mov	r2, r3
    9084:	eb00048d 	bl	a2c0 <md2>
    9088:	e3a03010 	mov	r3, #16
    908c:	e50b3448 	str	r3, [fp, #-1096]	; 0x448
    9090:	ea00026c 	b	9a48 <handle_checks+0xb9c>
    9094:	e51b2454 	ldr	r2, [fp, #-1108]	; 0x454
    9098:	e24b1d11 	sub	r1, fp, #1088	; 0x440
    909c:	e2411004 	sub	r1, r1, #4
    90a0:	e24b3044 	sub	r3, fp, #68	; 0x44
    90a4:	e1a00001 	mov	r0, r1
    90a8:	e1a01002 	mov	r1, r2
    90ac:	e1a02003 	mov	r2, r3
    90b0:	eb000b7e 	bl	beb0 <md4>
    90b4:	e3a03010 	mov	r3, #16
    90b8:	e50b3448 	str	r3, [fp, #-1096]	; 0x448
    90bc:	ea000261 	b	9a48 <handle_checks+0xb9c>
    90c0:	e51b2454 	ldr	r2, [fp, #-1108]	; 0x454
    90c4:	e24b1d11 	sub	r1, fp, #1088	; 0x440
    90c8:	e2411004 	sub	r1, r1, #4
    90cc:	e24b3044 	sub	r3, fp, #68	; 0x44
    90d0:	e1a00001 	mov	r0, r1
    90d4:	e1a01002 	mov	r1, r2
    90d8:	e1a02003 	mov	r2, r3
    90dc:	eb0012ff 	bl	dce0 <md5>
    90e0:	e3a03010 	mov	r3, #16
    90e4:	e50b3448 	str	r3, [fp, #-1096]	; 0x448
    90e8:	ea000256 	b	9a48 <handle_checks+0xb9c>
    90ec:	e51b2454 	ldr	r2, [fp, #-1108]	; 0x454
    90f0:	e24b1d11 	sub	r1, fp, #1088	; 0x440
    90f4:	e2411004 	sub	r1, r1, #4
    90f8:	e24b3044 	sub	r3, fp, #68	; 0x44
    90fc:	e1a00001 	mov	r0, r1
    9100:	e1a01002 	mov	r1, r2
    9104:	e1a02003 	mov	r2, r3
    9108:	eb00130f 	bl	dd4c <crc16_ccitt>
    910c:	e3a03002 	mov	r3, #2
    9110:	e50b3448 	str	r3, [fp, #-1096]	; 0x448
    9114:	ea00024b 	b	9a48 <handle_checks+0xb9c>
    9118:	e51b2454 	ldr	r2, [fp, #-1108]	; 0x454
    911c:	e24b1d11 	sub	r1, fp, #1088	; 0x440
    9120:	e2411004 	sub	r1, r1, #4
    9124:	e24b3044 	sub	r3, fp, #68	; 0x44
    9128:	e1a00001 	mov	r0, r1
    912c:	e1a01002 	mov	r1, r2
    9130:	e1a02003 	mov	r2, r3
    9134:	eb001339 	bl	de20 <crc32>
    9138:	e3a03004 	mov	r3, #4
    913c:	e50b3448 	str	r3, [fp, #-1096]	; 0x448
    9140:	ea000240 	b	9a48 <handle_checks+0xb9c>
    9144:	e51b2454 	ldr	r2, [fp, #-1108]	; 0x454
    9148:	e24b1d11 	sub	r1, fp, #1088	; 0x440
    914c:	e2411004 	sub	r1, r1, #4
    9150:	e24b3044 	sub	r3, fp, #68	; 0x44
    9154:	e1a00001 	mov	r0, r1
    9158:	e1a01002 	mov	r1, r2
    915c:	e1a02003 	mov	r2, r3
    9160:	eb001361 	bl	deec <sum8>
    9164:	e3a03001 	mov	r3, #1
    9168:	e50b3448 	str	r3, [fp, #-1096]	; 0x448
    916c:	ea000235 	b	9a48 <handle_checks+0xb9c>
    9170:	e51b2454 	ldr	r2, [fp, #-1108]	; 0x454
    9174:	e24b1d11 	sub	r1, fp, #1088	; 0x440
    9178:	e2411004 	sub	r1, r1, #4
    917c:	e24b3044 	sub	r3, fp, #68	; 0x44
    9180:	e1a00001 	mov	r0, r1
    9184:	e1a01002 	mov	r1, r2
    9188:	e1a02003 	mov	r2, r3
    918c:	eb001377 	bl	df70 <sum16>
    9190:	e3a03002 	mov	r3, #2
    9194:	e50b3448 	str	r3, [fp, #-1096]	; 0x448
    9198:	ea00022a 	b	9a48 <handle_checks+0xb9c>
    919c:	e51b2454 	ldr	r2, [fp, #-1108]	; 0x454
    91a0:	e24b1d11 	sub	r1, fp, #1088	; 0x440
    91a4:	e2411004 	sub	r1, r1, #4
    91a8:	e24b3044 	sub	r3, fp, #68	; 0x44
    91ac:	e1a00001 	mov	r0, r1
    91b0:	e1a01002 	mov	r1, r2
    91b4:	e1a02003 	mov	r2, r3
    91b8:	eb001399 	bl	e024 <sum32>
    91bc:	e3a03004 	mov	r3, #4
    91c0:	e50b3448 	str	r3, [fp, #-1096]	; 0x448
    91c4:	ea00021f 	b	9a48 <handle_checks+0xb9c>
    91c8:	e51b2454 	ldr	r2, [fp, #-1108]	; 0x454
    91cc:	e24b1d11 	sub	r1, fp, #1088	; 0x440
    91d0:	e2411004 	sub	r1, r1, #4
    91d4:	e24b3044 	sub	r3, fp, #68	; 0x44
    91d8:	e1a00001 	mov	r0, r1
    91dc:	e1a01002 	mov	r1, r2
    91e0:	e1a02003 	mov	r2, r3
    91e4:	eb004e51 	bl	1cb30 <mul8>
    91e8:	e3a03001 	mov	r3, #1
    91ec:	e50b3448 	str	r3, [fp, #-1096]	; 0x448
    91f0:	ea000214 	b	9a48 <handle_checks+0xb9c>
    91f4:	e51b2454 	ldr	r2, [fp, #-1108]	; 0x454
    91f8:	e24b1d11 	sub	r1, fp, #1088	; 0x440
    91fc:	e2411004 	sub	r1, r1, #4
    9200:	e24b3044 	sub	r3, fp, #68	; 0x44
    9204:	e1a00001 	mov	r0, r1
    9208:	e1a01002 	mov	r1, r2
    920c:	e1a02003 	mov	r2, r3
    9210:	eb004e67 	bl	1cbb4 <mul16>
    9214:	e3a03002 	mov	r3, #2
    9218:	e50b3448 	str	r3, [fp, #-1096]	; 0x448
    921c:	ea000209 	b	9a48 <handle_checks+0xb9c>
    9220:	e51b2454 	ldr	r2, [fp, #-1108]	; 0x454
    9224:	e24b1d11 	sub	r1, fp, #1088	; 0x440
    9228:	e2411004 	sub	r1, r1, #4
    922c:	e24b3044 	sub	r3, fp, #68	; 0x44
    9230:	e1a00001 	mov	r0, r1
    9234:	e1a01002 	mov	r1, r2
    9238:	e1a02003 	mov	r2, r3
    923c:	eb004e89 	bl	1cc68 <mul32>
    9240:	e3a03004 	mov	r3, #4
    9244:	e50b3448 	str	r3, [fp, #-1096]	; 0x448
    9248:	ea0001fe 	b	9a48 <handle_checks+0xb9c>
    924c:	e51b2454 	ldr	r2, [fp, #-1108]	; 0x454
    9250:	e24b1d11 	sub	r1, fp, #1088	; 0x440
    9254:	e2411004 	sub	r1, r1, #4
    9258:	e24b3044 	sub	r3, fp, #68	; 0x44
    925c:	e1a00001 	mov	r0, r1
    9260:	e1a01002 	mov	r1, r2
    9264:	e1a02003 	mov	r2, r3
    9268:	eb004f35 	bl	1cf44 <div8>
    926c:	e3a03001 	mov	r3, #1
    9270:	e50b3448 	str	r3, [fp, #-1096]	; 0x448
    9274:	ea0001f3 	b	9a48 <handle_checks+0xb9c>
    9278:	e51b2454 	ldr	r2, [fp, #-1108]	; 0x454
    927c:	e24b1d11 	sub	r1, fp, #1088	; 0x440
    9280:	e2411004 	sub	r1, r1, #4
    9284:	e24b3044 	sub	r3, fp, #68	; 0x44
    9288:	e1a00001 	mov	r0, r1
    928c:	e1a01002 	mov	r1, r2
    9290:	e1a02003 	mov	r2, r3
    9294:	eb004f50 	bl	1cfdc <div16>
    9298:	e3a03002 	mov	r3, #2
    929c:	e50b3448 	str	r3, [fp, #-1096]	; 0x448
    92a0:	ea0001e8 	b	9a48 <handle_checks+0xb9c>
    92a4:	e51b2454 	ldr	r2, [fp, #-1108]	; 0x454
    92a8:	e24b1d11 	sub	r1, fp, #1088	; 0x440
    92ac:	e2411004 	sub	r1, r1, #4
    92b0:	e24b3044 	sub	r3, fp, #68	; 0x44
    92b4:	e1a00001 	mov	r0, r1
    92b8:	e1a01002 	mov	r1, r2
    92bc:	e1a02003 	mov	r2, r3
    92c0:	eb004f79 	bl	1d0ac <div32>
    92c4:	e3a03004 	mov	r3, #4
    92c8:	e50b3448 	str	r3, [fp, #-1096]	; 0x448
    92cc:	ea0001dd 	b	9a48 <handle_checks+0xb9c>
    92d0:	e51b2454 	ldr	r2, [fp, #-1108]	; 0x454
    92d4:	e24b1d11 	sub	r1, fp, #1088	; 0x440
    92d8:	e2411004 	sub	r1, r1, #4
    92dc:	e24b3044 	sub	r3, fp, #68	; 0x44
    92e0:	e1a00001 	mov	r0, r1
    92e4:	e1a01002 	mov	r1, r2
    92e8:	e1a02003 	mov	r2, r3
    92ec:	eb004664 	bl	1ac84 <sub8>
    92f0:	e3a03001 	mov	r3, #1
    92f4:	e50b3448 	str	r3, [fp, #-1096]	; 0x448
    92f8:	ea0001d2 	b	9a48 <handle_checks+0xb9c>
    92fc:	e51b2454 	ldr	r2, [fp, #-1108]	; 0x454
    9300:	e24b1d11 	sub	r1, fp, #1088	; 0x440
    9304:	e2411004 	sub	r1, r1, #4
    9308:	e24b3044 	sub	r3, fp, #68	; 0x44
    930c:	e1a00001 	mov	r0, r1
    9310:	e1a01002 	mov	r1, r2
    9314:	e1a02003 	mov	r2, r3
    9318:	eb00467a 	bl	1ad08 <sub16>
    931c:	e3a03002 	mov	r3, #2
    9320:	e50b3448 	str	r3, [fp, #-1096]	; 0x448
    9324:	ea0001c7 	b	9a48 <handle_checks+0xb9c>
    9328:	e51b2454 	ldr	r2, [fp, #-1108]	; 0x454
    932c:	e24b1d11 	sub	r1, fp, #1088	; 0x440
    9330:	e2411004 	sub	r1, r1, #4
    9334:	e24b3044 	sub	r3, fp, #68	; 0x44
    9338:	e1a00001 	mov	r0, r1
    933c:	e1a01002 	mov	r1, r2
    9340:	e1a02003 	mov	r2, r3
    9344:	eb00469c 	bl	1adbc <sub32>
    9348:	e3a03004 	mov	r3, #4
    934c:	e50b3448 	str	r3, [fp, #-1096]	; 0x448
    9350:	ea0001bc 	b	9a48 <handle_checks+0xb9c>
    9354:	e51b2454 	ldr	r2, [fp, #-1108]	; 0x454
    9358:	e24b1d11 	sub	r1, fp, #1088	; 0x440
    935c:	e2411004 	sub	r1, r1, #4
    9360:	e24b3044 	sub	r3, fp, #68	; 0x44
    9364:	e1a00001 	mov	r0, r1
    9368:	e1a01002 	mov	r1, r2
    936c:	e1a02003 	mov	r2, r3
    9370:	eb004e67 	bl	1cd14 <mod8>
    9374:	e3a03001 	mov	r3, #1
    9378:	e50b3448 	str	r3, [fp, #-1096]	; 0x448
    937c:	ea0001b1 	b	9a48 <handle_checks+0xb9c>
    9380:	e51b2454 	ldr	r2, [fp, #-1108]	; 0x454
    9384:	e24b1d11 	sub	r1, fp, #1088	; 0x440
    9388:	e2411004 	sub	r1, r1, #4
    938c:	e24b3044 	sub	r3, fp, #68	; 0x44
    9390:	e1a00001 	mov	r0, r1
    9394:	e1a01002 	mov	r1, r2
    9398:	e1a02003 	mov	r2, r3
    939c:	eb004e82 	bl	1cdac <mod16>
    93a0:	e3a03002 	mov	r3, #2
    93a4:	e50b3448 	str	r3, [fp, #-1096]	; 0x448
    93a8:	ea0001a6 	b	9a48 <handle_checks+0xb9c>
    93ac:	e51b2454 	ldr	r2, [fp, #-1108]	; 0x454
    93b0:	e24b1d11 	sub	r1, fp, #1088	; 0x440
    93b4:	e2411004 	sub	r1, r1, #4
    93b8:	e24b3044 	sub	r3, fp, #68	; 0x44
    93bc:	e1a00001 	mov	r0, r1
    93c0:	e1a01002 	mov	r1, r2
    93c4:	e1a02003 	mov	r2, r3
    93c8:	eb004eab 	bl	1ce7c <mod32>
    93cc:	e3a03004 	mov	r3, #4
    93d0:	e50b3448 	str	r3, [fp, #-1096]	; 0x448
    93d4:	ea00019b 	b	9a48 <handle_checks+0xb9c>
    93d8:	e51b2454 	ldr	r2, [fp, #-1108]	; 0x454
    93dc:	e24b1d11 	sub	r1, fp, #1088	; 0x440
    93e0:	e2411004 	sub	r1, r1, #4
    93e4:	e24b3044 	sub	r3, fp, #68	; 0x44
    93e8:	e1a00001 	mov	r0, r1
    93ec:	e1a01002 	mov	r1, r2
    93f0:	e1a02003 	mov	r2, r3
    93f4:	eb004f5f 	bl	1d178 <cos128>
    93f8:	e3a03010 	mov	r3, #16
    93fc:	e50b3448 	str	r3, [fp, #-1096]	; 0x448
    9400:	ea000190 	b	9a48 <handle_checks+0xb9c>
    9404:	e51b2454 	ldr	r2, [fp, #-1108]	; 0x454
    9408:	e24b1d11 	sub	r1, fp, #1088	; 0x440
    940c:	e2411004 	sub	r1, r1, #4
    9410:	e24b3044 	sub	r3, fp, #68	; 0x44
    9414:	e1a00001 	mov	r0, r1
    9418:	e1a01002 	mov	r1, r2
    941c:	e1a02003 	mov	r2, r3
    9420:	eb004f84 	bl	1d238 <acos128>
    9424:	e3a03010 	mov	r3, #16
    9428:	e50b3448 	str	r3, [fp, #-1096]	; 0x448
    942c:	ea000185 	b	9a48 <handle_checks+0xb9c>
    9430:	e51b2454 	ldr	r2, [fp, #-1108]	; 0x454
    9434:	e24b1d11 	sub	r1, fp, #1088	; 0x440
    9438:	e2411004 	sub	r1, r1, #4
    943c:	e24b3044 	sub	r3, fp, #68	; 0x44
    9440:	e1a00001 	mov	r0, r1
    9444:	e1a01002 	mov	r1, r2
    9448:	e1a02003 	mov	r2, r3
    944c:	eb004fa9 	bl	1d2f8 <sin128>
    9450:	e3a03010 	mov	r3, #16
    9454:	e50b3448 	str	r3, [fp, #-1096]	; 0x448
    9458:	ea00017a 	b	9a48 <handle_checks+0xb9c>
    945c:	e51b2454 	ldr	r2, [fp, #-1108]	; 0x454
    9460:	e24b1d11 	sub	r1, fp, #1088	; 0x440
    9464:	e2411004 	sub	r1, r1, #4
    9468:	e24b3044 	sub	r3, fp, #68	; 0x44
    946c:	e1a00001 	mov	r0, r1
    9470:	e1a01002 	mov	r1, r2
    9474:	e1a02003 	mov	r2, r3
    9478:	eb004fce 	bl	1d3b8 <asin128>
    947c:	e3a03010 	mov	r3, #16
    9480:	e50b3448 	str	r3, [fp, #-1096]	; 0x448
    9484:	ea00016f 	b	9a48 <handle_checks+0xb9c>
    9488:	e51b2454 	ldr	r2, [fp, #-1108]	; 0x454
    948c:	e24b1d11 	sub	r1, fp, #1088	; 0x440
    9490:	e2411004 	sub	r1, r1, #4
    9494:	e24b3044 	sub	r3, fp, #68	; 0x44
    9498:	e1a00001 	mov	r0, r1
    949c:	e1a01002 	mov	r1, r2
    94a0:	e1a02003 	mov	r2, r3
    94a4:	eb004ff3 	bl	1d478 <tan128>
    94a8:	e3a03010 	mov	r3, #16
    94ac:	e50b3448 	str	r3, [fp, #-1096]	; 0x448
    94b0:	ea000164 	b	9a48 <handle_checks+0xb9c>
    94b4:	e51b2454 	ldr	r2, [fp, #-1108]	; 0x454
    94b8:	e24b1d11 	sub	r1, fp, #1088	; 0x440
    94bc:	e2411004 	sub	r1, r1, #4
    94c0:	e24b3044 	sub	r3, fp, #68	; 0x44
    94c4:	e1a00001 	mov	r0, r1
    94c8:	e1a01002 	mov	r1, r2
    94cc:	e1a02003 	mov	r2, r3
    94d0:	eb005018 	bl	1d538 <atan128>
    94d4:	e3a03010 	mov	r3, #16
    94d8:	e50b3448 	str	r3, [fp, #-1096]	; 0x448
    94dc:	ea000159 	b	9a48 <handle_checks+0xb9c>
    94e0:	e3a03000 	mov	r3, #0
    94e4:	e50b3448 	str	r3, [fp, #-1096]	; 0x448
    94e8:	ea000156 	b	9a48 <handle_checks+0xb9c>
    94ec:	e51b2454 	ldr	r2, [fp, #-1108]	; 0x454
    94f0:	e24b1d11 	sub	r1, fp, #1088	; 0x440
    94f4:	e2411004 	sub	r1, r1, #4
    94f8:	e24b3044 	sub	r3, fp, #68	; 0x44
    94fc:	e1a00001 	mov	r0, r1
    9500:	e1a01002 	mov	r1, r2
    9504:	e1a02003 	mov	r2, r3
    9508:	eb0012f0 	bl	e0d0 <fletcher16>
    950c:	e3a03002 	mov	r3, #2
    9510:	e50b3448 	str	r3, [fp, #-1096]	; 0x448
    9514:	ea00014b 	b	9a48 <handle_checks+0xb9c>
    9518:	e51b2454 	ldr	r2, [fp, #-1108]	; 0x454
    951c:	e24b1d11 	sub	r1, fp, #1088	; 0x440
    9520:	e2411004 	sub	r1, r1, #4
    9524:	e24b3044 	sub	r3, fp, #68	; 0x44
    9528:	e1a00001 	mov	r0, r1
    952c:	e1a01002 	mov	r1, r2
    9530:	e1a02003 	mov	r2, r3
    9534:	eb00132e 	bl	e1f4 <fletcher32>
    9538:	e3a03004 	mov	r3, #4
    953c:	e50b3448 	str	r3, [fp, #-1096]	; 0x448
    9540:	ea000140 	b	9a48 <handle_checks+0xb9c>
    9544:	e51b2454 	ldr	r2, [fp, #-1108]	; 0x454
    9548:	e24b1d11 	sub	r1, fp, #1088	; 0x440
    954c:	e2411004 	sub	r1, r1, #4
    9550:	e24b3044 	sub	r3, fp, #68	; 0x44
    9554:	e1a00001 	mov	r0, r1
    9558:	e1a01002 	mov	r1, r2
    955c:	e1a02003 	mov	r2, r3
    9560:	eb001403 	bl	e574 <adler8>
    9564:	e3a03001 	mov	r3, #1
    9568:	e50b3448 	str	r3, [fp, #-1096]	; 0x448
    956c:	ea000135 	b	9a48 <handle_checks+0xb9c>
    9570:	e51b2454 	ldr	r2, [fp, #-1108]	; 0x454
    9574:	e24b1d11 	sub	r1, fp, #1088	; 0x440
    9578:	e2411004 	sub	r1, r1, #4
    957c:	e24b3044 	sub	r3, fp, #68	; 0x44
    9580:	e1a00001 	mov	r0, r1
    9584:	e1a01002 	mov	r1, r2
    9588:	e1a02003 	mov	r2, r3
    958c:	eb0013bb 	bl	e480 <adler16>
    9590:	e3a03002 	mov	r3, #2
    9594:	e50b3448 	str	r3, [fp, #-1096]	; 0x448
    9598:	ea00012a 	b	9a48 <handle_checks+0xb9c>
    959c:	e51b2454 	ldr	r2, [fp, #-1108]	; 0x454
    95a0:	e24b1d11 	sub	r1, fp, #1088	; 0x440
    95a4:	e2411004 	sub	r1, r1, #4
    95a8:	e24b3044 	sub	r3, fp, #68	; 0x44
    95ac:	e1a00001 	mov	r0, r1
    95b0:	e1a01002 	mov	r1, r2
    95b4:	e1a02003 	mov	r2, r3
    95b8:	eb001373 	bl	e38c <adler32>
    95bc:	e3a03004 	mov	r3, #4
    95c0:	e50b3448 	str	r3, [fp, #-1096]	; 0x448
    95c4:	ea00011f 	b	9a48 <handle_checks+0xb9c>
    95c8:	e51b2454 	ldr	r2, [fp, #-1108]	; 0x454
    95cc:	e24b1d11 	sub	r1, fp, #1088	; 0x440
    95d0:	e2411004 	sub	r1, r1, #4
    95d4:	e24b3044 	sub	r3, fp, #68	; 0x44
    95d8:	e1a00001 	mov	r0, r1
    95dc:	e1a01002 	mov	r1, r2
    95e0:	e1a02003 	mov	r2, r3
    95e4:	eb00141a 	bl	e654 <aphash>
    95e8:	e3a03004 	mov	r3, #4
    95ec:	e50b3448 	str	r3, [fp, #-1096]	; 0x448
    95f0:	ea000114 	b	9a48 <handle_checks+0xb9c>
    95f4:	e51b2454 	ldr	r2, [fp, #-1108]	; 0x454
    95f8:	e24b1d11 	sub	r1, fp, #1088	; 0x440
    95fc:	e2411004 	sub	r1, r1, #4
    9600:	e24b3044 	sub	r3, fp, #68	; 0x44
    9604:	e1a00001 	mov	r0, r1
    9608:	e1a01002 	mov	r1, r2
    960c:	e1a02003 	mov	r2, r3
    9610:	eb00144c 	bl	e748 <rshash>
    9614:	e3a03004 	mov	r3, #4
    9618:	e50b3448 	str	r3, [fp, #-1096]	; 0x448
    961c:	ea000109 	b	9a48 <handle_checks+0xb9c>
    9620:	e51b2454 	ldr	r2, [fp, #-1108]	; 0x454
    9624:	e24b1d11 	sub	r1, fp, #1088	; 0x440
    9628:	e2411004 	sub	r1, r1, #4
    962c:	e24b3044 	sub	r3, fp, #68	; 0x44
    9630:	e1a00001 	mov	r0, r1
    9634:	e1a01002 	mov	r1, r2
    9638:	e1a02003 	mov	r2, r3
    963c:	eb001474 	bl	e814 <jshash>
    9640:	e3a03004 	mov	r3, #4
    9644:	e50b3448 	str	r3, [fp, #-1096]	; 0x448
    9648:	ea0000fe 	b	9a48 <handle_checks+0xb9c>
    964c:	e51b2454 	ldr	r2, [fp, #-1108]	; 0x454
    9650:	e24b1d11 	sub	r1, fp, #1088	; 0x440
    9654:	e2411004 	sub	r1, r1, #4
    9658:	e24b3044 	sub	r3, fp, #68	; 0x44
    965c:	e1a00001 	mov	r0, r1
    9660:	e1a01002 	mov	r1, r2
    9664:	e1a02003 	mov	r2, r3
    9668:	eb001497 	bl	e8cc <pjwhash>
    966c:	e3a03004 	mov	r3, #4
    9670:	e50b3448 	str	r3, [fp, #-1096]	; 0x448
    9674:	ea0000f3 	b	9a48 <handle_checks+0xb9c>
    9678:	e51b2454 	ldr	r2, [fp, #-1108]	; 0x454
    967c:	e24b1d11 	sub	r1, fp, #1088	; 0x440
    9680:	e2411004 	sub	r1, r1, #4
    9684:	e24b3044 	sub	r3, fp, #68	; 0x44
    9688:	e1a00001 	mov	r0, r1
    968c:	e1a01002 	mov	r1, r2
    9690:	e1a02003 	mov	r2, r3
    9694:	eb0014d8 	bl	e9fc <elfhash>
    9698:	e3a03004 	mov	r3, #4
    969c:	e50b3448 	str	r3, [fp, #-1096]	; 0x448
    96a0:	ea0000e8 	b	9a48 <handle_checks+0xb9c>
    96a4:	e51b2454 	ldr	r2, [fp, #-1108]	; 0x454
    96a8:	e24b1d11 	sub	r1, fp, #1088	; 0x440
    96ac:	e2411004 	sub	r1, r1, #4
    96b0:	e24b3044 	sub	r3, fp, #68	; 0x44
    96b4:	e1a00001 	mov	r0, r1
    96b8:	e1a01002 	mov	r1, r2
    96bc:	e1a02003 	mov	r2, r3
    96c0:	eb001507 	bl	eae4 <bkdrhash>
    96c4:	e3a03004 	mov	r3, #4
    96c8:	e50b3448 	str	r3, [fp, #-1096]	; 0x448
    96cc:	ea0000dd 	b	9a48 <handle_checks+0xb9c>
    96d0:	e51b2454 	ldr	r2, [fp, #-1108]	; 0x454
    96d4:	e24b1d11 	sub	r1, fp, #1088	; 0x440
    96d8:	e2411004 	sub	r1, r1, #4
    96dc:	e24b3044 	sub	r3, fp, #68	; 0x44
    96e0:	e1a00001 	mov	r0, r1
    96e4:	e1a01002 	mov	r1, r2
    96e8:	e1a02003 	mov	r2, r3
    96ec:	eb001527 	bl	eb90 <sdbmhash>
    96f0:	e3a03004 	mov	r3, #4
    96f4:	e50b3448 	str	r3, [fp, #-1096]	; 0x448
    96f8:	ea0000d2 	b	9a48 <handle_checks+0xb9c>
    96fc:	e51b2454 	ldr	r2, [fp, #-1108]	; 0x454
    9700:	e24b1d11 	sub	r1, fp, #1088	; 0x440
    9704:	e2411004 	sub	r1, r1, #4
    9708:	e24b3044 	sub	r3, fp, #68	; 0x44
    970c:	e1a00001 	mov	r0, r1
    9710:	e1a01002 	mov	r1, r2
    9714:	e1a02003 	mov	r2, r3
    9718:	eb00154a 	bl	ec48 <djbhash>
    971c:	e3a03004 	mov	r3, #4
    9720:	e50b3448 	str	r3, [fp, #-1096]	; 0x448
    9724:	ea0000c7 	b	9a48 <handle_checks+0xb9c>
    9728:	e51b2454 	ldr	r2, [fp, #-1108]	; 0x454
    972c:	e24b1d11 	sub	r1, fp, #1088	; 0x440
    9730:	e2411004 	sub	r1, r1, #4
    9734:	e24b3044 	sub	r3, fp, #68	; 0x44
    9738:	e1a00001 	mov	r0, r1
    973c:	e1a01002 	mov	r1, r2
    9740:	e1a02003 	mov	r2, r3
    9744:	eb00156a 	bl	ecf4 <dekhash>
    9748:	e3a03004 	mov	r3, #4
    974c:	e50b3448 	str	r3, [fp, #-1096]	; 0x448
    9750:	ea0000bc 	b	9a48 <handle_checks+0xb9c>
    9754:	e51b2454 	ldr	r2, [fp, #-1108]	; 0x454
    9758:	e24b1d11 	sub	r1, fp, #1088	; 0x440
    975c:	e2411004 	sub	r1, r1, #4
    9760:	e24b3044 	sub	r3, fp, #68	; 0x44
    9764:	e1a00001 	mov	r0, r1
    9768:	e1a01002 	mov	r1, r2
    976c:	e1a02003 	mov	r2, r3
    9770:	eb001587 	bl	ed94 <bphash>
    9774:	e3a03004 	mov	r3, #4
    9778:	e50b3448 	str	r3, [fp, #-1096]	; 0x448
    977c:	ea0000b1 	b	9a48 <handle_checks+0xb9c>
    9780:	e51b2454 	ldr	r2, [fp, #-1108]	; 0x454
    9784:	e24b1d11 	sub	r1, fp, #1088	; 0x440
    9788:	e2411004 	sub	r1, r1, #4
    978c:	e24b3044 	sub	r3, fp, #68	; 0x44
    9790:	e1a00001 	mov	r0, r1
    9794:	e1a01002 	mov	r1, r2
    9798:	e1a02003 	mov	r2, r3
    979c:	eb0015a4 	bl	ee34 <fnvhash>
    97a0:	e3a03004 	mov	r3, #4
    97a4:	e50b3448 	str	r3, [fp, #-1096]	; 0x448
    97a8:	ea0000a6 	b	9a48 <handle_checks+0xb9c>
    97ac:	e51b2454 	ldr	r2, [fp, #-1108]	; 0x454
    97b0:	e24b1d11 	sub	r1, fp, #1088	; 0x440
    97b4:	e2411004 	sub	r1, r1, #4
    97b8:	e24b3044 	sub	r3, fp, #68	; 0x44
    97bc:	e1a00001 	mov	r0, r1
    97c0:	e1a01002 	mov	r1, r2
    97c4:	e1a02003 	mov	r2, r3
    97c8:	eb0015c8 	bl	eef0 <xor8>
    97cc:	e3a03001 	mov	r3, #1
    97d0:	e50b3448 	str	r3, [fp, #-1096]	; 0x448
    97d4:	ea00009b 	b	9a48 <handle_checks+0xb9c>
    97d8:	e51b2454 	ldr	r2, [fp, #-1108]	; 0x454
    97dc:	e24b1d11 	sub	r1, fp, #1088	; 0x440
    97e0:	e2411004 	sub	r1, r1, #4
    97e4:	e24b3044 	sub	r3, fp, #68	; 0x44
    97e8:	e1a00001 	mov	r0, r1
    97ec:	e1a01002 	mov	r1, r2
    97f0:	e1a02003 	mov	r2, r3
    97f4:	eb0015de 	bl	ef74 <xor16>
    97f8:	e3a03002 	mov	r3, #2
    97fc:	e50b3448 	str	r3, [fp, #-1096]	; 0x448
    9800:	ea000090 	b	9a48 <handle_checks+0xb9c>
    9804:	e51b2454 	ldr	r2, [fp, #-1108]	; 0x454
    9808:	e24b1d11 	sub	r1, fp, #1088	; 0x440
    980c:	e2411004 	sub	r1, r1, #4
    9810:	e24b3044 	sub	r3, fp, #68	; 0x44
    9814:	e1a00001 	mov	r0, r1
    9818:	e1a01002 	mov	r1, r2
    981c:	e1a02003 	mov	r2, r3
    9820:	eb0015f9 	bl	f00c <xor32>
    9824:	e3a03004 	mov	r3, #4
    9828:	e50b3448 	str	r3, [fp, #-1096]	; 0x448
    982c:	ea000085 	b	9a48 <handle_checks+0xb9c>
    9830:	e51b2454 	ldr	r2, [fp, #-1108]	; 0x454
    9834:	e24b1d11 	sub	r1, fp, #1088	; 0x440
    9838:	e2411004 	sub	r1, r1, #4
    983c:	e24b3044 	sub	r3, fp, #68	; 0x44
    9840:	e1a00001 	mov	r0, r1
    9844:	e1a01002 	mov	r1, r2
    9848:	e1a02003 	mov	r2, r3
    984c:	eb0021aa 	bl	11efc <sha1>
    9850:	e3a03014 	mov	r3, #20
    9854:	e50b3448 	str	r3, [fp, #-1096]	; 0x448
    9858:	ea00007a 	b	9a48 <handle_checks+0xb9c>
    985c:	e51b2454 	ldr	r2, [fp, #-1108]	; 0x454
    9860:	e24b1d11 	sub	r1, fp, #1088	; 0x440
    9864:	e2411004 	sub	r1, r1, #4
    9868:	e24b3044 	sub	r3, fp, #68	; 0x44
    986c:	e1a00001 	mov	r0, r1
    9870:	e1a01002 	mov	r1, r2
    9874:	e1a02003 	mov	r2, r3
    9878:	eb003616 	bl	170d8 <sha224>
    987c:	e3a03020 	mov	r3, #32
    9880:	e50b3448 	str	r3, [fp, #-1096]	; 0x448
    9884:	ea00006f 	b	9a48 <handle_checks+0xb9c>
    9888:	e51b2454 	ldr	r2, [fp, #-1108]	; 0x454
    988c:	e24b1d11 	sub	r1, fp, #1088	; 0x440
    9890:	e2411004 	sub	r1, r1, #4
    9894:	e24b3044 	sub	r3, fp, #68	; 0x44
    9898:	e1a00001 	mov	r0, r1
    989c:	e1a01002 	mov	r1, r2
    98a0:	e1a02003 	mov	r2, r3
    98a4:	eb003618 	bl	1710c <sha256>
    98a8:	e3a03020 	mov	r3, #32
    98ac:	e50b3448 	str	r3, [fp, #-1096]	; 0x448
    98b0:	ea000064 	b	9a48 <handle_checks+0xb9c>
    98b4:	e51b2454 	ldr	r2, [fp, #-1108]	; 0x454
    98b8:	e24b1d11 	sub	r1, fp, #1088	; 0x440
    98bc:	e2411004 	sub	r1, r1, #4
    98c0:	e24b3044 	sub	r3, fp, #68	; 0x44
    98c4:	e1a00001 	mov	r0, r1
    98c8:	e1a01002 	mov	r1, r2
    98cc:	e1a02003 	mov	r2, r3
    98d0:	eb00411c 	bl	19d48 <sha384>
    98d4:	e3a03040 	mov	r3, #64	; 0x40
    98d8:	e50b3448 	str	r3, [fp, #-1096]	; 0x448
    98dc:	ea000059 	b	9a48 <handle_checks+0xb9c>
    98e0:	e51b2454 	ldr	r2, [fp, #-1108]	; 0x454
    98e4:	e24b1d11 	sub	r1, fp, #1088	; 0x440
    98e8:	e2411004 	sub	r1, r1, #4
    98ec:	e24b3044 	sub	r3, fp, #68	; 0x44
    98f0:	e1a00001 	mov	r0, r1
    98f4:	e1a01002 	mov	r1, r2
    98f8:	e1a02003 	mov	r2, r3
    98fc:	eb00411e 	bl	19d7c <sha512>
    9900:	e3a03040 	mov	r3, #64	; 0x40
    9904:	e50b3448 	str	r3, [fp, #-1096]	; 0x448
    9908:	ea00004e 	b	9a48 <handle_checks+0xb9c>
    990c:	e51b2454 	ldr	r2, [fp, #-1108]	; 0x454
    9910:	e24b1d11 	sub	r1, fp, #1088	; 0x440
    9914:	e2411004 	sub	r1, r1, #4
    9918:	e24b3044 	sub	r3, fp, #68	; 0x44
    991c:	e1a00001 	mov	r0, r1
    9920:	e1a01002 	mov	r1, r2
    9924:	e1a02003 	mov	r2, r3
    9928:	eb00454e 	bl	1ae68 <murmurhash2>
    992c:	e3a03004 	mov	r3, #4
    9930:	e50b3448 	str	r3, [fp, #-1096]	; 0x448
    9934:	ea000043 	b	9a48 <handle_checks+0xb9c>
    9938:	e51b2454 	ldr	r2, [fp, #-1108]	; 0x454
    993c:	e24b1d11 	sub	r1, fp, #1088	; 0x440
    9940:	e2411004 	sub	r1, r1, #4
    9944:	e24b3044 	sub	r3, fp, #68	; 0x44
    9948:	e1a00001 	mov	r0, r1
    994c:	e1a01002 	mov	r1, r2
    9950:	e1a02003 	mov	r2, r3
    9954:	eb004665 	bl	1b2f0 <murmurhash3_x86_32>
    9958:	e3a03004 	mov	r3, #4
    995c:	e50b3448 	str	r3, [fp, #-1096]	; 0x448
    9960:	ea000038 	b	9a48 <handle_checks+0xb9c>
    9964:	e51b2454 	ldr	r2, [fp, #-1108]	; 0x454
    9968:	e24b1d11 	sub	r1, fp, #1088	; 0x440
    996c:	e2411004 	sub	r1, r1, #4
    9970:	e24b3044 	sub	r3, fp, #68	; 0x44
    9974:	e1a00001 	mov	r0, r1
    9978:	e1a01002 	mov	r1, r2
    997c:	e1a02003 	mov	r2, r3
    9980:	eb004708 	bl	1b5a8 <murmurhash3_x86_128>
    9984:	e3a03004 	mov	r3, #4
    9988:	e50b3448 	str	r3, [fp, #-1096]	; 0x448
    998c:	ea00002d 	b	9a48 <handle_checks+0xb9c>
    9990:	e51b2454 	ldr	r2, [fp, #-1108]	; 0x454
    9994:	e24b1d11 	sub	r1, fp, #1088	; 0x440
    9998:	e2411004 	sub	r1, r1, #4
    999c:	e24b3044 	sub	r3, fp, #68	; 0x44
    99a0:	e1a00001 	mov	r0, r1
    99a4:	e1a01002 	mov	r1, r2
    99a8:	e1a02003 	mov	r2, r3
    99ac:	eb004984 	bl	1bfc4 <murmurhash3_x64_128>
    99b0:	e3a03010 	mov	r3, #16
    99b4:	e50b3448 	str	r3, [fp, #-1096]	; 0x448
    99b8:	ea000022 	b	9a48 <handle_checks+0xb9c>
    99bc:	e51b2454 	ldr	r2, [fp, #-1108]	; 0x454
    99c0:	e24b1d11 	sub	r1, fp, #1088	; 0x440
    99c4:	e2411004 	sub	r1, r1, #4
    99c8:	e24b3044 	sub	r3, fp, #68	; 0x44
    99cc:	e1a00001 	mov	r0, r1
    99d0:	e1a01002 	mov	r1, r2
    99d4:	e1a02003 	mov	r2, r3
    99d8:	eb004495 	bl	1ac34 <ed2k>
    99dc:	e3a03010 	mov	r3, #16
    99e0:	e50b3448 	str	r3, [fp, #-1096]	; 0x448
    99e4:	ea000017 	b	9a48 <handle_checks+0xb9c>
    99e8:	e3a03000 	mov	r3, #0
    99ec:	e50b3448 	str	r3, [fp, #-1096]	; 0x448
    99f0:	ea000014 	b	9a48 <handle_checks+0xb9c>
    99f4:	e3a03000 	mov	r3, #0
    99f8:	e50b3448 	str	r3, [fp, #-1096]	; 0x448
    99fc:	ea000011 	b	9a48 <handle_checks+0xb9c>
    9a00:	e3a03000 	mov	r3, #0
    9a04:	e50b3448 	str	r3, [fp, #-1096]	; 0x448
    9a08:	ea00000e 	b	9a48 <handle_checks+0xb9c>
    9a0c:	e3a03000 	mov	r3, #0
    9a10:	e50b3448 	str	r3, [fp, #-1096]	; 0x448
    9a14:	ea00000b 	b	9a48 <handle_checks+0xb9c>
    9a18:	e3a03000 	mov	r3, #0
    9a1c:	e50b3448 	str	r3, [fp, #-1096]	; 0x448
    9a20:	ea000008 	b	9a48 <handle_checks+0xb9c>
    9a24:	e3a03000 	mov	r3, #0
    9a28:	e50b3448 	str	r3, [fp, #-1096]	; 0x448
    9a2c:	ea000005 	b	9a48 <handle_checks+0xb9c>
    9a30:	e3a03000 	mov	r3, #0
    9a34:	e50b3448 	str	r3, [fp, #-1096]	; 0x448
    9a38:	ea000002 	b	9a48 <handle_checks+0xb9c>
    9a3c:	e3a03000 	mov	r3, #0
    9a40:	e50b3448 	str	r3, [fp, #-1096]	; 0x448
    9a44:	e1a00000 	nop			; (mov r0, r0)
    9a48:	e51b3448 	ldr	r3, [fp, #-1096]	; 0x448
    9a4c:	e24b2044 	sub	r2, fp, #68	; 0x44
    9a50:	e51b0450 	ldr	r0, [fp, #-1104]	; 0x450
    9a54:	e1a01002 	mov	r1, r2
    9a58:	e1a02003 	mov	r2, r3
    9a5c:	eb004fe6 	bl	1d9fc <send_data>
    9a60:	e51b0450 	ldr	r0, [fp, #-1104]	; 0x450
    9a64:	e59f1050 	ldr	r1, [pc, #80]	; 9abc <handle_checks+0xc10>
    9a68:	eb004fcb 	bl	1d99c <send_string>
    9a6c:	e24b3d11 	sub	r3, fp, #1088	; 0x440
    9a70:	e2433004 	sub	r3, r3, #4
    9a74:	e2433004 	sub	r3, r3, #4
    9a78:	e51b0450 	ldr	r0, [fp, #-1104]	; 0x450
    9a7c:	e1a01003 	mov	r1, r3
    9a80:	e3a02001 	mov	r2, #1
    9a84:	eb00505e 	bl	1dc04 <recvdata>
    9a88:	e51b3448 	ldr	r3, [fp, #-1096]	; 0x448
    9a8c:	e3530079 	cmp	r3, #121	; 0x79
    9a90:	0a000002 	beq	9aa0 <handle_checks+0xbf4>
    9a94:	e51b3448 	ldr	r3, [fp, #-1096]	; 0x448
    9a98:	e3530059 	cmp	r3, #89	; 0x59
    9a9c:	1a000001 	bne	9aa8 <handle_checks+0xbfc>
    9aa0:	e3a03001 	mov	r3, #1
    9aa4:	ea000000 	b	9aac <handle_checks+0xc00>
    9aa8:	e3a03000 	mov	r3, #0
    9aac:	e1a00003 	mov	r0, r3
    9ab0:	e24bd004 	sub	sp, fp, #4
    9ab4:	e8bd8800 	pop	{fp, pc}
    9ab8:	0001e404 	.word	0x0001e404
    9abc:	0001e410 	.word	0x0001e410

00009ac0 <send_greetz>:
    9ac0:	e92d4800 	push	{fp, lr}
    9ac4:	e28db004 	add	fp, sp, #4
    9ac8:	e24dd010 	sub	sp, sp, #16
    9acc:	e50b0010 	str	r0, [fp, #-16]
    9ad0:	e3a03000 	mov	r3, #0
    9ad4:	e50b300c 	str	r3, [fp, #-12]
    9ad8:	e3a03000 	mov	r3, #0
    9adc:	e50b3008 	str	r3, [fp, #-8]
    9ae0:	e51b0010 	ldr	r0, [fp, #-16]
    9ae4:	e59f1098 	ldr	r1, [pc, #152]	; 9b84 <send_greetz+0xc4>
    9ae8:	eb004fab 	bl	1d99c <send_string>
    9aec:	e1a03000 	mov	r3, r0
    9af0:	e3730001 	cmn	r3, #1
    9af4:	1a000001 	bne	9b00 <send_greetz+0x40>
    9af8:	e3e03000 	mvn	r3, #0
    9afc:	e50b3008 	str	r3, [fp, #-8]
    9b00:	e51b0010 	ldr	r0, [fp, #-16]
    9b04:	e59f107c 	ldr	r1, [pc, #124]	; 9b88 <send_greetz+0xc8>
    9b08:	eb004fa3 	bl	1d99c <send_string>
    9b0c:	e1a03000 	mov	r3, r0
    9b10:	e3730001 	cmn	r3, #1
    9b14:	1a000001 	bne	9b20 <send_greetz+0x60>
    9b18:	e3e03000 	mvn	r3, #0
    9b1c:	e50b3008 	str	r3, [fp, #-8]
    9b20:	e24b300c 	sub	r3, fp, #12
    9b24:	e51b0010 	ldr	r0, [fp, #-16]
    9b28:	e1a01003 	mov	r1, r3
    9b2c:	e3a02001 	mov	r2, #1
    9b30:	eb005033 	bl	1dc04 <recvdata>
    9b34:	e1a03000 	mov	r3, r0
    9b38:	e3730001 	cmn	r3, #1
    9b3c:	1a000001 	bne	9b48 <send_greetz+0x88>
    9b40:	e3e03000 	mvn	r3, #0
    9b44:	e50b3008 	str	r3, [fp, #-8]
    9b48:	e51b300c 	ldr	r3, [fp, #-12]
    9b4c:	e3530079 	cmp	r3, #121	; 0x79
    9b50:	0a000002 	beq	9b60 <send_greetz+0xa0>
    9b54:	e51b300c 	ldr	r3, [fp, #-12]
    9b58:	e3530059 	cmp	r3, #89	; 0x59
    9b5c:	1a000002 	bne	9b6c <send_greetz+0xac>
    9b60:	e3a03000 	mov	r3, #0
    9b64:	e50b3008 	str	r3, [fp, #-8]
    9b68:	ea000001 	b	9b74 <send_greetz+0xb4>
    9b6c:	e3e03000 	mvn	r3, #0
    9b70:	e50b3008 	str	r3, [fp, #-8]
    9b74:	e51b3008 	ldr	r3, [fp, #-8]
    9b78:	e1a00003 	mov	r0, r3
    9b7c:	e24bd004 	sub	sp, fp, #4
    9b80:	e8bd8800 	pop	{fp, pc}
    9b84:	0001e438 	.word	0x0001e438
    9b88:	0001e450 	.word	0x0001e450

00009b8c <get_meta>:
    9b8c:	e92d4800 	push	{fp, lr}
    9b90:	e28db004 	add	fp, sp, #4
    9b94:	e24dd020 	sub	sp, sp, #32
    9b98:	e50b0018 	str	r0, [fp, #-24]
    9b9c:	e50b101c 	str	r1, [fp, #-28]
    9ba0:	e50b2020 	str	r2, [fp, #-32]
    9ba4:	e51b301c 	ldr	r3, [fp, #-28]
    9ba8:	e3530000 	cmp	r3, #0
    9bac:	1a000001 	bne	9bb8 <get_meta+0x2c>
    9bb0:	e3a03000 	mov	r3, #0
    9bb4:	ea00016d 	b	a170 <get_meta+0x5e4>
    9bb8:	e51b3020 	ldr	r3, [fp, #-32]
    9bbc:	e3530000 	cmp	r3, #0
    9bc0:	1a000001 	bne	9bcc <get_meta+0x40>
    9bc4:	e3a03000 	mov	r3, #0
    9bc8:	ea000168 	b	a170 <get_meta+0x5e4>
    9bcc:	e24b300c 	sub	r3, fp, #12
    9bd0:	e51b0018 	ldr	r0, [fp, #-24]
    9bd4:	e1a01003 	mov	r1, r3
    9bd8:	e3a02001 	mov	r2, #1
    9bdc:	eb005008 	bl	1dc04 <recvdata>
    9be0:	e1a03000 	mov	r3, r0
    9be4:	e3730001 	cmn	r3, #1
    9be8:	1a000001 	bne	9bf4 <get_meta+0x68>
    9bec:	e3a03000 	mov	r3, #0
    9bf0:	ea00015e 	b	a170 <get_meta+0x5e4>
    9bf4:	e51b200c 	ldr	r2, [fp, #-12]
    9bf8:	e51b301c 	ldr	r3, [fp, #-28]
    9bfc:	e5832000 	str	r2, [r3]
    9c00:	e51b300c 	ldr	r3, [fp, #-12]
    9c04:	e203303f 	and	r3, r3, #63	; 0x3f
    9c08:	e353003f 	cmp	r3, #63	; 0x3f
    9c0c:	979ff103 	ldrls	pc, [pc, r3, lsl #2]
    9c10:	ea00013f 	b	a114 <get_meta+0x588>
    9c14:	00009d14 	.word	0x00009d14
    9c18:	00009d24 	.word	0x00009d24
    9c1c:	00009d34 	.word	0x00009d34
    9c20:	00009d44 	.word	0x00009d44
    9c24:	00009d54 	.word	0x00009d54
    9c28:	00009d64 	.word	0x00009d64
    9c2c:	00009d74 	.word	0x00009d74
    9c30:	00009d84 	.word	0x00009d84
    9c34:	00009d94 	.word	0x00009d94
    9c38:	00009da4 	.word	0x00009da4
    9c3c:	00009db4 	.word	0x00009db4
    9c40:	00009dc4 	.word	0x00009dc4
    9c44:	00009dd4 	.word	0x00009dd4
    9c48:	00009de4 	.word	0x00009de4
    9c4c:	00009df4 	.word	0x00009df4
    9c50:	00009e04 	.word	0x00009e04
    9c54:	00009e14 	.word	0x00009e14
    9c58:	00009e24 	.word	0x00009e24
    9c5c:	00009e34 	.word	0x00009e34
    9c60:	00009e44 	.word	0x00009e44
    9c64:	00009e54 	.word	0x00009e54
    9c68:	00009e64 	.word	0x00009e64
    9c6c:	00009e74 	.word	0x00009e74
    9c70:	00009e84 	.word	0x00009e84
    9c74:	00009e94 	.word	0x00009e94
    9c78:	00009ea4 	.word	0x00009ea4
    9c7c:	00009eb4 	.word	0x00009eb4
    9c80:	00009ec4 	.word	0x00009ec4
    9c84:	00009ed4 	.word	0x00009ed4
    9c88:	00009ee4 	.word	0x00009ee4
    9c8c:	00009ef4 	.word	0x00009ef4
    9c90:	00009f04 	.word	0x00009f04
    9c94:	00009f14 	.word	0x00009f14
    9c98:	00009f24 	.word	0x00009f24
    9c9c:	00009f34 	.word	0x00009f34
    9ca0:	00009f44 	.word	0x00009f44
    9ca4:	00009f54 	.word	0x00009f54
    9ca8:	00009f64 	.word	0x00009f64
    9cac:	00009f74 	.word	0x00009f74
    9cb0:	00009f84 	.word	0x00009f84
    9cb4:	00009f94 	.word	0x00009f94
    9cb8:	00009fa4 	.word	0x00009fa4
    9cbc:	00009fb4 	.word	0x00009fb4
    9cc0:	00009fc4 	.word	0x00009fc4
    9cc4:	00009fd4 	.word	0x00009fd4
    9cc8:	00009fe4 	.word	0x00009fe4
    9ccc:	00009ff4 	.word	0x00009ff4
    9cd0:	0000a004 	.word	0x0000a004
    9cd4:	0000a014 	.word	0x0000a014
    9cd8:	0000a024 	.word	0x0000a024
    9cdc:	0000a034 	.word	0x0000a034
    9ce0:	0000a044 	.word	0x0000a044
    9ce4:	0000a054 	.word	0x0000a054
    9ce8:	0000a064 	.word	0x0000a064
    9cec:	0000a074 	.word	0x0000a074
    9cf0:	0000a084 	.word	0x0000a084
    9cf4:	0000a094 	.word	0x0000a094
    9cf8:	0000a0a4 	.word	0x0000a0a4
    9cfc:	0000a0b4 	.word	0x0000a0b4
    9d00:	0000a0c4 	.word	0x0000a0c4
    9d04:	0000a0d4 	.word	0x0000a0d4
    9d08:	0000a0e4 	.word	0x0000a0e4
    9d0c:	0000a0f4 	.word	0x0000a0f4
    9d10:	0000a104 	.word	0x0000a104
    9d14:	e59f3460 	ldr	r3, [pc, #1120]	; a17c <get_meta+0x5f0>
    9d18:	e5933000 	ldr	r3, [r3]
    9d1c:	e50b3010 	str	r3, [fp, #-16]
    9d20:	ea0000fb 	b	a114 <get_meta+0x588>
    9d24:	e59f3454 	ldr	r3, [pc, #1108]	; a180 <get_meta+0x5f4>
    9d28:	e5933000 	ldr	r3, [r3]
    9d2c:	e50b3010 	str	r3, [fp, #-16]
    9d30:	ea0000f7 	b	a114 <get_meta+0x588>
    9d34:	e59f3448 	ldr	r3, [pc, #1096]	; a184 <get_meta+0x5f8>
    9d38:	e5933000 	ldr	r3, [r3]
    9d3c:	e50b3010 	str	r3, [fp, #-16]
    9d40:	ea0000f3 	b	a114 <get_meta+0x588>
    9d44:	e59f343c 	ldr	r3, [pc, #1084]	; a188 <get_meta+0x5fc>
    9d48:	e5933000 	ldr	r3, [r3]
    9d4c:	e50b3010 	str	r3, [fp, #-16]
    9d50:	ea0000ef 	b	a114 <get_meta+0x588>
    9d54:	e59f3430 	ldr	r3, [pc, #1072]	; a18c <get_meta+0x600>
    9d58:	e5933000 	ldr	r3, [r3]
    9d5c:	e50b3010 	str	r3, [fp, #-16]
    9d60:	ea0000eb 	b	a114 <get_meta+0x588>
    9d64:	e59f3424 	ldr	r3, [pc, #1060]	; a190 <get_meta+0x604>
    9d68:	e5933000 	ldr	r3, [r3]
    9d6c:	e50b3010 	str	r3, [fp, #-16]
    9d70:	ea0000e7 	b	a114 <get_meta+0x588>
    9d74:	e59f3418 	ldr	r3, [pc, #1048]	; a194 <get_meta+0x608>
    9d78:	e5933000 	ldr	r3, [r3]
    9d7c:	e50b3010 	str	r3, [fp, #-16]
    9d80:	ea0000e3 	b	a114 <get_meta+0x588>
    9d84:	e59f340c 	ldr	r3, [pc, #1036]	; a198 <get_meta+0x60c>
    9d88:	e5933000 	ldr	r3, [r3]
    9d8c:	e50b3010 	str	r3, [fp, #-16]
    9d90:	ea0000df 	b	a114 <get_meta+0x588>
    9d94:	e59f3400 	ldr	r3, [pc, #1024]	; a19c <get_meta+0x610>
    9d98:	e5933000 	ldr	r3, [r3]
    9d9c:	e50b3010 	str	r3, [fp, #-16]
    9da0:	ea0000db 	b	a114 <get_meta+0x588>
    9da4:	e59f33f4 	ldr	r3, [pc, #1012]	; a1a0 <get_meta+0x614>
    9da8:	e5933000 	ldr	r3, [r3]
    9dac:	e50b3010 	str	r3, [fp, #-16]
    9db0:	ea0000d7 	b	a114 <get_meta+0x588>
    9db4:	e59f33e8 	ldr	r3, [pc, #1000]	; a1a4 <get_meta+0x618>
    9db8:	e5933000 	ldr	r3, [r3]
    9dbc:	e50b3010 	str	r3, [fp, #-16]
    9dc0:	ea0000d3 	b	a114 <get_meta+0x588>
    9dc4:	e59f33dc 	ldr	r3, [pc, #988]	; a1a8 <get_meta+0x61c>
    9dc8:	e5933000 	ldr	r3, [r3]
    9dcc:	e50b3010 	str	r3, [fp, #-16]
    9dd0:	ea0000cf 	b	a114 <get_meta+0x588>
    9dd4:	e59f33d0 	ldr	r3, [pc, #976]	; a1ac <get_meta+0x620>
    9dd8:	e5933000 	ldr	r3, [r3]
    9ddc:	e50b3010 	str	r3, [fp, #-16]
    9de0:	ea0000cb 	b	a114 <get_meta+0x588>
    9de4:	e59f33c4 	ldr	r3, [pc, #964]	; a1b0 <get_meta+0x624>
    9de8:	e5933000 	ldr	r3, [r3]
    9dec:	e50b3010 	str	r3, [fp, #-16]
    9df0:	ea0000c7 	b	a114 <get_meta+0x588>
    9df4:	e59f33b8 	ldr	r3, [pc, #952]	; a1b4 <get_meta+0x628>
    9df8:	e5933000 	ldr	r3, [r3]
    9dfc:	e50b3010 	str	r3, [fp, #-16]
    9e00:	ea0000c3 	b	a114 <get_meta+0x588>
    9e04:	e59f33ac 	ldr	r3, [pc, #940]	; a1b8 <get_meta+0x62c>
    9e08:	e5933000 	ldr	r3, [r3]
    9e0c:	e50b3010 	str	r3, [fp, #-16]
    9e10:	ea0000bf 	b	a114 <get_meta+0x588>
    9e14:	e59f33a0 	ldr	r3, [pc, #928]	; a1bc <get_meta+0x630>
    9e18:	e5933000 	ldr	r3, [r3]
    9e1c:	e50b3010 	str	r3, [fp, #-16]
    9e20:	ea0000bb 	b	a114 <get_meta+0x588>
    9e24:	e59f3394 	ldr	r3, [pc, #916]	; a1c0 <get_meta+0x634>
    9e28:	e5933000 	ldr	r3, [r3]
    9e2c:	e50b3010 	str	r3, [fp, #-16]
    9e30:	ea0000b7 	b	a114 <get_meta+0x588>
    9e34:	e59f3388 	ldr	r3, [pc, #904]	; a1c4 <get_meta+0x638>
    9e38:	e5933000 	ldr	r3, [r3]
    9e3c:	e50b3010 	str	r3, [fp, #-16]
    9e40:	ea0000b3 	b	a114 <get_meta+0x588>
    9e44:	e59f337c 	ldr	r3, [pc, #892]	; a1c8 <get_meta+0x63c>
    9e48:	e5933000 	ldr	r3, [r3]
    9e4c:	e50b3010 	str	r3, [fp, #-16]
    9e50:	ea0000af 	b	a114 <get_meta+0x588>
    9e54:	e59f3370 	ldr	r3, [pc, #880]	; a1cc <get_meta+0x640>
    9e58:	e5933000 	ldr	r3, [r3]
    9e5c:	e50b3010 	str	r3, [fp, #-16]
    9e60:	ea0000ab 	b	a114 <get_meta+0x588>
    9e64:	e59f3364 	ldr	r3, [pc, #868]	; a1d0 <get_meta+0x644>
    9e68:	e5933000 	ldr	r3, [r3]
    9e6c:	e50b3010 	str	r3, [fp, #-16]
    9e70:	ea0000a7 	b	a114 <get_meta+0x588>
    9e74:	e59f3358 	ldr	r3, [pc, #856]	; a1d4 <get_meta+0x648>
    9e78:	e5933000 	ldr	r3, [r3]
    9e7c:	e50b3010 	str	r3, [fp, #-16]
    9e80:	ea0000a3 	b	a114 <get_meta+0x588>
    9e84:	e59f334c 	ldr	r3, [pc, #844]	; a1d8 <get_meta+0x64c>
    9e88:	e5933000 	ldr	r3, [r3]
    9e8c:	e50b3010 	str	r3, [fp, #-16]
    9e90:	ea00009f 	b	a114 <get_meta+0x588>
    9e94:	e59f3340 	ldr	r3, [pc, #832]	; a1dc <get_meta+0x650>
    9e98:	e5933000 	ldr	r3, [r3]
    9e9c:	e50b3010 	str	r3, [fp, #-16]
    9ea0:	ea00009b 	b	a114 <get_meta+0x588>
    9ea4:	e59f3334 	ldr	r3, [pc, #820]	; a1e0 <get_meta+0x654>
    9ea8:	e5933000 	ldr	r3, [r3]
    9eac:	e50b3010 	str	r3, [fp, #-16]
    9eb0:	ea000097 	b	a114 <get_meta+0x588>
    9eb4:	e59f3328 	ldr	r3, [pc, #808]	; a1e4 <get_meta+0x658>
    9eb8:	e5933000 	ldr	r3, [r3]
    9ebc:	e50b3010 	str	r3, [fp, #-16]
    9ec0:	ea0000a2 	b	a150 <get_meta+0x5c4>
    9ec4:	e59f331c 	ldr	r3, [pc, #796]	; a1e8 <get_meta+0x65c>
    9ec8:	e5933000 	ldr	r3, [r3]
    9ecc:	e50b3010 	str	r3, [fp, #-16]
    9ed0:	ea00008f 	b	a114 <get_meta+0x588>
    9ed4:	e59f3310 	ldr	r3, [pc, #784]	; a1ec <get_meta+0x660>
    9ed8:	e5933000 	ldr	r3, [r3]
    9edc:	e50b3010 	str	r3, [fp, #-16]
    9ee0:	ea00008b 	b	a114 <get_meta+0x588>
    9ee4:	e59f3304 	ldr	r3, [pc, #772]	; a1f0 <get_meta+0x664>
    9ee8:	e5933000 	ldr	r3, [r3]
    9eec:	e50b3010 	str	r3, [fp, #-16]
    9ef0:	ea000087 	b	a114 <get_meta+0x588>
    9ef4:	e59f32f8 	ldr	r3, [pc, #760]	; a1f4 <get_meta+0x668>
    9ef8:	e5933000 	ldr	r3, [r3]
    9efc:	e50b3010 	str	r3, [fp, #-16]
    9f00:	ea000083 	b	a114 <get_meta+0x588>
    9f04:	e59f32ec 	ldr	r3, [pc, #748]	; a1f8 <get_meta+0x66c>
    9f08:	e5933000 	ldr	r3, [r3]
    9f0c:	e50b3010 	str	r3, [fp, #-16]
    9f10:	ea00007f 	b	a114 <get_meta+0x588>
    9f14:	e59f32e0 	ldr	r3, [pc, #736]	; a1fc <get_meta+0x670>
    9f18:	e5933000 	ldr	r3, [r3]
    9f1c:	e50b3010 	str	r3, [fp, #-16]
    9f20:	ea00007b 	b	a114 <get_meta+0x588>
    9f24:	e59f32d4 	ldr	r3, [pc, #724]	; a200 <get_meta+0x674>
    9f28:	e5933000 	ldr	r3, [r3]
    9f2c:	e50b3010 	str	r3, [fp, #-16]
    9f30:	ea000077 	b	a114 <get_meta+0x588>
    9f34:	e59f32c8 	ldr	r3, [pc, #712]	; a204 <get_meta+0x678>
    9f38:	e5933000 	ldr	r3, [r3]
    9f3c:	e50b3010 	str	r3, [fp, #-16]
    9f40:	ea000073 	b	a114 <get_meta+0x588>
    9f44:	e59f32bc 	ldr	r3, [pc, #700]	; a208 <get_meta+0x67c>
    9f48:	e5933000 	ldr	r3, [r3]
    9f4c:	e50b3010 	str	r3, [fp, #-16]
    9f50:	ea00006f 	b	a114 <get_meta+0x588>
    9f54:	e59f32b0 	ldr	r3, [pc, #688]	; a20c <get_meta+0x680>
    9f58:	e5933000 	ldr	r3, [r3]
    9f5c:	e50b3010 	str	r3, [fp, #-16]
    9f60:	ea00006b 	b	a114 <get_meta+0x588>
    9f64:	e59f32a4 	ldr	r3, [pc, #676]	; a210 <get_meta+0x684>
    9f68:	e5933000 	ldr	r3, [r3]
    9f6c:	e50b3010 	str	r3, [fp, #-16]
    9f70:	ea000067 	b	a114 <get_meta+0x588>
    9f74:	e59f3298 	ldr	r3, [pc, #664]	; a214 <get_meta+0x688>
    9f78:	e5933000 	ldr	r3, [r3]
    9f7c:	e50b3010 	str	r3, [fp, #-16]
    9f80:	ea000063 	b	a114 <get_meta+0x588>
    9f84:	e59f328c 	ldr	r3, [pc, #652]	; a218 <get_meta+0x68c>
    9f88:	e5933000 	ldr	r3, [r3]
    9f8c:	e50b3010 	str	r3, [fp, #-16]
    9f90:	ea00005f 	b	a114 <get_meta+0x588>
    9f94:	e59f3280 	ldr	r3, [pc, #640]	; a21c <get_meta+0x690>
    9f98:	e5933000 	ldr	r3, [r3]
    9f9c:	e50b3010 	str	r3, [fp, #-16]
    9fa0:	ea00005b 	b	a114 <get_meta+0x588>
    9fa4:	e59f3274 	ldr	r3, [pc, #628]	; a220 <get_meta+0x694>
    9fa8:	e5933000 	ldr	r3, [r3]
    9fac:	e50b3010 	str	r3, [fp, #-16]
    9fb0:	ea000057 	b	a114 <get_meta+0x588>
    9fb4:	e59f3268 	ldr	r3, [pc, #616]	; a224 <get_meta+0x698>
    9fb8:	e5933000 	ldr	r3, [r3]
    9fbc:	e50b3010 	str	r3, [fp, #-16]
    9fc0:	ea000053 	b	a114 <get_meta+0x588>
    9fc4:	e59f325c 	ldr	r3, [pc, #604]	; a228 <get_meta+0x69c>
    9fc8:	e5933000 	ldr	r3, [r3]
    9fcc:	e50b3010 	str	r3, [fp, #-16]
    9fd0:	ea00004f 	b	a114 <get_meta+0x588>
    9fd4:	e59f3250 	ldr	r3, [pc, #592]	; a22c <get_meta+0x6a0>
    9fd8:	e5933000 	ldr	r3, [r3]
    9fdc:	e50b3010 	str	r3, [fp, #-16]
    9fe0:	ea00004b 	b	a114 <get_meta+0x588>
    9fe4:	e59f3244 	ldr	r3, [pc, #580]	; a230 <get_meta+0x6a4>
    9fe8:	e5933000 	ldr	r3, [r3]
    9fec:	e50b3010 	str	r3, [fp, #-16]
    9ff0:	ea000047 	b	a114 <get_meta+0x588>
    9ff4:	e59f3238 	ldr	r3, [pc, #568]	; a234 <get_meta+0x6a8>
    9ff8:	e5933000 	ldr	r3, [r3]
    9ffc:	e50b3010 	str	r3, [fp, #-16]
    a000:	ea000043 	b	a114 <get_meta+0x588>
    a004:	e59f322c 	ldr	r3, [pc, #556]	; a238 <get_meta+0x6ac>
    a008:	e5933000 	ldr	r3, [r3]
    a00c:	e50b3010 	str	r3, [fp, #-16]
    a010:	ea00003f 	b	a114 <get_meta+0x588>
    a014:	e59f3220 	ldr	r3, [pc, #544]	; a23c <get_meta+0x6b0>
    a018:	e5933000 	ldr	r3, [r3]
    a01c:	e50b3010 	str	r3, [fp, #-16]
    a020:	ea00003b 	b	a114 <get_meta+0x588>
    a024:	e59f3214 	ldr	r3, [pc, #532]	; a240 <get_meta+0x6b4>
    a028:	e5933000 	ldr	r3, [r3]
    a02c:	e50b3010 	str	r3, [fp, #-16]
    a030:	ea000037 	b	a114 <get_meta+0x588>
    a034:	e59f3208 	ldr	r3, [pc, #520]	; a244 <get_meta+0x6b8>
    a038:	e5933000 	ldr	r3, [r3]
    a03c:	e50b3010 	str	r3, [fp, #-16]
    a040:	ea000033 	b	a114 <get_meta+0x588>
    a044:	e59f31fc 	ldr	r3, [pc, #508]	; a248 <get_meta+0x6bc>
    a048:	e5933000 	ldr	r3, [r3]
    a04c:	e50b3010 	str	r3, [fp, #-16]
    a050:	ea00002f 	b	a114 <get_meta+0x588>
    a054:	e59f31f0 	ldr	r3, [pc, #496]	; a24c <get_meta+0x6c0>
    a058:	e5933000 	ldr	r3, [r3]
    a05c:	e50b3010 	str	r3, [fp, #-16]
    a060:	ea00002b 	b	a114 <get_meta+0x588>
    a064:	e59f31e4 	ldr	r3, [pc, #484]	; a250 <get_meta+0x6c4>
    a068:	e5933000 	ldr	r3, [r3]
    a06c:	e50b3010 	str	r3, [fp, #-16]
    a070:	ea000027 	b	a114 <get_meta+0x588>
    a074:	e59f31d8 	ldr	r3, [pc, #472]	; a254 <get_meta+0x6c8>
    a078:	e5933000 	ldr	r3, [r3]
    a07c:	e50b3010 	str	r3, [fp, #-16]
    a080:	ea000023 	b	a114 <get_meta+0x588>
    a084:	e59f31cc 	ldr	r3, [pc, #460]	; a258 <get_meta+0x6cc>
    a088:	e5933000 	ldr	r3, [r3]
    a08c:	e50b3010 	str	r3, [fp, #-16]
    a090:	ea00001f 	b	a114 <get_meta+0x588>
    a094:	e59f31c0 	ldr	r3, [pc, #448]	; a25c <get_meta+0x6d0>
    a098:	e5933000 	ldr	r3, [r3]
    a09c:	e50b3010 	str	r3, [fp, #-16]
    a0a0:	ea00001b 	b	a114 <get_meta+0x588>
    a0a4:	e59f31b0 	ldr	r3, [pc, #432]	; a25c <get_meta+0x6d0>
    a0a8:	e5933000 	ldr	r3, [r3]
    a0ac:	e50b3010 	str	r3, [fp, #-16]
    a0b0:	ea000017 	b	a114 <get_meta+0x588>
    a0b4:	e59f31a0 	ldr	r3, [pc, #416]	; a25c <get_meta+0x6d0>
    a0b8:	e5933000 	ldr	r3, [r3]
    a0bc:	e50b3010 	str	r3, [fp, #-16]
    a0c0:	ea000013 	b	a114 <get_meta+0x588>
    a0c4:	e59f3190 	ldr	r3, [pc, #400]	; a25c <get_meta+0x6d0>
    a0c8:	e5933000 	ldr	r3, [r3]
    a0cc:	e50b3010 	str	r3, [fp, #-16]
    a0d0:	ea00000f 	b	a114 <get_meta+0x588>
    a0d4:	e59f3180 	ldr	r3, [pc, #384]	; a25c <get_meta+0x6d0>
    a0d8:	e5933000 	ldr	r3, [r3]
    a0dc:	e50b3010 	str	r3, [fp, #-16]
    a0e0:	ea00000b 	b	a114 <get_meta+0x588>
    a0e4:	e59f3170 	ldr	r3, [pc, #368]	; a25c <get_meta+0x6d0>
    a0e8:	e5933000 	ldr	r3, [r3]
    a0ec:	e50b3010 	str	r3, [fp, #-16]
    a0f0:	ea000007 	b	a114 <get_meta+0x588>
    a0f4:	e59f3160 	ldr	r3, [pc, #352]	; a25c <get_meta+0x6d0>
    a0f8:	e5933000 	ldr	r3, [r3]
    a0fc:	e50b3010 	str	r3, [fp, #-16]
    a100:	ea000003 	b	a114 <get_meta+0x588>
    a104:	e59f3150 	ldr	r3, [pc, #336]	; a25c <get_meta+0x6d0>
    a108:	e5933000 	ldr	r3, [r3]
    a10c:	e50b3010 	str	r3, [fp, #-16]
    a110:	e1a00000 	nop			; (mov r0, r0)
    a114:	e24b3008 	sub	r3, fp, #8
    a118:	e51b0018 	ldr	r0, [fp, #-24]
    a11c:	e1a01003 	mov	r1, r3
    a120:	e3a02002 	mov	r2, #2
    a124:	eb004eb6 	bl	1dc04 <recvdata>
    a128:	e1a03000 	mov	r3, r0
    a12c:	e3730001 	cmn	r3, #1
    a130:	1a000001 	bne	a13c <get_meta+0x5b0>
    a134:	e3a03000 	mov	r3, #0
    a138:	ea00000c 	b	a170 <get_meta+0x5e4>
    a13c:	e51b3008 	ldr	r3, [fp, #-8]
    a140:	e3530b01 	cmp	r3, #1024	; 0x400
    a144:	da000001 	ble	a150 <get_meta+0x5c4>
    a148:	e3a03b01 	mov	r3, #1024	; 0x400
    a14c:	e50b3008 	str	r3, [fp, #-8]
    a150:	e51b3008 	ldr	r3, [fp, #-8]
    a154:	e1a03803 	lsl	r3, r3, #16
    a158:	e1a03823 	lsr	r3, r3, #16
    a15c:	e50b3008 	str	r3, [fp, #-8]
    a160:	e51b2010 	ldr	r2, [fp, #-16]
    a164:	e51b3020 	ldr	r3, [fp, #-32]
    a168:	e5832000 	str	r2, [r3]
    a16c:	e51b3008 	ldr	r3, [fp, #-8]
    a170:	e1a00003 	mov	r0, r3
    a174:	e24bd004 	sub	sp, fp, #4
    a178:	e8bd8800 	pop	{fp, pc}
    a17c:	0001e468 	.word	0x0001e468
    a180:	0001e470 	.word	0x0001e470
    a184:	0001e478 	.word	0x0001e478
    a188:	0001e480 	.word	0x0001e480
    a18c:	0001e488 	.word	0x0001e488
    a190:	0001e490 	.word	0x0001e490
    a194:	0001e498 	.word	0x0001e498
    a198:	0001e4a0 	.word	0x0001e4a0
    a19c:	0001e4a8 	.word	0x0001e4a8
    a1a0:	0001e4b0 	.word	0x0001e4b0
    a1a4:	0001e4b8 	.word	0x0001e4b8
    a1a8:	0001e4c0 	.word	0x0001e4c0
    a1ac:	0001e4c8 	.word	0x0001e4c8
    a1b0:	0001e4d0 	.word	0x0001e4d0
    a1b4:	0001e4d8 	.word	0x0001e4d8
    a1b8:	0001e4e0 	.word	0x0001e4e0
    a1bc:	0001e4e8 	.word	0x0001e4e8
    a1c0:	0001e4f0 	.word	0x0001e4f0
    a1c4:	0001e4f8 	.word	0x0001e4f8
    a1c8:	0001e500 	.word	0x0001e500
    a1cc:	0001e508 	.word	0x0001e508
    a1d0:	0001e510 	.word	0x0001e510
    a1d4:	0001e518 	.word	0x0001e518
    a1d8:	0001e520 	.word	0x0001e520
    a1dc:	0001e528 	.word	0x0001e528
    a1e0:	0001e530 	.word	0x0001e530
    a1e4:	0001e538 	.word	0x0001e538
    a1e8:	0001e540 	.word	0x0001e540
    a1ec:	0001e548 	.word	0x0001e548
    a1f0:	0001e550 	.word	0x0001e550
    a1f4:	0001e558 	.word	0x0001e558
    a1f8:	0001e560 	.word	0x0001e560
    a1fc:	0001e568 	.word	0x0001e568
    a200:	0001e570 	.word	0x0001e570
    a204:	0001e578 	.word	0x0001e578
    a208:	0001e580 	.word	0x0001e580
    a20c:	0001e588 	.word	0x0001e588
    a210:	0001e590 	.word	0x0001e590
    a214:	0001e598 	.word	0x0001e598
    a218:	0001e5a0 	.word	0x0001e5a0
    a21c:	0001e5a8 	.word	0x0001e5a8
    a220:	0001e5b0 	.word	0x0001e5b0
    a224:	0001e5b8 	.word	0x0001e5b8
    a228:	0001e5c0 	.word	0x0001e5c0
    a22c:	0001e5c8 	.word	0x0001e5c8
    a230:	0001e5d0 	.word	0x0001e5d0
    a234:	0001e5d8 	.word	0x0001e5d8
    a238:	0001e5e0 	.word	0x0001e5e0
    a23c:	0001e5e8 	.word	0x0001e5e8
    a240:	0001e5f0 	.word	0x0001e5f0
    a244:	0001e5f8 	.word	0x0001e5f8
    a248:	0001e600 	.word	0x0001e600
    a24c:	0001e608 	.word	0x0001e608
    a250:	0001e610 	.word	0x0001e610
    a254:	0001e618 	.word	0x0001e618
    a258:	0001e620 	.word	0x0001e620
    a25c:	0001e628 	.word	0x0001e628

0000a260 <main>:
    a260:	e92d4800 	push	{fp, lr}
    a264:	e28db004 	add	fp, sp, #4
    a268:	e24dd010 	sub	sp, sp, #16
    a26c:	e50b0010 	str	r0, [fp, #-16]
    a270:	e50b1014 	str	r1, [fp, #-20]
    a274:	e59f3034 	ldr	r3, [pc, #52]	; a2b0 <main+0x50>
    a278:	e5933000 	ldr	r3, [r3]
    a27c:	e1a00003 	mov	r0, r3
    a280:	e3a01002 	mov	r1, #2
    a284:	e59f2028 	ldr	r2, [pc, #40]	; a2b4 <main+0x54>
    a288:	eb004cda 	bl	1d5f8 <SetupSock>
    a28c:	e50b0008 	str	r0, [fp, #-8]
    a290:	e51b0008 	ldr	r0, [fp, #-8]
    a294:	e59f101c 	ldr	r1, [pc, #28]	; a2b8 <main+0x58>
    a298:	e59f201c 	ldr	r2, [pc, #28]	; a2bc <main+0x5c>
    a29c:	eb004f7c 	bl	1e094 <accept_loop>
    a2a0:	e3a03000 	mov	r3, #0
    a2a4:	e1a00003 	mov	r0, r3
    a2a8:	e24bd004 	sub	sp, fp, #4
    a2ac:	e8bd8800 	pop	{fp, pc}
    a2b0:	000271d4 	.word	0x000271d4
    a2b4:	0001e630 	.word	0x0001e630
    a2b8:	00008dfc 	.word	0x00008dfc
    a2bc:	0001e638 	.word	0x0001e638

0000a2c0 <md2>:
    a2c0:	e92d4800 	push	{fp, lr}
    a2c4:	e28db004 	add	fp, sp, #4
    a2c8:	e24dd088 	sub	sp, sp, #136	; 0x88
    a2cc:	e50b0080 	str	r0, [fp, #-128]	; 0x80
    a2d0:	e50b1084 	str	r1, [fp, #-132]	; 0x84
    a2d4:	e50b2088 	str	r2, [fp, #-136]	; 0x88
    a2d8:	e24b3078 	sub	r3, fp, #120	; 0x78
    a2dc:	e1a00003 	mov	r0, r3
    a2e0:	eb000011 	bl	a32c <md2_starts>
    a2e4:	e24b3078 	sub	r3, fp, #120	; 0x78
    a2e8:	e1a00003 	mov	r0, r3
    a2ec:	e51b1080 	ldr	r1, [fp, #-128]	; 0x80
    a2f0:	e51b2084 	ldr	r2, [fp, #-132]	; 0x84
    a2f4:	eb00002c 	bl	a3ac <md2_update>
    a2f8:	e24b3078 	sub	r3, fp, #120	; 0x78
    a2fc:	e1a00003 	mov	r0, r3
    a300:	e51b1088 	ldr	r1, [fp, #-136]	; 0x88
    a304:	eb0000f0 	bl	a6cc <md2_finish>
    a308:	e24b3078 	sub	r3, fp, #120	; 0x78
    a30c:	e1a02003 	mov	r2, r3
    a310:	e3a03074 	mov	r3, #116	; 0x74
    a314:	e1a00002 	mov	r0, r2
    a318:	e3a01000 	mov	r1, #0
    a31c:	e1a02003 	mov	r2, r3
    a320:	ebfffa5c 	bl	8c98 <_init+0x194>
    a324:	e24bd004 	sub	sp, fp, #4
    a328:	e8bd8800 	pop	{fp, pc}

0000a32c <md2_starts>:
    a32c:	e92d4800 	push	{fp, lr}
    a330:	e28db004 	add	fp, sp, #4
    a334:	e24dd008 	sub	sp, sp, #8
    a338:	e50b0008 	str	r0, [fp, #-8]
    a33c:	e51b3008 	ldr	r3, [fp, #-8]
    a340:	e1a02003 	mov	r2, r3
    a344:	e3a03010 	mov	r3, #16
    a348:	e1a00002 	mov	r0, r2
    a34c:	e3a01000 	mov	r1, #0
    a350:	e1a02003 	mov	r2, r3
    a354:	ebfffa4f 	bl	8c98 <_init+0x194>
    a358:	e51b3008 	ldr	r3, [fp, #-8]
    a35c:	e2833010 	add	r3, r3, #16
    a360:	e1a02003 	mov	r2, r3
    a364:	e3a0302e 	mov	r3, #46	; 0x2e
    a368:	e1a00002 	mov	r0, r2
    a36c:	e3a01000 	mov	r1, #0
    a370:	e1a02003 	mov	r2, r3
    a374:	ebfffa47 	bl	8c98 <_init+0x194>
    a378:	e51b3008 	ldr	r3, [fp, #-8]
    a37c:	e2833040 	add	r3, r3, #64	; 0x40
    a380:	e1a02003 	mov	r2, r3
    a384:	e3a03010 	mov	r3, #16
    a388:	e1a00002 	mov	r0, r2
    a38c:	e3a01000 	mov	r1, #0
    a390:	e1a02003 	mov	r2, r3
    a394:	ebfffa3f 	bl	8c98 <_init+0x194>
    a398:	e51b3008 	ldr	r3, [fp, #-8]
    a39c:	e3a02000 	mov	r2, #0
    a3a0:	e5832070 	str	r2, [r3, #112]	; 0x70
    a3a4:	e24bd004 	sub	sp, fp, #4
    a3a8:	e8bd8800 	pop	{fp, pc}

0000a3ac <md2_update>:
    a3ac:	e92d4800 	push	{fp, lr}
    a3b0:	e28db004 	add	fp, sp, #4
    a3b4:	e24dd018 	sub	sp, sp, #24
    a3b8:	e50b0010 	str	r0, [fp, #-16]
    a3bc:	e50b1014 	str	r1, [fp, #-20]
    a3c0:	e50b2018 	str	r2, [fp, #-24]
    a3c4:	ea000031 	b	a490 <md2_update+0xe4>
    a3c8:	e51b3010 	ldr	r3, [fp, #-16]
    a3cc:	e5932070 	ldr	r2, [r3, #112]	; 0x70
    a3d0:	e51b3018 	ldr	r3, [fp, #-24]
    a3d4:	e0823003 	add	r3, r2, r3
    a3d8:	e3530010 	cmp	r3, #16
    a3dc:	9a000004 	bls	a3f4 <md2_update+0x48>
    a3e0:	e51b3010 	ldr	r3, [fp, #-16]
    a3e4:	e5933070 	ldr	r3, [r3, #112]	; 0x70
    a3e8:	e2633010 	rsb	r3, r3, #16
    a3ec:	e50b3008 	str	r3, [fp, #-8]
    a3f0:	ea000001 	b	a3fc <md2_update+0x50>
    a3f4:	e51b3018 	ldr	r3, [fp, #-24]
    a3f8:	e50b3008 	str	r3, [fp, #-8]
    a3fc:	e51b3010 	ldr	r3, [fp, #-16]
    a400:	e2833040 	add	r3, r3, #64	; 0x40
    a404:	e1a02003 	mov	r2, r3
    a408:	e51b3010 	ldr	r3, [fp, #-16]
    a40c:	e5933070 	ldr	r3, [r3, #112]	; 0x70
    a410:	e0822003 	add	r2, r2, r3
    a414:	e51b3014 	ldr	r3, [fp, #-20]
    a418:	e1a01002 	mov	r1, r2
    a41c:	e1a02003 	mov	r2, r3
    a420:	e51b3008 	ldr	r3, [fp, #-8]
    a424:	e1a00001 	mov	r0, r1
    a428:	e1a01002 	mov	r1, r2
    a42c:	e1a02003 	mov	r2, r3
    a430:	ebfff9d0 	bl	8b78 <_init+0x74>
    a434:	e51b3010 	ldr	r3, [fp, #-16]
    a438:	e5932070 	ldr	r2, [r3, #112]	; 0x70
    a43c:	e51b3008 	ldr	r3, [fp, #-8]
    a440:	e0822003 	add	r2, r2, r3
    a444:	e51b3010 	ldr	r3, [fp, #-16]
    a448:	e5832070 	str	r2, [r3, #112]	; 0x70
    a44c:	e51b2014 	ldr	r2, [fp, #-20]
    a450:	e51b3008 	ldr	r3, [fp, #-8]
    a454:	e0823003 	add	r3, r2, r3
    a458:	e50b3014 	str	r3, [fp, #-20]
    a45c:	e51b2018 	ldr	r2, [fp, #-24]
    a460:	e51b3008 	ldr	r3, [fp, #-8]
    a464:	e0633002 	rsb	r3, r3, r2
    a468:	e50b3018 	str	r3, [fp, #-24]
    a46c:	e51b3010 	ldr	r3, [fp, #-16]
    a470:	e5933070 	ldr	r3, [r3, #112]	; 0x70
    a474:	e3530010 	cmp	r3, #16
    a478:	1a000004 	bne	a490 <md2_update+0xe4>
    a47c:	e51b3010 	ldr	r3, [fp, #-16]
    a480:	e3a02000 	mov	r2, #0
    a484:	e5832070 	str	r2, [r3, #112]	; 0x70
    a488:	e51b0010 	ldr	r0, [fp, #-16]
    a48c:	eb000004 	bl	a4a4 <md2_process>
    a490:	e51b3018 	ldr	r3, [fp, #-24]
    a494:	e3530000 	cmp	r3, #0
    a498:	1affffca 	bne	a3c8 <md2_update+0x1c>
    a49c:	e24bd004 	sub	sp, fp, #4
    a4a0:	e8bd8800 	pop	{fp, pc}

0000a4a4 <md2_process>:
    a4a4:	e52db004 	push	{fp}		; (str fp, [sp, #-4]!)
    a4a8:	e28db000 	add	fp, sp, #0
    a4ac:	e24dd01c 	sub	sp, sp, #28
    a4b0:	e50b0018 	str	r0, [fp, #-24]
    a4b4:	e3a03000 	mov	r3, #0
    a4b8:	e54b300d 	strb	r3, [fp, #-13]
    a4bc:	e3a03000 	mov	r3, #0
    a4c0:	e50b3008 	str	r3, [fp, #-8]
    a4c4:	ea000024 	b	a55c <md2_process+0xb8>
    a4c8:	e51b3008 	ldr	r3, [fp, #-8]
    a4cc:	e2831010 	add	r1, r3, #16
    a4d0:	e51b0018 	ldr	r0, [fp, #-24]
    a4d4:	e3a03040 	mov	r3, #64	; 0x40
    a4d8:	e51b2008 	ldr	r2, [fp, #-8]
    a4dc:	e0802002 	add	r2, r0, r2
    a4e0:	e0823003 	add	r3, r2, r3
    a4e4:	e5d32000 	ldrb	r2, [r3]
    a4e8:	e51b0018 	ldr	r0, [fp, #-24]
    a4ec:	e3a03010 	mov	r3, #16
    a4f0:	e0801001 	add	r1, r0, r1
    a4f4:	e0813003 	add	r3, r1, r3
    a4f8:	e5c32000 	strb	r2, [r3]
    a4fc:	e51b3008 	ldr	r3, [fp, #-8]
    a500:	e2831020 	add	r1, r3, #32
    a504:	e51b0018 	ldr	r0, [fp, #-24]
    a508:	e3a03040 	mov	r3, #64	; 0x40
    a50c:	e51b2008 	ldr	r2, [fp, #-8]
    a510:	e0802002 	add	r2, r0, r2
    a514:	e0823003 	add	r3, r2, r3
    a518:	e5d32000 	ldrb	r2, [r3]
    a51c:	e51bc018 	ldr	ip, [fp, #-24]
    a520:	e3a03010 	mov	r3, #16
    a524:	e51b0008 	ldr	r0, [fp, #-8]
    a528:	e08c0000 	add	r0, ip, r0
    a52c:	e0803003 	add	r3, r0, r3
    a530:	e5d33000 	ldrb	r3, [r3]
    a534:	e0223003 	eor	r3, r2, r3
    a538:	e6ef2073 	uxtb	r2, r3
    a53c:	e51b0018 	ldr	r0, [fp, #-24]
    a540:	e3a03010 	mov	r3, #16
    a544:	e0801001 	add	r1, r0, r1
    a548:	e0813003 	add	r3, r1, r3
    a54c:	e5c32000 	strb	r2, [r3]
    a550:	e51b3008 	ldr	r3, [fp, #-8]
    a554:	e2833001 	add	r3, r3, #1
    a558:	e50b3008 	str	r3, [fp, #-8]
    a55c:	e51b3008 	ldr	r3, [fp, #-8]
    a560:	e353000f 	cmp	r3, #15
    a564:	daffffd7 	ble	a4c8 <md2_process+0x24>
    a568:	e3a03000 	mov	r3, #0
    a56c:	e50b3008 	str	r3, [fp, #-8]
    a570:	ea000028 	b	a618 <md2_process+0x174>
    a574:	e3a03000 	mov	r3, #0
    a578:	e50b300c 	str	r3, [fp, #-12]
    a57c:	ea00001a 	b	a5ec <md2_process+0x148>
    a580:	e51b1018 	ldr	r1, [fp, #-24]
    a584:	e3a03010 	mov	r3, #16
    a588:	e51b200c 	ldr	r2, [fp, #-12]
    a58c:	e0812002 	add	r2, r1, r2
    a590:	e0823003 	add	r3, r2, r3
    a594:	e5d32000 	ldrb	r2, [r3]
    a598:	e55b300d 	ldrb	r3, [fp, #-13]
    a59c:	e59f1124 	ldr	r1, [pc, #292]	; a6c8 <md2_process+0x224>
    a5a0:	e7d13003 	ldrb	r3, [r1, r3]
    a5a4:	e0223003 	eor	r3, r2, r3
    a5a8:	e6ef2073 	uxtb	r2, r3
    a5ac:	e51b0018 	ldr	r0, [fp, #-24]
    a5b0:	e3a03010 	mov	r3, #16
    a5b4:	e51b100c 	ldr	r1, [fp, #-12]
    a5b8:	e0801001 	add	r1, r0, r1
    a5bc:	e0813003 	add	r3, r1, r3
    a5c0:	e5c32000 	strb	r2, [r3]
    a5c4:	e51b1018 	ldr	r1, [fp, #-24]
    a5c8:	e3a03010 	mov	r3, #16
    a5cc:	e51b200c 	ldr	r2, [fp, #-12]
    a5d0:	e0812002 	add	r2, r1, r2
    a5d4:	e0823003 	add	r3, r2, r3
    a5d8:	e5d33000 	ldrb	r3, [r3]
    a5dc:	e54b300d 	strb	r3, [fp, #-13]
    a5e0:	e51b300c 	ldr	r3, [fp, #-12]
    a5e4:	e2833001 	add	r3, r3, #1
    a5e8:	e50b300c 	str	r3, [fp, #-12]
    a5ec:	e51b300c 	ldr	r3, [fp, #-12]
    a5f0:	e353002f 	cmp	r3, #47	; 0x2f
    a5f4:	daffffe1 	ble	a580 <md2_process+0xdc>
    a5f8:	e51b3008 	ldr	r3, [fp, #-8]
    a5fc:	e6ef2073 	uxtb	r2, r3
    a600:	e55b300d 	ldrb	r3, [fp, #-13]
    a604:	e0823003 	add	r3, r2, r3
    a608:	e54b300d 	strb	r3, [fp, #-13]
    a60c:	e51b3008 	ldr	r3, [fp, #-8]
    a610:	e2833001 	add	r3, r3, #1
    a614:	e50b3008 	str	r3, [fp, #-8]
    a618:	e51b3008 	ldr	r3, [fp, #-8]
    a61c:	e3530011 	cmp	r3, #17
    a620:	daffffd3 	ble	a574 <md2_process+0xd0>
    a624:	e51b3018 	ldr	r3, [fp, #-24]
    a628:	e5d3300f 	ldrb	r3, [r3, #15]
    a62c:	e54b300d 	strb	r3, [fp, #-13]
    a630:	e3a03000 	mov	r3, #0
    a634:	e50b3008 	str	r3, [fp, #-8]
    a638:	ea00001c 	b	a6b0 <md2_process+0x20c>
    a63c:	e51b2018 	ldr	r2, [fp, #-24]
    a640:	e51b3008 	ldr	r3, [fp, #-8]
    a644:	e0823003 	add	r3, r2, r3
    a648:	e5d32000 	ldrb	r2, [r3]
    a64c:	e51b0018 	ldr	r0, [fp, #-24]
    a650:	e3a03040 	mov	r3, #64	; 0x40
    a654:	e51b1008 	ldr	r1, [fp, #-8]
    a658:	e0801001 	add	r1, r0, r1
    a65c:	e0813003 	add	r3, r1, r3
    a660:	e5d31000 	ldrb	r1, [r3]
    a664:	e55b300d 	ldrb	r3, [fp, #-13]
    a668:	e0213003 	eor	r3, r1, r3
    a66c:	e6ef3073 	uxtb	r3, r3
    a670:	e59f1050 	ldr	r1, [pc, #80]	; a6c8 <md2_process+0x224>
    a674:	e7d13003 	ldrb	r3, [r1, r3]
    a678:	e0223003 	eor	r3, r2, r3
    a67c:	e6ef2073 	uxtb	r2, r3
    a680:	e51b1018 	ldr	r1, [fp, #-24]
    a684:	e51b3008 	ldr	r3, [fp, #-8]
    a688:	e0813003 	add	r3, r1, r3
    a68c:	e5c32000 	strb	r2, [r3]
    a690:	e51b2018 	ldr	r2, [fp, #-24]
    a694:	e51b3008 	ldr	r3, [fp, #-8]
    a698:	e0823003 	add	r3, r2, r3
    a69c:	e5d33000 	ldrb	r3, [r3]
    a6a0:	e54b300d 	strb	r3, [fp, #-13]
    a6a4:	e51b3008 	ldr	r3, [fp, #-8]
    a6a8:	e2833001 	add	r3, r3, #1
    a6ac:	e50b3008 	str	r3, [fp, #-8]
    a6b0:	e51b3008 	ldr	r3, [fp, #-8]
    a6b4:	e353000f 	cmp	r3, #15
    a6b8:	daffffdf 	ble	a63c <md2_process+0x198>
    a6bc:	e28bd000 	add	sp, fp, #0
    a6c0:	e8bd0800 	pop	{fp}
    a6c4:	e12fff1e 	bx	lr
    a6c8:	0001e648 	.word	0x0001e648

0000a6cc <md2_finish>:
    a6cc:	e92d4800 	push	{fp, lr}
    a6d0:	e28db004 	add	fp, sp, #4
    a6d4:	e24dd010 	sub	sp, sp, #16
    a6d8:	e50b0010 	str	r0, [fp, #-16]
    a6dc:	e50b1014 	str	r1, [fp, #-20]
    a6e0:	e51b3010 	ldr	r3, [fp, #-16]
    a6e4:	e5933070 	ldr	r3, [r3, #112]	; 0x70
    a6e8:	e6ef3073 	uxtb	r3, r3
    a6ec:	e2633010 	rsb	r3, r3, #16
    a6f0:	e54b3009 	strb	r3, [fp, #-9]
    a6f4:	e51b3010 	ldr	r3, [fp, #-16]
    a6f8:	e5933070 	ldr	r3, [r3, #112]	; 0x70
    a6fc:	e50b3008 	str	r3, [fp, #-8]
    a700:	ea000009 	b	a72c <md2_finish+0x60>
    a704:	e51b1010 	ldr	r1, [fp, #-16]
    a708:	e3a03040 	mov	r3, #64	; 0x40
    a70c:	e51b2008 	ldr	r2, [fp, #-8]
    a710:	e0812002 	add	r2, r1, r2
    a714:	e0823003 	add	r3, r2, r3
    a718:	e55b2009 	ldrb	r2, [fp, #-9]
    a71c:	e5c32000 	strb	r2, [r3]
    a720:	e51b3008 	ldr	r3, [fp, #-8]
    a724:	e2833001 	add	r3, r3, #1
    a728:	e50b3008 	str	r3, [fp, #-8]
    a72c:	e51b3008 	ldr	r3, [fp, #-8]
    a730:	e353000f 	cmp	r3, #15
    a734:	9afffff2 	bls	a704 <md2_finish+0x38>
    a738:	e51b0010 	ldr	r0, [fp, #-16]
    a73c:	ebffff58 	bl	a4a4 <md2_process>
    a740:	e51b3010 	ldr	r3, [fp, #-16]
    a744:	e2833040 	add	r3, r3, #64	; 0x40
    a748:	e1a02003 	mov	r2, r3
    a74c:	e51b3010 	ldr	r3, [fp, #-16]
    a750:	e1a01002 	mov	r1, r2
    a754:	e1a02003 	mov	r2, r3
    a758:	e3a03010 	mov	r3, #16
    a75c:	e1a00001 	mov	r0, r1
    a760:	e1a01002 	mov	r1, r2
    a764:	e1a02003 	mov	r2, r3
    a768:	ebfff902 	bl	8b78 <_init+0x74>
    a76c:	e51b0010 	ldr	r0, [fp, #-16]
    a770:	ebffff4b 	bl	a4a4 <md2_process>
    a774:	e51b2014 	ldr	r2, [fp, #-20]
    a778:	e51b3010 	ldr	r3, [fp, #-16]
    a77c:	e2833010 	add	r3, r3, #16
    a780:	e1a01002 	mov	r1, r2
    a784:	e1a02003 	mov	r2, r3
    a788:	e3a03010 	mov	r3, #16
    a78c:	e1a00001 	mov	r0, r1
    a790:	e1a01002 	mov	r1, r2
    a794:	e1a02003 	mov	r2, r3
    a798:	ebfff8f6 	bl	8b78 <_init+0x74>
    a79c:	e24bd004 	sub	sp, fp, #4
    a7a0:	e8bd8800 	pop	{fp, pc}

0000a7a4 <md4_finish>:
    a7a4:	e92d4800 	push	{fp, lr}
    a7a8:	e28db004 	add	fp, sp, #4
    a7ac:	e24dd020 	sub	sp, sp, #32
    a7b0:	e50b0020 	str	r0, [fp, #-32]
    a7b4:	e50b1024 	str	r1, [fp, #-36]	; 0x24
    a7b8:	e51b3020 	ldr	r3, [fp, #-32]
    a7bc:	e5933000 	ldr	r3, [r3]
    a7c0:	e1a02ea3 	lsr	r2, r3, #29
    a7c4:	e51b3020 	ldr	r3, [fp, #-32]
    a7c8:	e5933004 	ldr	r3, [r3, #4]
    a7cc:	e1a03183 	lsl	r3, r3, #3
    a7d0:	e1823003 	orr	r3, r2, r3
    a7d4:	e50b3008 	str	r3, [fp, #-8]
    a7d8:	e51b3020 	ldr	r3, [fp, #-32]
    a7dc:	e5933000 	ldr	r3, [r3]
    a7e0:	e1a03183 	lsl	r3, r3, #3
    a7e4:	e50b300c 	str	r3, [fp, #-12]
    a7e8:	e51b300c 	ldr	r3, [fp, #-12]
    a7ec:	e6ef3073 	uxtb	r3, r3
    a7f0:	e54b301c 	strb	r3, [fp, #-28]
    a7f4:	e51b300c 	ldr	r3, [fp, #-12]
    a7f8:	e1a03423 	lsr	r3, r3, #8
    a7fc:	e6ef3073 	uxtb	r3, r3
    a800:	e54b301b 	strb	r3, [fp, #-27]
    a804:	e51b300c 	ldr	r3, [fp, #-12]
    a808:	e1a03823 	lsr	r3, r3, #16
    a80c:	e6ef3073 	uxtb	r3, r3
    a810:	e54b301a 	strb	r3, [fp, #-26]
    a814:	e51b300c 	ldr	r3, [fp, #-12]
    a818:	e1a03c23 	lsr	r3, r3, #24
    a81c:	e6ef3073 	uxtb	r3, r3
    a820:	e54b3019 	strb	r3, [fp, #-25]
    a824:	e51b3008 	ldr	r3, [fp, #-8]
    a828:	e6ef3073 	uxtb	r3, r3
    a82c:	e54b3018 	strb	r3, [fp, #-24]
    a830:	e51b3008 	ldr	r3, [fp, #-8]
    a834:	e1a03423 	lsr	r3, r3, #8
    a838:	e6ef3073 	uxtb	r3, r3
    a83c:	e54b3017 	strb	r3, [fp, #-23]
    a840:	e51b3008 	ldr	r3, [fp, #-8]
    a844:	e1a03823 	lsr	r3, r3, #16
    a848:	e6ef3073 	uxtb	r3, r3
    a84c:	e54b3016 	strb	r3, [fp, #-22]
    a850:	e51b3008 	ldr	r3, [fp, #-8]
    a854:	e1a03c23 	lsr	r3, r3, #24
    a858:	e6ef3073 	uxtb	r3, r3
    a85c:	e54b3015 	strb	r3, [fp, #-21]
    a860:	e51b3020 	ldr	r3, [fp, #-32]
    a864:	e5933000 	ldr	r3, [r3]
    a868:	e203303f 	and	r3, r3, #63	; 0x3f
    a86c:	e50b3010 	str	r3, [fp, #-16]
    a870:	e51b3010 	ldr	r3, [fp, #-16]
    a874:	e3530037 	cmp	r3, #55	; 0x37
    a878:	8a000002 	bhi	a888 <md4_finish+0xe4>
    a87c:	e51b3010 	ldr	r3, [fp, #-16]
    a880:	e2633038 	rsb	r3, r3, #56	; 0x38
    a884:	ea000001 	b	a890 <md4_finish+0xec>
    a888:	e51b3010 	ldr	r3, [fp, #-16]
    a88c:	e2633078 	rsb	r3, r3, #120	; 0x78
    a890:	e50b3014 	str	r3, [fp, #-20]
    a894:	e51b0020 	ldr	r0, [fp, #-32]
    a898:	e59f11cc 	ldr	r1, [pc, #460]	; aa6c <md4_finish+0x2c8>
    a89c:	e51b2014 	ldr	r2, [fp, #-20]
    a8a0:	eb00051c 	bl	bd18 <md4_update>
    a8a4:	e24b301c 	sub	r3, fp, #28
    a8a8:	e51b0020 	ldr	r0, [fp, #-32]
    a8ac:	e1a01003 	mov	r1, r3
    a8b0:	e3a02008 	mov	r2, #8
    a8b4:	eb000517 	bl	bd18 <md4_update>
    a8b8:	e51b3020 	ldr	r3, [fp, #-32]
    a8bc:	e5933008 	ldr	r3, [r3, #8]
    a8c0:	e6ef2073 	uxtb	r2, r3
    a8c4:	e51b3024 	ldr	r3, [fp, #-36]	; 0x24
    a8c8:	e5c32000 	strb	r2, [r3]
    a8cc:	e51b3024 	ldr	r3, [fp, #-36]	; 0x24
    a8d0:	e2833001 	add	r3, r3, #1
    a8d4:	e51b2020 	ldr	r2, [fp, #-32]
    a8d8:	e5922008 	ldr	r2, [r2, #8]
    a8dc:	e1a02422 	lsr	r2, r2, #8
    a8e0:	e6ef2072 	uxtb	r2, r2
    a8e4:	e5c32000 	strb	r2, [r3]
    a8e8:	e51b3024 	ldr	r3, [fp, #-36]	; 0x24
    a8ec:	e2833002 	add	r3, r3, #2
    a8f0:	e51b2020 	ldr	r2, [fp, #-32]
    a8f4:	e5922008 	ldr	r2, [r2, #8]
    a8f8:	e1a02822 	lsr	r2, r2, #16
    a8fc:	e6ef2072 	uxtb	r2, r2
    a900:	e5c32000 	strb	r2, [r3]
    a904:	e51b3024 	ldr	r3, [fp, #-36]	; 0x24
    a908:	e2833003 	add	r3, r3, #3
    a90c:	e51b2020 	ldr	r2, [fp, #-32]
    a910:	e5922008 	ldr	r2, [r2, #8]
    a914:	e1a02c22 	lsr	r2, r2, #24
    a918:	e6ef2072 	uxtb	r2, r2
    a91c:	e5c32000 	strb	r2, [r3]
    a920:	e51b3024 	ldr	r3, [fp, #-36]	; 0x24
    a924:	e2833004 	add	r3, r3, #4
    a928:	e51b2020 	ldr	r2, [fp, #-32]
    a92c:	e592200c 	ldr	r2, [r2, #12]
    a930:	e6ef2072 	uxtb	r2, r2
    a934:	e5c32000 	strb	r2, [r3]
    a938:	e51b3024 	ldr	r3, [fp, #-36]	; 0x24
    a93c:	e2833005 	add	r3, r3, #5
    a940:	e51b2020 	ldr	r2, [fp, #-32]
    a944:	e592200c 	ldr	r2, [r2, #12]
    a948:	e1a02422 	lsr	r2, r2, #8
    a94c:	e6ef2072 	uxtb	r2, r2
    a950:	e5c32000 	strb	r2, [r3]
    a954:	e51b3024 	ldr	r3, [fp, #-36]	; 0x24
    a958:	e2833006 	add	r3, r3, #6
    a95c:	e51b2020 	ldr	r2, [fp, #-32]
    a960:	e592200c 	ldr	r2, [r2, #12]
    a964:	e1a02822 	lsr	r2, r2, #16
    a968:	e6ef2072 	uxtb	r2, r2
    a96c:	e5c32000 	strb	r2, [r3]
    a970:	e51b3024 	ldr	r3, [fp, #-36]	; 0x24
    a974:	e2833007 	add	r3, r3, #7
    a978:	e51b2020 	ldr	r2, [fp, #-32]
    a97c:	e592200c 	ldr	r2, [r2, #12]
    a980:	e1a02c22 	lsr	r2, r2, #24
    a984:	e6ef2072 	uxtb	r2, r2
    a988:	e5c32000 	strb	r2, [r3]
    a98c:	e51b3024 	ldr	r3, [fp, #-36]	; 0x24
    a990:	e2833008 	add	r3, r3, #8
    a994:	e51b2020 	ldr	r2, [fp, #-32]
    a998:	e5922010 	ldr	r2, [r2, #16]
    a99c:	e6ef2072 	uxtb	r2, r2
    a9a0:	e5c32000 	strb	r2, [r3]
    a9a4:	e51b3024 	ldr	r3, [fp, #-36]	; 0x24
    a9a8:	e2833009 	add	r3, r3, #9
    a9ac:	e51b2020 	ldr	r2, [fp, #-32]
    a9b0:	e5922010 	ldr	r2, [r2, #16]
    a9b4:	e1a02422 	lsr	r2, r2, #8
    a9b8:	e6ef2072 	uxtb	r2, r2
    a9bc:	e5c32000 	strb	r2, [r3]
    a9c0:	e51b3024 	ldr	r3, [fp, #-36]	; 0x24
    a9c4:	e283300a 	add	r3, r3, #10
    a9c8:	e51b2020 	ldr	r2, [fp, #-32]
    a9cc:	e5922010 	ldr	r2, [r2, #16]
    a9d0:	e1a02822 	lsr	r2, r2, #16
    a9d4:	e6ef2072 	uxtb	r2, r2
    a9d8:	e5c32000 	strb	r2, [r3]
    a9dc:	e51b3024 	ldr	r3, [fp, #-36]	; 0x24
    a9e0:	e283300b 	add	r3, r3, #11
    a9e4:	e51b2020 	ldr	r2, [fp, #-32]
    a9e8:	e5922010 	ldr	r2, [r2, #16]
    a9ec:	e1a02c22 	lsr	r2, r2, #24
    a9f0:	e6ef2072 	uxtb	r2, r2
    a9f4:	e5c32000 	strb	r2, [r3]
    a9f8:	e51b3024 	ldr	r3, [fp, #-36]	; 0x24
    a9fc:	e283300c 	add	r3, r3, #12
    aa00:	e51b2020 	ldr	r2, [fp, #-32]
    aa04:	e5922014 	ldr	r2, [r2, #20]
    aa08:	e6ef2072 	uxtb	r2, r2
    aa0c:	e5c32000 	strb	r2, [r3]
    aa10:	e51b3024 	ldr	r3, [fp, #-36]	; 0x24
    aa14:	e283300d 	add	r3, r3, #13
    aa18:	e51b2020 	ldr	r2, [fp, #-32]
    aa1c:	e5922014 	ldr	r2, [r2, #20]
    aa20:	e1a02422 	lsr	r2, r2, #8
    aa24:	e6ef2072 	uxtb	r2, r2
    aa28:	e5c32000 	strb	r2, [r3]
    aa2c:	e51b3024 	ldr	r3, [fp, #-36]	; 0x24
    aa30:	e283300e 	add	r3, r3, #14
    aa34:	e51b2020 	ldr	r2, [fp, #-32]
    aa38:	e5922014 	ldr	r2, [r2, #20]
    aa3c:	e1a02822 	lsr	r2, r2, #16
    aa40:	e6ef2072 	uxtb	r2, r2
    aa44:	e5c32000 	strb	r2, [r3]
    aa48:	e51b3024 	ldr	r3, [fp, #-36]	; 0x24
    aa4c:	e283300f 	add	r3, r3, #15
    aa50:	e51b2020 	ldr	r2, [fp, #-32]
    aa54:	e5922014 	ldr	r2, [r2, #20]
    aa58:	e1a02c22 	lsr	r2, r2, #24
    aa5c:	e6ef2072 	uxtb	r2, r2
    aa60:	e5c32000 	strb	r2, [r3]
    aa64:	e24bd004 	sub	sp, fp, #4
    aa68:	e8bd8800 	pop	{fp, pc}
    aa6c:	0001e748 	.word	0x0001e748

0000aa70 <md4_process>:
    aa70:	e52db004 	push	{fp}		; (str fp, [sp, #-4]!)
    aa74:	e28db000 	add	fp, sp, #0
    aa78:	e24dd05c 	sub	sp, sp, #92	; 0x5c
    aa7c:	e50b0058 	str	r0, [fp, #-88]	; 0x58
    aa80:	e50b105c 	str	r1, [fp, #-92]	; 0x5c
    aa84:	e51b305c 	ldr	r3, [fp, #-92]	; 0x5c
    aa88:	e5d33000 	ldrb	r3, [r3]
    aa8c:	e1a02003 	mov	r2, r3
    aa90:	e51b305c 	ldr	r3, [fp, #-92]	; 0x5c
    aa94:	e2833001 	add	r3, r3, #1
    aa98:	e5d33000 	ldrb	r3, [r3]
    aa9c:	e1a03403 	lsl	r3, r3, #8
    aaa0:	e1822003 	orr	r2, r2, r3
    aaa4:	e51b305c 	ldr	r3, [fp, #-92]	; 0x5c
    aaa8:	e2833002 	add	r3, r3, #2
    aaac:	e5d33000 	ldrb	r3, [r3]
    aab0:	e1a03803 	lsl	r3, r3, #16
    aab4:	e1822003 	orr	r2, r2, r3
    aab8:	e51b305c 	ldr	r3, [fp, #-92]	; 0x5c
    aabc:	e2833003 	add	r3, r3, #3
    aac0:	e5d33000 	ldrb	r3, [r3]
    aac4:	e1a03c03 	lsl	r3, r3, #24
    aac8:	e1823003 	orr	r3, r2, r3
    aacc:	e50b3054 	str	r3, [fp, #-84]	; 0x54
    aad0:	e51b305c 	ldr	r3, [fp, #-92]	; 0x5c
    aad4:	e2833004 	add	r3, r3, #4
    aad8:	e5d33000 	ldrb	r3, [r3]
    aadc:	e1a02003 	mov	r2, r3
    aae0:	e51b305c 	ldr	r3, [fp, #-92]	; 0x5c
    aae4:	e2833005 	add	r3, r3, #5
    aae8:	e5d33000 	ldrb	r3, [r3]
    aaec:	e1a03403 	lsl	r3, r3, #8
    aaf0:	e1822003 	orr	r2, r2, r3
    aaf4:	e51b305c 	ldr	r3, [fp, #-92]	; 0x5c
    aaf8:	e2833006 	add	r3, r3, #6
    aafc:	e5d33000 	ldrb	r3, [r3]
    ab00:	e1a03803 	lsl	r3, r3, #16
    ab04:	e1822003 	orr	r2, r2, r3
    ab08:	e51b305c 	ldr	r3, [fp, #-92]	; 0x5c
    ab0c:	e2833007 	add	r3, r3, #7
    ab10:	e5d33000 	ldrb	r3, [r3]
    ab14:	e1a03c03 	lsl	r3, r3, #24
    ab18:	e1823003 	orr	r3, r2, r3
    ab1c:	e50b3050 	str	r3, [fp, #-80]	; 0x50
    ab20:	e51b305c 	ldr	r3, [fp, #-92]	; 0x5c
    ab24:	e2833008 	add	r3, r3, #8
    ab28:	e5d33000 	ldrb	r3, [r3]
    ab2c:	e1a02003 	mov	r2, r3
    ab30:	e51b305c 	ldr	r3, [fp, #-92]	; 0x5c
    ab34:	e2833009 	add	r3, r3, #9
    ab38:	e5d33000 	ldrb	r3, [r3]
    ab3c:	e1a03403 	lsl	r3, r3, #8
    ab40:	e1822003 	orr	r2, r2, r3
    ab44:	e51b305c 	ldr	r3, [fp, #-92]	; 0x5c
    ab48:	e283300a 	add	r3, r3, #10
    ab4c:	e5d33000 	ldrb	r3, [r3]
    ab50:	e1a03803 	lsl	r3, r3, #16
    ab54:	e1822003 	orr	r2, r2, r3
    ab58:	e51b305c 	ldr	r3, [fp, #-92]	; 0x5c
    ab5c:	e283300b 	add	r3, r3, #11
    ab60:	e5d33000 	ldrb	r3, [r3]
    ab64:	e1a03c03 	lsl	r3, r3, #24
    ab68:	e1823003 	orr	r3, r2, r3
    ab6c:	e50b304c 	str	r3, [fp, #-76]	; 0x4c
    ab70:	e51b305c 	ldr	r3, [fp, #-92]	; 0x5c
    ab74:	e283300c 	add	r3, r3, #12
    ab78:	e5d33000 	ldrb	r3, [r3]
    ab7c:	e1a02003 	mov	r2, r3
    ab80:	e51b305c 	ldr	r3, [fp, #-92]	; 0x5c
    ab84:	e283300d 	add	r3, r3, #13
    ab88:	e5d33000 	ldrb	r3, [r3]
    ab8c:	e1a03403 	lsl	r3, r3, #8
    ab90:	e1822003 	orr	r2, r2, r3
    ab94:	e51b305c 	ldr	r3, [fp, #-92]	; 0x5c
    ab98:	e283300e 	add	r3, r3, #14
    ab9c:	e5d33000 	ldrb	r3, [r3]
    aba0:	e1a03803 	lsl	r3, r3, #16
    aba4:	e1822003 	orr	r2, r2, r3
    aba8:	e51b305c 	ldr	r3, [fp, #-92]	; 0x5c
    abac:	e283300f 	add	r3, r3, #15
    abb0:	e5d33000 	ldrb	r3, [r3]
    abb4:	e1a03c03 	lsl	r3, r3, #24
    abb8:	e1823003 	orr	r3, r2, r3
    abbc:	e50b3048 	str	r3, [fp, #-72]	; 0x48
    abc0:	e51b305c 	ldr	r3, [fp, #-92]	; 0x5c
    abc4:	e2833010 	add	r3, r3, #16
    abc8:	e5d33000 	ldrb	r3, [r3]
    abcc:	e1a02003 	mov	r2, r3
    abd0:	e51b305c 	ldr	r3, [fp, #-92]	; 0x5c
    abd4:	e2833011 	add	r3, r3, #17
    abd8:	e5d33000 	ldrb	r3, [r3]
    abdc:	e1a03403 	lsl	r3, r3, #8
    abe0:	e1822003 	orr	r2, r2, r3
    abe4:	e51b305c 	ldr	r3, [fp, #-92]	; 0x5c
    abe8:	e2833012 	add	r3, r3, #18
    abec:	e5d33000 	ldrb	r3, [r3]
    abf0:	e1a03803 	lsl	r3, r3, #16
    abf4:	e1822003 	orr	r2, r2, r3
    abf8:	e51b305c 	ldr	r3, [fp, #-92]	; 0x5c
    abfc:	e2833013 	add	r3, r3, #19
    ac00:	e5d33000 	ldrb	r3, [r3]
    ac04:	e1a03c03 	lsl	r3, r3, #24
    ac08:	e1823003 	orr	r3, r2, r3
    ac0c:	e50b3044 	str	r3, [fp, #-68]	; 0x44
    ac10:	e51b305c 	ldr	r3, [fp, #-92]	; 0x5c
    ac14:	e2833014 	add	r3, r3, #20
    ac18:	e5d33000 	ldrb	r3, [r3]
    ac1c:	e1a02003 	mov	r2, r3
    ac20:	e51b305c 	ldr	r3, [fp, #-92]	; 0x5c
    ac24:	e2833015 	add	r3, r3, #21
    ac28:	e5d33000 	ldrb	r3, [r3]
    ac2c:	e1a03403 	lsl	r3, r3, #8
    ac30:	e1822003 	orr	r2, r2, r3
    ac34:	e51b305c 	ldr	r3, [fp, #-92]	; 0x5c
    ac38:	e2833016 	add	r3, r3, #22
    ac3c:	e5d33000 	ldrb	r3, [r3]
    ac40:	e1a03803 	lsl	r3, r3, #16
    ac44:	e1822003 	orr	r2, r2, r3
    ac48:	e51b305c 	ldr	r3, [fp, #-92]	; 0x5c
    ac4c:	e2833017 	add	r3, r3, #23
    ac50:	e5d33000 	ldrb	r3, [r3]
    ac54:	e1a03c03 	lsl	r3, r3, #24
    ac58:	e1823003 	orr	r3, r2, r3
    ac5c:	e50b3040 	str	r3, [fp, #-64]	; 0x40
    ac60:	e51b305c 	ldr	r3, [fp, #-92]	; 0x5c
    ac64:	e2833018 	add	r3, r3, #24
    ac68:	e5d33000 	ldrb	r3, [r3]
    ac6c:	e1a02003 	mov	r2, r3
    ac70:	e51b305c 	ldr	r3, [fp, #-92]	; 0x5c
    ac74:	e2833019 	add	r3, r3, #25
    ac78:	e5d33000 	ldrb	r3, [r3]
    ac7c:	e1a03403 	lsl	r3, r3, #8
    ac80:	e1822003 	orr	r2, r2, r3
    ac84:	e51b305c 	ldr	r3, [fp, #-92]	; 0x5c
    ac88:	e283301a 	add	r3, r3, #26
    ac8c:	e5d33000 	ldrb	r3, [r3]
    ac90:	e1a03803 	lsl	r3, r3, #16
    ac94:	e1822003 	orr	r2, r2, r3
    ac98:	e51b305c 	ldr	r3, [fp, #-92]	; 0x5c
    ac9c:	e283301b 	add	r3, r3, #27
    aca0:	e5d33000 	ldrb	r3, [r3]
    aca4:	e1a03c03 	lsl	r3, r3, #24
    aca8:	e1823003 	orr	r3, r2, r3
    acac:	e50b303c 	str	r3, [fp, #-60]	; 0x3c
    acb0:	e51b305c 	ldr	r3, [fp, #-92]	; 0x5c
    acb4:	e283301c 	add	r3, r3, #28
    acb8:	e5d33000 	ldrb	r3, [r3]
    acbc:	e1a02003 	mov	r2, r3
    acc0:	e51b305c 	ldr	r3, [fp, #-92]	; 0x5c
    acc4:	e283301d 	add	r3, r3, #29
    acc8:	e5d33000 	ldrb	r3, [r3]
    accc:	e1a03403 	lsl	r3, r3, #8
    acd0:	e1822003 	orr	r2, r2, r3
    acd4:	e51b305c 	ldr	r3, [fp, #-92]	; 0x5c
    acd8:	e283301e 	add	r3, r3, #30
    acdc:	e5d33000 	ldrb	r3, [r3]
    ace0:	e1a03803 	lsl	r3, r3, #16
    ace4:	e1822003 	orr	r2, r2, r3
    ace8:	e51b305c 	ldr	r3, [fp, #-92]	; 0x5c
    acec:	e283301f 	add	r3, r3, #31
    acf0:	e5d33000 	ldrb	r3, [r3]
    acf4:	e1a03c03 	lsl	r3, r3, #24
    acf8:	e1823003 	orr	r3, r2, r3
    acfc:	e50b3038 	str	r3, [fp, #-56]	; 0x38
    ad00:	e51b305c 	ldr	r3, [fp, #-92]	; 0x5c
    ad04:	e2833020 	add	r3, r3, #32
    ad08:	e5d33000 	ldrb	r3, [r3]
    ad0c:	e1a02003 	mov	r2, r3
    ad10:	e51b305c 	ldr	r3, [fp, #-92]	; 0x5c
    ad14:	e2833021 	add	r3, r3, #33	; 0x21
    ad18:	e5d33000 	ldrb	r3, [r3]
    ad1c:	e1a03403 	lsl	r3, r3, #8
    ad20:	e1822003 	orr	r2, r2, r3
    ad24:	e51b305c 	ldr	r3, [fp, #-92]	; 0x5c
    ad28:	e2833022 	add	r3, r3, #34	; 0x22
    ad2c:	e5d33000 	ldrb	r3, [r3]
    ad30:	e1a03803 	lsl	r3, r3, #16
    ad34:	e1822003 	orr	r2, r2, r3
    ad38:	e51b305c 	ldr	r3, [fp, #-92]	; 0x5c
    ad3c:	e2833023 	add	r3, r3, #35	; 0x23
    ad40:	e5d33000 	ldrb	r3, [r3]
    ad44:	e1a03c03 	lsl	r3, r3, #24
    ad48:	e1823003 	orr	r3, r2, r3
    ad4c:	e50b3034 	str	r3, [fp, #-52]	; 0x34
    ad50:	e51b305c 	ldr	r3, [fp, #-92]	; 0x5c
    ad54:	e2833024 	add	r3, r3, #36	; 0x24
    ad58:	e5d33000 	ldrb	r3, [r3]
    ad5c:	e1a02003 	mov	r2, r3
    ad60:	e51b305c 	ldr	r3, [fp, #-92]	; 0x5c
    ad64:	e2833025 	add	r3, r3, #37	; 0x25
    ad68:	e5d33000 	ldrb	r3, [r3]
    ad6c:	e1a03403 	lsl	r3, r3, #8
    ad70:	e1822003 	orr	r2, r2, r3
    ad74:	e51b305c 	ldr	r3, [fp, #-92]	; 0x5c
    ad78:	e2833026 	add	r3, r3, #38	; 0x26
    ad7c:	e5d33000 	ldrb	r3, [r3]
    ad80:	e1a03803 	lsl	r3, r3, #16
    ad84:	e1822003 	orr	r2, r2, r3
    ad88:	e51b305c 	ldr	r3, [fp, #-92]	; 0x5c
    ad8c:	e2833027 	add	r3, r3, #39	; 0x27
    ad90:	e5d33000 	ldrb	r3, [r3]
    ad94:	e1a03c03 	lsl	r3, r3, #24
    ad98:	e1823003 	orr	r3, r2, r3
    ad9c:	e50b3030 	str	r3, [fp, #-48]	; 0x30
    ada0:	e51b305c 	ldr	r3, [fp, #-92]	; 0x5c
    ada4:	e2833028 	add	r3, r3, #40	; 0x28
    ada8:	e5d33000 	ldrb	r3, [r3]
    adac:	e1a02003 	mov	r2, r3
    adb0:	e51b305c 	ldr	r3, [fp, #-92]	; 0x5c
    adb4:	e2833029 	add	r3, r3, #41	; 0x29
    adb8:	e5d33000 	ldrb	r3, [r3]
    adbc:	e1a03403 	lsl	r3, r3, #8
    adc0:	e1822003 	orr	r2, r2, r3
    adc4:	e51b305c 	ldr	r3, [fp, #-92]	; 0x5c
    adc8:	e283302a 	add	r3, r3, #42	; 0x2a
    adcc:	e5d33000 	ldrb	r3, [r3]
    add0:	e1a03803 	lsl	r3, r3, #16
    add4:	e1822003 	orr	r2, r2, r3
    add8:	e51b305c 	ldr	r3, [fp, #-92]	; 0x5c
    addc:	e283302b 	add	r3, r3, #43	; 0x2b
    ade0:	e5d33000 	ldrb	r3, [r3]
    ade4:	e1a03c03 	lsl	r3, r3, #24
    ade8:	e1823003 	orr	r3, r2, r3
    adec:	e50b302c 	str	r3, [fp, #-44]	; 0x2c
    adf0:	e51b305c 	ldr	r3, [fp, #-92]	; 0x5c
    adf4:	e283302c 	add	r3, r3, #44	; 0x2c
    adf8:	e5d33000 	ldrb	r3, [r3]
    adfc:	e1a02003 	mov	r2, r3
    ae00:	e51b305c 	ldr	r3, [fp, #-92]	; 0x5c
    ae04:	e283302d 	add	r3, r3, #45	; 0x2d
    ae08:	e5d33000 	ldrb	r3, [r3]
    ae0c:	e1a03403 	lsl	r3, r3, #8
    ae10:	e1822003 	orr	r2, r2, r3
    ae14:	e51b305c 	ldr	r3, [fp, #-92]	; 0x5c
    ae18:	e283302e 	add	r3, r3, #46	; 0x2e
    ae1c:	e5d33000 	ldrb	r3, [r3]
    ae20:	e1a03803 	lsl	r3, r3, #16
    ae24:	e1822003 	orr	r2, r2, r3
    ae28:	e51b305c 	ldr	r3, [fp, #-92]	; 0x5c
    ae2c:	e283302f 	add	r3, r3, #47	; 0x2f
    ae30:	e5d33000 	ldrb	r3, [r3]
    ae34:	e1a03c03 	lsl	r3, r3, #24
    ae38:	e1823003 	orr	r3, r2, r3
    ae3c:	e50b3028 	str	r3, [fp, #-40]	; 0x28
    ae40:	e51b305c 	ldr	r3, [fp, #-92]	; 0x5c
    ae44:	e2833030 	add	r3, r3, #48	; 0x30
    ae48:	e5d33000 	ldrb	r3, [r3]
    ae4c:	e1a02003 	mov	r2, r3
    ae50:	e51b305c 	ldr	r3, [fp, #-92]	; 0x5c
    ae54:	e2833031 	add	r3, r3, #49	; 0x31
    ae58:	e5d33000 	ldrb	r3, [r3]
    ae5c:	e1a03403 	lsl	r3, r3, #8
    ae60:	e1822003 	orr	r2, r2, r3
    ae64:	e51b305c 	ldr	r3, [fp, #-92]	; 0x5c
    ae68:	e2833032 	add	r3, r3, #50	; 0x32
    ae6c:	e5d33000 	ldrb	r3, [r3]
    ae70:	e1a03803 	lsl	r3, r3, #16
    ae74:	e1822003 	orr	r2, r2, r3
    ae78:	e51b305c 	ldr	r3, [fp, #-92]	; 0x5c
    ae7c:	e2833033 	add	r3, r3, #51	; 0x33
    ae80:	e5d33000 	ldrb	r3, [r3]
    ae84:	e1a03c03 	lsl	r3, r3, #24
    ae88:	e1823003 	orr	r3, r2, r3
    ae8c:	e50b3024 	str	r3, [fp, #-36]	; 0x24
    ae90:	e51b305c 	ldr	r3, [fp, #-92]	; 0x5c
    ae94:	e2833034 	add	r3, r3, #52	; 0x34
    ae98:	e5d33000 	ldrb	r3, [r3]
    ae9c:	e1a02003 	mov	r2, r3
    aea0:	e51b305c 	ldr	r3, [fp, #-92]	; 0x5c
    aea4:	e2833035 	add	r3, r3, #53	; 0x35
    aea8:	e5d33000 	ldrb	r3, [r3]
    aeac:	e1a03403 	lsl	r3, r3, #8
    aeb0:	e1822003 	orr	r2, r2, r3
    aeb4:	e51b305c 	ldr	r3, [fp, #-92]	; 0x5c
    aeb8:	e2833036 	add	r3, r3, #54	; 0x36
    aebc:	e5d33000 	ldrb	r3, [r3]
    aec0:	e1a03803 	lsl	r3, r3, #16
    aec4:	e1822003 	orr	r2, r2, r3
    aec8:	e51b305c 	ldr	r3, [fp, #-92]	; 0x5c
    aecc:	e2833037 	add	r3, r3, #55	; 0x37
    aed0:	e5d33000 	ldrb	r3, [r3]
    aed4:	e1a03c03 	lsl	r3, r3, #24
    aed8:	e1823003 	orr	r3, r2, r3
    aedc:	e50b3020 	str	r3, [fp, #-32]
    aee0:	e51b305c 	ldr	r3, [fp, #-92]	; 0x5c
    aee4:	e2833038 	add	r3, r3, #56	; 0x38
    aee8:	e5d33000 	ldrb	r3, [r3]
    aeec:	e1a02003 	mov	r2, r3
    aef0:	e51b305c 	ldr	r3, [fp, #-92]	; 0x5c
    aef4:	e2833039 	add	r3, r3, #57	; 0x39
    aef8:	e5d33000 	ldrb	r3, [r3]
    aefc:	e1a03403 	lsl	r3, r3, #8
    af00:	e1822003 	orr	r2, r2, r3
    af04:	e51b305c 	ldr	r3, [fp, #-92]	; 0x5c
    af08:	e283303a 	add	r3, r3, #58	; 0x3a
    af0c:	e5d33000 	ldrb	r3, [r3]
    af10:	e1a03803 	lsl	r3, r3, #16
    af14:	e1822003 	orr	r2, r2, r3
    af18:	e51b305c 	ldr	r3, [fp, #-92]	; 0x5c
    af1c:	e283303b 	add	r3, r3, #59	; 0x3b
    af20:	e5d33000 	ldrb	r3, [r3]
    af24:	e1a03c03 	lsl	r3, r3, #24
    af28:	e1823003 	orr	r3, r2, r3
    af2c:	e50b301c 	str	r3, [fp, #-28]
    af30:	e51b305c 	ldr	r3, [fp, #-92]	; 0x5c
    af34:	e283303c 	add	r3, r3, #60	; 0x3c
    af38:	e5d33000 	ldrb	r3, [r3]
    af3c:	e1a02003 	mov	r2, r3
    af40:	e51b305c 	ldr	r3, [fp, #-92]	; 0x5c
    af44:	e283303d 	add	r3, r3, #61	; 0x3d
    af48:	e5d33000 	ldrb	r3, [r3]
    af4c:	e1a03403 	lsl	r3, r3, #8
    af50:	e1822003 	orr	r2, r2, r3
    af54:	e51b305c 	ldr	r3, [fp, #-92]	; 0x5c
    af58:	e283303e 	add	r3, r3, #62	; 0x3e
    af5c:	e5d33000 	ldrb	r3, [r3]
    af60:	e1a03803 	lsl	r3, r3, #16
    af64:	e1822003 	orr	r2, r2, r3
    af68:	e51b305c 	ldr	r3, [fp, #-92]	; 0x5c
    af6c:	e283303f 	add	r3, r3, #63	; 0x3f
    af70:	e5d33000 	ldrb	r3, [r3]
    af74:	e1a03c03 	lsl	r3, r3, #24
    af78:	e1823003 	orr	r3, r2, r3
    af7c:	e50b3018 	str	r3, [fp, #-24]
    af80:	e51b3058 	ldr	r3, [fp, #-88]	; 0x58
    af84:	e5933008 	ldr	r3, [r3, #8]
    af88:	e50b3008 	str	r3, [fp, #-8]
    af8c:	e51b3058 	ldr	r3, [fp, #-88]	; 0x58
    af90:	e593300c 	ldr	r3, [r3, #12]
    af94:	e50b300c 	str	r3, [fp, #-12]
    af98:	e51b3058 	ldr	r3, [fp, #-88]	; 0x58
    af9c:	e5933010 	ldr	r3, [r3, #16]
    afa0:	e50b3010 	str	r3, [fp, #-16]
    afa4:	e51b3058 	ldr	r3, [fp, #-88]	; 0x58
    afa8:	e5933014 	ldr	r3, [r3, #20]
    afac:	e50b3014 	str	r3, [fp, #-20]
    afb0:	e51b200c 	ldr	r2, [fp, #-12]
    afb4:	e51b3010 	ldr	r3, [fp, #-16]
    afb8:	e0022003 	and	r2, r2, r3
    afbc:	e51b300c 	ldr	r3, [fp, #-12]
    afc0:	e1e01003 	mvn	r1, r3
    afc4:	e51b3014 	ldr	r3, [fp, #-20]
    afc8:	e0013003 	and	r3, r1, r3
    afcc:	e1822003 	orr	r2, r2, r3
    afd0:	e51b3054 	ldr	r3, [fp, #-84]	; 0x54
    afd4:	e0823003 	add	r3, r2, r3
    afd8:	e51b2008 	ldr	r2, [fp, #-8]
    afdc:	e0823003 	add	r3, r2, r3
    afe0:	e50b3008 	str	r3, [fp, #-8]
    afe4:	e51b3008 	ldr	r3, [fp, #-8]
    afe8:	e1a03ee3 	ror	r3, r3, #29
    afec:	e50b3008 	str	r3, [fp, #-8]
    aff0:	e51b2008 	ldr	r2, [fp, #-8]
    aff4:	e51b300c 	ldr	r3, [fp, #-12]
    aff8:	e0022003 	and	r2, r2, r3
    affc:	e51b3008 	ldr	r3, [fp, #-8]
    b000:	e1e01003 	mvn	r1, r3
    b004:	e51b3010 	ldr	r3, [fp, #-16]
    b008:	e0013003 	and	r3, r1, r3
    b00c:	e1822003 	orr	r2, r2, r3
    b010:	e51b3050 	ldr	r3, [fp, #-80]	; 0x50
    b014:	e0823003 	add	r3, r2, r3
    b018:	e51b2014 	ldr	r2, [fp, #-20]
    b01c:	e0823003 	add	r3, r2, r3
    b020:	e50b3014 	str	r3, [fp, #-20]
    b024:	e51b3014 	ldr	r3, [fp, #-20]
    b028:	e1a03ce3 	ror	r3, r3, #25
    b02c:	e50b3014 	str	r3, [fp, #-20]
    b030:	e51b2014 	ldr	r2, [fp, #-20]
    b034:	e51b3008 	ldr	r3, [fp, #-8]
    b038:	e0022003 	and	r2, r2, r3
    b03c:	e51b3014 	ldr	r3, [fp, #-20]
    b040:	e1e01003 	mvn	r1, r3
    b044:	e51b300c 	ldr	r3, [fp, #-12]
    b048:	e0013003 	and	r3, r1, r3
    b04c:	e1822003 	orr	r2, r2, r3
    b050:	e51b304c 	ldr	r3, [fp, #-76]	; 0x4c
    b054:	e0823003 	add	r3, r2, r3
    b058:	e51b2010 	ldr	r2, [fp, #-16]
    b05c:	e0823003 	add	r3, r2, r3
    b060:	e50b3010 	str	r3, [fp, #-16]
    b064:	e51b3010 	ldr	r3, [fp, #-16]
    b068:	e1a03ae3 	ror	r3, r3, #21
    b06c:	e50b3010 	str	r3, [fp, #-16]
    b070:	e51b2010 	ldr	r2, [fp, #-16]
    b074:	e51b3014 	ldr	r3, [fp, #-20]
    b078:	e0022003 	and	r2, r2, r3
    b07c:	e51b3010 	ldr	r3, [fp, #-16]
    b080:	e1e01003 	mvn	r1, r3
    b084:	e51b3008 	ldr	r3, [fp, #-8]
    b088:	e0013003 	and	r3, r1, r3
    b08c:	e1822003 	orr	r2, r2, r3
    b090:	e51b3048 	ldr	r3, [fp, #-72]	; 0x48
    b094:	e0823003 	add	r3, r2, r3
    b098:	e51b200c 	ldr	r2, [fp, #-12]
    b09c:	e0823003 	add	r3, r2, r3
    b0a0:	e50b300c 	str	r3, [fp, #-12]
    b0a4:	e51b300c 	ldr	r3, [fp, #-12]
    b0a8:	e1a036e3 	ror	r3, r3, #13
    b0ac:	e50b300c 	str	r3, [fp, #-12]
    b0b0:	e51b200c 	ldr	r2, [fp, #-12]
    b0b4:	e51b3010 	ldr	r3, [fp, #-16]
    b0b8:	e0022003 	and	r2, r2, r3
    b0bc:	e51b300c 	ldr	r3, [fp, #-12]
    b0c0:	e1e01003 	mvn	r1, r3
    b0c4:	e51b3014 	ldr	r3, [fp, #-20]
    b0c8:	e0013003 	and	r3, r1, r3
    b0cc:	e1822003 	orr	r2, r2, r3
    b0d0:	e51b3044 	ldr	r3, [fp, #-68]	; 0x44
    b0d4:	e0823003 	add	r3, r2, r3
    b0d8:	e51b2008 	ldr	r2, [fp, #-8]
    b0dc:	e0823003 	add	r3, r2, r3
    b0e0:	e50b3008 	str	r3, [fp, #-8]
    b0e4:	e51b3008 	ldr	r3, [fp, #-8]
    b0e8:	e1a03ee3 	ror	r3, r3, #29
    b0ec:	e50b3008 	str	r3, [fp, #-8]
    b0f0:	e51b2008 	ldr	r2, [fp, #-8]
    b0f4:	e51b300c 	ldr	r3, [fp, #-12]
    b0f8:	e0022003 	and	r2, r2, r3
    b0fc:	e51b3008 	ldr	r3, [fp, #-8]
    b100:	e1e01003 	mvn	r1, r3
    b104:	e51b3010 	ldr	r3, [fp, #-16]
    b108:	e0013003 	and	r3, r1, r3
    b10c:	e1822003 	orr	r2, r2, r3
    b110:	e51b3040 	ldr	r3, [fp, #-64]	; 0x40
    b114:	e0823003 	add	r3, r2, r3
    b118:	e51b2014 	ldr	r2, [fp, #-20]
    b11c:	e0823003 	add	r3, r2, r3
    b120:	e50b3014 	str	r3, [fp, #-20]
    b124:	e51b3014 	ldr	r3, [fp, #-20]
    b128:	e1a03ce3 	ror	r3, r3, #25
    b12c:	e50b3014 	str	r3, [fp, #-20]
    b130:	e51b2014 	ldr	r2, [fp, #-20]
    b134:	e51b3008 	ldr	r3, [fp, #-8]
    b138:	e0022003 	and	r2, r2, r3
    b13c:	e51b3014 	ldr	r3, [fp, #-20]
    b140:	e1e01003 	mvn	r1, r3
    b144:	e51b300c 	ldr	r3, [fp, #-12]
    b148:	e0013003 	and	r3, r1, r3
    b14c:	e1822003 	orr	r2, r2, r3
    b150:	e51b303c 	ldr	r3, [fp, #-60]	; 0x3c
    b154:	e0823003 	add	r3, r2, r3
    b158:	e51b2010 	ldr	r2, [fp, #-16]
    b15c:	e0823003 	add	r3, r2, r3
    b160:	e50b3010 	str	r3, [fp, #-16]
    b164:	e51b3010 	ldr	r3, [fp, #-16]
    b168:	e1a03ae3 	ror	r3, r3, #21
    b16c:	e50b3010 	str	r3, [fp, #-16]
    b170:	e51b2010 	ldr	r2, [fp, #-16]
    b174:	e51b3014 	ldr	r3, [fp, #-20]
    b178:	e0022003 	and	r2, r2, r3
    b17c:	e51b3010 	ldr	r3, [fp, #-16]
    b180:	e1e01003 	mvn	r1, r3
    b184:	e51b3008 	ldr	r3, [fp, #-8]
    b188:	e0013003 	and	r3, r1, r3
    b18c:	e1822003 	orr	r2, r2, r3
    b190:	e51b3038 	ldr	r3, [fp, #-56]	; 0x38
    b194:	e0823003 	add	r3, r2, r3
    b198:	e51b200c 	ldr	r2, [fp, #-12]
    b19c:	e0823003 	add	r3, r2, r3
    b1a0:	e50b300c 	str	r3, [fp, #-12]
    b1a4:	e51b300c 	ldr	r3, [fp, #-12]
    b1a8:	e1a036e3 	ror	r3, r3, #13
    b1ac:	e50b300c 	str	r3, [fp, #-12]
    b1b0:	e51b200c 	ldr	r2, [fp, #-12]
    b1b4:	e51b3010 	ldr	r3, [fp, #-16]
    b1b8:	e0022003 	and	r2, r2, r3
    b1bc:	e51b300c 	ldr	r3, [fp, #-12]
    b1c0:	e1e01003 	mvn	r1, r3
    b1c4:	e51b3014 	ldr	r3, [fp, #-20]
    b1c8:	e0013003 	and	r3, r1, r3
    b1cc:	e1822003 	orr	r2, r2, r3
    b1d0:	e51b3034 	ldr	r3, [fp, #-52]	; 0x34
    b1d4:	e0823003 	add	r3, r2, r3
    b1d8:	e51b2008 	ldr	r2, [fp, #-8]
    b1dc:	e0823003 	add	r3, r2, r3
    b1e0:	e50b3008 	str	r3, [fp, #-8]
    b1e4:	e51b3008 	ldr	r3, [fp, #-8]
    b1e8:	e1a03ee3 	ror	r3, r3, #29
    b1ec:	e50b3008 	str	r3, [fp, #-8]
    b1f0:	e51b2008 	ldr	r2, [fp, #-8]
    b1f4:	e51b300c 	ldr	r3, [fp, #-12]
    b1f8:	e0022003 	and	r2, r2, r3
    b1fc:	e51b3008 	ldr	r3, [fp, #-8]
    b200:	e1e01003 	mvn	r1, r3
    b204:	e51b3010 	ldr	r3, [fp, #-16]
    b208:	e0013003 	and	r3, r1, r3
    b20c:	e1822003 	orr	r2, r2, r3
    b210:	e51b3030 	ldr	r3, [fp, #-48]	; 0x30
    b214:	e0823003 	add	r3, r2, r3
    b218:	e51b2014 	ldr	r2, [fp, #-20]
    b21c:	e0823003 	add	r3, r2, r3
    b220:	e50b3014 	str	r3, [fp, #-20]
    b224:	e51b3014 	ldr	r3, [fp, #-20]
    b228:	e1a03ce3 	ror	r3, r3, #25
    b22c:	e50b3014 	str	r3, [fp, #-20]
    b230:	e51b2014 	ldr	r2, [fp, #-20]
    b234:	e51b3008 	ldr	r3, [fp, #-8]
    b238:	e0022003 	and	r2, r2, r3
    b23c:	e51b3014 	ldr	r3, [fp, #-20]
    b240:	e1e01003 	mvn	r1, r3
    b244:	e51b300c 	ldr	r3, [fp, #-12]
    b248:	e0013003 	and	r3, r1, r3
    b24c:	e1822003 	orr	r2, r2, r3
    b250:	e51b302c 	ldr	r3, [fp, #-44]	; 0x2c
    b254:	e0823003 	add	r3, r2, r3
    b258:	e51b2010 	ldr	r2, [fp, #-16]
    b25c:	e0823003 	add	r3, r2, r3
    b260:	e50b3010 	str	r3, [fp, #-16]
    b264:	e51b3010 	ldr	r3, [fp, #-16]
    b268:	e1a03ae3 	ror	r3, r3, #21
    b26c:	e50b3010 	str	r3, [fp, #-16]
    b270:	e51b2010 	ldr	r2, [fp, #-16]
    b274:	e51b3014 	ldr	r3, [fp, #-20]
    b278:	e0022003 	and	r2, r2, r3
    b27c:	e51b3010 	ldr	r3, [fp, #-16]
    b280:	e1e01003 	mvn	r1, r3
    b284:	e51b3008 	ldr	r3, [fp, #-8]
    b288:	e0013003 	and	r3, r1, r3
    b28c:	e1822003 	orr	r2, r2, r3
    b290:	e51b3028 	ldr	r3, [fp, #-40]	; 0x28
    b294:	e0823003 	add	r3, r2, r3
    b298:	e51b200c 	ldr	r2, [fp, #-12]
    b29c:	e0823003 	add	r3, r2, r3
    b2a0:	e50b300c 	str	r3, [fp, #-12]
    b2a4:	e51b300c 	ldr	r3, [fp, #-12]
    b2a8:	e1a036e3 	ror	r3, r3, #13
    b2ac:	e50b300c 	str	r3, [fp, #-12]
    b2b0:	e51b200c 	ldr	r2, [fp, #-12]
    b2b4:	e51b3010 	ldr	r3, [fp, #-16]
    b2b8:	e0022003 	and	r2, r2, r3
    b2bc:	e51b300c 	ldr	r3, [fp, #-12]
    b2c0:	e1e01003 	mvn	r1, r3
    b2c4:	e51b3014 	ldr	r3, [fp, #-20]
    b2c8:	e0013003 	and	r3, r1, r3
    b2cc:	e1822003 	orr	r2, r2, r3
    b2d0:	e51b3024 	ldr	r3, [fp, #-36]	; 0x24
    b2d4:	e0823003 	add	r3, r2, r3
    b2d8:	e51b2008 	ldr	r2, [fp, #-8]
    b2dc:	e0823003 	add	r3, r2, r3
    b2e0:	e50b3008 	str	r3, [fp, #-8]
    b2e4:	e51b3008 	ldr	r3, [fp, #-8]
    b2e8:	e1a03ee3 	ror	r3, r3, #29
    b2ec:	e50b3008 	str	r3, [fp, #-8]
    b2f0:	e51b2008 	ldr	r2, [fp, #-8]
    b2f4:	e51b300c 	ldr	r3, [fp, #-12]
    b2f8:	e0022003 	and	r2, r2, r3
    b2fc:	e51b3008 	ldr	r3, [fp, #-8]
    b300:	e1e01003 	mvn	r1, r3
    b304:	e51b3010 	ldr	r3, [fp, #-16]
    b308:	e0013003 	and	r3, r1, r3
    b30c:	e1822003 	orr	r2, r2, r3
    b310:	e51b3020 	ldr	r3, [fp, #-32]
    b314:	e0823003 	add	r3, r2, r3
    b318:	e51b2014 	ldr	r2, [fp, #-20]
    b31c:	e0823003 	add	r3, r2, r3
    b320:	e50b3014 	str	r3, [fp, #-20]
    b324:	e51b3014 	ldr	r3, [fp, #-20]
    b328:	e1a03ce3 	ror	r3, r3, #25
    b32c:	e50b3014 	str	r3, [fp, #-20]
    b330:	e51b2014 	ldr	r2, [fp, #-20]
    b334:	e51b3008 	ldr	r3, [fp, #-8]
    b338:	e0022003 	and	r2, r2, r3
    b33c:	e51b3014 	ldr	r3, [fp, #-20]
    b340:	e1e01003 	mvn	r1, r3
    b344:	e51b300c 	ldr	r3, [fp, #-12]
    b348:	e0013003 	and	r3, r1, r3
    b34c:	e1822003 	orr	r2, r2, r3
    b350:	e51b301c 	ldr	r3, [fp, #-28]
    b354:	e0823003 	add	r3, r2, r3
    b358:	e51b2010 	ldr	r2, [fp, #-16]
    b35c:	e0823003 	add	r3, r2, r3
    b360:	e50b3010 	str	r3, [fp, #-16]
    b364:	e51b3010 	ldr	r3, [fp, #-16]
    b368:	e1a03ae3 	ror	r3, r3, #21
    b36c:	e50b3010 	str	r3, [fp, #-16]
    b370:	e51b2010 	ldr	r2, [fp, #-16]
    b374:	e51b3014 	ldr	r3, [fp, #-20]
    b378:	e0022003 	and	r2, r2, r3
    b37c:	e51b3010 	ldr	r3, [fp, #-16]
    b380:	e1e01003 	mvn	r1, r3
    b384:	e51b3008 	ldr	r3, [fp, #-8]
    b388:	e0013003 	and	r3, r1, r3
    b38c:	e1822003 	orr	r2, r2, r3
    b390:	e51b3018 	ldr	r3, [fp, #-24]
    b394:	e0823003 	add	r3, r2, r3
    b398:	e51b200c 	ldr	r2, [fp, #-12]
    b39c:	e0823003 	add	r3, r2, r3
    b3a0:	e50b300c 	str	r3, [fp, #-12]
    b3a4:	e51b300c 	ldr	r3, [fp, #-12]
    b3a8:	e1a036e3 	ror	r3, r3, #13
    b3ac:	e50b300c 	str	r3, [fp, #-12]
    b3b0:	e51b2010 	ldr	r2, [fp, #-16]
    b3b4:	e51b3014 	ldr	r3, [fp, #-20]
    b3b8:	e1822003 	orr	r2, r2, r3
    b3bc:	e51b300c 	ldr	r3, [fp, #-12]
    b3c0:	e0022003 	and	r2, r2, r3
    b3c4:	e51b1010 	ldr	r1, [fp, #-16]
    b3c8:	e51b3014 	ldr	r3, [fp, #-20]
    b3cc:	e0013003 	and	r3, r1, r3
    b3d0:	e1822003 	orr	r2, r2, r3
    b3d4:	e51b3054 	ldr	r3, [fp, #-84]	; 0x54
    b3d8:	e0822003 	add	r2, r2, r3
    b3dc:	e51b3008 	ldr	r3, [fp, #-8]
    b3e0:	e0822003 	add	r2, r2, r3
    b3e4:	e59f38b0 	ldr	r3, [pc, #2224]	; bc9c <md4_process+0x122c>
    b3e8:	e0823003 	add	r3, r2, r3
    b3ec:	e50b3008 	str	r3, [fp, #-8]
    b3f0:	e51b3008 	ldr	r3, [fp, #-8]
    b3f4:	e1a03ee3 	ror	r3, r3, #29
    b3f8:	e50b3008 	str	r3, [fp, #-8]
    b3fc:	e51b200c 	ldr	r2, [fp, #-12]
    b400:	e51b3010 	ldr	r3, [fp, #-16]
    b404:	e1822003 	orr	r2, r2, r3
    b408:	e51b3008 	ldr	r3, [fp, #-8]
    b40c:	e0022003 	and	r2, r2, r3
    b410:	e51b100c 	ldr	r1, [fp, #-12]
    b414:	e51b3010 	ldr	r3, [fp, #-16]
    b418:	e0013003 	and	r3, r1, r3
    b41c:	e1822003 	orr	r2, r2, r3
    b420:	e51b3044 	ldr	r3, [fp, #-68]	; 0x44
    b424:	e0822003 	add	r2, r2, r3
    b428:	e51b3014 	ldr	r3, [fp, #-20]
    b42c:	e0822003 	add	r2, r2, r3
    b430:	e59f3864 	ldr	r3, [pc, #2148]	; bc9c <md4_process+0x122c>
    b434:	e0823003 	add	r3, r2, r3
    b438:	e50b3014 	str	r3, [fp, #-20]
    b43c:	e51b3014 	ldr	r3, [fp, #-20]
    b440:	e1a03de3 	ror	r3, r3, #27
    b444:	e50b3014 	str	r3, [fp, #-20]
    b448:	e51b2008 	ldr	r2, [fp, #-8]
    b44c:	e51b300c 	ldr	r3, [fp, #-12]
    b450:	e1822003 	orr	r2, r2, r3
    b454:	e51b3014 	ldr	r3, [fp, #-20]
    b458:	e0022003 	and	r2, r2, r3
    b45c:	e51b1008 	ldr	r1, [fp, #-8]
    b460:	e51b300c 	ldr	r3, [fp, #-12]
    b464:	e0013003 	and	r3, r1, r3
    b468:	e1822003 	orr	r2, r2, r3
    b46c:	e51b3034 	ldr	r3, [fp, #-52]	; 0x34
    b470:	e0822003 	add	r2, r2, r3
    b474:	e51b3010 	ldr	r3, [fp, #-16]
    b478:	e0822003 	add	r2, r2, r3
    b47c:	e59f3818 	ldr	r3, [pc, #2072]	; bc9c <md4_process+0x122c>
    b480:	e0823003 	add	r3, r2, r3
    b484:	e50b3010 	str	r3, [fp, #-16]
    b488:	e51b3010 	ldr	r3, [fp, #-16]
    b48c:	e1a03be3 	ror	r3, r3, #23
    b490:	e50b3010 	str	r3, [fp, #-16]
    b494:	e51b2014 	ldr	r2, [fp, #-20]
    b498:	e51b3008 	ldr	r3, [fp, #-8]
    b49c:	e1822003 	orr	r2, r2, r3
    b4a0:	e51b3010 	ldr	r3, [fp, #-16]
    b4a4:	e0022003 	and	r2, r2, r3
    b4a8:	e51b1014 	ldr	r1, [fp, #-20]
    b4ac:	e51b3008 	ldr	r3, [fp, #-8]
    b4b0:	e0013003 	and	r3, r1, r3
    b4b4:	e1822003 	orr	r2, r2, r3
    b4b8:	e51b3024 	ldr	r3, [fp, #-36]	; 0x24
    b4bc:	e0822003 	add	r2, r2, r3
    b4c0:	e51b300c 	ldr	r3, [fp, #-12]
    b4c4:	e0822003 	add	r2, r2, r3
    b4c8:	e59f37cc 	ldr	r3, [pc, #1996]	; bc9c <md4_process+0x122c>
    b4cc:	e0823003 	add	r3, r2, r3
    b4d0:	e50b300c 	str	r3, [fp, #-12]
    b4d4:	e51b300c 	ldr	r3, [fp, #-12]
    b4d8:	e1a039e3 	ror	r3, r3, #19
    b4dc:	e50b300c 	str	r3, [fp, #-12]
    b4e0:	e51b2010 	ldr	r2, [fp, #-16]
    b4e4:	e51b3014 	ldr	r3, [fp, #-20]
    b4e8:	e1822003 	orr	r2, r2, r3
    b4ec:	e51b300c 	ldr	r3, [fp, #-12]
    b4f0:	e0022003 	and	r2, r2, r3
    b4f4:	e51b1010 	ldr	r1, [fp, #-16]
    b4f8:	e51b3014 	ldr	r3, [fp, #-20]
    b4fc:	e0013003 	and	r3, r1, r3
    b500:	e1822003 	orr	r2, r2, r3
    b504:	e51b3050 	ldr	r3, [fp, #-80]	; 0x50
    b508:	e0822003 	add	r2, r2, r3
    b50c:	e51b3008 	ldr	r3, [fp, #-8]
    b510:	e0822003 	add	r2, r2, r3
    b514:	e59f3780 	ldr	r3, [pc, #1920]	; bc9c <md4_process+0x122c>
    b518:	e0823003 	add	r3, r2, r3
    b51c:	e50b3008 	str	r3, [fp, #-8]
    b520:	e51b3008 	ldr	r3, [fp, #-8]
    b524:	e1a03ee3 	ror	r3, r3, #29
    b528:	e50b3008 	str	r3, [fp, #-8]
    b52c:	e51b200c 	ldr	r2, [fp, #-12]
    b530:	e51b3010 	ldr	r3, [fp, #-16]
    b534:	e1822003 	orr	r2, r2, r3
    b538:	e51b3008 	ldr	r3, [fp, #-8]
    b53c:	e0022003 	and	r2, r2, r3
    b540:	e51b100c 	ldr	r1, [fp, #-12]
    b544:	e51b3010 	ldr	r3, [fp, #-16]
    b548:	e0013003 	and	r3, r1, r3
    b54c:	e1822003 	orr	r2, r2, r3
    b550:	e51b3040 	ldr	r3, [fp, #-64]	; 0x40
    b554:	e0822003 	add	r2, r2, r3
    b558:	e51b3014 	ldr	r3, [fp, #-20]
    b55c:	e0822003 	add	r2, r2, r3
    b560:	e59f3734 	ldr	r3, [pc, #1844]	; bc9c <md4_process+0x122c>
    b564:	e0823003 	add	r3, r2, r3
    b568:	e50b3014 	str	r3, [fp, #-20]
    b56c:	e51b3014 	ldr	r3, [fp, #-20]
    b570:	e1a03de3 	ror	r3, r3, #27
    b574:	e50b3014 	str	r3, [fp, #-20]
    b578:	e51b2008 	ldr	r2, [fp, #-8]
    b57c:	e51b300c 	ldr	r3, [fp, #-12]
    b580:	e1822003 	orr	r2, r2, r3
    b584:	e51b3014 	ldr	r3, [fp, #-20]
    b588:	e0022003 	and	r2, r2, r3
    b58c:	e51b1008 	ldr	r1, [fp, #-8]
    b590:	e51b300c 	ldr	r3, [fp, #-12]
    b594:	e0013003 	and	r3, r1, r3
    b598:	e1822003 	orr	r2, r2, r3
    b59c:	e51b3030 	ldr	r3, [fp, #-48]	; 0x30
    b5a0:	e0822003 	add	r2, r2, r3
    b5a4:	e51b3010 	ldr	r3, [fp, #-16]
    b5a8:	e0822003 	add	r2, r2, r3
    b5ac:	e59f36e8 	ldr	r3, [pc, #1768]	; bc9c <md4_process+0x122c>
    b5b0:	e0823003 	add	r3, r2, r3
    b5b4:	e50b3010 	str	r3, [fp, #-16]
    b5b8:	e51b3010 	ldr	r3, [fp, #-16]
    b5bc:	e1a03be3 	ror	r3, r3, #23
    b5c0:	e50b3010 	str	r3, [fp, #-16]
    b5c4:	e51b2014 	ldr	r2, [fp, #-20]
    b5c8:	e51b3008 	ldr	r3, [fp, #-8]
    b5cc:	e1822003 	orr	r2, r2, r3
    b5d0:	e51b3010 	ldr	r3, [fp, #-16]
    b5d4:	e0022003 	and	r2, r2, r3
    b5d8:	e51b1014 	ldr	r1, [fp, #-20]
    b5dc:	e51b3008 	ldr	r3, [fp, #-8]
    b5e0:	e0013003 	and	r3, r1, r3
    b5e4:	e1822003 	orr	r2, r2, r3
    b5e8:	e51b3020 	ldr	r3, [fp, #-32]
    b5ec:	e0822003 	add	r2, r2, r3
    b5f0:	e51b300c 	ldr	r3, [fp, #-12]
    b5f4:	e0822003 	add	r2, r2, r3
    b5f8:	e59f369c 	ldr	r3, [pc, #1692]	; bc9c <md4_process+0x122c>
    b5fc:	e0823003 	add	r3, r2, r3
    b600:	e50b300c 	str	r3, [fp, #-12]
    b604:	e51b300c 	ldr	r3, [fp, #-12]
    b608:	e1a039e3 	ror	r3, r3, #19
    b60c:	e50b300c 	str	r3, [fp, #-12]
    b610:	e51b2010 	ldr	r2, [fp, #-16]
    b614:	e51b3014 	ldr	r3, [fp, #-20]
    b618:	e1822003 	orr	r2, r2, r3
    b61c:	e51b300c 	ldr	r3, [fp, #-12]
    b620:	e0022003 	and	r2, r2, r3
    b624:	e51b1010 	ldr	r1, [fp, #-16]
    b628:	e51b3014 	ldr	r3, [fp, #-20]
    b62c:	e0013003 	and	r3, r1, r3
    b630:	e1822003 	orr	r2, r2, r3
    b634:	e51b304c 	ldr	r3, [fp, #-76]	; 0x4c
    b638:	e0822003 	add	r2, r2, r3
    b63c:	e51b3008 	ldr	r3, [fp, #-8]
    b640:	e0822003 	add	r2, r2, r3
    b644:	e59f3650 	ldr	r3, [pc, #1616]	; bc9c <md4_process+0x122c>
    b648:	e0823003 	add	r3, r2, r3
    b64c:	e50b3008 	str	r3, [fp, #-8]
    b650:	e51b3008 	ldr	r3, [fp, #-8]
    b654:	e1a03ee3 	ror	r3, r3, #29
    b658:	e50b3008 	str	r3, [fp, #-8]
    b65c:	e51b200c 	ldr	r2, [fp, #-12]
    b660:	e51b3010 	ldr	r3, [fp, #-16]
    b664:	e1822003 	orr	r2, r2, r3
    b668:	e51b3008 	ldr	r3, [fp, #-8]
    b66c:	e0022003 	and	r2, r2, r3
    b670:	e51b100c 	ldr	r1, [fp, #-12]
    b674:	e51b3010 	ldr	r3, [fp, #-16]
    b678:	e0013003 	and	r3, r1, r3
    b67c:	e1822003 	orr	r2, r2, r3
    b680:	e51b303c 	ldr	r3, [fp, #-60]	; 0x3c
    b684:	e0822003 	add	r2, r2, r3
    b688:	e51b3014 	ldr	r3, [fp, #-20]
    b68c:	e0822003 	add	r2, r2, r3
    b690:	e59f3604 	ldr	r3, [pc, #1540]	; bc9c <md4_process+0x122c>
    b694:	e0823003 	add	r3, r2, r3
    b698:	e50b3014 	str	r3, [fp, #-20]
    b69c:	e51b3014 	ldr	r3, [fp, #-20]
    b6a0:	e1a03de3 	ror	r3, r3, #27
    b6a4:	e50b3014 	str	r3, [fp, #-20]
    b6a8:	e51b2008 	ldr	r2, [fp, #-8]
    b6ac:	e51b300c 	ldr	r3, [fp, #-12]
    b6b0:	e1822003 	orr	r2, r2, r3
    b6b4:	e51b3014 	ldr	r3, [fp, #-20]
    b6b8:	e0022003 	and	r2, r2, r3
    b6bc:	e51b1008 	ldr	r1, [fp, #-8]
    b6c0:	e51b300c 	ldr	r3, [fp, #-12]
    b6c4:	e0013003 	and	r3, r1, r3
    b6c8:	e1822003 	orr	r2, r2, r3
    b6cc:	e51b302c 	ldr	r3, [fp, #-44]	; 0x2c
    b6d0:	e0822003 	add	r2, r2, r3
    b6d4:	e51b3010 	ldr	r3, [fp, #-16]
    b6d8:	e0822003 	add	r2, r2, r3
    b6dc:	e59f35b8 	ldr	r3, [pc, #1464]	; bc9c <md4_process+0x122c>
    b6e0:	e0823003 	add	r3, r2, r3
    b6e4:	e50b3010 	str	r3, [fp, #-16]
    b6e8:	e51b3010 	ldr	r3, [fp, #-16]
    b6ec:	e1a03be3 	ror	r3, r3, #23
    b6f0:	e50b3010 	str	r3, [fp, #-16]
    b6f4:	e51b2014 	ldr	r2, [fp, #-20]
    b6f8:	e51b3008 	ldr	r3, [fp, #-8]
    b6fc:	e1822003 	orr	r2, r2, r3
    b700:	e51b3010 	ldr	r3, [fp, #-16]
    b704:	e0022003 	and	r2, r2, r3
    b708:	e51b1014 	ldr	r1, [fp, #-20]
    b70c:	e51b3008 	ldr	r3, [fp, #-8]
    b710:	e0013003 	and	r3, r1, r3
    b714:	e1822003 	orr	r2, r2, r3
    b718:	e51b301c 	ldr	r3, [fp, #-28]
    b71c:	e0822003 	add	r2, r2, r3
    b720:	e51b300c 	ldr	r3, [fp, #-12]
    b724:	e0822003 	add	r2, r2, r3
    b728:	e59f356c 	ldr	r3, [pc, #1388]	; bc9c <md4_process+0x122c>
    b72c:	e0823003 	add	r3, r2, r3
    b730:	e50b300c 	str	r3, [fp, #-12]
    b734:	e51b300c 	ldr	r3, [fp, #-12]
    b738:	e1a039e3 	ror	r3, r3, #19
    b73c:	e50b300c 	str	r3, [fp, #-12]
    b740:	e51b2010 	ldr	r2, [fp, #-16]
    b744:	e51b3014 	ldr	r3, [fp, #-20]
    b748:	e1822003 	orr	r2, r2, r3
    b74c:	e51b300c 	ldr	r3, [fp, #-12]
    b750:	e0022003 	and	r2, r2, r3
    b754:	e51b1010 	ldr	r1, [fp, #-16]
    b758:	e51b3014 	ldr	r3, [fp, #-20]
    b75c:	e0013003 	and	r3, r1, r3
    b760:	e1822003 	orr	r2, r2, r3
    b764:	e51b3048 	ldr	r3, [fp, #-72]	; 0x48
    b768:	e0822003 	add	r2, r2, r3
    b76c:	e51b3008 	ldr	r3, [fp, #-8]
    b770:	e0822003 	add	r2, r2, r3
    b774:	e59f3520 	ldr	r3, [pc, #1312]	; bc9c <md4_process+0x122c>
    b778:	e0823003 	add	r3, r2, r3
    b77c:	e50b3008 	str	r3, [fp, #-8]
    b780:	e51b3008 	ldr	r3, [fp, #-8]
    b784:	e1a03ee3 	ror	r3, r3, #29
    b788:	e50b3008 	str	r3, [fp, #-8]
    b78c:	e51b200c 	ldr	r2, [fp, #-12]
    b790:	e51b3010 	ldr	r3, [fp, #-16]
    b794:	e1822003 	orr	r2, r2, r3
    b798:	e51b3008 	ldr	r3, [fp, #-8]
    b79c:	e0022003 	and	r2, r2, r3
    b7a0:	e51b100c 	ldr	r1, [fp, #-12]
    b7a4:	e51b3010 	ldr	r3, [fp, #-16]
    b7a8:	e0013003 	and	r3, r1, r3
    b7ac:	e1822003 	orr	r2, r2, r3
    b7b0:	e51b3038 	ldr	r3, [fp, #-56]	; 0x38
    b7b4:	e0822003 	add	r2, r2, r3
    b7b8:	e51b3014 	ldr	r3, [fp, #-20]
    b7bc:	e0822003 	add	r2, r2, r3
    b7c0:	e59f34d4 	ldr	r3, [pc, #1236]	; bc9c <md4_process+0x122c>
    b7c4:	e0823003 	add	r3, r2, r3
    b7c8:	e50b3014 	str	r3, [fp, #-20]
    b7cc:	e51b3014 	ldr	r3, [fp, #-20]
    b7d0:	e1a03de3 	ror	r3, r3, #27
    b7d4:	e50b3014 	str	r3, [fp, #-20]
    b7d8:	e51b2008 	ldr	r2, [fp, #-8]
    b7dc:	e51b300c 	ldr	r3, [fp, #-12]
    b7e0:	e1822003 	orr	r2, r2, r3
    b7e4:	e51b3014 	ldr	r3, [fp, #-20]
    b7e8:	e0022003 	and	r2, r2, r3
    b7ec:	e51b1008 	ldr	r1, [fp, #-8]
    b7f0:	e51b300c 	ldr	r3, [fp, #-12]
    b7f4:	e0013003 	and	r3, r1, r3
    b7f8:	e1822003 	orr	r2, r2, r3
    b7fc:	e51b3028 	ldr	r3, [fp, #-40]	; 0x28
    b800:	e0822003 	add	r2, r2, r3
    b804:	e51b3010 	ldr	r3, [fp, #-16]
    b808:	e0822003 	add	r2, r2, r3
    b80c:	e59f3488 	ldr	r3, [pc, #1160]	; bc9c <md4_process+0x122c>
    b810:	e0823003 	add	r3, r2, r3
    b814:	e50b3010 	str	r3, [fp, #-16]
    b818:	e51b3010 	ldr	r3, [fp, #-16]
    b81c:	e1a03be3 	ror	r3, r3, #23
    b820:	e50b3010 	str	r3, [fp, #-16]
    b824:	e51b2014 	ldr	r2, [fp, #-20]
    b828:	e51b3008 	ldr	r3, [fp, #-8]
    b82c:	e1822003 	orr	r2, r2, r3
    b830:	e51b3010 	ldr	r3, [fp, #-16]
    b834:	e0022003 	and	r2, r2, r3
    b838:	e51b1014 	ldr	r1, [fp, #-20]
    b83c:	e51b3008 	ldr	r3, [fp, #-8]
    b840:	e0013003 	and	r3, r1, r3
    b844:	e1822003 	orr	r2, r2, r3
    b848:	e51b3018 	ldr	r3, [fp, #-24]
    b84c:	e0822003 	add	r2, r2, r3
    b850:	e51b300c 	ldr	r3, [fp, #-12]
    b854:	e0822003 	add	r2, r2, r3
    b858:	e59f343c 	ldr	r3, [pc, #1084]	; bc9c <md4_process+0x122c>
    b85c:	e0823003 	add	r3, r2, r3
    b860:	e50b300c 	str	r3, [fp, #-12]
    b864:	e51b300c 	ldr	r3, [fp, #-12]
    b868:	e1a039e3 	ror	r3, r3, #19
    b86c:	e50b300c 	str	r3, [fp, #-12]
    b870:	e51b200c 	ldr	r2, [fp, #-12]
    b874:	e51b3010 	ldr	r3, [fp, #-16]
    b878:	e0222003 	eor	r2, r2, r3
    b87c:	e51b3014 	ldr	r3, [fp, #-20]
    b880:	e0222003 	eor	r2, r2, r3
    b884:	e51b3054 	ldr	r3, [fp, #-84]	; 0x54
    b888:	e0822003 	add	r2, r2, r3
    b88c:	e51b3008 	ldr	r3, [fp, #-8]
    b890:	e0822003 	add	r2, r2, r3
    b894:	e59f3404 	ldr	r3, [pc, #1028]	; bca0 <md4_process+0x1230>
    b898:	e0823003 	add	r3, r2, r3
    b89c:	e50b3008 	str	r3, [fp, #-8]
    b8a0:	e51b3008 	ldr	r3, [fp, #-8]
    b8a4:	e1a03ee3 	ror	r3, r3, #29
    b8a8:	e50b3008 	str	r3, [fp, #-8]
    b8ac:	e51b2008 	ldr	r2, [fp, #-8]
    b8b0:	e51b300c 	ldr	r3, [fp, #-12]
    b8b4:	e0222003 	eor	r2, r2, r3
    b8b8:	e51b3010 	ldr	r3, [fp, #-16]
    b8bc:	e0222003 	eor	r2, r2, r3
    b8c0:	e51b3034 	ldr	r3, [fp, #-52]	; 0x34
    b8c4:	e0822003 	add	r2, r2, r3
    b8c8:	e51b3014 	ldr	r3, [fp, #-20]
    b8cc:	e0822003 	add	r2, r2, r3
    b8d0:	e59f33c8 	ldr	r3, [pc, #968]	; bca0 <md4_process+0x1230>
    b8d4:	e0823003 	add	r3, r2, r3
    b8d8:	e50b3014 	str	r3, [fp, #-20]
    b8dc:	e51b3014 	ldr	r3, [fp, #-20]
    b8e0:	e1a03be3 	ror	r3, r3, #23
    b8e4:	e50b3014 	str	r3, [fp, #-20]
    b8e8:	e51b2014 	ldr	r2, [fp, #-20]
    b8ec:	e51b3008 	ldr	r3, [fp, #-8]
    b8f0:	e0222003 	eor	r2, r2, r3
    b8f4:	e51b300c 	ldr	r3, [fp, #-12]
    b8f8:	e0222003 	eor	r2, r2, r3
    b8fc:	e51b3044 	ldr	r3, [fp, #-68]	; 0x44
    b900:	e0822003 	add	r2, r2, r3
    b904:	e51b3010 	ldr	r3, [fp, #-16]
    b908:	e0822003 	add	r2, r2, r3
    b90c:	e59f338c 	ldr	r3, [pc, #908]	; bca0 <md4_process+0x1230>
    b910:	e0823003 	add	r3, r2, r3
    b914:	e50b3010 	str	r3, [fp, #-16]
    b918:	e51b3010 	ldr	r3, [fp, #-16]
    b91c:	e1a03ae3 	ror	r3, r3, #21
    b920:	e50b3010 	str	r3, [fp, #-16]
    b924:	e51b2010 	ldr	r2, [fp, #-16]
    b928:	e51b3014 	ldr	r3, [fp, #-20]
    b92c:	e0222003 	eor	r2, r2, r3
    b930:	e51b3008 	ldr	r3, [fp, #-8]
    b934:	e0222003 	eor	r2, r2, r3
    b938:	e51b3024 	ldr	r3, [fp, #-36]	; 0x24
    b93c:	e0822003 	add	r2, r2, r3
    b940:	e51b300c 	ldr	r3, [fp, #-12]
    b944:	e0822003 	add	r2, r2, r3
    b948:	e59f3350 	ldr	r3, [pc, #848]	; bca0 <md4_process+0x1230>
    b94c:	e0823003 	add	r3, r2, r3
    b950:	e50b300c 	str	r3, [fp, #-12]
    b954:	e51b300c 	ldr	r3, [fp, #-12]
    b958:	e1a038e3 	ror	r3, r3, #17
    b95c:	e50b300c 	str	r3, [fp, #-12]
    b960:	e51b200c 	ldr	r2, [fp, #-12]
    b964:	e51b3010 	ldr	r3, [fp, #-16]
    b968:	e0222003 	eor	r2, r2, r3
    b96c:	e51b3014 	ldr	r3, [fp, #-20]
    b970:	e0222003 	eor	r2, r2, r3
    b974:	e51b304c 	ldr	r3, [fp, #-76]	; 0x4c
    b978:	e0822003 	add	r2, r2, r3
    b97c:	e51b3008 	ldr	r3, [fp, #-8]
    b980:	e0822003 	add	r2, r2, r3
    b984:	e59f3314 	ldr	r3, [pc, #788]	; bca0 <md4_process+0x1230>
    b988:	e0823003 	add	r3, r2, r3
    b98c:	e50b3008 	str	r3, [fp, #-8]
    b990:	e51b3008 	ldr	r3, [fp, #-8]
    b994:	e1a03ee3 	ror	r3, r3, #29
    b998:	e50b3008 	str	r3, [fp, #-8]
    b99c:	e51b2008 	ldr	r2, [fp, #-8]
    b9a0:	e51b300c 	ldr	r3, [fp, #-12]
    b9a4:	e0222003 	eor	r2, r2, r3
    b9a8:	e51b3010 	ldr	r3, [fp, #-16]
    b9ac:	e0222003 	eor	r2, r2, r3
    b9b0:	e51b302c 	ldr	r3, [fp, #-44]	; 0x2c
    b9b4:	e0822003 	add	r2, r2, r3
    b9b8:	e51b3014 	ldr	r3, [fp, #-20]
    b9bc:	e0822003 	add	r2, r2, r3
    b9c0:	e59f32d8 	ldr	r3, [pc, #728]	; bca0 <md4_process+0x1230>
    b9c4:	e0823003 	add	r3, r2, r3
    b9c8:	e50b3014 	str	r3, [fp, #-20]
    b9cc:	e51b3014 	ldr	r3, [fp, #-20]
    b9d0:	e1a03be3 	ror	r3, r3, #23
    b9d4:	e50b3014 	str	r3, [fp, #-20]
    b9d8:	e51b2014 	ldr	r2, [fp, #-20]
    b9dc:	e51b3008 	ldr	r3, [fp, #-8]
    b9e0:	e0222003 	eor	r2, r2, r3
    b9e4:	e51b300c 	ldr	r3, [fp, #-12]
    b9e8:	e0222003 	eor	r2, r2, r3
    b9ec:	e51b303c 	ldr	r3, [fp, #-60]	; 0x3c
    b9f0:	e0822003 	add	r2, r2, r3
    b9f4:	e51b3010 	ldr	r3, [fp, #-16]
    b9f8:	e0822003 	add	r2, r2, r3
    b9fc:	e59f329c 	ldr	r3, [pc, #668]	; bca0 <md4_process+0x1230>
    ba00:	e0823003 	add	r3, r2, r3
    ba04:	e50b3010 	str	r3, [fp, #-16]
    ba08:	e51b3010 	ldr	r3, [fp, #-16]
    ba0c:	e1a03ae3 	ror	r3, r3, #21
    ba10:	e50b3010 	str	r3, [fp, #-16]
    ba14:	e51b2010 	ldr	r2, [fp, #-16]
    ba18:	e51b3014 	ldr	r3, [fp, #-20]
    ba1c:	e0222003 	eor	r2, r2, r3
    ba20:	e51b3008 	ldr	r3, [fp, #-8]
    ba24:	e0222003 	eor	r2, r2, r3
    ba28:	e51b301c 	ldr	r3, [fp, #-28]
    ba2c:	e0822003 	add	r2, r2, r3
    ba30:	e51b300c 	ldr	r3, [fp, #-12]
    ba34:	e0822003 	add	r2, r2, r3
    ba38:	e59f3260 	ldr	r3, [pc, #608]	; bca0 <md4_process+0x1230>
    ba3c:	e0823003 	add	r3, r2, r3
    ba40:	e50b300c 	str	r3, [fp, #-12]
    ba44:	e51b300c 	ldr	r3, [fp, #-12]
    ba48:	e1a038e3 	ror	r3, r3, #17
    ba4c:	e50b300c 	str	r3, [fp, #-12]
    ba50:	e51b200c 	ldr	r2, [fp, #-12]
    ba54:	e51b3010 	ldr	r3, [fp, #-16]
    ba58:	e0222003 	eor	r2, r2, r3
    ba5c:	e51b3014 	ldr	r3, [fp, #-20]
    ba60:	e0222003 	eor	r2, r2, r3
    ba64:	e51b3050 	ldr	r3, [fp, #-80]	; 0x50
    ba68:	e0822003 	add	r2, r2, r3
    ba6c:	e51b3008 	ldr	r3, [fp, #-8]
    ba70:	e0822003 	add	r2, r2, r3
    ba74:	e59f3224 	ldr	r3, [pc, #548]	; bca0 <md4_process+0x1230>
    ba78:	e0823003 	add	r3, r2, r3
    ba7c:	e50b3008 	str	r3, [fp, #-8]
    ba80:	e51b3008 	ldr	r3, [fp, #-8]
    ba84:	e1a03ee3 	ror	r3, r3, #29
    ba88:	e50b3008 	str	r3, [fp, #-8]
    ba8c:	e51b2008 	ldr	r2, [fp, #-8]
    ba90:	e51b300c 	ldr	r3, [fp, #-12]
    ba94:	e0222003 	eor	r2, r2, r3
    ba98:	e51b3010 	ldr	r3, [fp, #-16]
    ba9c:	e0222003 	eor	r2, r2, r3
    baa0:	e51b3030 	ldr	r3, [fp, #-48]	; 0x30
    baa4:	e0822003 	add	r2, r2, r3
    baa8:	e51b3014 	ldr	r3, [fp, #-20]
    baac:	e0822003 	add	r2, r2, r3
    bab0:	e59f31e8 	ldr	r3, [pc, #488]	; bca0 <md4_process+0x1230>
    bab4:	e0823003 	add	r3, r2, r3
    bab8:	e50b3014 	str	r3, [fp, #-20]
    babc:	e51b3014 	ldr	r3, [fp, #-20]
    bac0:	e1a03be3 	ror	r3, r3, #23
    bac4:	e50b3014 	str	r3, [fp, #-20]
    bac8:	e51b2014 	ldr	r2, [fp, #-20]
    bacc:	e51b3008 	ldr	r3, [fp, #-8]
    bad0:	e0222003 	eor	r2, r2, r3
    bad4:	e51b300c 	ldr	r3, [fp, #-12]
    bad8:	e0222003 	eor	r2, r2, r3
    badc:	e51b3040 	ldr	r3, [fp, #-64]	; 0x40
    bae0:	e0822003 	add	r2, r2, r3
    bae4:	e51b3010 	ldr	r3, [fp, #-16]
    bae8:	e0822003 	add	r2, r2, r3
    baec:	e59f31ac 	ldr	r3, [pc, #428]	; bca0 <md4_process+0x1230>
    baf0:	e0823003 	add	r3, r2, r3
    baf4:	e50b3010 	str	r3, [fp, #-16]
    baf8:	e51b3010 	ldr	r3, [fp, #-16]
    bafc:	e1a03ae3 	ror	r3, r3, #21
    bb00:	e50b3010 	str	r3, [fp, #-16]
    bb04:	e51b2010 	ldr	r2, [fp, #-16]
    bb08:	e51b3014 	ldr	r3, [fp, #-20]
    bb0c:	e0222003 	eor	r2, r2, r3
    bb10:	e51b3008 	ldr	r3, [fp, #-8]
    bb14:	e0222003 	eor	r2, r2, r3
    bb18:	e51b3020 	ldr	r3, [fp, #-32]
    bb1c:	e0822003 	add	r2, r2, r3
    bb20:	e51b300c 	ldr	r3, [fp, #-12]
    bb24:	e0822003 	add	r2, r2, r3
    bb28:	e59f3170 	ldr	r3, [pc, #368]	; bca0 <md4_process+0x1230>
    bb2c:	e0823003 	add	r3, r2, r3
    bb30:	e50b300c 	str	r3, [fp, #-12]
    bb34:	e51b300c 	ldr	r3, [fp, #-12]
    bb38:	e1a038e3 	ror	r3, r3, #17
    bb3c:	e50b300c 	str	r3, [fp, #-12]
    bb40:	e51b200c 	ldr	r2, [fp, #-12]
    bb44:	e51b3010 	ldr	r3, [fp, #-16]
    bb48:	e0222003 	eor	r2, r2, r3
    bb4c:	e51b3014 	ldr	r3, [fp, #-20]
    bb50:	e0222003 	eor	r2, r2, r3
    bb54:	e51b3048 	ldr	r3, [fp, #-72]	; 0x48
    bb58:	e0822003 	add	r2, r2, r3
    bb5c:	e51b3008 	ldr	r3, [fp, #-8]
    bb60:	e0822003 	add	r2, r2, r3
    bb64:	e59f3134 	ldr	r3, [pc, #308]	; bca0 <md4_process+0x1230>
    bb68:	e0823003 	add	r3, r2, r3
    bb6c:	e50b3008 	str	r3, [fp, #-8]
    bb70:	e51b3008 	ldr	r3, [fp, #-8]
    bb74:	e1a03ee3 	ror	r3, r3, #29
    bb78:	e50b3008 	str	r3, [fp, #-8]
    bb7c:	e51b2008 	ldr	r2, [fp, #-8]
    bb80:	e51b300c 	ldr	r3, [fp, #-12]
    bb84:	e0222003 	eor	r2, r2, r3
    bb88:	e51b3010 	ldr	r3, [fp, #-16]
    bb8c:	e0222003 	eor	r2, r2, r3
    bb90:	e51b3028 	ldr	r3, [fp, #-40]	; 0x28
    bb94:	e0822003 	add	r2, r2, r3
    bb98:	e51b3014 	ldr	r3, [fp, #-20]
    bb9c:	e0822003 	add	r2, r2, r3
    bba0:	e59f30f8 	ldr	r3, [pc, #248]	; bca0 <md4_process+0x1230>
    bba4:	e0823003 	add	r3, r2, r3
    bba8:	e50b3014 	str	r3, [fp, #-20]
    bbac:	e51b3014 	ldr	r3, [fp, #-20]
    bbb0:	e1a03be3 	ror	r3, r3, #23
    bbb4:	e50b3014 	str	r3, [fp, #-20]
    bbb8:	e51b2014 	ldr	r2, [fp, #-20]
    bbbc:	e51b3008 	ldr	r3, [fp, #-8]
    bbc0:	e0222003 	eor	r2, r2, r3
    bbc4:	e51b300c 	ldr	r3, [fp, #-12]
    bbc8:	e0222003 	eor	r2, r2, r3
    bbcc:	e51b3038 	ldr	r3, [fp, #-56]	; 0x38
    bbd0:	e0822003 	add	r2, r2, r3
    bbd4:	e51b3010 	ldr	r3, [fp, #-16]
    bbd8:	e0822003 	add	r2, r2, r3
    bbdc:	e59f30bc 	ldr	r3, [pc, #188]	; bca0 <md4_process+0x1230>
    bbe0:	e0823003 	add	r3, r2, r3
    bbe4:	e50b3010 	str	r3, [fp, #-16]
    bbe8:	e51b3010 	ldr	r3, [fp, #-16]
    bbec:	e1a03ae3 	ror	r3, r3, #21
    bbf0:	e50b3010 	str	r3, [fp, #-16]
    bbf4:	e51b2010 	ldr	r2, [fp, #-16]
    bbf8:	e51b3014 	ldr	r3, [fp, #-20]
    bbfc:	e0222003 	eor	r2, r2, r3
    bc00:	e51b3008 	ldr	r3, [fp, #-8]
    bc04:	e0222003 	eor	r2, r2, r3
    bc08:	e51b3018 	ldr	r3, [fp, #-24]
    bc0c:	e0822003 	add	r2, r2, r3
    bc10:	e51b300c 	ldr	r3, [fp, #-12]
    bc14:	e0822003 	add	r2, r2, r3
    bc18:	e59f3080 	ldr	r3, [pc, #128]	; bca0 <md4_process+0x1230>
    bc1c:	e0823003 	add	r3, r2, r3
    bc20:	e50b300c 	str	r3, [fp, #-12]
    bc24:	e51b300c 	ldr	r3, [fp, #-12]
    bc28:	e1a038e3 	ror	r3, r3, #17
    bc2c:	e50b300c 	str	r3, [fp, #-12]
    bc30:	e51b3058 	ldr	r3, [fp, #-88]	; 0x58
    bc34:	e5932008 	ldr	r2, [r3, #8]
    bc38:	e51b3008 	ldr	r3, [fp, #-8]
    bc3c:	e0822003 	add	r2, r2, r3
    bc40:	e51b3058 	ldr	r3, [fp, #-88]	; 0x58
    bc44:	e5832008 	str	r2, [r3, #8]
    bc48:	e51b3058 	ldr	r3, [fp, #-88]	; 0x58
    bc4c:	e593200c 	ldr	r2, [r3, #12]
    bc50:	e51b300c 	ldr	r3, [fp, #-12]
    bc54:	e0822003 	add	r2, r2, r3
    bc58:	e51b3058 	ldr	r3, [fp, #-88]	; 0x58
    bc5c:	e583200c 	str	r2, [r3, #12]
    bc60:	e51b3058 	ldr	r3, [fp, #-88]	; 0x58
    bc64:	e5932010 	ldr	r2, [r3, #16]
    bc68:	e51b3010 	ldr	r3, [fp, #-16]
    bc6c:	e0822003 	add	r2, r2, r3
    bc70:	e51b3058 	ldr	r3, [fp, #-88]	; 0x58
    bc74:	e5832010 	str	r2, [r3, #16]
    bc78:	e51b3058 	ldr	r3, [fp, #-88]	; 0x58
    bc7c:	e5932014 	ldr	r2, [r3, #20]
    bc80:	e51b3014 	ldr	r3, [fp, #-20]
    bc84:	e0822003 	add	r2, r2, r3
    bc88:	e51b3058 	ldr	r3, [fp, #-88]	; 0x58
    bc8c:	e5832014 	str	r2, [r3, #20]
    bc90:	e28bd000 	add	sp, fp, #0
    bc94:	e8bd0800 	pop	{fp}
    bc98:	e12fff1e 	bx	lr
    bc9c:	5a827999 	.word	0x5a827999
    bca0:	6ed9eba1 	.word	0x6ed9eba1

0000bca4 <md4_starts>:
    bca4:	e52db004 	push	{fp}		; (str fp, [sp, #-4]!)
    bca8:	e28db000 	add	fp, sp, #0
    bcac:	e24dd00c 	sub	sp, sp, #12
    bcb0:	e50b0008 	str	r0, [fp, #-8]
    bcb4:	e51b3008 	ldr	r3, [fp, #-8]
    bcb8:	e3a02000 	mov	r2, #0
    bcbc:	e5832000 	str	r2, [r3]
    bcc0:	e51b3008 	ldr	r3, [fp, #-8]
    bcc4:	e3a02000 	mov	r2, #0
    bcc8:	e5832004 	str	r2, [r3, #4]
    bccc:	e51b3008 	ldr	r3, [fp, #-8]
    bcd0:	e59f2030 	ldr	r2, [pc, #48]	; bd08 <md4_starts+0x64>
    bcd4:	e5832008 	str	r2, [r3, #8]
    bcd8:	e51b3008 	ldr	r3, [fp, #-8]
    bcdc:	e59f2028 	ldr	r2, [pc, #40]	; bd0c <md4_starts+0x68>
    bce0:	e583200c 	str	r2, [r3, #12]
    bce4:	e51b3008 	ldr	r3, [fp, #-8]
    bce8:	e59f2020 	ldr	r2, [pc, #32]	; bd10 <md4_starts+0x6c>
    bcec:	e5832010 	str	r2, [r3, #16]
    bcf0:	e51b3008 	ldr	r3, [fp, #-8]
    bcf4:	e59f2018 	ldr	r2, [pc, #24]	; bd14 <md4_starts+0x70>
    bcf8:	e5832014 	str	r2, [r3, #20]
    bcfc:	e28bd000 	add	sp, fp, #0
    bd00:	e8bd0800 	pop	{fp}
    bd04:	e12fff1e 	bx	lr
    bd08:	67452301 	.word	0x67452301
    bd0c:	efcdab89 	.word	0xefcdab89
    bd10:	98badcfe 	.word	0x98badcfe
    bd14:	10325476 	.word	0x10325476

0000bd18 <md4_update>:
    bd18:	e92d4800 	push	{fp, lr}
    bd1c:	e28db004 	add	fp, sp, #4
    bd20:	e24dd018 	sub	sp, sp, #24
    bd24:	e50b0010 	str	r0, [fp, #-16]
    bd28:	e50b1014 	str	r1, [fp, #-20]
    bd2c:	e50b2018 	str	r2, [fp, #-24]
    bd30:	e51b3018 	ldr	r3, [fp, #-24]
    bd34:	e3530000 	cmp	r3, #0
    bd38:	0a000059 	beq	bea4 <md4_update+0x18c>
    bd3c:	e51b3010 	ldr	r3, [fp, #-16]
    bd40:	e5933000 	ldr	r3, [r3]
    bd44:	e203303f 	and	r3, r3, #63	; 0x3f
    bd48:	e50b3008 	str	r3, [fp, #-8]
    bd4c:	e51b3008 	ldr	r3, [fp, #-8]
    bd50:	e2633040 	rsb	r3, r3, #64	; 0x40
    bd54:	e50b300c 	str	r3, [fp, #-12]
    bd58:	e51b3010 	ldr	r3, [fp, #-16]
    bd5c:	e5932000 	ldr	r2, [r3]
    bd60:	e51b3018 	ldr	r3, [fp, #-24]
    bd64:	e0822003 	add	r2, r2, r3
    bd68:	e51b3010 	ldr	r3, [fp, #-16]
    bd6c:	e5832000 	str	r2, [r3]
    bd70:	e51b3010 	ldr	r3, [fp, #-16]
    bd74:	e5932000 	ldr	r2, [r3]
    bd78:	e51b3010 	ldr	r3, [fp, #-16]
    bd7c:	e5832000 	str	r2, [r3]
    bd80:	e51b3010 	ldr	r3, [fp, #-16]
    bd84:	e5932000 	ldr	r2, [r3]
    bd88:	e51b3018 	ldr	r3, [fp, #-24]
    bd8c:	e1520003 	cmp	r2, r3
    bd90:	2a000004 	bcs	bda8 <md4_update+0x90>
    bd94:	e51b3010 	ldr	r3, [fp, #-16]
    bd98:	e5933004 	ldr	r3, [r3, #4]
    bd9c:	e2832001 	add	r2, r3, #1
    bda0:	e51b3010 	ldr	r3, [fp, #-16]
    bda4:	e5832004 	str	r2, [r3, #4]
    bda8:	e51b3008 	ldr	r3, [fp, #-8]
    bdac:	e3530000 	cmp	r3, #0
    bdb0:	0a000028 	beq	be58 <md4_update+0x140>
    bdb4:	e51b2018 	ldr	r2, [fp, #-24]
    bdb8:	e51b300c 	ldr	r3, [fp, #-12]
    bdbc:	e1520003 	cmp	r2, r3
    bdc0:	3a000024 	bcc	be58 <md4_update+0x140>
    bdc4:	e51b3010 	ldr	r3, [fp, #-16]
    bdc8:	e2832018 	add	r2, r3, #24
    bdcc:	e51b3008 	ldr	r3, [fp, #-8]
    bdd0:	e0822003 	add	r2, r2, r3
    bdd4:	e51b3014 	ldr	r3, [fp, #-20]
    bdd8:	e1a01002 	mov	r1, r2
    bddc:	e1a02003 	mov	r2, r3
    bde0:	e51b300c 	ldr	r3, [fp, #-12]
    bde4:	e1a00001 	mov	r0, r1
    bde8:	e1a01002 	mov	r1, r2
    bdec:	e1a02003 	mov	r2, r3
    bdf0:	ebfff360 	bl	8b78 <_init+0x74>
    bdf4:	e51b3010 	ldr	r3, [fp, #-16]
    bdf8:	e2833018 	add	r3, r3, #24
    bdfc:	e51b0010 	ldr	r0, [fp, #-16]
    be00:	e1a01003 	mov	r1, r3
    be04:	ebfffb19 	bl	aa70 <md4_process>
    be08:	e51b2014 	ldr	r2, [fp, #-20]
    be0c:	e51b300c 	ldr	r3, [fp, #-12]
    be10:	e0823003 	add	r3, r2, r3
    be14:	e50b3014 	str	r3, [fp, #-20]
    be18:	e51b2018 	ldr	r2, [fp, #-24]
    be1c:	e51b300c 	ldr	r3, [fp, #-12]
    be20:	e0633002 	rsb	r3, r3, r2
    be24:	e50b3018 	str	r3, [fp, #-24]
    be28:	e3a03000 	mov	r3, #0
    be2c:	e50b3008 	str	r3, [fp, #-8]
    be30:	ea000008 	b	be58 <md4_update+0x140>
    be34:	e51b0010 	ldr	r0, [fp, #-16]
    be38:	e51b1014 	ldr	r1, [fp, #-20]
    be3c:	ebfffb0b 	bl	aa70 <md4_process>
    be40:	e51b3014 	ldr	r3, [fp, #-20]
    be44:	e2833040 	add	r3, r3, #64	; 0x40
    be48:	e50b3014 	str	r3, [fp, #-20]
    be4c:	e51b3018 	ldr	r3, [fp, #-24]
    be50:	e2433040 	sub	r3, r3, #64	; 0x40
    be54:	e50b3018 	str	r3, [fp, #-24]
    be58:	e51b3018 	ldr	r3, [fp, #-24]
    be5c:	e353003f 	cmp	r3, #63	; 0x3f
    be60:	8afffff3 	bhi	be34 <md4_update+0x11c>
    be64:	e51b3018 	ldr	r3, [fp, #-24]
    be68:	e3530000 	cmp	r3, #0
    be6c:	0a00000d 	beq	bea8 <md4_update+0x190>
    be70:	e51b3010 	ldr	r3, [fp, #-16]
    be74:	e2832018 	add	r2, r3, #24
    be78:	e51b3008 	ldr	r3, [fp, #-8]
    be7c:	e0822003 	add	r2, r2, r3
    be80:	e51b3014 	ldr	r3, [fp, #-20]
    be84:	e1a01002 	mov	r1, r2
    be88:	e1a02003 	mov	r2, r3
    be8c:	e51b3018 	ldr	r3, [fp, #-24]
    be90:	e1a00001 	mov	r0, r1
    be94:	e1a01002 	mov	r1, r2
    be98:	e1a02003 	mov	r2, r3
    be9c:	ebfff335 	bl	8b78 <_init+0x74>
    bea0:	ea000000 	b	bea8 <md4_update+0x190>
    bea4:	e1a00000 	nop			; (mov r0, r0)
    bea8:	e24bd004 	sub	sp, fp, #4
    beac:	e8bd8800 	pop	{fp, pc}

0000beb0 <md4>:
    beb0:	e92d4800 	push	{fp, lr}
    beb4:	e28db004 	add	fp, sp, #4
    beb8:	e24dd0e8 	sub	sp, sp, #232	; 0xe8
    bebc:	e50b00e0 	str	r0, [fp, #-224]	; 0xe0
    bec0:	e50b10e4 	str	r1, [fp, #-228]	; 0xe4
    bec4:	e50b20e8 	str	r2, [fp, #-232]	; 0xe8
    bec8:	e24b30dc 	sub	r3, fp, #220	; 0xdc
    becc:	e1a00003 	mov	r0, r3
    bed0:	ebffff73 	bl	bca4 <md4_starts>
    bed4:	e24b30dc 	sub	r3, fp, #220	; 0xdc
    bed8:	e1a00003 	mov	r0, r3
    bedc:	e51b10e0 	ldr	r1, [fp, #-224]	; 0xe0
    bee0:	e51b20e4 	ldr	r2, [fp, #-228]	; 0xe4
    bee4:	ebffff8b 	bl	bd18 <md4_update>
    bee8:	e24b30dc 	sub	r3, fp, #220	; 0xdc
    beec:	e1a00003 	mov	r0, r3
    bef0:	e51b10e8 	ldr	r1, [fp, #-232]	; 0xe8
    bef4:	ebfffa2a 	bl	a7a4 <md4_finish>
    bef8:	e24b30dc 	sub	r3, fp, #220	; 0xdc
    befc:	e1a02003 	mov	r2, r3
    bf00:	e3a030d8 	mov	r3, #216	; 0xd8
    bf04:	e1a00002 	mov	r0, r2
    bf08:	e3a01000 	mov	r1, #0
    bf0c:	e1a02003 	mov	r2, r3
    bf10:	ebfff360 	bl	8c98 <_init+0x194>
    bf14:	e24bd004 	sub	sp, fp, #4
    bf18:	e8bd8800 	pop	{fp, pc}

0000bf1c <md5_starts>:
    bf1c:	e52db004 	push	{fp}		; (str fp, [sp, #-4]!)
    bf20:	e28db000 	add	fp, sp, #0
    bf24:	e24dd00c 	sub	sp, sp, #12
    bf28:	e50b0008 	str	r0, [fp, #-8]
    bf2c:	e51b3008 	ldr	r3, [fp, #-8]
    bf30:	e3a02000 	mov	r2, #0
    bf34:	e5832000 	str	r2, [r3]
    bf38:	e51b3008 	ldr	r3, [fp, #-8]
    bf3c:	e3a02000 	mov	r2, #0
    bf40:	e5832004 	str	r2, [r3, #4]
    bf44:	e51b3008 	ldr	r3, [fp, #-8]
    bf48:	e59f2030 	ldr	r2, [pc, #48]	; bf80 <md5_starts+0x64>
    bf4c:	e5832008 	str	r2, [r3, #8]
    bf50:	e51b3008 	ldr	r3, [fp, #-8]
    bf54:	e59f2028 	ldr	r2, [pc, #40]	; bf84 <md5_starts+0x68>
    bf58:	e583200c 	str	r2, [r3, #12]
    bf5c:	e51b3008 	ldr	r3, [fp, #-8]
    bf60:	e59f2020 	ldr	r2, [pc, #32]	; bf88 <md5_starts+0x6c>
    bf64:	e5832010 	str	r2, [r3, #16]
    bf68:	e51b3008 	ldr	r3, [fp, #-8]
    bf6c:	e59f2018 	ldr	r2, [pc, #24]	; bf8c <md5_starts+0x70>
    bf70:	e5832014 	str	r2, [r3, #20]
    bf74:	e28bd000 	add	sp, fp, #0
    bf78:	e8bd0800 	pop	{fp}
    bf7c:	e12fff1e 	bx	lr
    bf80:	67452301 	.word	0x67452301
    bf84:	efcdab89 	.word	0xefcdab89
    bf88:	98badcfe 	.word	0x98badcfe
    bf8c:	10325476 	.word	0x10325476

0000bf90 <md5_process>:
    bf90:	e52db004 	push	{fp}		; (str fp, [sp, #-4]!)
    bf94:	e28db000 	add	fp, sp, #0
    bf98:	e24dd05c 	sub	sp, sp, #92	; 0x5c
    bf9c:	e50b0058 	str	r0, [fp, #-88]	; 0x58
    bfa0:	e50b105c 	str	r1, [fp, #-92]	; 0x5c
    bfa4:	e51b305c 	ldr	r3, [fp, #-92]	; 0x5c
    bfa8:	e5d33000 	ldrb	r3, [r3]
    bfac:	e1a02003 	mov	r2, r3
    bfb0:	e51b305c 	ldr	r3, [fp, #-92]	; 0x5c
    bfb4:	e2833001 	add	r3, r3, #1
    bfb8:	e5d33000 	ldrb	r3, [r3]
    bfbc:	e1a03403 	lsl	r3, r3, #8
    bfc0:	e1822003 	orr	r2, r2, r3
    bfc4:	e51b305c 	ldr	r3, [fp, #-92]	; 0x5c
    bfc8:	e2833002 	add	r3, r3, #2
    bfcc:	e5d33000 	ldrb	r3, [r3]
    bfd0:	e1a03803 	lsl	r3, r3, #16
    bfd4:	e1822003 	orr	r2, r2, r3
    bfd8:	e51b305c 	ldr	r3, [fp, #-92]	; 0x5c
    bfdc:	e2833003 	add	r3, r3, #3
    bfe0:	e5d33000 	ldrb	r3, [r3]
    bfe4:	e1a03c03 	lsl	r3, r3, #24
    bfe8:	e1823003 	orr	r3, r2, r3
    bfec:	e50b3054 	str	r3, [fp, #-84]	; 0x54
    bff0:	e51b305c 	ldr	r3, [fp, #-92]	; 0x5c
    bff4:	e2833004 	add	r3, r3, #4
    bff8:	e5d33000 	ldrb	r3, [r3]
    bffc:	e1a02003 	mov	r2, r3
    c000:	e51b305c 	ldr	r3, [fp, #-92]	; 0x5c
    c004:	e2833005 	add	r3, r3, #5
    c008:	e5d33000 	ldrb	r3, [r3]
    c00c:	e1a03403 	lsl	r3, r3, #8
    c010:	e1822003 	orr	r2, r2, r3
    c014:	e51b305c 	ldr	r3, [fp, #-92]	; 0x5c
    c018:	e2833006 	add	r3, r3, #6
    c01c:	e5d33000 	ldrb	r3, [r3]
    c020:	e1a03803 	lsl	r3, r3, #16
    c024:	e1822003 	orr	r2, r2, r3
    c028:	e51b305c 	ldr	r3, [fp, #-92]	; 0x5c
    c02c:	e2833007 	add	r3, r3, #7
    c030:	e5d33000 	ldrb	r3, [r3]
    c034:	e1a03c03 	lsl	r3, r3, #24
    c038:	e1823003 	orr	r3, r2, r3
    c03c:	e50b3050 	str	r3, [fp, #-80]	; 0x50
    c040:	e51b305c 	ldr	r3, [fp, #-92]	; 0x5c
    c044:	e2833008 	add	r3, r3, #8
    c048:	e5d33000 	ldrb	r3, [r3]
    c04c:	e1a02003 	mov	r2, r3
    c050:	e51b305c 	ldr	r3, [fp, #-92]	; 0x5c
    c054:	e2833009 	add	r3, r3, #9
    c058:	e5d33000 	ldrb	r3, [r3]
    c05c:	e1a03403 	lsl	r3, r3, #8
    c060:	e1822003 	orr	r2, r2, r3
    c064:	e51b305c 	ldr	r3, [fp, #-92]	; 0x5c
    c068:	e283300a 	add	r3, r3, #10
    c06c:	e5d33000 	ldrb	r3, [r3]
    c070:	e1a03803 	lsl	r3, r3, #16
    c074:	e1822003 	orr	r2, r2, r3
    c078:	e51b305c 	ldr	r3, [fp, #-92]	; 0x5c
    c07c:	e283300b 	add	r3, r3, #11
    c080:	e5d33000 	ldrb	r3, [r3]
    c084:	e1a03c03 	lsl	r3, r3, #24
    c088:	e1823003 	orr	r3, r2, r3
    c08c:	e50b304c 	str	r3, [fp, #-76]	; 0x4c
    c090:	e51b305c 	ldr	r3, [fp, #-92]	; 0x5c
    c094:	e283300c 	add	r3, r3, #12
    c098:	e5d33000 	ldrb	r3, [r3]
    c09c:	e1a02003 	mov	r2, r3
    c0a0:	e51b305c 	ldr	r3, [fp, #-92]	; 0x5c
    c0a4:	e283300d 	add	r3, r3, #13
    c0a8:	e5d33000 	ldrb	r3, [r3]
    c0ac:	e1a03403 	lsl	r3, r3, #8
    c0b0:	e1822003 	orr	r2, r2, r3
    c0b4:	e51b305c 	ldr	r3, [fp, #-92]	; 0x5c
    c0b8:	e283300e 	add	r3, r3, #14
    c0bc:	e5d33000 	ldrb	r3, [r3]
    c0c0:	e1a03803 	lsl	r3, r3, #16
    c0c4:	e1822003 	orr	r2, r2, r3
    c0c8:	e51b305c 	ldr	r3, [fp, #-92]	; 0x5c
    c0cc:	e283300f 	add	r3, r3, #15
    c0d0:	e5d33000 	ldrb	r3, [r3]
    c0d4:	e1a03c03 	lsl	r3, r3, #24
    c0d8:	e1823003 	orr	r3, r2, r3
    c0dc:	e50b3048 	str	r3, [fp, #-72]	; 0x48
    c0e0:	e51b305c 	ldr	r3, [fp, #-92]	; 0x5c
    c0e4:	e2833010 	add	r3, r3, #16
    c0e8:	e5d33000 	ldrb	r3, [r3]
    c0ec:	e1a02003 	mov	r2, r3
    c0f0:	e51b305c 	ldr	r3, [fp, #-92]	; 0x5c
    c0f4:	e2833011 	add	r3, r3, #17
    c0f8:	e5d33000 	ldrb	r3, [r3]
    c0fc:	e1a03403 	lsl	r3, r3, #8
    c100:	e1822003 	orr	r2, r2, r3
    c104:	e51b305c 	ldr	r3, [fp, #-92]	; 0x5c
    c108:	e2833012 	add	r3, r3, #18
    c10c:	e5d33000 	ldrb	r3, [r3]
    c110:	e1a03803 	lsl	r3, r3, #16
    c114:	e1822003 	orr	r2, r2, r3
    c118:	e51b305c 	ldr	r3, [fp, #-92]	; 0x5c
    c11c:	e2833013 	add	r3, r3, #19
    c120:	e5d33000 	ldrb	r3, [r3]
    c124:	e1a03c03 	lsl	r3, r3, #24
    c128:	e1823003 	orr	r3, r2, r3
    c12c:	e50b3044 	str	r3, [fp, #-68]	; 0x44
    c130:	e51b305c 	ldr	r3, [fp, #-92]	; 0x5c
    c134:	e2833014 	add	r3, r3, #20
    c138:	e5d33000 	ldrb	r3, [r3]
    c13c:	e1a02003 	mov	r2, r3
    c140:	e51b305c 	ldr	r3, [fp, #-92]	; 0x5c
    c144:	e2833015 	add	r3, r3, #21
    c148:	e5d33000 	ldrb	r3, [r3]
    c14c:	e1a03403 	lsl	r3, r3, #8
    c150:	e1822003 	orr	r2, r2, r3
    c154:	e51b305c 	ldr	r3, [fp, #-92]	; 0x5c
    c158:	e2833016 	add	r3, r3, #22
    c15c:	e5d33000 	ldrb	r3, [r3]
    c160:	e1a03803 	lsl	r3, r3, #16
    c164:	e1822003 	orr	r2, r2, r3
    c168:	e51b305c 	ldr	r3, [fp, #-92]	; 0x5c
    c16c:	e2833017 	add	r3, r3, #23
    c170:	e5d33000 	ldrb	r3, [r3]
    c174:	e1a03c03 	lsl	r3, r3, #24
    c178:	e1823003 	orr	r3, r2, r3
    c17c:	e50b3040 	str	r3, [fp, #-64]	; 0x40
    c180:	e51b305c 	ldr	r3, [fp, #-92]	; 0x5c
    c184:	e2833018 	add	r3, r3, #24
    c188:	e5d33000 	ldrb	r3, [r3]
    c18c:	e1a02003 	mov	r2, r3
    c190:	e51b305c 	ldr	r3, [fp, #-92]	; 0x5c
    c194:	e2833019 	add	r3, r3, #25
    c198:	e5d33000 	ldrb	r3, [r3]
    c19c:	e1a03403 	lsl	r3, r3, #8
    c1a0:	e1822003 	orr	r2, r2, r3
    c1a4:	e51b305c 	ldr	r3, [fp, #-92]	; 0x5c
    c1a8:	e283301a 	add	r3, r3, #26
    c1ac:	e5d33000 	ldrb	r3, [r3]
    c1b0:	e1a03803 	lsl	r3, r3, #16
    c1b4:	e1822003 	orr	r2, r2, r3
    c1b8:	e51b305c 	ldr	r3, [fp, #-92]	; 0x5c
    c1bc:	e283301b 	add	r3, r3, #27
    c1c0:	e5d33000 	ldrb	r3, [r3]
    c1c4:	e1a03c03 	lsl	r3, r3, #24
    c1c8:	e1823003 	orr	r3, r2, r3
    c1cc:	e50b303c 	str	r3, [fp, #-60]	; 0x3c
    c1d0:	e51b305c 	ldr	r3, [fp, #-92]	; 0x5c
    c1d4:	e283301c 	add	r3, r3, #28
    c1d8:	e5d33000 	ldrb	r3, [r3]
    c1dc:	e1a02003 	mov	r2, r3
    c1e0:	e51b305c 	ldr	r3, [fp, #-92]	; 0x5c
    c1e4:	e283301d 	add	r3, r3, #29
    c1e8:	e5d33000 	ldrb	r3, [r3]
    c1ec:	e1a03403 	lsl	r3, r3, #8
    c1f0:	e1822003 	orr	r2, r2, r3
    c1f4:	e51b305c 	ldr	r3, [fp, #-92]	; 0x5c
    c1f8:	e283301e 	add	r3, r3, #30
    c1fc:	e5d33000 	ldrb	r3, [r3]
    c200:	e1a03803 	lsl	r3, r3, #16
    c204:	e1822003 	orr	r2, r2, r3
    c208:	e51b305c 	ldr	r3, [fp, #-92]	; 0x5c
    c20c:	e283301f 	add	r3, r3, #31
    c210:	e5d33000 	ldrb	r3, [r3]
    c214:	e1a03c03 	lsl	r3, r3, #24
    c218:	e1823003 	orr	r3, r2, r3
    c21c:	e50b3038 	str	r3, [fp, #-56]	; 0x38
    c220:	e51b305c 	ldr	r3, [fp, #-92]	; 0x5c
    c224:	e2833020 	add	r3, r3, #32
    c228:	e5d33000 	ldrb	r3, [r3]
    c22c:	e1a02003 	mov	r2, r3
    c230:	e51b305c 	ldr	r3, [fp, #-92]	; 0x5c
    c234:	e2833021 	add	r3, r3, #33	; 0x21
    c238:	e5d33000 	ldrb	r3, [r3]
    c23c:	e1a03403 	lsl	r3, r3, #8
    c240:	e1822003 	orr	r2, r2, r3
    c244:	e51b305c 	ldr	r3, [fp, #-92]	; 0x5c
    c248:	e2833022 	add	r3, r3, #34	; 0x22
    c24c:	e5d33000 	ldrb	r3, [r3]
    c250:	e1a03803 	lsl	r3, r3, #16
    c254:	e1822003 	orr	r2, r2, r3
    c258:	e51b305c 	ldr	r3, [fp, #-92]	; 0x5c
    c25c:	e2833023 	add	r3, r3, #35	; 0x23
    c260:	e5d33000 	ldrb	r3, [r3]
    c264:	e1a03c03 	lsl	r3, r3, #24
    c268:	e1823003 	orr	r3, r2, r3
    c26c:	e50b3034 	str	r3, [fp, #-52]	; 0x34
    c270:	e51b305c 	ldr	r3, [fp, #-92]	; 0x5c
    c274:	e2833024 	add	r3, r3, #36	; 0x24
    c278:	e5d33000 	ldrb	r3, [r3]
    c27c:	e1a02003 	mov	r2, r3
    c280:	e51b305c 	ldr	r3, [fp, #-92]	; 0x5c
    c284:	e2833025 	add	r3, r3, #37	; 0x25
    c288:	e5d33000 	ldrb	r3, [r3]
    c28c:	e1a03403 	lsl	r3, r3, #8
    c290:	e1822003 	orr	r2, r2, r3
    c294:	e51b305c 	ldr	r3, [fp, #-92]	; 0x5c
    c298:	e2833026 	add	r3, r3, #38	; 0x26
    c29c:	e5d33000 	ldrb	r3, [r3]
    c2a0:	e1a03803 	lsl	r3, r3, #16
    c2a4:	e1822003 	orr	r2, r2, r3
    c2a8:	e51b305c 	ldr	r3, [fp, #-92]	; 0x5c
    c2ac:	e2833027 	add	r3, r3, #39	; 0x27
    c2b0:	e5d33000 	ldrb	r3, [r3]
    c2b4:	e1a03c03 	lsl	r3, r3, #24
    c2b8:	e1823003 	orr	r3, r2, r3
    c2bc:	e50b3030 	str	r3, [fp, #-48]	; 0x30
    c2c0:	e51b305c 	ldr	r3, [fp, #-92]	; 0x5c
    c2c4:	e2833028 	add	r3, r3, #40	; 0x28
    c2c8:	e5d33000 	ldrb	r3, [r3]
    c2cc:	e1a02003 	mov	r2, r3
    c2d0:	e51b305c 	ldr	r3, [fp, #-92]	; 0x5c
    c2d4:	e2833029 	add	r3, r3, #41	; 0x29
    c2d8:	e5d33000 	ldrb	r3, [r3]
    c2dc:	e1a03403 	lsl	r3, r3, #8
    c2e0:	e1822003 	orr	r2, r2, r3
    c2e4:	e51b305c 	ldr	r3, [fp, #-92]	; 0x5c
    c2e8:	e283302a 	add	r3, r3, #42	; 0x2a
    c2ec:	e5d33000 	ldrb	r3, [r3]
    c2f0:	e1a03803 	lsl	r3, r3, #16
    c2f4:	e1822003 	orr	r2, r2, r3
    c2f8:	e51b305c 	ldr	r3, [fp, #-92]	; 0x5c
    c2fc:	e283302b 	add	r3, r3, #43	; 0x2b
    c300:	e5d33000 	ldrb	r3, [r3]
    c304:	e1a03c03 	lsl	r3, r3, #24
    c308:	e1823003 	orr	r3, r2, r3
    c30c:	e50b302c 	str	r3, [fp, #-44]	; 0x2c
    c310:	e51b305c 	ldr	r3, [fp, #-92]	; 0x5c
    c314:	e283302c 	add	r3, r3, #44	; 0x2c
    c318:	e5d33000 	ldrb	r3, [r3]
    c31c:	e1a02003 	mov	r2, r3
    c320:	e51b305c 	ldr	r3, [fp, #-92]	; 0x5c
    c324:	e283302d 	add	r3, r3, #45	; 0x2d
    c328:	e5d33000 	ldrb	r3, [r3]
    c32c:	e1a03403 	lsl	r3, r3, #8
    c330:	e1822003 	orr	r2, r2, r3
    c334:	e51b305c 	ldr	r3, [fp, #-92]	; 0x5c
    c338:	e283302e 	add	r3, r3, #46	; 0x2e
    c33c:	e5d33000 	ldrb	r3, [r3]
    c340:	e1a03803 	lsl	r3, r3, #16
    c344:	e1822003 	orr	r2, r2, r3
    c348:	e51b305c 	ldr	r3, [fp, #-92]	; 0x5c
    c34c:	e283302f 	add	r3, r3, #47	; 0x2f
    c350:	e5d33000 	ldrb	r3, [r3]
    c354:	e1a03c03 	lsl	r3, r3, #24
    c358:	e1823003 	orr	r3, r2, r3
    c35c:	e50b3028 	str	r3, [fp, #-40]	; 0x28
    c360:	e51b305c 	ldr	r3, [fp, #-92]	; 0x5c
    c364:	e2833030 	add	r3, r3, #48	; 0x30
    c368:	e5d33000 	ldrb	r3, [r3]
    c36c:	e1a02003 	mov	r2, r3
    c370:	e51b305c 	ldr	r3, [fp, #-92]	; 0x5c
    c374:	e2833031 	add	r3, r3, #49	; 0x31
    c378:	e5d33000 	ldrb	r3, [r3]
    c37c:	e1a03403 	lsl	r3, r3, #8
    c380:	e1822003 	orr	r2, r2, r3
    c384:	e51b305c 	ldr	r3, [fp, #-92]	; 0x5c
    c388:	e2833032 	add	r3, r3, #50	; 0x32
    c38c:	e5d33000 	ldrb	r3, [r3]
    c390:	e1a03803 	lsl	r3, r3, #16
    c394:	e1822003 	orr	r2, r2, r3
    c398:	e51b305c 	ldr	r3, [fp, #-92]	; 0x5c
    c39c:	e2833033 	add	r3, r3, #51	; 0x33
    c3a0:	e5d33000 	ldrb	r3, [r3]
    c3a4:	e1a03c03 	lsl	r3, r3, #24
    c3a8:	e1823003 	orr	r3, r2, r3
    c3ac:	e50b3024 	str	r3, [fp, #-36]	; 0x24
    c3b0:	e51b305c 	ldr	r3, [fp, #-92]	; 0x5c
    c3b4:	e2833034 	add	r3, r3, #52	; 0x34
    c3b8:	e5d33000 	ldrb	r3, [r3]
    c3bc:	e1a02003 	mov	r2, r3
    c3c0:	e51b305c 	ldr	r3, [fp, #-92]	; 0x5c
    c3c4:	e2833035 	add	r3, r3, #53	; 0x35
    c3c8:	e5d33000 	ldrb	r3, [r3]
    c3cc:	e1a03403 	lsl	r3, r3, #8
    c3d0:	e1822003 	orr	r2, r2, r3
    c3d4:	e51b305c 	ldr	r3, [fp, #-92]	; 0x5c
    c3d8:	e2833036 	add	r3, r3, #54	; 0x36
    c3dc:	e5d33000 	ldrb	r3, [r3]
    c3e0:	e1a03803 	lsl	r3, r3, #16
    c3e4:	e1822003 	orr	r2, r2, r3
    c3e8:	e51b305c 	ldr	r3, [fp, #-92]	; 0x5c
    c3ec:	e2833037 	add	r3, r3, #55	; 0x37
    c3f0:	e5d33000 	ldrb	r3, [r3]
    c3f4:	e1a03c03 	lsl	r3, r3, #24
    c3f8:	e1823003 	orr	r3, r2, r3
    c3fc:	e50b3020 	str	r3, [fp, #-32]
    c400:	e51b305c 	ldr	r3, [fp, #-92]	; 0x5c
    c404:	e2833038 	add	r3, r3, #56	; 0x38
    c408:	e5d33000 	ldrb	r3, [r3]
    c40c:	e1a02003 	mov	r2, r3
    c410:	e51b305c 	ldr	r3, [fp, #-92]	; 0x5c
    c414:	e2833039 	add	r3, r3, #57	; 0x39
    c418:	e5d33000 	ldrb	r3, [r3]
    c41c:	e1a03403 	lsl	r3, r3, #8
    c420:	e1822003 	orr	r2, r2, r3
    c424:	e51b305c 	ldr	r3, [fp, #-92]	; 0x5c
    c428:	e283303a 	add	r3, r3, #58	; 0x3a
    c42c:	e5d33000 	ldrb	r3, [r3]
    c430:	e1a03803 	lsl	r3, r3, #16
    c434:	e1822003 	orr	r2, r2, r3
    c438:	e51b305c 	ldr	r3, [fp, #-92]	; 0x5c
    c43c:	e283303b 	add	r3, r3, #59	; 0x3b
    c440:	e5d33000 	ldrb	r3, [r3]
    c444:	e1a03c03 	lsl	r3, r3, #24
    c448:	e1823003 	orr	r3, r2, r3
    c44c:	e50b301c 	str	r3, [fp, #-28]
    c450:	e51b305c 	ldr	r3, [fp, #-92]	; 0x5c
    c454:	e283303c 	add	r3, r3, #60	; 0x3c
    c458:	e5d33000 	ldrb	r3, [r3]
    c45c:	e1a02003 	mov	r2, r3
    c460:	e51b305c 	ldr	r3, [fp, #-92]	; 0x5c
    c464:	e283303d 	add	r3, r3, #61	; 0x3d
    c468:	e5d33000 	ldrb	r3, [r3]
    c46c:	e1a03403 	lsl	r3, r3, #8
    c470:	e1822003 	orr	r2, r2, r3
    c474:	e51b305c 	ldr	r3, [fp, #-92]	; 0x5c
    c478:	e283303e 	add	r3, r3, #62	; 0x3e
    c47c:	e5d33000 	ldrb	r3, [r3]
    c480:	e1a03803 	lsl	r3, r3, #16
    c484:	e1822003 	orr	r2, r2, r3
    c488:	e51b305c 	ldr	r3, [fp, #-92]	; 0x5c
    c48c:	e283303f 	add	r3, r3, #63	; 0x3f
    c490:	e5d33000 	ldrb	r3, [r3]
    c494:	e1a03c03 	lsl	r3, r3, #24
    c498:	e1823003 	orr	r3, r2, r3
    c49c:	e50b3018 	str	r3, [fp, #-24]
    c4a0:	e51b3058 	ldr	r3, [fp, #-88]	; 0x58
    c4a4:	e5933008 	ldr	r3, [r3, #8]
    c4a8:	e50b3008 	str	r3, [fp, #-8]
    c4ac:	e51b3058 	ldr	r3, [fp, #-88]	; 0x58
    c4b0:	e593300c 	ldr	r3, [r3, #12]
    c4b4:	e50b300c 	str	r3, [fp, #-12]
    c4b8:	e51b3058 	ldr	r3, [fp, #-88]	; 0x58
    c4bc:	e5933010 	ldr	r3, [r3, #16]
    c4c0:	e50b3010 	str	r3, [fp, #-16]
    c4c4:	e51b3058 	ldr	r3, [fp, #-88]	; 0x58
    c4c8:	e5933014 	ldr	r3, [r3, #20]
    c4cc:	e50b3014 	str	r3, [fp, #-20]
    c4d0:	e51b2010 	ldr	r2, [fp, #-16]
    c4d4:	e51b3014 	ldr	r3, [fp, #-20]
    c4d8:	e0222003 	eor	r2, r2, r3
    c4dc:	e51b300c 	ldr	r3, [fp, #-12]
    c4e0:	e0022003 	and	r2, r2, r3
    c4e4:	e51b3014 	ldr	r3, [fp, #-20]
    c4e8:	e0222003 	eor	r2, r2, r3
    c4ec:	e51b3054 	ldr	r3, [fp, #-84]	; 0x54
    c4f0:	e0822003 	add	r2, r2, r3
    c4f4:	e51b3008 	ldr	r3, [fp, #-8]
    c4f8:	e0822003 	add	r2, r2, r3
    c4fc:	e59f3ff8 	ldr	r3, [pc, #4088]	; d4fc <md5_process+0x156c>
    c500:	e0823003 	add	r3, r2, r3
    c504:	e50b3008 	str	r3, [fp, #-8]
    c508:	e51b3008 	ldr	r3, [fp, #-8]
    c50c:	e1a02ce3 	ror	r2, r3, #25
    c510:	e51b300c 	ldr	r3, [fp, #-12]
    c514:	e0823003 	add	r3, r2, r3
    c518:	e50b3008 	str	r3, [fp, #-8]
    c51c:	e51b200c 	ldr	r2, [fp, #-12]
    c520:	e51b3010 	ldr	r3, [fp, #-16]
    c524:	e0222003 	eor	r2, r2, r3
    c528:	e51b3008 	ldr	r3, [fp, #-8]
    c52c:	e0022003 	and	r2, r2, r3
    c530:	e51b3010 	ldr	r3, [fp, #-16]
    c534:	e0222003 	eor	r2, r2, r3
    c538:	e51b3050 	ldr	r3, [fp, #-80]	; 0x50
    c53c:	e0822003 	add	r2, r2, r3
    c540:	e51b3014 	ldr	r3, [fp, #-20]
    c544:	e0822003 	add	r2, r2, r3
    c548:	e59f3fb0 	ldr	r3, [pc, #4016]	; d500 <md5_process+0x1570>
    c54c:	e0823003 	add	r3, r2, r3
    c550:	e50b3014 	str	r3, [fp, #-20]
    c554:	e51b3014 	ldr	r3, [fp, #-20]
    c558:	e1a02a63 	ror	r2, r3, #20
    c55c:	e51b3008 	ldr	r3, [fp, #-8]
    c560:	e0823003 	add	r3, r2, r3
    c564:	e50b3014 	str	r3, [fp, #-20]
    c568:	e51b2008 	ldr	r2, [fp, #-8]
    c56c:	e51b300c 	ldr	r3, [fp, #-12]
    c570:	e0222003 	eor	r2, r2, r3
    c574:	e51b3014 	ldr	r3, [fp, #-20]
    c578:	e0022003 	and	r2, r2, r3
    c57c:	e51b300c 	ldr	r3, [fp, #-12]
    c580:	e0222003 	eor	r2, r2, r3
    c584:	e51b304c 	ldr	r3, [fp, #-76]	; 0x4c
    c588:	e0822003 	add	r2, r2, r3
    c58c:	e51b3010 	ldr	r3, [fp, #-16]
    c590:	e0822003 	add	r2, r2, r3
    c594:	e59f3f68 	ldr	r3, [pc, #3944]	; d504 <md5_process+0x1574>
    c598:	e0823003 	add	r3, r2, r3
    c59c:	e50b3010 	str	r3, [fp, #-16]
    c5a0:	e51b3010 	ldr	r3, [fp, #-16]
    c5a4:	e1a027e3 	ror	r2, r3, #15
    c5a8:	e51b3014 	ldr	r3, [fp, #-20]
    c5ac:	e0823003 	add	r3, r2, r3
    c5b0:	e50b3010 	str	r3, [fp, #-16]
    c5b4:	e51b2014 	ldr	r2, [fp, #-20]
    c5b8:	e51b3008 	ldr	r3, [fp, #-8]
    c5bc:	e0222003 	eor	r2, r2, r3
    c5c0:	e51b3010 	ldr	r3, [fp, #-16]
    c5c4:	e0022003 	and	r2, r2, r3
    c5c8:	e51b3008 	ldr	r3, [fp, #-8]
    c5cc:	e0222003 	eor	r2, r2, r3
    c5d0:	e51b3048 	ldr	r3, [fp, #-72]	; 0x48
    c5d4:	e0822003 	add	r2, r2, r3
    c5d8:	e51b300c 	ldr	r3, [fp, #-12]
    c5dc:	e0822003 	add	r2, r2, r3
    c5e0:	e59f3f20 	ldr	r3, [pc, #3872]	; d508 <md5_process+0x1578>
    c5e4:	e0823003 	add	r3, r2, r3
    c5e8:	e50b300c 	str	r3, [fp, #-12]
    c5ec:	e51b300c 	ldr	r3, [fp, #-12]
    c5f0:	e1a02563 	ror	r2, r3, #10
    c5f4:	e51b3010 	ldr	r3, [fp, #-16]
    c5f8:	e0823003 	add	r3, r2, r3
    c5fc:	e50b300c 	str	r3, [fp, #-12]
    c600:	e51b2010 	ldr	r2, [fp, #-16]
    c604:	e51b3014 	ldr	r3, [fp, #-20]
    c608:	e0222003 	eor	r2, r2, r3
    c60c:	e51b300c 	ldr	r3, [fp, #-12]
    c610:	e0022003 	and	r2, r2, r3
    c614:	e51b3014 	ldr	r3, [fp, #-20]
    c618:	e0222003 	eor	r2, r2, r3
    c61c:	e51b3044 	ldr	r3, [fp, #-68]	; 0x44
    c620:	e0822003 	add	r2, r2, r3
    c624:	e51b3008 	ldr	r3, [fp, #-8]
    c628:	e0822003 	add	r2, r2, r3
    c62c:	e59f3ed8 	ldr	r3, [pc, #3800]	; d50c <md5_process+0x157c>
    c630:	e0823003 	add	r3, r2, r3
    c634:	e50b3008 	str	r3, [fp, #-8]
    c638:	e51b3008 	ldr	r3, [fp, #-8]
    c63c:	e1a02ce3 	ror	r2, r3, #25
    c640:	e51b300c 	ldr	r3, [fp, #-12]
    c644:	e0823003 	add	r3, r2, r3
    c648:	e50b3008 	str	r3, [fp, #-8]
    c64c:	e51b200c 	ldr	r2, [fp, #-12]
    c650:	e51b3010 	ldr	r3, [fp, #-16]
    c654:	e0222003 	eor	r2, r2, r3
    c658:	e51b3008 	ldr	r3, [fp, #-8]
    c65c:	e0022003 	and	r2, r2, r3
    c660:	e51b3010 	ldr	r3, [fp, #-16]
    c664:	e0222003 	eor	r2, r2, r3
    c668:	e51b3040 	ldr	r3, [fp, #-64]	; 0x40
    c66c:	e0822003 	add	r2, r2, r3
    c670:	e51b3014 	ldr	r3, [fp, #-20]
    c674:	e0822003 	add	r2, r2, r3
    c678:	e59f3e90 	ldr	r3, [pc, #3728]	; d510 <md5_process+0x1580>
    c67c:	e0823003 	add	r3, r2, r3
    c680:	e50b3014 	str	r3, [fp, #-20]
    c684:	e51b3014 	ldr	r3, [fp, #-20]
    c688:	e1a02a63 	ror	r2, r3, #20
    c68c:	e51b3008 	ldr	r3, [fp, #-8]
    c690:	e0823003 	add	r3, r2, r3
    c694:	e50b3014 	str	r3, [fp, #-20]
    c698:	e51b2008 	ldr	r2, [fp, #-8]
    c69c:	e51b300c 	ldr	r3, [fp, #-12]
    c6a0:	e0222003 	eor	r2, r2, r3
    c6a4:	e51b3014 	ldr	r3, [fp, #-20]
    c6a8:	e0022003 	and	r2, r2, r3
    c6ac:	e51b300c 	ldr	r3, [fp, #-12]
    c6b0:	e0222003 	eor	r2, r2, r3
    c6b4:	e51b303c 	ldr	r3, [fp, #-60]	; 0x3c
    c6b8:	e0822003 	add	r2, r2, r3
    c6bc:	e51b3010 	ldr	r3, [fp, #-16]
    c6c0:	e0822003 	add	r2, r2, r3
    c6c4:	e59f3e48 	ldr	r3, [pc, #3656]	; d514 <md5_process+0x1584>
    c6c8:	e0823003 	add	r3, r2, r3
    c6cc:	e50b3010 	str	r3, [fp, #-16]
    c6d0:	e51b3010 	ldr	r3, [fp, #-16]
    c6d4:	e1a027e3 	ror	r2, r3, #15
    c6d8:	e51b3014 	ldr	r3, [fp, #-20]
    c6dc:	e0823003 	add	r3, r2, r3
    c6e0:	e50b3010 	str	r3, [fp, #-16]
    c6e4:	e51b2014 	ldr	r2, [fp, #-20]
    c6e8:	e51b3008 	ldr	r3, [fp, #-8]
    c6ec:	e0222003 	eor	r2, r2, r3
    c6f0:	e51b3010 	ldr	r3, [fp, #-16]
    c6f4:	e0022003 	and	r2, r2, r3
    c6f8:	e51b3008 	ldr	r3, [fp, #-8]
    c6fc:	e0222003 	eor	r2, r2, r3
    c700:	e51b3038 	ldr	r3, [fp, #-56]	; 0x38
    c704:	e0822003 	add	r2, r2, r3
    c708:	e51b300c 	ldr	r3, [fp, #-12]
    c70c:	e0822003 	add	r2, r2, r3
    c710:	e59f3e00 	ldr	r3, [pc, #3584]	; d518 <md5_process+0x1588>
    c714:	e0823003 	add	r3, r2, r3
    c718:	e50b300c 	str	r3, [fp, #-12]
    c71c:	e51b300c 	ldr	r3, [fp, #-12]
    c720:	e1a02563 	ror	r2, r3, #10
    c724:	e51b3010 	ldr	r3, [fp, #-16]
    c728:	e0823003 	add	r3, r2, r3
    c72c:	e50b300c 	str	r3, [fp, #-12]
    c730:	e51b2010 	ldr	r2, [fp, #-16]
    c734:	e51b3014 	ldr	r3, [fp, #-20]
    c738:	e0222003 	eor	r2, r2, r3
    c73c:	e51b300c 	ldr	r3, [fp, #-12]
    c740:	e0022003 	and	r2, r2, r3
    c744:	e51b3014 	ldr	r3, [fp, #-20]
    c748:	e0222003 	eor	r2, r2, r3
    c74c:	e51b3034 	ldr	r3, [fp, #-52]	; 0x34
    c750:	e0822003 	add	r2, r2, r3
    c754:	e51b3008 	ldr	r3, [fp, #-8]
    c758:	e0822003 	add	r2, r2, r3
    c75c:	e59f3db8 	ldr	r3, [pc, #3512]	; d51c <md5_process+0x158c>
    c760:	e0823003 	add	r3, r2, r3
    c764:	e50b3008 	str	r3, [fp, #-8]
    c768:	e51b3008 	ldr	r3, [fp, #-8]
    c76c:	e1a02ce3 	ror	r2, r3, #25
    c770:	e51b300c 	ldr	r3, [fp, #-12]
    c774:	e0823003 	add	r3, r2, r3
    c778:	e50b3008 	str	r3, [fp, #-8]
    c77c:	e51b200c 	ldr	r2, [fp, #-12]
    c780:	e51b3010 	ldr	r3, [fp, #-16]
    c784:	e0222003 	eor	r2, r2, r3
    c788:	e51b3008 	ldr	r3, [fp, #-8]
    c78c:	e0022003 	and	r2, r2, r3
    c790:	e51b3010 	ldr	r3, [fp, #-16]
    c794:	e0222003 	eor	r2, r2, r3
    c798:	e51b3030 	ldr	r3, [fp, #-48]	; 0x30
    c79c:	e0822003 	add	r2, r2, r3
    c7a0:	e51b3014 	ldr	r3, [fp, #-20]
    c7a4:	e0822003 	add	r2, r2, r3
    c7a8:	e59f3d70 	ldr	r3, [pc, #3440]	; d520 <md5_process+0x1590>
    c7ac:	e0823003 	add	r3, r2, r3
    c7b0:	e50b3014 	str	r3, [fp, #-20]
    c7b4:	e51b3014 	ldr	r3, [fp, #-20]
    c7b8:	e1a02a63 	ror	r2, r3, #20
    c7bc:	e51b3008 	ldr	r3, [fp, #-8]
    c7c0:	e0823003 	add	r3, r2, r3
    c7c4:	e50b3014 	str	r3, [fp, #-20]
    c7c8:	e51b2008 	ldr	r2, [fp, #-8]
    c7cc:	e51b300c 	ldr	r3, [fp, #-12]
    c7d0:	e0222003 	eor	r2, r2, r3
    c7d4:	e51b3014 	ldr	r3, [fp, #-20]
    c7d8:	e0022003 	and	r2, r2, r3
    c7dc:	e51b300c 	ldr	r3, [fp, #-12]
    c7e0:	e0222003 	eor	r2, r2, r3
    c7e4:	e51b302c 	ldr	r3, [fp, #-44]	; 0x2c
    c7e8:	e0822003 	add	r2, r2, r3
    c7ec:	e51b3010 	ldr	r3, [fp, #-16]
    c7f0:	e0823003 	add	r3, r2, r3
    c7f4:	e2433b29 	sub	r3, r3, #41984	; 0xa400
    c7f8:	e243304f 	sub	r3, r3, #79	; 0x4f
    c7fc:	e50b3010 	str	r3, [fp, #-16]
    c800:	e51b3010 	ldr	r3, [fp, #-16]
    c804:	e1a027e3 	ror	r2, r3, #15
    c808:	e51b3014 	ldr	r3, [fp, #-20]
    c80c:	e0823003 	add	r3, r2, r3
    c810:	e50b3010 	str	r3, [fp, #-16]
    c814:	e51b2014 	ldr	r2, [fp, #-20]
    c818:	e51b3008 	ldr	r3, [fp, #-8]
    c81c:	e0222003 	eor	r2, r2, r3
    c820:	e51b3010 	ldr	r3, [fp, #-16]
    c824:	e0022003 	and	r2, r2, r3
    c828:	e51b3008 	ldr	r3, [fp, #-8]
    c82c:	e0222003 	eor	r2, r2, r3
    c830:	e51b3028 	ldr	r3, [fp, #-40]	; 0x28
    c834:	e0822003 	add	r2, r2, r3
    c838:	e51b300c 	ldr	r3, [fp, #-12]
    c83c:	e0822003 	add	r2, r2, r3
    c840:	e59f3cdc 	ldr	r3, [pc, #3292]	; d524 <md5_process+0x1594>
    c844:	e0823003 	add	r3, r2, r3
    c848:	e50b300c 	str	r3, [fp, #-12]
    c84c:	e51b300c 	ldr	r3, [fp, #-12]
    c850:	e1a02563 	ror	r2, r3, #10
    c854:	e51b3010 	ldr	r3, [fp, #-16]
    c858:	e0823003 	add	r3, r2, r3
    c85c:	e50b300c 	str	r3, [fp, #-12]
    c860:	e51b2010 	ldr	r2, [fp, #-16]
    c864:	e51b3014 	ldr	r3, [fp, #-20]
    c868:	e0222003 	eor	r2, r2, r3
    c86c:	e51b300c 	ldr	r3, [fp, #-12]
    c870:	e0022003 	and	r2, r2, r3
    c874:	e51b3014 	ldr	r3, [fp, #-20]
    c878:	e0222003 	eor	r2, r2, r3
    c87c:	e51b3024 	ldr	r3, [fp, #-36]	; 0x24
    c880:	e0822003 	add	r2, r2, r3
    c884:	e51b3008 	ldr	r3, [fp, #-8]
    c888:	e0822003 	add	r2, r2, r3
    c88c:	e59f3c94 	ldr	r3, [pc, #3220]	; d528 <md5_process+0x1598>
    c890:	e0823003 	add	r3, r2, r3
    c894:	e50b3008 	str	r3, [fp, #-8]
    c898:	e51b3008 	ldr	r3, [fp, #-8]
    c89c:	e1a02ce3 	ror	r2, r3, #25
    c8a0:	e51b300c 	ldr	r3, [fp, #-12]
    c8a4:	e0823003 	add	r3, r2, r3
    c8a8:	e50b3008 	str	r3, [fp, #-8]
    c8ac:	e51b200c 	ldr	r2, [fp, #-12]
    c8b0:	e51b3010 	ldr	r3, [fp, #-16]
    c8b4:	e0222003 	eor	r2, r2, r3
    c8b8:	e51b3008 	ldr	r3, [fp, #-8]
    c8bc:	e0022003 	and	r2, r2, r3
    c8c0:	e51b3010 	ldr	r3, [fp, #-16]
    c8c4:	e0222003 	eor	r2, r2, r3
    c8c8:	e51b3020 	ldr	r3, [fp, #-32]
    c8cc:	e0822003 	add	r2, r2, r3
    c8d0:	e51b3014 	ldr	r3, [fp, #-20]
    c8d4:	e0822003 	add	r2, r2, r3
    c8d8:	e59f3c4c 	ldr	r3, [pc, #3148]	; d52c <md5_process+0x159c>
    c8dc:	e0823003 	add	r3, r2, r3
    c8e0:	e50b3014 	str	r3, [fp, #-20]
    c8e4:	e51b3014 	ldr	r3, [fp, #-20]
    c8e8:	e1a02a63 	ror	r2, r3, #20
    c8ec:	e51b3008 	ldr	r3, [fp, #-8]
    c8f0:	e0823003 	add	r3, r2, r3
    c8f4:	e50b3014 	str	r3, [fp, #-20]
    c8f8:	e51b2008 	ldr	r2, [fp, #-8]
    c8fc:	e51b300c 	ldr	r3, [fp, #-12]
    c900:	e0222003 	eor	r2, r2, r3
    c904:	e51b3014 	ldr	r3, [fp, #-20]
    c908:	e0022003 	and	r2, r2, r3
    c90c:	e51b300c 	ldr	r3, [fp, #-12]
    c910:	e0222003 	eor	r2, r2, r3
    c914:	e51b301c 	ldr	r3, [fp, #-28]
    c918:	e0822003 	add	r2, r2, r3
    c91c:	e51b3010 	ldr	r3, [fp, #-16]
    c920:	e0822003 	add	r2, r2, r3
    c924:	e59f3c04 	ldr	r3, [pc, #3076]	; d530 <md5_process+0x15a0>
    c928:	e0823003 	add	r3, r2, r3
    c92c:	e50b3010 	str	r3, [fp, #-16]
    c930:	e51b3010 	ldr	r3, [fp, #-16]
    c934:	e1a027e3 	ror	r2, r3, #15
    c938:	e51b3014 	ldr	r3, [fp, #-20]
    c93c:	e0823003 	add	r3, r2, r3
    c940:	e50b3010 	str	r3, [fp, #-16]
    c944:	e51b2014 	ldr	r2, [fp, #-20]
    c948:	e51b3008 	ldr	r3, [fp, #-8]
    c94c:	e0222003 	eor	r2, r2, r3
    c950:	e51b3010 	ldr	r3, [fp, #-16]
    c954:	e0022003 	and	r2, r2, r3
    c958:	e51b3008 	ldr	r3, [fp, #-8]
    c95c:	e0222003 	eor	r2, r2, r3
    c960:	e51b3018 	ldr	r3, [fp, #-24]
    c964:	e0822003 	add	r2, r2, r3
    c968:	e51b300c 	ldr	r3, [fp, #-12]
    c96c:	e0822003 	add	r2, r2, r3
    c970:	e59f3bbc 	ldr	r3, [pc, #3004]	; d534 <md5_process+0x15a4>
    c974:	e0823003 	add	r3, r2, r3
    c978:	e50b300c 	str	r3, [fp, #-12]
    c97c:	e51b300c 	ldr	r3, [fp, #-12]
    c980:	e1a02563 	ror	r2, r3, #10
    c984:	e51b3010 	ldr	r3, [fp, #-16]
    c988:	e0823003 	add	r3, r2, r3
    c98c:	e50b300c 	str	r3, [fp, #-12]
    c990:	e51b200c 	ldr	r2, [fp, #-12]
    c994:	e51b3010 	ldr	r3, [fp, #-16]
    c998:	e0222003 	eor	r2, r2, r3
    c99c:	e51b3014 	ldr	r3, [fp, #-20]
    c9a0:	e0022003 	and	r2, r2, r3
    c9a4:	e51b3010 	ldr	r3, [fp, #-16]
    c9a8:	e0222003 	eor	r2, r2, r3
    c9ac:	e51b3050 	ldr	r3, [fp, #-80]	; 0x50
    c9b0:	e0822003 	add	r2, r2, r3
    c9b4:	e51b3008 	ldr	r3, [fp, #-8]
    c9b8:	e0822003 	add	r2, r2, r3
    c9bc:	e59f3b74 	ldr	r3, [pc, #2932]	; d538 <md5_process+0x15a8>
    c9c0:	e0823003 	add	r3, r2, r3
    c9c4:	e50b3008 	str	r3, [fp, #-8]
    c9c8:	e51b3008 	ldr	r3, [fp, #-8]
    c9cc:	e1a02de3 	ror	r2, r3, #27
    c9d0:	e51b300c 	ldr	r3, [fp, #-12]
    c9d4:	e0823003 	add	r3, r2, r3
    c9d8:	e50b3008 	str	r3, [fp, #-8]
    c9dc:	e51b2008 	ldr	r2, [fp, #-8]
    c9e0:	e51b300c 	ldr	r3, [fp, #-12]
    c9e4:	e0222003 	eor	r2, r2, r3
    c9e8:	e51b3010 	ldr	r3, [fp, #-16]
    c9ec:	e0022003 	and	r2, r2, r3
    c9f0:	e51b300c 	ldr	r3, [fp, #-12]
    c9f4:	e0222003 	eor	r2, r2, r3
    c9f8:	e51b303c 	ldr	r3, [fp, #-60]	; 0x3c
    c9fc:	e0822003 	add	r2, r2, r3
    ca00:	e51b3014 	ldr	r3, [fp, #-20]
    ca04:	e0822003 	add	r2, r2, r3
    ca08:	e59f3b2c 	ldr	r3, [pc, #2860]	; d53c <md5_process+0x15ac>
    ca0c:	e0823003 	add	r3, r2, r3
    ca10:	e50b3014 	str	r3, [fp, #-20]
    ca14:	e51b3014 	ldr	r3, [fp, #-20]
    ca18:	e1a02be3 	ror	r2, r3, #23
    ca1c:	e51b3008 	ldr	r3, [fp, #-8]
    ca20:	e0823003 	add	r3, r2, r3
    ca24:	e50b3014 	str	r3, [fp, #-20]
    ca28:	e51b2014 	ldr	r2, [fp, #-20]
    ca2c:	e51b3008 	ldr	r3, [fp, #-8]
    ca30:	e0222003 	eor	r2, r2, r3
    ca34:	e51b300c 	ldr	r3, [fp, #-12]
    ca38:	e0022003 	and	r2, r2, r3
    ca3c:	e51b3008 	ldr	r3, [fp, #-8]
    ca40:	e0222003 	eor	r2, r2, r3
    ca44:	e51b3028 	ldr	r3, [fp, #-40]	; 0x28
    ca48:	e0822003 	add	r2, r2, r3
    ca4c:	e51b3010 	ldr	r3, [fp, #-16]
    ca50:	e0822003 	add	r2, r2, r3
    ca54:	e59f3ae4 	ldr	r3, [pc, #2788]	; d540 <md5_process+0x15b0>
    ca58:	e0823003 	add	r3, r2, r3
    ca5c:	e50b3010 	str	r3, [fp, #-16]
    ca60:	e51b3010 	ldr	r3, [fp, #-16]
    ca64:	e1a02963 	ror	r2, r3, #18
    ca68:	e51b3014 	ldr	r3, [fp, #-20]
    ca6c:	e0823003 	add	r3, r2, r3
    ca70:	e50b3010 	str	r3, [fp, #-16]
    ca74:	e51b2010 	ldr	r2, [fp, #-16]
    ca78:	e51b3014 	ldr	r3, [fp, #-20]
    ca7c:	e0222003 	eor	r2, r2, r3
    ca80:	e51b3008 	ldr	r3, [fp, #-8]
    ca84:	e0022003 	and	r2, r2, r3
    ca88:	e51b3014 	ldr	r3, [fp, #-20]
    ca8c:	e0222003 	eor	r2, r2, r3
    ca90:	e51b3054 	ldr	r3, [fp, #-84]	; 0x54
    ca94:	e0822003 	add	r2, r2, r3
    ca98:	e51b300c 	ldr	r3, [fp, #-12]
    ca9c:	e0822003 	add	r2, r2, r3
    caa0:	e59f3a9c 	ldr	r3, [pc, #2716]	; d544 <md5_process+0x15b4>
    caa4:	e0823003 	add	r3, r2, r3
    caa8:	e50b300c 	str	r3, [fp, #-12]
    caac:	e51b300c 	ldr	r3, [fp, #-12]
    cab0:	e1a02663 	ror	r2, r3, #12
    cab4:	e51b3010 	ldr	r3, [fp, #-16]
    cab8:	e0823003 	add	r3, r2, r3
    cabc:	e50b300c 	str	r3, [fp, #-12]
    cac0:	e51b200c 	ldr	r2, [fp, #-12]
    cac4:	e51b3010 	ldr	r3, [fp, #-16]
    cac8:	e0222003 	eor	r2, r2, r3
    cacc:	e51b3014 	ldr	r3, [fp, #-20]
    cad0:	e0022003 	and	r2, r2, r3
    cad4:	e51b3010 	ldr	r3, [fp, #-16]
    cad8:	e0222003 	eor	r2, r2, r3
    cadc:	e51b3040 	ldr	r3, [fp, #-64]	; 0x40
    cae0:	e0822003 	add	r2, r2, r3
    cae4:	e51b3008 	ldr	r3, [fp, #-8]
    cae8:	e0822003 	add	r2, r2, r3
    caec:	e59f3a54 	ldr	r3, [pc, #2644]	; d548 <md5_process+0x15b8>
    caf0:	e0823003 	add	r3, r2, r3
    caf4:	e50b3008 	str	r3, [fp, #-8]
    caf8:	e51b3008 	ldr	r3, [fp, #-8]
    cafc:	e1a02de3 	ror	r2, r3, #27
    cb00:	e51b300c 	ldr	r3, [fp, #-12]
    cb04:	e0823003 	add	r3, r2, r3
    cb08:	e50b3008 	str	r3, [fp, #-8]
    cb0c:	e51b2008 	ldr	r2, [fp, #-8]
    cb10:	e51b300c 	ldr	r3, [fp, #-12]
    cb14:	e0222003 	eor	r2, r2, r3
    cb18:	e51b3010 	ldr	r3, [fp, #-16]
    cb1c:	e0022003 	and	r2, r2, r3
    cb20:	e51b300c 	ldr	r3, [fp, #-12]
    cb24:	e0222003 	eor	r2, r2, r3
    cb28:	e51b302c 	ldr	r3, [fp, #-44]	; 0x2c
    cb2c:	e0822003 	add	r2, r2, r3
    cb30:	e51b3014 	ldr	r3, [fp, #-20]
    cb34:	e0822003 	add	r2, r2, r3
    cb38:	e59f3a0c 	ldr	r3, [pc, #2572]	; d54c <md5_process+0x15bc>
    cb3c:	e0823003 	add	r3, r2, r3
    cb40:	e50b3014 	str	r3, [fp, #-20]
    cb44:	e51b3014 	ldr	r3, [fp, #-20]
    cb48:	e1a02be3 	ror	r2, r3, #23
    cb4c:	e51b3008 	ldr	r3, [fp, #-8]
    cb50:	e0823003 	add	r3, r2, r3
    cb54:	e50b3014 	str	r3, [fp, #-20]
    cb58:	e51b2014 	ldr	r2, [fp, #-20]
    cb5c:	e51b3008 	ldr	r3, [fp, #-8]
    cb60:	e0222003 	eor	r2, r2, r3
    cb64:	e51b300c 	ldr	r3, [fp, #-12]
    cb68:	e0022003 	and	r2, r2, r3
    cb6c:	e51b3008 	ldr	r3, [fp, #-8]
    cb70:	e0222003 	eor	r2, r2, r3
    cb74:	e51b3018 	ldr	r3, [fp, #-24]
    cb78:	e0822003 	add	r2, r2, r3
    cb7c:	e51b3010 	ldr	r3, [fp, #-16]
    cb80:	e0822003 	add	r2, r2, r3
    cb84:	e59f39c4 	ldr	r3, [pc, #2500]	; d550 <md5_process+0x15c0>
    cb88:	e0823003 	add	r3, r2, r3
    cb8c:	e50b3010 	str	r3, [fp, #-16]
    cb90:	e51b3010 	ldr	r3, [fp, #-16]
    cb94:	e1a02963 	ror	r2, r3, #18
    cb98:	e51b3014 	ldr	r3, [fp, #-20]
    cb9c:	e0823003 	add	r3, r2, r3
    cba0:	e50b3010 	str	r3, [fp, #-16]
    cba4:	e51b2010 	ldr	r2, [fp, #-16]
    cba8:	e51b3014 	ldr	r3, [fp, #-20]
    cbac:	e0222003 	eor	r2, r2, r3
    cbb0:	e51b3008 	ldr	r3, [fp, #-8]
    cbb4:	e0022003 	and	r2, r2, r3
    cbb8:	e51b3014 	ldr	r3, [fp, #-20]
    cbbc:	e0222003 	eor	r2, r2, r3
    cbc0:	e51b3044 	ldr	r3, [fp, #-68]	; 0x44
    cbc4:	e0822003 	add	r2, r2, r3
    cbc8:	e51b300c 	ldr	r3, [fp, #-12]
    cbcc:	e0822003 	add	r2, r2, r3
    cbd0:	e59f397c 	ldr	r3, [pc, #2428]	; d554 <md5_process+0x15c4>
    cbd4:	e0823003 	add	r3, r2, r3
    cbd8:	e50b300c 	str	r3, [fp, #-12]
    cbdc:	e51b300c 	ldr	r3, [fp, #-12]
    cbe0:	e1a02663 	ror	r2, r3, #12
    cbe4:	e51b3010 	ldr	r3, [fp, #-16]
    cbe8:	e0823003 	add	r3, r2, r3
    cbec:	e50b300c 	str	r3, [fp, #-12]
    cbf0:	e51b200c 	ldr	r2, [fp, #-12]
    cbf4:	e51b3010 	ldr	r3, [fp, #-16]
    cbf8:	e0222003 	eor	r2, r2, r3
    cbfc:	e51b3014 	ldr	r3, [fp, #-20]
    cc00:	e0022003 	and	r2, r2, r3
    cc04:	e51b3010 	ldr	r3, [fp, #-16]
    cc08:	e0222003 	eor	r2, r2, r3
    cc0c:	e51b3030 	ldr	r3, [fp, #-48]	; 0x30
    cc10:	e0822003 	add	r2, r2, r3
    cc14:	e51b3008 	ldr	r3, [fp, #-8]
    cc18:	e0822003 	add	r2, r2, r3
    cc1c:	e59f3934 	ldr	r3, [pc, #2356]	; d558 <md5_process+0x15c8>
    cc20:	e0823003 	add	r3, r2, r3
    cc24:	e50b3008 	str	r3, [fp, #-8]
    cc28:	e51b3008 	ldr	r3, [fp, #-8]
    cc2c:	e1a02de3 	ror	r2, r3, #27
    cc30:	e51b300c 	ldr	r3, [fp, #-12]
    cc34:	e0823003 	add	r3, r2, r3
    cc38:	e50b3008 	str	r3, [fp, #-8]
    cc3c:	e51b2008 	ldr	r2, [fp, #-8]
    cc40:	e51b300c 	ldr	r3, [fp, #-12]
    cc44:	e0222003 	eor	r2, r2, r3
    cc48:	e51b3010 	ldr	r3, [fp, #-16]
    cc4c:	e0022003 	and	r2, r2, r3
    cc50:	e51b300c 	ldr	r3, [fp, #-12]
    cc54:	e0222003 	eor	r2, r2, r3
    cc58:	e51b301c 	ldr	r3, [fp, #-28]
    cc5c:	e0822003 	add	r2, r2, r3
    cc60:	e51b3014 	ldr	r3, [fp, #-20]
    cc64:	e0822003 	add	r2, r2, r3
    cc68:	e59f38ec 	ldr	r3, [pc, #2284]	; d55c <md5_process+0x15cc>
    cc6c:	e0823003 	add	r3, r2, r3
    cc70:	e50b3014 	str	r3, [fp, #-20]
    cc74:	e51b3014 	ldr	r3, [fp, #-20]
    cc78:	e1a02be3 	ror	r2, r3, #23
    cc7c:	e51b3008 	ldr	r3, [fp, #-8]
    cc80:	e0823003 	add	r3, r2, r3
    cc84:	e50b3014 	str	r3, [fp, #-20]
    cc88:	e51b2014 	ldr	r2, [fp, #-20]
    cc8c:	e51b3008 	ldr	r3, [fp, #-8]
    cc90:	e0222003 	eor	r2, r2, r3
    cc94:	e51b300c 	ldr	r3, [fp, #-12]
    cc98:	e0022003 	and	r2, r2, r3
    cc9c:	e51b3008 	ldr	r3, [fp, #-8]
    cca0:	e0222003 	eor	r2, r2, r3
    cca4:	e51b3048 	ldr	r3, [fp, #-72]	; 0x48
    cca8:	e0822003 	add	r2, r2, r3
    ccac:	e51b3010 	ldr	r3, [fp, #-16]
    ccb0:	e0822003 	add	r2, r2, r3
    ccb4:	e59f38a4 	ldr	r3, [pc, #2212]	; d560 <md5_process+0x15d0>
    ccb8:	e0823003 	add	r3, r2, r3
    ccbc:	e50b3010 	str	r3, [fp, #-16]
    ccc0:	e51b3010 	ldr	r3, [fp, #-16]
    ccc4:	e1a02963 	ror	r2, r3, #18
    ccc8:	e51b3014 	ldr	r3, [fp, #-20]
    cccc:	e0823003 	add	r3, r2, r3
    ccd0:	e50b3010 	str	r3, [fp, #-16]
    ccd4:	e51b2010 	ldr	r2, [fp, #-16]
    ccd8:	e51b3014 	ldr	r3, [fp, #-20]
    ccdc:	e0222003 	eor	r2, r2, r3
    cce0:	e51b3008 	ldr	r3, [fp, #-8]
    cce4:	e0022003 	and	r2, r2, r3
    cce8:	e51b3014 	ldr	r3, [fp, #-20]
    ccec:	e0222003 	eor	r2, r2, r3
    ccf0:	e51b3034 	ldr	r3, [fp, #-52]	; 0x34
    ccf4:	e0822003 	add	r2, r2, r3
    ccf8:	e51b300c 	ldr	r3, [fp, #-12]
    ccfc:	e0822003 	add	r2, r2, r3
    cd00:	e59f385c 	ldr	r3, [pc, #2140]	; d564 <md5_process+0x15d4>
    cd04:	e0823003 	add	r3, r2, r3
    cd08:	e50b300c 	str	r3, [fp, #-12]
    cd0c:	e51b300c 	ldr	r3, [fp, #-12]
    cd10:	e1a02663 	ror	r2, r3, #12
    cd14:	e51b3010 	ldr	r3, [fp, #-16]
    cd18:	e0823003 	add	r3, r2, r3
    cd1c:	e50b300c 	str	r3, [fp, #-12]
    cd20:	e51b200c 	ldr	r2, [fp, #-12]
    cd24:	e51b3010 	ldr	r3, [fp, #-16]
    cd28:	e0222003 	eor	r2, r2, r3
    cd2c:	e51b3014 	ldr	r3, [fp, #-20]
    cd30:	e0022003 	and	r2, r2, r3
    cd34:	e51b3010 	ldr	r3, [fp, #-16]
    cd38:	e0222003 	eor	r2, r2, r3
    cd3c:	e51b3020 	ldr	r3, [fp, #-32]
    cd40:	e0822003 	add	r2, r2, r3
    cd44:	e51b3008 	ldr	r3, [fp, #-8]
    cd48:	e0822003 	add	r2, r2, r3
    cd4c:	e59f3814 	ldr	r3, [pc, #2068]	; d568 <md5_process+0x15d8>
    cd50:	e0823003 	add	r3, r2, r3
    cd54:	e50b3008 	str	r3, [fp, #-8]
    cd58:	e51b3008 	ldr	r3, [fp, #-8]
    cd5c:	e1a02de3 	ror	r2, r3, #27
    cd60:	e51b300c 	ldr	r3, [fp, #-12]
    cd64:	e0823003 	add	r3, r2, r3
    cd68:	e50b3008 	str	r3, [fp, #-8]
    cd6c:	e51b2008 	ldr	r2, [fp, #-8]
    cd70:	e51b300c 	ldr	r3, [fp, #-12]
    cd74:	e0222003 	eor	r2, r2, r3
    cd78:	e51b3010 	ldr	r3, [fp, #-16]
    cd7c:	e0022003 	and	r2, r2, r3
    cd80:	e51b300c 	ldr	r3, [fp, #-12]
    cd84:	e0222003 	eor	r2, r2, r3
    cd88:	e51b304c 	ldr	r3, [fp, #-76]	; 0x4c
    cd8c:	e0822003 	add	r2, r2, r3
    cd90:	e51b3014 	ldr	r3, [fp, #-20]
    cd94:	e0822003 	add	r2, r2, r3
    cd98:	e59f37cc 	ldr	r3, [pc, #1996]	; d56c <md5_process+0x15dc>
    cd9c:	e0823003 	add	r3, r2, r3
    cda0:	e50b3014 	str	r3, [fp, #-20]
    cda4:	e51b3014 	ldr	r3, [fp, #-20]
    cda8:	e1a02be3 	ror	r2, r3, #23
    cdac:	e51b3008 	ldr	r3, [fp, #-8]
    cdb0:	e0823003 	add	r3, r2, r3
    cdb4:	e50b3014 	str	r3, [fp, #-20]
    cdb8:	e51b2014 	ldr	r2, [fp, #-20]
    cdbc:	e51b3008 	ldr	r3, [fp, #-8]
    cdc0:	e0222003 	eor	r2, r2, r3
    cdc4:	e51b300c 	ldr	r3, [fp, #-12]
    cdc8:	e0022003 	and	r2, r2, r3
    cdcc:	e51b3008 	ldr	r3, [fp, #-8]
    cdd0:	e0222003 	eor	r2, r2, r3
    cdd4:	e51b3038 	ldr	r3, [fp, #-56]	; 0x38
    cdd8:	e0822003 	add	r2, r2, r3
    cddc:	e51b3010 	ldr	r3, [fp, #-16]
    cde0:	e0822003 	add	r2, r2, r3
    cde4:	e59f3784 	ldr	r3, [pc, #1924]	; d570 <md5_process+0x15e0>
    cde8:	e0823003 	add	r3, r2, r3
    cdec:	e50b3010 	str	r3, [fp, #-16]
    cdf0:	e51b3010 	ldr	r3, [fp, #-16]
    cdf4:	e1a02963 	ror	r2, r3, #18
    cdf8:	e51b3014 	ldr	r3, [fp, #-20]
    cdfc:	e0823003 	add	r3, r2, r3
    ce00:	e50b3010 	str	r3, [fp, #-16]
    ce04:	e51b2010 	ldr	r2, [fp, #-16]
    ce08:	e51b3014 	ldr	r3, [fp, #-20]
    ce0c:	e0222003 	eor	r2, r2, r3
    ce10:	e51b3008 	ldr	r3, [fp, #-8]
    ce14:	e0022003 	and	r2, r2, r3
    ce18:	e51b3014 	ldr	r3, [fp, #-20]
    ce1c:	e0222003 	eor	r2, r2, r3
    ce20:	e51b3024 	ldr	r3, [fp, #-36]	; 0x24
    ce24:	e0822003 	add	r2, r2, r3
    ce28:	e51b300c 	ldr	r3, [fp, #-12]
    ce2c:	e0822003 	add	r2, r2, r3
    ce30:	e59f373c 	ldr	r3, [pc, #1852]	; d574 <md5_process+0x15e4>
    ce34:	e0823003 	add	r3, r2, r3
    ce38:	e50b300c 	str	r3, [fp, #-12]
    ce3c:	e51b300c 	ldr	r3, [fp, #-12]
    ce40:	e1a02663 	ror	r2, r3, #12
    ce44:	e51b3010 	ldr	r3, [fp, #-16]
    ce48:	e0823003 	add	r3, r2, r3
    ce4c:	e50b300c 	str	r3, [fp, #-12]
    ce50:	e51b200c 	ldr	r2, [fp, #-12]
    ce54:	e51b3010 	ldr	r3, [fp, #-16]
    ce58:	e0222003 	eor	r2, r2, r3
    ce5c:	e51b3014 	ldr	r3, [fp, #-20]
    ce60:	e0222003 	eor	r2, r2, r3
    ce64:	e51b3040 	ldr	r3, [fp, #-64]	; 0x40
    ce68:	e0822003 	add	r2, r2, r3
    ce6c:	e51b3008 	ldr	r3, [fp, #-8]
    ce70:	e0822003 	add	r2, r2, r3
    ce74:	e59f36fc 	ldr	r3, [pc, #1788]	; d578 <md5_process+0x15e8>
    ce78:	e0823003 	add	r3, r2, r3
    ce7c:	e50b3008 	str	r3, [fp, #-8]
    ce80:	e51b3008 	ldr	r3, [fp, #-8]
    ce84:	e1a02e63 	ror	r2, r3, #28
    ce88:	e51b300c 	ldr	r3, [fp, #-12]
    ce8c:	e0823003 	add	r3, r2, r3
    ce90:	e50b3008 	str	r3, [fp, #-8]
    ce94:	e51b2008 	ldr	r2, [fp, #-8]
    ce98:	e51b300c 	ldr	r3, [fp, #-12]
    ce9c:	e0222003 	eor	r2, r2, r3
    cea0:	e51b3010 	ldr	r3, [fp, #-16]
    cea4:	e0222003 	eor	r2, r2, r3
    cea8:	e51b3034 	ldr	r3, [fp, #-52]	; 0x34
    ceac:	e0822003 	add	r2, r2, r3
    ceb0:	e51b3014 	ldr	r3, [fp, #-20]
    ceb4:	e0822003 	add	r2, r2, r3
    ceb8:	e59f36bc 	ldr	r3, [pc, #1724]	; d57c <md5_process+0x15ec>
    cebc:	e0823003 	add	r3, r2, r3
    cec0:	e50b3014 	str	r3, [fp, #-20]
    cec4:	e51b3014 	ldr	r3, [fp, #-20]
    cec8:	e1a02ae3 	ror	r2, r3, #21
    cecc:	e51b3008 	ldr	r3, [fp, #-8]
    ced0:	e0823003 	add	r3, r2, r3
    ced4:	e50b3014 	str	r3, [fp, #-20]
    ced8:	e51b2014 	ldr	r2, [fp, #-20]
    cedc:	e51b3008 	ldr	r3, [fp, #-8]
    cee0:	e0222003 	eor	r2, r2, r3
    cee4:	e51b300c 	ldr	r3, [fp, #-12]
    cee8:	e0222003 	eor	r2, r2, r3
    ceec:	e51b3028 	ldr	r3, [fp, #-40]	; 0x28
    cef0:	e0822003 	add	r2, r2, r3
    cef4:	e51b3010 	ldr	r3, [fp, #-16]
    cef8:	e0822003 	add	r2, r2, r3
    cefc:	e59f367c 	ldr	r3, [pc, #1660]	; d580 <md5_process+0x15f0>
    cf00:	e0823003 	add	r3, r2, r3
    cf04:	e50b3010 	str	r3, [fp, #-16]
    cf08:	e51b3010 	ldr	r3, [fp, #-16]
    cf0c:	e1a02863 	ror	r2, r3, #16
    cf10:	e51b3014 	ldr	r3, [fp, #-20]
    cf14:	e0823003 	add	r3, r2, r3
    cf18:	e50b3010 	str	r3, [fp, #-16]
    cf1c:	e51b2010 	ldr	r2, [fp, #-16]
    cf20:	e51b3014 	ldr	r3, [fp, #-20]
    cf24:	e0222003 	eor	r2, r2, r3
    cf28:	e51b3008 	ldr	r3, [fp, #-8]
    cf2c:	e0222003 	eor	r2, r2, r3
    cf30:	e51b301c 	ldr	r3, [fp, #-28]
    cf34:	e0822003 	add	r2, r2, r3
    cf38:	e51b300c 	ldr	r3, [fp, #-12]
    cf3c:	e0822003 	add	r2, r2, r3
    cf40:	e59f363c 	ldr	r3, [pc, #1596]	; d584 <md5_process+0x15f4>
    cf44:	e0823003 	add	r3, r2, r3
    cf48:	e50b300c 	str	r3, [fp, #-12]
    cf4c:	e51b300c 	ldr	r3, [fp, #-12]
    cf50:	e1a024e3 	ror	r2, r3, #9
    cf54:	e51b3010 	ldr	r3, [fp, #-16]
    cf58:	e0823003 	add	r3, r2, r3
    cf5c:	e50b300c 	str	r3, [fp, #-12]
    cf60:	e51b200c 	ldr	r2, [fp, #-12]
    cf64:	e51b3010 	ldr	r3, [fp, #-16]
    cf68:	e0222003 	eor	r2, r2, r3
    cf6c:	e51b3014 	ldr	r3, [fp, #-20]
    cf70:	e0222003 	eor	r2, r2, r3
    cf74:	e51b3050 	ldr	r3, [fp, #-80]	; 0x50
    cf78:	e0822003 	add	r2, r2, r3
    cf7c:	e51b3008 	ldr	r3, [fp, #-8]
    cf80:	e0822003 	add	r2, r2, r3
    cf84:	e59f35fc 	ldr	r3, [pc, #1532]	; d588 <md5_process+0x15f8>
    cf88:	e0823003 	add	r3, r2, r3
    cf8c:	e50b3008 	str	r3, [fp, #-8]
    cf90:	e51b3008 	ldr	r3, [fp, #-8]
    cf94:	e1a02e63 	ror	r2, r3, #28
    cf98:	e51b300c 	ldr	r3, [fp, #-12]
    cf9c:	e0823003 	add	r3, r2, r3
    cfa0:	e50b3008 	str	r3, [fp, #-8]
    cfa4:	e51b2008 	ldr	r2, [fp, #-8]
    cfa8:	e51b300c 	ldr	r3, [fp, #-12]
    cfac:	e0222003 	eor	r2, r2, r3
    cfb0:	e51b3010 	ldr	r3, [fp, #-16]
    cfb4:	e0222003 	eor	r2, r2, r3
    cfb8:	e51b3044 	ldr	r3, [fp, #-68]	; 0x44
    cfbc:	e0822003 	add	r2, r2, r3
    cfc0:	e51b3014 	ldr	r3, [fp, #-20]
    cfc4:	e0822003 	add	r2, r2, r3
    cfc8:	e59f35bc 	ldr	r3, [pc, #1468]	; d58c <md5_process+0x15fc>
    cfcc:	e0823003 	add	r3, r2, r3
    cfd0:	e50b3014 	str	r3, [fp, #-20]
    cfd4:	e51b3014 	ldr	r3, [fp, #-20]
    cfd8:	e1a02ae3 	ror	r2, r3, #21
    cfdc:	e51b3008 	ldr	r3, [fp, #-8]
    cfe0:	e0823003 	add	r3, r2, r3
    cfe4:	e50b3014 	str	r3, [fp, #-20]
    cfe8:	e51b2014 	ldr	r2, [fp, #-20]
    cfec:	e51b3008 	ldr	r3, [fp, #-8]
    cff0:	e0222003 	eor	r2, r2, r3
    cff4:	e51b300c 	ldr	r3, [fp, #-12]
    cff8:	e0222003 	eor	r2, r2, r3
    cffc:	e51b3038 	ldr	r3, [fp, #-56]	; 0x38
    d000:	e0822003 	add	r2, r2, r3
    d004:	e51b3010 	ldr	r3, [fp, #-16]
    d008:	e0822003 	add	r2, r2, r3
    d00c:	e59f357c 	ldr	r3, [pc, #1404]	; d590 <md5_process+0x1600>
    d010:	e0823003 	add	r3, r2, r3
    d014:	e50b3010 	str	r3, [fp, #-16]
    d018:	e51b3010 	ldr	r3, [fp, #-16]
    d01c:	e1a02863 	ror	r2, r3, #16
    d020:	e51b3014 	ldr	r3, [fp, #-20]
    d024:	e0823003 	add	r3, r2, r3
    d028:	e50b3010 	str	r3, [fp, #-16]
    d02c:	e51b2010 	ldr	r2, [fp, #-16]
    d030:	e51b3014 	ldr	r3, [fp, #-20]
    d034:	e0222003 	eor	r2, r2, r3
    d038:	e51b3008 	ldr	r3, [fp, #-8]
    d03c:	e0222003 	eor	r2, r2, r3
    d040:	e51b302c 	ldr	r3, [fp, #-44]	; 0x2c
    d044:	e0822003 	add	r2, r2, r3
    d048:	e51b300c 	ldr	r3, [fp, #-12]
    d04c:	e0822003 	add	r2, r2, r3
    d050:	e59f353c 	ldr	r3, [pc, #1340]	; d594 <md5_process+0x1604>
    d054:	e0823003 	add	r3, r2, r3
    d058:	e50b300c 	str	r3, [fp, #-12]
    d05c:	e51b300c 	ldr	r3, [fp, #-12]
    d060:	e1a024e3 	ror	r2, r3, #9
    d064:	e51b3010 	ldr	r3, [fp, #-16]
    d068:	e0823003 	add	r3, r2, r3
    d06c:	e50b300c 	str	r3, [fp, #-12]
    d070:	e51b200c 	ldr	r2, [fp, #-12]
    d074:	e51b3010 	ldr	r3, [fp, #-16]
    d078:	e0222003 	eor	r2, r2, r3
    d07c:	e51b3014 	ldr	r3, [fp, #-20]
    d080:	e0222003 	eor	r2, r2, r3
    d084:	e51b3020 	ldr	r3, [fp, #-32]
    d088:	e0822003 	add	r2, r2, r3
    d08c:	e51b3008 	ldr	r3, [fp, #-8]
    d090:	e0822003 	add	r2, r2, r3
    d094:	e59f34fc 	ldr	r3, [pc, #1276]	; d598 <md5_process+0x1608>
    d098:	e0823003 	add	r3, r2, r3
    d09c:	e50b3008 	str	r3, [fp, #-8]
    d0a0:	e51b3008 	ldr	r3, [fp, #-8]
    d0a4:	e1a02e63 	ror	r2, r3, #28
    d0a8:	e51b300c 	ldr	r3, [fp, #-12]
    d0ac:	e0823003 	add	r3, r2, r3
    d0b0:	e50b3008 	str	r3, [fp, #-8]
    d0b4:	e51b2008 	ldr	r2, [fp, #-8]
    d0b8:	e51b300c 	ldr	r3, [fp, #-12]
    d0bc:	e0222003 	eor	r2, r2, r3
    d0c0:	e51b3010 	ldr	r3, [fp, #-16]
    d0c4:	e0222003 	eor	r2, r2, r3
    d0c8:	e51b3054 	ldr	r3, [fp, #-84]	; 0x54
    d0cc:	e0822003 	add	r2, r2, r3
    d0d0:	e51b3014 	ldr	r3, [fp, #-20]
    d0d4:	e0822003 	add	r2, r2, r3
    d0d8:	e59f34bc 	ldr	r3, [pc, #1212]	; d59c <md5_process+0x160c>
    d0dc:	e0823003 	add	r3, r2, r3
    d0e0:	e50b3014 	str	r3, [fp, #-20]
    d0e4:	e51b3014 	ldr	r3, [fp, #-20]
    d0e8:	e1a02ae3 	ror	r2, r3, #21
    d0ec:	e51b3008 	ldr	r3, [fp, #-8]
    d0f0:	e0823003 	add	r3, r2, r3
    d0f4:	e50b3014 	str	r3, [fp, #-20]
    d0f8:	e51b2014 	ldr	r2, [fp, #-20]
    d0fc:	e51b3008 	ldr	r3, [fp, #-8]
    d100:	e0222003 	eor	r2, r2, r3
    d104:	e51b300c 	ldr	r3, [fp, #-12]
    d108:	e0222003 	eor	r2, r2, r3
    d10c:	e51b3048 	ldr	r3, [fp, #-72]	; 0x48
    d110:	e0822003 	add	r2, r2, r3
    d114:	e51b3010 	ldr	r3, [fp, #-16]
    d118:	e0822003 	add	r2, r2, r3
    d11c:	e59f347c 	ldr	r3, [pc, #1148]	; d5a0 <md5_process+0x1610>
    d120:	e0823003 	add	r3, r2, r3
    d124:	e50b3010 	str	r3, [fp, #-16]
    d128:	e51b3010 	ldr	r3, [fp, #-16]
    d12c:	e1a02863 	ror	r2, r3, #16
    d130:	e51b3014 	ldr	r3, [fp, #-20]
    d134:	e0823003 	add	r3, r2, r3
    d138:	e50b3010 	str	r3, [fp, #-16]
    d13c:	e51b2010 	ldr	r2, [fp, #-16]
    d140:	e51b3014 	ldr	r3, [fp, #-20]
    d144:	e0222003 	eor	r2, r2, r3
    d148:	e51b3008 	ldr	r3, [fp, #-8]
    d14c:	e0222003 	eor	r2, r2, r3
    d150:	e51b303c 	ldr	r3, [fp, #-60]	; 0x3c
    d154:	e0822003 	add	r2, r2, r3
    d158:	e51b300c 	ldr	r3, [fp, #-12]
    d15c:	e0822003 	add	r2, r2, r3
    d160:	e59f343c 	ldr	r3, [pc, #1084]	; d5a4 <md5_process+0x1614>
    d164:	e0823003 	add	r3, r2, r3
    d168:	e50b300c 	str	r3, [fp, #-12]
    d16c:	e51b300c 	ldr	r3, [fp, #-12]
    d170:	e1a024e3 	ror	r2, r3, #9
    d174:	e51b3010 	ldr	r3, [fp, #-16]
    d178:	e0823003 	add	r3, r2, r3
    d17c:	e50b300c 	str	r3, [fp, #-12]
    d180:	e51b200c 	ldr	r2, [fp, #-12]
    d184:	e51b3010 	ldr	r3, [fp, #-16]
    d188:	e0222003 	eor	r2, r2, r3
    d18c:	e51b3014 	ldr	r3, [fp, #-20]
    d190:	e0222003 	eor	r2, r2, r3
    d194:	e51b3030 	ldr	r3, [fp, #-48]	; 0x30
    d198:	e0822003 	add	r2, r2, r3
    d19c:	e51b3008 	ldr	r3, [fp, #-8]
    d1a0:	e0822003 	add	r2, r2, r3
    d1a4:	e59f33fc 	ldr	r3, [pc, #1020]	; d5a8 <md5_process+0x1618>
    d1a8:	e0823003 	add	r3, r2, r3
    d1ac:	e50b3008 	str	r3, [fp, #-8]
    d1b0:	e51b3008 	ldr	r3, [fp, #-8]
    d1b4:	e1a02e63 	ror	r2, r3, #28
    d1b8:	e51b300c 	ldr	r3, [fp, #-12]
    d1bc:	e0823003 	add	r3, r2, r3
    d1c0:	e50b3008 	str	r3, [fp, #-8]
    d1c4:	e51b2008 	ldr	r2, [fp, #-8]
    d1c8:	e51b300c 	ldr	r3, [fp, #-12]
    d1cc:	e0222003 	eor	r2, r2, r3
    d1d0:	e51b3010 	ldr	r3, [fp, #-16]
    d1d4:	e0222003 	eor	r2, r2, r3
    d1d8:	e51b3024 	ldr	r3, [fp, #-36]	; 0x24
    d1dc:	e0822003 	add	r2, r2, r3
    d1e0:	e51b3014 	ldr	r3, [fp, #-20]
    d1e4:	e0822003 	add	r2, r2, r3
    d1e8:	e59f33bc 	ldr	r3, [pc, #956]	; d5ac <md5_process+0x161c>
    d1ec:	e0823003 	add	r3, r2, r3
    d1f0:	e50b3014 	str	r3, [fp, #-20]
    d1f4:	e51b3014 	ldr	r3, [fp, #-20]
    d1f8:	e1a02ae3 	ror	r2, r3, #21
    d1fc:	e51b3008 	ldr	r3, [fp, #-8]
    d200:	e0823003 	add	r3, r2, r3
    d204:	e50b3014 	str	r3, [fp, #-20]
    d208:	e51b2014 	ldr	r2, [fp, #-20]
    d20c:	e51b3008 	ldr	r3, [fp, #-8]
    d210:	e0222003 	eor	r2, r2, r3
    d214:	e51b300c 	ldr	r3, [fp, #-12]
    d218:	e0222003 	eor	r2, r2, r3
    d21c:	e51b3018 	ldr	r3, [fp, #-24]
    d220:	e0822003 	add	r2, r2, r3
    d224:	e51b3010 	ldr	r3, [fp, #-16]
    d228:	e0822003 	add	r2, r2, r3
    d22c:	e59f337c 	ldr	r3, [pc, #892]	; d5b0 <md5_process+0x1620>
    d230:	e0823003 	add	r3, r2, r3
    d234:	e50b3010 	str	r3, [fp, #-16]
    d238:	e51b3010 	ldr	r3, [fp, #-16]
    d23c:	e1a02863 	ror	r2, r3, #16
    d240:	e51b3014 	ldr	r3, [fp, #-20]
    d244:	e0823003 	add	r3, r2, r3
    d248:	e50b3010 	str	r3, [fp, #-16]
    d24c:	e51b2010 	ldr	r2, [fp, #-16]
    d250:	e51b3014 	ldr	r3, [fp, #-20]
    d254:	e0222003 	eor	r2, r2, r3
    d258:	e51b3008 	ldr	r3, [fp, #-8]
    d25c:	e0222003 	eor	r2, r2, r3
    d260:	e51b304c 	ldr	r3, [fp, #-76]	; 0x4c
    d264:	e0822003 	add	r2, r2, r3
    d268:	e51b300c 	ldr	r3, [fp, #-12]
    d26c:	e0822003 	add	r2, r2, r3
    d270:	e59f333c 	ldr	r3, [pc, #828]	; d5b4 <md5_process+0x1624>
    d274:	e0823003 	add	r3, r2, r3
    d278:	e50b300c 	str	r3, [fp, #-12]
    d27c:	e51b300c 	ldr	r3, [fp, #-12]
    d280:	e1a024e3 	ror	r2, r3, #9
    d284:	e51b3010 	ldr	r3, [fp, #-16]
    d288:	e0823003 	add	r3, r2, r3
    d28c:	e50b300c 	str	r3, [fp, #-12]
    d290:	e51b3014 	ldr	r3, [fp, #-20]
    d294:	e1e02003 	mvn	r2, r3
    d298:	e51b300c 	ldr	r3, [fp, #-12]
    d29c:	e1822003 	orr	r2, r2, r3
    d2a0:	e51b3010 	ldr	r3, [fp, #-16]
    d2a4:	e0222003 	eor	r2, r2, r3
    d2a8:	e51b3054 	ldr	r3, [fp, #-84]	; 0x54
    d2ac:	e0822003 	add	r2, r2, r3
    d2b0:	e51b3008 	ldr	r3, [fp, #-8]
    d2b4:	e0822003 	add	r2, r2, r3
    d2b8:	e59f32f8 	ldr	r3, [pc, #760]	; d5b8 <md5_process+0x1628>
    d2bc:	e0823003 	add	r3, r2, r3
    d2c0:	e50b3008 	str	r3, [fp, #-8]
    d2c4:	e51b3008 	ldr	r3, [fp, #-8]
    d2c8:	e1a02d63 	ror	r2, r3, #26
    d2cc:	e51b300c 	ldr	r3, [fp, #-12]
    d2d0:	e0823003 	add	r3, r2, r3
    d2d4:	e50b3008 	str	r3, [fp, #-8]
    d2d8:	e51b3010 	ldr	r3, [fp, #-16]
    d2dc:	e1e02003 	mvn	r2, r3
    d2e0:	e51b3008 	ldr	r3, [fp, #-8]
    d2e4:	e1822003 	orr	r2, r2, r3
    d2e8:	e51b300c 	ldr	r3, [fp, #-12]
    d2ec:	e0222003 	eor	r2, r2, r3
    d2f0:	e51b3038 	ldr	r3, [fp, #-56]	; 0x38
    d2f4:	e0822003 	add	r2, r2, r3
    d2f8:	e51b3014 	ldr	r3, [fp, #-20]
    d2fc:	e0822003 	add	r2, r2, r3
    d300:	e59f32b4 	ldr	r3, [pc, #692]	; d5bc <md5_process+0x162c>
    d304:	e0823003 	add	r3, r2, r3
    d308:	e50b3014 	str	r3, [fp, #-20]
    d30c:	e51b3014 	ldr	r3, [fp, #-20]
    d310:	e1a02b63 	ror	r2, r3, #22
    d314:	e51b3008 	ldr	r3, [fp, #-8]
    d318:	e0823003 	add	r3, r2, r3
    d31c:	e50b3014 	str	r3, [fp, #-20]
    d320:	e51b300c 	ldr	r3, [fp, #-12]
    d324:	e1e02003 	mvn	r2, r3
    d328:	e51b3014 	ldr	r3, [fp, #-20]
    d32c:	e1822003 	orr	r2, r2, r3
    d330:	e51b3008 	ldr	r3, [fp, #-8]
    d334:	e0222003 	eor	r2, r2, r3
    d338:	e51b301c 	ldr	r3, [fp, #-28]
    d33c:	e0822003 	add	r2, r2, r3
    d340:	e51b3010 	ldr	r3, [fp, #-16]
    d344:	e0822003 	add	r2, r2, r3
    d348:	e59f3270 	ldr	r3, [pc, #624]	; d5c0 <md5_process+0x1630>
    d34c:	e0823003 	add	r3, r2, r3
    d350:	e50b3010 	str	r3, [fp, #-16]
    d354:	e51b3010 	ldr	r3, [fp, #-16]
    d358:	e1a028e3 	ror	r2, r3, #17
    d35c:	e51b3014 	ldr	r3, [fp, #-20]
    d360:	e0823003 	add	r3, r2, r3
    d364:	e50b3010 	str	r3, [fp, #-16]
    d368:	e51b3008 	ldr	r3, [fp, #-8]
    d36c:	e1e02003 	mvn	r2, r3
    d370:	e51b3010 	ldr	r3, [fp, #-16]
    d374:	e1822003 	orr	r2, r2, r3
    d378:	e51b3014 	ldr	r3, [fp, #-20]
    d37c:	e0222003 	eor	r2, r2, r3
    d380:	e51b3040 	ldr	r3, [fp, #-64]	; 0x40
    d384:	e0822003 	add	r2, r2, r3
    d388:	e51b300c 	ldr	r3, [fp, #-12]
    d38c:	e0822003 	add	r2, r2, r3
    d390:	e59f322c 	ldr	r3, [pc, #556]	; d5c4 <md5_process+0x1634>
    d394:	e0823003 	add	r3, r2, r3
    d398:	e50b300c 	str	r3, [fp, #-12]
    d39c:	e51b300c 	ldr	r3, [fp, #-12]
    d3a0:	e1a025e3 	ror	r2, r3, #11
    d3a4:	e51b3010 	ldr	r3, [fp, #-16]
    d3a8:	e0823003 	add	r3, r2, r3
    d3ac:	e50b300c 	str	r3, [fp, #-12]
    d3b0:	e51b3014 	ldr	r3, [fp, #-20]
    d3b4:	e1e02003 	mvn	r2, r3
    d3b8:	e51b300c 	ldr	r3, [fp, #-12]
    d3bc:	e1822003 	orr	r2, r2, r3
    d3c0:	e51b3010 	ldr	r3, [fp, #-16]
    d3c4:	e0222003 	eor	r2, r2, r3
    d3c8:	e51b3024 	ldr	r3, [fp, #-36]	; 0x24
    d3cc:	e0822003 	add	r2, r2, r3
    d3d0:	e51b3008 	ldr	r3, [fp, #-8]
    d3d4:	e0822003 	add	r2, r2, r3
    d3d8:	e59f31e8 	ldr	r3, [pc, #488]	; d5c8 <md5_process+0x1638>
    d3dc:	e0823003 	add	r3, r2, r3
    d3e0:	e50b3008 	str	r3, [fp, #-8]
    d3e4:	e51b3008 	ldr	r3, [fp, #-8]
    d3e8:	e1a02d63 	ror	r2, r3, #26
    d3ec:	e51b300c 	ldr	r3, [fp, #-12]
    d3f0:	e0823003 	add	r3, r2, r3
    d3f4:	e50b3008 	str	r3, [fp, #-8]
    d3f8:	e51b3010 	ldr	r3, [fp, #-16]
    d3fc:	e1e02003 	mvn	r2, r3
    d400:	e51b3008 	ldr	r3, [fp, #-8]
    d404:	e1822003 	orr	r2, r2, r3
    d408:	e51b300c 	ldr	r3, [fp, #-12]
    d40c:	e0222003 	eor	r2, r2, r3
    d410:	e51b3048 	ldr	r3, [fp, #-72]	; 0x48
    d414:	e0822003 	add	r2, r2, r3
    d418:	e51b3014 	ldr	r3, [fp, #-20]
    d41c:	e0822003 	add	r2, r2, r3
    d420:	e59f31a4 	ldr	r3, [pc, #420]	; d5cc <md5_process+0x163c>
    d424:	e0823003 	add	r3, r2, r3
    d428:	e50b3014 	str	r3, [fp, #-20]
    d42c:	e51b3014 	ldr	r3, [fp, #-20]
    d430:	e1a02b63 	ror	r2, r3, #22
    d434:	e51b3008 	ldr	r3, [fp, #-8]
    d438:	e0823003 	add	r3, r2, r3
    d43c:	e50b3014 	str	r3, [fp, #-20]
    d440:	e51b300c 	ldr	r3, [fp, #-12]
    d444:	e1e02003 	mvn	r2, r3
    d448:	e51b3014 	ldr	r3, [fp, #-20]
    d44c:	e1822003 	orr	r2, r2, r3
    d450:	e51b3008 	ldr	r3, [fp, #-8]
    d454:	e0222003 	eor	r2, r2, r3
    d458:	e51b302c 	ldr	r3, [fp, #-44]	; 0x2c
    d45c:	e0822003 	add	r2, r2, r3
    d460:	e51b3010 	ldr	r3, [fp, #-16]
    d464:	e0822003 	add	r2, r2, r3
    d468:	e59f3160 	ldr	r3, [pc, #352]	; d5d0 <md5_process+0x1640>
    d46c:	e0823003 	add	r3, r2, r3
    d470:	e50b3010 	str	r3, [fp, #-16]
    d474:	e51b3010 	ldr	r3, [fp, #-16]
    d478:	e1a028e3 	ror	r2, r3, #17
    d47c:	e51b3014 	ldr	r3, [fp, #-20]
    d480:	e0823003 	add	r3, r2, r3
    d484:	e50b3010 	str	r3, [fp, #-16]
    d488:	e51b3008 	ldr	r3, [fp, #-8]
    d48c:	e1e02003 	mvn	r2, r3
    d490:	e51b3010 	ldr	r3, [fp, #-16]
    d494:	e1822003 	orr	r2, r2, r3
    d498:	e51b3014 	ldr	r3, [fp, #-20]
    d49c:	e0222003 	eor	r2, r2, r3
    d4a0:	e51b3050 	ldr	r3, [fp, #-80]	; 0x50
    d4a4:	e0822003 	add	r2, r2, r3
    d4a8:	e51b300c 	ldr	r3, [fp, #-12]
    d4ac:	e0822003 	add	r2, r2, r3
    d4b0:	e59f311c 	ldr	r3, [pc, #284]	; d5d4 <md5_process+0x1644>
    d4b4:	e0823003 	add	r3, r2, r3
    d4b8:	e50b300c 	str	r3, [fp, #-12]
    d4bc:	e51b300c 	ldr	r3, [fp, #-12]
    d4c0:	e1a025e3 	ror	r2, r3, #11
    d4c4:	e51b3010 	ldr	r3, [fp, #-16]
    d4c8:	e0823003 	add	r3, r2, r3
    d4cc:	e50b300c 	str	r3, [fp, #-12]
    d4d0:	e51b3014 	ldr	r3, [fp, #-20]
    d4d4:	e1e02003 	mvn	r2, r3
    d4d8:	e51b300c 	ldr	r3, [fp, #-12]
    d4dc:	e1822003 	orr	r2, r2, r3
    d4e0:	e51b3010 	ldr	r3, [fp, #-16]
    d4e4:	e0222003 	eor	r2, r2, r3
    d4e8:	e51b3034 	ldr	r3, [fp, #-52]	; 0x34
    d4ec:	e0822003 	add	r2, r2, r3
    d4f0:	e51b3008 	ldr	r3, [fp, #-8]
    d4f4:	e0822003 	add	r2, r2, r3
    d4f8:	ea00003e 	b	d5f8 <md5_process+0x1668>
    d4fc:	d76aa478 	.word	0xd76aa478
    d500:	e8c7b756 	.word	0xe8c7b756
    d504:	242070db 	.word	0x242070db
    d508:	c1bdceee 	.word	0xc1bdceee
    d50c:	f57c0faf 	.word	0xf57c0faf
    d510:	4787c62a 	.word	0x4787c62a
    d514:	a8304613 	.word	0xa8304613
    d518:	fd469501 	.word	0xfd469501
    d51c:	698098d8 	.word	0x698098d8
    d520:	8b44f7af 	.word	0x8b44f7af
    d524:	895cd7be 	.word	0x895cd7be
    d528:	6b901122 	.word	0x6b901122
    d52c:	fd987193 	.word	0xfd987193
    d530:	a679438e 	.word	0xa679438e
    d534:	49b40821 	.word	0x49b40821
    d538:	f61e2562 	.word	0xf61e2562
    d53c:	c040b340 	.word	0xc040b340
    d540:	265e5a51 	.word	0x265e5a51
    d544:	e9b6c7aa 	.word	0xe9b6c7aa
    d548:	d62f105d 	.word	0xd62f105d
    d54c:	02441453 	.word	0x02441453
    d550:	d8a1e681 	.word	0xd8a1e681
    d554:	e7d3fbc8 	.word	0xe7d3fbc8
    d558:	21e1cde6 	.word	0x21e1cde6
    d55c:	c33707d6 	.word	0xc33707d6
    d560:	f4d50d87 	.word	0xf4d50d87
    d564:	455a14ed 	.word	0x455a14ed
    d568:	a9e3e905 	.word	0xa9e3e905
    d56c:	fcefa3f8 	.word	0xfcefa3f8
    d570:	676f02d9 	.word	0x676f02d9
    d574:	8d2a4c8a 	.word	0x8d2a4c8a
    d578:	fffa3942 	.word	0xfffa3942
    d57c:	8771f681 	.word	0x8771f681
    d580:	6d9d6122 	.word	0x6d9d6122
    d584:	fde5380c 	.word	0xfde5380c
    d588:	a4beea44 	.word	0xa4beea44
    d58c:	4bdecfa9 	.word	0x4bdecfa9
    d590:	f6bb4b60 	.word	0xf6bb4b60
    d594:	bebfbc70 	.word	0xbebfbc70
    d598:	289b7ec6 	.word	0x289b7ec6
    d59c:	eaa127fa 	.word	0xeaa127fa
    d5a0:	d4ef3085 	.word	0xd4ef3085
    d5a4:	04881d05 	.word	0x04881d05
    d5a8:	d9d4d039 	.word	0xd9d4d039
    d5ac:	e6db99e5 	.word	0xe6db99e5
    d5b0:	1fa27cf8 	.word	0x1fa27cf8
    d5b4:	c4ac5665 	.word	0xc4ac5665
    d5b8:	f4292244 	.word	0xf4292244
    d5bc:	432aff97 	.word	0x432aff97
    d5c0:	ab9423a7 	.word	0xab9423a7
    d5c4:	fc93a039 	.word	0xfc93a039
    d5c8:	655b59c3 	.word	0x655b59c3
    d5cc:	8f0ccc92 	.word	0x8f0ccc92
    d5d0:	ffeff47d 	.word	0xffeff47d
    d5d4:	85845dd1 	.word	0x85845dd1
    d5d8:	6fa87e4f 	.word	0x6fa87e4f
    d5dc:	fe2ce6e0 	.word	0xfe2ce6e0
    d5e0:	a3014314 	.word	0xa3014314
    d5e4:	4e0811a1 	.word	0x4e0811a1
    d5e8:	f7537e82 	.word	0xf7537e82
    d5ec:	bd3af235 	.word	0xbd3af235
    d5f0:	2ad7d2bb 	.word	0x2ad7d2bb
    d5f4:	eb86d391 	.word	0xeb86d391
    d5f8:	e51f3028 	ldr	r3, [pc, #-40]	; d5d8 <md5_process+0x1648>
    d5fc:	e0823003 	add	r3, r2, r3
    d600:	e50b3008 	str	r3, [fp, #-8]
    d604:	e51b3008 	ldr	r3, [fp, #-8]
    d608:	e1a02d63 	ror	r2, r3, #26
    d60c:	e51b300c 	ldr	r3, [fp, #-12]
    d610:	e0823003 	add	r3, r2, r3
    d614:	e50b3008 	str	r3, [fp, #-8]
    d618:	e51b3010 	ldr	r3, [fp, #-16]
    d61c:	e1e02003 	mvn	r2, r3
    d620:	e51b3008 	ldr	r3, [fp, #-8]
    d624:	e1822003 	orr	r2, r2, r3
    d628:	e51b300c 	ldr	r3, [fp, #-12]
    d62c:	e0222003 	eor	r2, r2, r3
    d630:	e51b3018 	ldr	r3, [fp, #-24]
    d634:	e0822003 	add	r2, r2, r3
    d638:	e51b3014 	ldr	r3, [fp, #-20]
    d63c:	e0822003 	add	r2, r2, r3
    d640:	e51f306c 	ldr	r3, [pc, #-108]	; d5dc <md5_process+0x164c>
    d644:	e0823003 	add	r3, r2, r3
    d648:	e50b3014 	str	r3, [fp, #-20]
    d64c:	e51b3014 	ldr	r3, [fp, #-20]
    d650:	e1a02b63 	ror	r2, r3, #22
    d654:	e51b3008 	ldr	r3, [fp, #-8]
    d658:	e0823003 	add	r3, r2, r3
    d65c:	e50b3014 	str	r3, [fp, #-20]
    d660:	e51b300c 	ldr	r3, [fp, #-12]
    d664:	e1e02003 	mvn	r2, r3
    d668:	e51b3014 	ldr	r3, [fp, #-20]
    d66c:	e1822003 	orr	r2, r2, r3
    d670:	e51b3008 	ldr	r3, [fp, #-8]
    d674:	e0222003 	eor	r2, r2, r3
    d678:	e51b303c 	ldr	r3, [fp, #-60]	; 0x3c
    d67c:	e0822003 	add	r2, r2, r3
    d680:	e51b3010 	ldr	r3, [fp, #-16]
    d684:	e0822003 	add	r2, r2, r3
    d688:	e51f30b0 	ldr	r3, [pc, #-176]	; d5e0 <md5_process+0x1650>
    d68c:	e0823003 	add	r3, r2, r3
    d690:	e50b3010 	str	r3, [fp, #-16]
    d694:	e51b3010 	ldr	r3, [fp, #-16]
    d698:	e1a028e3 	ror	r2, r3, #17
    d69c:	e51b3014 	ldr	r3, [fp, #-20]
    d6a0:	e0823003 	add	r3, r2, r3
    d6a4:	e50b3010 	str	r3, [fp, #-16]
    d6a8:	e51b3008 	ldr	r3, [fp, #-8]
    d6ac:	e1e02003 	mvn	r2, r3
    d6b0:	e51b3010 	ldr	r3, [fp, #-16]
    d6b4:	e1822003 	orr	r2, r2, r3
    d6b8:	e51b3014 	ldr	r3, [fp, #-20]
    d6bc:	e0222003 	eor	r2, r2, r3
    d6c0:	e51b3020 	ldr	r3, [fp, #-32]
    d6c4:	e0822003 	add	r2, r2, r3
    d6c8:	e51b300c 	ldr	r3, [fp, #-12]
    d6cc:	e0822003 	add	r2, r2, r3
    d6d0:	e51f30f4 	ldr	r3, [pc, #-244]	; d5e4 <md5_process+0x1654>
    d6d4:	e0823003 	add	r3, r2, r3
    d6d8:	e50b300c 	str	r3, [fp, #-12]
    d6dc:	e51b300c 	ldr	r3, [fp, #-12]
    d6e0:	e1a025e3 	ror	r2, r3, #11
    d6e4:	e51b3010 	ldr	r3, [fp, #-16]
    d6e8:	e0823003 	add	r3, r2, r3
    d6ec:	e50b300c 	str	r3, [fp, #-12]
    d6f0:	e51b3014 	ldr	r3, [fp, #-20]
    d6f4:	e1e02003 	mvn	r2, r3
    d6f8:	e51b300c 	ldr	r3, [fp, #-12]
    d6fc:	e1822003 	orr	r2, r2, r3
    d700:	e51b3010 	ldr	r3, [fp, #-16]
    d704:	e0222003 	eor	r2, r2, r3
    d708:	e51b3044 	ldr	r3, [fp, #-68]	; 0x44
    d70c:	e0822003 	add	r2, r2, r3
    d710:	e51b3008 	ldr	r3, [fp, #-8]
    d714:	e0822003 	add	r2, r2, r3
    d718:	e51f3138 	ldr	r3, [pc, #-312]	; d5e8 <md5_process+0x1658>
    d71c:	e0823003 	add	r3, r2, r3
    d720:	e50b3008 	str	r3, [fp, #-8]
    d724:	e51b3008 	ldr	r3, [fp, #-8]
    d728:	e1a02d63 	ror	r2, r3, #26
    d72c:	e51b300c 	ldr	r3, [fp, #-12]
    d730:	e0823003 	add	r3, r2, r3
    d734:	e50b3008 	str	r3, [fp, #-8]
    d738:	e51b3010 	ldr	r3, [fp, #-16]
    d73c:	e1e02003 	mvn	r2, r3
    d740:	e51b3008 	ldr	r3, [fp, #-8]
    d744:	e1822003 	orr	r2, r2, r3
    d748:	e51b300c 	ldr	r3, [fp, #-12]
    d74c:	e0222003 	eor	r2, r2, r3
    d750:	e51b3028 	ldr	r3, [fp, #-40]	; 0x28
    d754:	e0822003 	add	r2, r2, r3
    d758:	e51b3014 	ldr	r3, [fp, #-20]
    d75c:	e0822003 	add	r2, r2, r3
    d760:	e51f317c 	ldr	r3, [pc, #-380]	; d5ec <md5_process+0x165c>
    d764:	e0823003 	add	r3, r2, r3
    d768:	e50b3014 	str	r3, [fp, #-20]
    d76c:	e51b3014 	ldr	r3, [fp, #-20]
    d770:	e1a02b63 	ror	r2, r3, #22
    d774:	e51b3008 	ldr	r3, [fp, #-8]
    d778:	e0823003 	add	r3, r2, r3
    d77c:	e50b3014 	str	r3, [fp, #-20]
    d780:	e51b300c 	ldr	r3, [fp, #-12]
    d784:	e1e02003 	mvn	r2, r3
    d788:	e51b3014 	ldr	r3, [fp, #-20]
    d78c:	e1822003 	orr	r2, r2, r3
    d790:	e51b3008 	ldr	r3, [fp, #-8]
    d794:	e0222003 	eor	r2, r2, r3
    d798:	e51b304c 	ldr	r3, [fp, #-76]	; 0x4c
    d79c:	e0822003 	add	r2, r2, r3
    d7a0:	e51b3010 	ldr	r3, [fp, #-16]
    d7a4:	e0822003 	add	r2, r2, r3
    d7a8:	e51f31c0 	ldr	r3, [pc, #-448]	; d5f0 <md5_process+0x1660>
    d7ac:	e0823003 	add	r3, r2, r3
    d7b0:	e50b3010 	str	r3, [fp, #-16]
    d7b4:	e51b3010 	ldr	r3, [fp, #-16]
    d7b8:	e1a028e3 	ror	r2, r3, #17
    d7bc:	e51b3014 	ldr	r3, [fp, #-20]
    d7c0:	e0823003 	add	r3, r2, r3
    d7c4:	e50b3010 	str	r3, [fp, #-16]
    d7c8:	e51b3008 	ldr	r3, [fp, #-8]
    d7cc:	e1e02003 	mvn	r2, r3
    d7d0:	e51b3010 	ldr	r3, [fp, #-16]
    d7d4:	e1822003 	orr	r2, r2, r3
    d7d8:	e51b3014 	ldr	r3, [fp, #-20]
    d7dc:	e0222003 	eor	r2, r2, r3
    d7e0:	e51b3030 	ldr	r3, [fp, #-48]	; 0x30
    d7e4:	e0822003 	add	r2, r2, r3
    d7e8:	e51b300c 	ldr	r3, [fp, #-12]
    d7ec:	e0822003 	add	r2, r2, r3
    d7f0:	e51f3204 	ldr	r3, [pc, #-516]	; d5f4 <md5_process+0x1664>
    d7f4:	e0823003 	add	r3, r2, r3
    d7f8:	e50b300c 	str	r3, [fp, #-12]
    d7fc:	e51b300c 	ldr	r3, [fp, #-12]
    d800:	e1a025e3 	ror	r2, r3, #11
    d804:	e51b3010 	ldr	r3, [fp, #-16]
    d808:	e0823003 	add	r3, r2, r3
    d80c:	e50b300c 	str	r3, [fp, #-12]
    d810:	e51b3058 	ldr	r3, [fp, #-88]	; 0x58
    d814:	e5932008 	ldr	r2, [r3, #8]
    d818:	e51b3008 	ldr	r3, [fp, #-8]
    d81c:	e0822003 	add	r2, r2, r3
    d820:	e51b3058 	ldr	r3, [fp, #-88]	; 0x58
    d824:	e5832008 	str	r2, [r3, #8]
    d828:	e51b3058 	ldr	r3, [fp, #-88]	; 0x58
    d82c:	e593200c 	ldr	r2, [r3, #12]
    d830:	e51b300c 	ldr	r3, [fp, #-12]
    d834:	e0822003 	add	r2, r2, r3
    d838:	e51b3058 	ldr	r3, [fp, #-88]	; 0x58
    d83c:	e583200c 	str	r2, [r3, #12]
    d840:	e51b3058 	ldr	r3, [fp, #-88]	; 0x58
    d844:	e5932010 	ldr	r2, [r3, #16]
    d848:	e51b3010 	ldr	r3, [fp, #-16]
    d84c:	e0822003 	add	r2, r2, r3
    d850:	e51b3058 	ldr	r3, [fp, #-88]	; 0x58
    d854:	e5832010 	str	r2, [r3, #16]
    d858:	e51b3058 	ldr	r3, [fp, #-88]	; 0x58
    d85c:	e5932014 	ldr	r2, [r3, #20]
    d860:	e51b3014 	ldr	r3, [fp, #-20]
    d864:	e0822003 	add	r2, r2, r3
    d868:	e51b3058 	ldr	r3, [fp, #-88]	; 0x58
    d86c:	e5832014 	str	r2, [r3, #20]
    d870:	e28bd000 	add	sp, fp, #0
    d874:	e8bd0800 	pop	{fp}
    d878:	e12fff1e 	bx	lr

0000d87c <md5_update>:
    d87c:	e92d4800 	push	{fp, lr}
    d880:	e28db004 	add	fp, sp, #4
    d884:	e24dd018 	sub	sp, sp, #24
    d888:	e50b0010 	str	r0, [fp, #-16]
    d88c:	e50b1014 	str	r1, [fp, #-20]
    d890:	e50b2018 	str	r2, [fp, #-24]
    d894:	e51b3018 	ldr	r3, [fp, #-24]
    d898:	e3530000 	cmp	r3, #0
    d89c:	0a000059 	beq	da08 <md5_update+0x18c>
    d8a0:	e51b3010 	ldr	r3, [fp, #-16]
    d8a4:	e5933000 	ldr	r3, [r3]
    d8a8:	e203303f 	and	r3, r3, #63	; 0x3f
    d8ac:	e50b3008 	str	r3, [fp, #-8]
    d8b0:	e51b3008 	ldr	r3, [fp, #-8]
    d8b4:	e2633040 	rsb	r3, r3, #64	; 0x40
    d8b8:	e50b300c 	str	r3, [fp, #-12]
    d8bc:	e51b3010 	ldr	r3, [fp, #-16]
    d8c0:	e5932000 	ldr	r2, [r3]
    d8c4:	e51b3018 	ldr	r3, [fp, #-24]
    d8c8:	e0822003 	add	r2, r2, r3
    d8cc:	e51b3010 	ldr	r3, [fp, #-16]
    d8d0:	e5832000 	str	r2, [r3]
    d8d4:	e51b3010 	ldr	r3, [fp, #-16]
    d8d8:	e5932000 	ldr	r2, [r3]
    d8dc:	e51b3010 	ldr	r3, [fp, #-16]
    d8e0:	e5832000 	str	r2, [r3]
    d8e4:	e51b3010 	ldr	r3, [fp, #-16]
    d8e8:	e5932000 	ldr	r2, [r3]
    d8ec:	e51b3018 	ldr	r3, [fp, #-24]
    d8f0:	e1520003 	cmp	r2, r3
    d8f4:	2a000004 	bcs	d90c <md5_update+0x90>
    d8f8:	e51b3010 	ldr	r3, [fp, #-16]
    d8fc:	e5933004 	ldr	r3, [r3, #4]
    d900:	e2832001 	add	r2, r3, #1
    d904:	e51b3010 	ldr	r3, [fp, #-16]
    d908:	e5832004 	str	r2, [r3, #4]
    d90c:	e51b3008 	ldr	r3, [fp, #-8]
    d910:	e3530000 	cmp	r3, #0
    d914:	0a000028 	beq	d9bc <md5_update+0x140>
    d918:	e51b2018 	ldr	r2, [fp, #-24]
    d91c:	e51b300c 	ldr	r3, [fp, #-12]
    d920:	e1520003 	cmp	r2, r3
    d924:	3a000024 	bcc	d9bc <md5_update+0x140>
    d928:	e51b3010 	ldr	r3, [fp, #-16]
    d92c:	e2832018 	add	r2, r3, #24
    d930:	e51b3008 	ldr	r3, [fp, #-8]
    d934:	e0822003 	add	r2, r2, r3
    d938:	e51b3014 	ldr	r3, [fp, #-20]
    d93c:	e1a01002 	mov	r1, r2
    d940:	e1a02003 	mov	r2, r3
    d944:	e51b300c 	ldr	r3, [fp, #-12]
    d948:	e1a00001 	mov	r0, r1
    d94c:	e1a01002 	mov	r1, r2
    d950:	e1a02003 	mov	r2, r3
    d954:	ebffec87 	bl	8b78 <_init+0x74>
    d958:	e51b3010 	ldr	r3, [fp, #-16]
    d95c:	e2833018 	add	r3, r3, #24
    d960:	e51b0010 	ldr	r0, [fp, #-16]
    d964:	e1a01003 	mov	r1, r3
    d968:	ebfff988 	bl	bf90 <md5_process>
    d96c:	e51b2014 	ldr	r2, [fp, #-20]
    d970:	e51b300c 	ldr	r3, [fp, #-12]
    d974:	e0823003 	add	r3, r2, r3
    d978:	e50b3014 	str	r3, [fp, #-20]
    d97c:	e51b2018 	ldr	r2, [fp, #-24]
    d980:	e51b300c 	ldr	r3, [fp, #-12]
    d984:	e0633002 	rsb	r3, r3, r2
    d988:	e50b3018 	str	r3, [fp, #-24]
    d98c:	e3a03000 	mov	r3, #0
    d990:	e50b3008 	str	r3, [fp, #-8]
    d994:	ea000008 	b	d9bc <md5_update+0x140>
    d998:	e51b0010 	ldr	r0, [fp, #-16]
    d99c:	e51b1014 	ldr	r1, [fp, #-20]
    d9a0:	ebfff97a 	bl	bf90 <md5_process>
    d9a4:	e51b3014 	ldr	r3, [fp, #-20]
    d9a8:	e2833040 	add	r3, r3, #64	; 0x40
    d9ac:	e50b3014 	str	r3, [fp, #-20]
    d9b0:	e51b3018 	ldr	r3, [fp, #-24]
    d9b4:	e2433040 	sub	r3, r3, #64	; 0x40
    d9b8:	e50b3018 	str	r3, [fp, #-24]
    d9bc:	e51b3018 	ldr	r3, [fp, #-24]
    d9c0:	e353003f 	cmp	r3, #63	; 0x3f
    d9c4:	8afffff3 	bhi	d998 <md5_update+0x11c>
    d9c8:	e51b3018 	ldr	r3, [fp, #-24]
    d9cc:	e3530000 	cmp	r3, #0
    d9d0:	0a00000d 	beq	da0c <md5_update+0x190>
    d9d4:	e51b3010 	ldr	r3, [fp, #-16]
    d9d8:	e2832018 	add	r2, r3, #24
    d9dc:	e51b3008 	ldr	r3, [fp, #-8]
    d9e0:	e0822003 	add	r2, r2, r3
    d9e4:	e51b3014 	ldr	r3, [fp, #-20]
    d9e8:	e1a01002 	mov	r1, r2
    d9ec:	e1a02003 	mov	r2, r3
    d9f0:	e51b3018 	ldr	r3, [fp, #-24]
    d9f4:	e1a00001 	mov	r0, r1
    d9f8:	e1a01002 	mov	r1, r2
    d9fc:	e1a02003 	mov	r2, r3
    da00:	ebffec5c 	bl	8b78 <_init+0x74>
    da04:	ea000000 	b	da0c <md5_update+0x190>
    da08:	e1a00000 	nop			; (mov r0, r0)
    da0c:	e24bd004 	sub	sp, fp, #4
    da10:	e8bd8800 	pop	{fp, pc}

0000da14 <md5_finish>:
    da14:	e92d4800 	push	{fp, lr}
    da18:	e28db004 	add	fp, sp, #4
    da1c:	e24dd020 	sub	sp, sp, #32
    da20:	e50b0020 	str	r0, [fp, #-32]
    da24:	e50b1024 	str	r1, [fp, #-36]	; 0x24
    da28:	e51b3020 	ldr	r3, [fp, #-32]
    da2c:	e5933000 	ldr	r3, [r3]
    da30:	e1a02ea3 	lsr	r2, r3, #29
    da34:	e51b3020 	ldr	r3, [fp, #-32]
    da38:	e5933004 	ldr	r3, [r3, #4]
    da3c:	e1a03183 	lsl	r3, r3, #3
    da40:	e1823003 	orr	r3, r2, r3
    da44:	e50b3008 	str	r3, [fp, #-8]
    da48:	e51b3020 	ldr	r3, [fp, #-32]
    da4c:	e5933000 	ldr	r3, [r3]
    da50:	e1a03183 	lsl	r3, r3, #3
    da54:	e50b300c 	str	r3, [fp, #-12]
    da58:	e51b300c 	ldr	r3, [fp, #-12]
    da5c:	e6ef3073 	uxtb	r3, r3
    da60:	e54b301c 	strb	r3, [fp, #-28]
    da64:	e51b300c 	ldr	r3, [fp, #-12]
    da68:	e1a03423 	lsr	r3, r3, #8
    da6c:	e6ef3073 	uxtb	r3, r3
    da70:	e54b301b 	strb	r3, [fp, #-27]
    da74:	e51b300c 	ldr	r3, [fp, #-12]
    da78:	e1a03823 	lsr	r3, r3, #16
    da7c:	e6ef3073 	uxtb	r3, r3
    da80:	e54b301a 	strb	r3, [fp, #-26]
    da84:	e51b300c 	ldr	r3, [fp, #-12]
    da88:	e1a03c23 	lsr	r3, r3, #24
    da8c:	e6ef3073 	uxtb	r3, r3
    da90:	e54b3019 	strb	r3, [fp, #-25]
    da94:	e51b3008 	ldr	r3, [fp, #-8]
    da98:	e6ef3073 	uxtb	r3, r3
    da9c:	e54b3018 	strb	r3, [fp, #-24]
    daa0:	e51b3008 	ldr	r3, [fp, #-8]
    daa4:	e1a03423 	lsr	r3, r3, #8
    daa8:	e6ef3073 	uxtb	r3, r3
    daac:	e54b3017 	strb	r3, [fp, #-23]
    dab0:	e51b3008 	ldr	r3, [fp, #-8]
    dab4:	e1a03823 	lsr	r3, r3, #16
    dab8:	e6ef3073 	uxtb	r3, r3
    dabc:	e54b3016 	strb	r3, [fp, #-22]
    dac0:	e51b3008 	ldr	r3, [fp, #-8]
    dac4:	e1a03c23 	lsr	r3, r3, #24
    dac8:	e6ef3073 	uxtb	r3, r3
    dacc:	e54b3015 	strb	r3, [fp, #-21]
    dad0:	e51b3020 	ldr	r3, [fp, #-32]
    dad4:	e5933000 	ldr	r3, [r3]
    dad8:	e203303f 	and	r3, r3, #63	; 0x3f
    dadc:	e50b3010 	str	r3, [fp, #-16]
    dae0:	e51b3010 	ldr	r3, [fp, #-16]
    dae4:	e3530037 	cmp	r3, #55	; 0x37
    dae8:	8a000002 	bhi	daf8 <md5_finish+0xe4>
    daec:	e51b3010 	ldr	r3, [fp, #-16]
    daf0:	e2633038 	rsb	r3, r3, #56	; 0x38
    daf4:	ea000001 	b	db00 <md5_finish+0xec>
    daf8:	e51b3010 	ldr	r3, [fp, #-16]
    dafc:	e2633078 	rsb	r3, r3, #120	; 0x78
    db00:	e50b3014 	str	r3, [fp, #-20]
    db04:	e51b0020 	ldr	r0, [fp, #-32]
    db08:	e59f11cc 	ldr	r1, [pc, #460]	; dcdc <md5_finish+0x2c8>
    db0c:	e51b2014 	ldr	r2, [fp, #-20]
    db10:	ebffff59 	bl	d87c <md5_update>
    db14:	e24b301c 	sub	r3, fp, #28
    db18:	e51b0020 	ldr	r0, [fp, #-32]
    db1c:	e1a01003 	mov	r1, r3
    db20:	e3a02008 	mov	r2, #8
    db24:	ebffff54 	bl	d87c <md5_update>
    db28:	e51b3020 	ldr	r3, [fp, #-32]
    db2c:	e5933008 	ldr	r3, [r3, #8]
    db30:	e6ef2073 	uxtb	r2, r3
    db34:	e51b3024 	ldr	r3, [fp, #-36]	; 0x24
    db38:	e5c32000 	strb	r2, [r3]
    db3c:	e51b3024 	ldr	r3, [fp, #-36]	; 0x24
    db40:	e2833001 	add	r3, r3, #1
    db44:	e51b2020 	ldr	r2, [fp, #-32]
    db48:	e5922008 	ldr	r2, [r2, #8]
    db4c:	e1a02422 	lsr	r2, r2, #8
    db50:	e6ef2072 	uxtb	r2, r2
    db54:	e5c32000 	strb	r2, [r3]
    db58:	e51b3024 	ldr	r3, [fp, #-36]	; 0x24
    db5c:	e2833002 	add	r3, r3, #2
    db60:	e51b2020 	ldr	r2, [fp, #-32]
    db64:	e5922008 	ldr	r2, [r2, #8]
    db68:	e1a02822 	lsr	r2, r2, #16
    db6c:	e6ef2072 	uxtb	r2, r2
    db70:	e5c32000 	strb	r2, [r3]
    db74:	e51b3024 	ldr	r3, [fp, #-36]	; 0x24
    db78:	e2833003 	add	r3, r3, #3
    db7c:	e51b2020 	ldr	r2, [fp, #-32]
    db80:	e5922008 	ldr	r2, [r2, #8]
    db84:	e1a02c22 	lsr	r2, r2, #24
    db88:	e6ef2072 	uxtb	r2, r2
    db8c:	e5c32000 	strb	r2, [r3]
    db90:	e51b3024 	ldr	r3, [fp, #-36]	; 0x24
    db94:	e2833004 	add	r3, r3, #4
    db98:	e51b2020 	ldr	r2, [fp, #-32]
    db9c:	e592200c 	ldr	r2, [r2, #12]
    dba0:	e6ef2072 	uxtb	r2, r2
    dba4:	e5c32000 	strb	r2, [r3]
    dba8:	e51b3024 	ldr	r3, [fp, #-36]	; 0x24
    dbac:	e2833005 	add	r3, r3, #5
    dbb0:	e51b2020 	ldr	r2, [fp, #-32]
    dbb4:	e592200c 	ldr	r2, [r2, #12]
    dbb8:	e1a02422 	lsr	r2, r2, #8
    dbbc:	e6ef2072 	uxtb	r2, r2
    dbc0:	e5c32000 	strb	r2, [r3]
    dbc4:	e51b3024 	ldr	r3, [fp, #-36]	; 0x24
    dbc8:	e2833006 	add	r3, r3, #6
    dbcc:	e51b2020 	ldr	r2, [fp, #-32]
    dbd0:	e592200c 	ldr	r2, [r2, #12]
    dbd4:	e1a02822 	lsr	r2, r2, #16
    dbd8:	e6ef2072 	uxtb	r2, r2
    dbdc:	e5c32000 	strb	r2, [r3]
    dbe0:	e51b3024 	ldr	r3, [fp, #-36]	; 0x24
    dbe4:	e2833007 	add	r3, r3, #7
    dbe8:	e51b2020 	ldr	r2, [fp, #-32]
    dbec:	e592200c 	ldr	r2, [r2, #12]
    dbf0:	e1a02c22 	lsr	r2, r2, #24
    dbf4:	e6ef2072 	uxtb	r2, r2
    dbf8:	e5c32000 	strb	r2, [r3]
    dbfc:	e51b3024 	ldr	r3, [fp, #-36]	; 0x24
    dc00:	e2833008 	add	r3, r3, #8
    dc04:	e51b2020 	ldr	r2, [fp, #-32]
    dc08:	e5922010 	ldr	r2, [r2, #16]
    dc0c:	e6ef2072 	uxtb	r2, r2
    dc10:	e5c32000 	strb	r2, [r3]
    dc14:	e51b3024 	ldr	r3, [fp, #-36]	; 0x24
    dc18:	e2833009 	add	r3, r3, #9
    dc1c:	e51b2020 	ldr	r2, [fp, #-32]
    dc20:	e5922010 	ldr	r2, [r2, #16]
    dc24:	e1a02422 	lsr	r2, r2, #8
    dc28:	e6ef2072 	uxtb	r2, r2
    dc2c:	e5c32000 	strb	r2, [r3]
    dc30:	e51b3024 	ldr	r3, [fp, #-36]	; 0x24
    dc34:	e283300a 	add	r3, r3, #10
    dc38:	e51b2020 	ldr	r2, [fp, #-32]
    dc3c:	e5922010 	ldr	r2, [r2, #16]
    dc40:	e1a02822 	lsr	r2, r2, #16
    dc44:	e6ef2072 	uxtb	r2, r2
    dc48:	e5c32000 	strb	r2, [r3]
    dc4c:	e51b3024 	ldr	r3, [fp, #-36]	; 0x24
    dc50:	e283300b 	add	r3, r3, #11
    dc54:	e51b2020 	ldr	r2, [fp, #-32]
    dc58:	e5922010 	ldr	r2, [r2, #16]
    dc5c:	e1a02c22 	lsr	r2, r2, #24
    dc60:	e6ef2072 	uxtb	r2, r2
    dc64:	e5c32000 	strb	r2, [r3]
    dc68:	e51b3024 	ldr	r3, [fp, #-36]	; 0x24
    dc6c:	e283300c 	add	r3, r3, #12
    dc70:	e51b2020 	ldr	r2, [fp, #-32]
    dc74:	e5922014 	ldr	r2, [r2, #20]
    dc78:	e6ef2072 	uxtb	r2, r2
    dc7c:	e5c32000 	strb	r2, [r3]
    dc80:	e51b3024 	ldr	r3, [fp, #-36]	; 0x24
    dc84:	e283300d 	add	r3, r3, #13
    dc88:	e51b2020 	ldr	r2, [fp, #-32]
    dc8c:	e5922014 	ldr	r2, [r2, #20]
    dc90:	e1a02422 	lsr	r2, r2, #8
    dc94:	e6ef2072 	uxtb	r2, r2
    dc98:	e5c32000 	strb	r2, [r3]
    dc9c:	e51b3024 	ldr	r3, [fp, #-36]	; 0x24
    dca0:	e283300e 	add	r3, r3, #14
    dca4:	e51b2020 	ldr	r2, [fp, #-32]
    dca8:	e5922014 	ldr	r2, [r2, #20]
    dcac:	e1a02822 	lsr	r2, r2, #16
    dcb0:	e6ef2072 	uxtb	r2, r2
    dcb4:	e5c32000 	strb	r2, [r3]
    dcb8:	e51b3024 	ldr	r3, [fp, #-36]	; 0x24
    dcbc:	e283300f 	add	r3, r3, #15
    dcc0:	e51b2020 	ldr	r2, [fp, #-32]
    dcc4:	e5922014 	ldr	r2, [r2, #20]
    dcc8:	e1a02c22 	lsr	r2, r2, #24
    dccc:	e6ef2072 	uxtb	r2, r2
    dcd0:	e5c32000 	strb	r2, [r3]
    dcd4:	e24bd004 	sub	sp, fp, #4
    dcd8:	e8bd8800 	pop	{fp, pc}
    dcdc:	0001e788 	.word	0x0001e788

0000dce0 <md5>:
    dce0:	e92d4800 	push	{fp, lr}
    dce4:	e28db004 	add	fp, sp, #4
    dce8:	e24dd0e8 	sub	sp, sp, #232	; 0xe8
    dcec:	e50b00e0 	str	r0, [fp, #-224]	; 0xe0
    dcf0:	e50b10e4 	str	r1, [fp, #-228]	; 0xe4
    dcf4:	e50b20e8 	str	r2, [fp, #-232]	; 0xe8
    dcf8:	e24b30dc 	sub	r3, fp, #220	; 0xdc
    dcfc:	e1a00003 	mov	r0, r3
    dd00:	ebfff885 	bl	bf1c <md5_starts>
    dd04:	e24b30dc 	sub	r3, fp, #220	; 0xdc
    dd08:	e1a00003 	mov	r0, r3
    dd0c:	e51b10e0 	ldr	r1, [fp, #-224]	; 0xe0
    dd10:	e51b20e4 	ldr	r2, [fp, #-228]	; 0xe4
    dd14:	ebfffed8 	bl	d87c <md5_update>
    dd18:	e24b30dc 	sub	r3, fp, #220	; 0xdc
    dd1c:	e1a00003 	mov	r0, r3
    dd20:	e51b10e8 	ldr	r1, [fp, #-232]	; 0xe8
    dd24:	ebffff3a 	bl	da14 <md5_finish>
    dd28:	e24b30dc 	sub	r3, fp, #220	; 0xdc
    dd2c:	e1a02003 	mov	r2, r3
    dd30:	e3a030d8 	mov	r3, #216	; 0xd8
    dd34:	e1a00002 	mov	r0, r2
    dd38:	e3a01000 	mov	r1, #0
    dd3c:	e1a02003 	mov	r2, r3
    dd40:	ebffebd4 	bl	8c98 <_init+0x194>
    dd44:	e24bd004 	sub	sp, fp, #4
    dd48:	e8bd8800 	pop	{fp, pc}

0000dd4c <crc16_ccitt>:
    dd4c:	e92d4800 	push	{fp, lr}
    dd50:	e28db004 	add	fp, sp, #4
    dd54:	e24dd018 	sub	sp, sp, #24
    dd58:	e50b0010 	str	r0, [fp, #-16]
    dd5c:	e50b1014 	str	r1, [fp, #-20]
    dd60:	e50b2018 	str	r2, [fp, #-24]
    dd64:	e3a03000 	mov	r3, #0
    dd68:	e14b30ba 	strh	r3, [fp, #-10]
    dd6c:	e3a03000 	mov	r3, #0
    dd70:	e50b3008 	str	r3, [fp, #-8]
    dd74:	ea000019 	b	dde0 <crc16_ccitt+0x94>
    dd78:	e15b30ba 	ldrh	r3, [fp, #-10]
    dd7c:	e1a03403 	lsl	r3, r3, #8
    dd80:	e6ff2073 	uxth	r2, r3
    dd84:	e15b30ba 	ldrh	r3, [fp, #-10]
    dd88:	e1a03423 	lsr	r3, r3, #8
    dd8c:	e6ff3073 	uxth	r3, r3
    dd90:	e1a01003 	mov	r1, r3
    dd94:	e51b3010 	ldr	r3, [fp, #-16]
    dd98:	e5d33000 	ldrb	r3, [r3]
    dd9c:	e0213003 	eor	r3, r1, r3
    dda0:	e6ef3073 	uxtb	r3, r3
    dda4:	e59f1070 	ldr	r1, [pc, #112]	; de1c <crc16_ccitt+0xd0>
    dda8:	e1a03083 	lsl	r3, r3, #1
    ddac:	e0813003 	add	r3, r1, r3
    ddb0:	e1d330b0 	ldrh	r3, [r3]
    ddb4:	e6ff3073 	uxth	r3, r3
    ddb8:	e0223003 	eor	r3, r2, r3
    ddbc:	e6ff3073 	uxth	r3, r3
    ddc0:	e6ff3073 	uxth	r3, r3
    ddc4:	e14b30ba 	strh	r3, [fp, #-10]
    ddc8:	e51b3010 	ldr	r3, [fp, #-16]
    ddcc:	e2833001 	add	r3, r3, #1
    ddd0:	e50b3010 	str	r3, [fp, #-16]
    ddd4:	e51b3008 	ldr	r3, [fp, #-8]
    ddd8:	e2833001 	add	r3, r3, #1
    dddc:	e50b3008 	str	r3, [fp, #-8]
    dde0:	e51b2008 	ldr	r2, [fp, #-8]
    dde4:	e51b3014 	ldr	r3, [fp, #-20]
    dde8:	e1520003 	cmp	r2, r3
    ddec:	3affffe1 	bcc	dd78 <crc16_ccitt+0x2c>
    ddf0:	e51b2018 	ldr	r2, [fp, #-24]
    ddf4:	e24b300a 	sub	r3, fp, #10
    ddf8:	e1a01002 	mov	r1, r2
    ddfc:	e1a02003 	mov	r2, r3
    de00:	e3a03002 	mov	r3, #2
    de04:	e1a00001 	mov	r0, r1
    de08:	e1a01002 	mov	r1, r2
    de0c:	e1a02003 	mov	r2, r3
    de10:	ebffeb58 	bl	8b78 <_init+0x74>
    de14:	e24bd004 	sub	sp, fp, #4
    de18:	e8bd8800 	pop	{fp, pc}
    de1c:	0001e7c8 	.word	0x0001e7c8

0000de20 <crc32>:
    de20:	e92d4800 	push	{fp, lr}
    de24:	e28db004 	add	fp, sp, #4
    de28:	e24dd018 	sub	sp, sp, #24
    de2c:	e50b0010 	str	r0, [fp, #-16]
    de30:	e50b1014 	str	r1, [fp, #-20]
    de34:	e50b2018 	str	r2, [fp, #-24]
    de38:	e3e03000 	mvn	r3, #0
    de3c:	e50b300c 	str	r3, [fp, #-12]
    de40:	e51b3010 	ldr	r3, [fp, #-16]
    de44:	e50b3008 	str	r3, [fp, #-8]
    de48:	ea00000e 	b	de88 <crc32+0x68>
    de4c:	e51b3008 	ldr	r3, [fp, #-8]
    de50:	e5d33000 	ldrb	r3, [r3]
    de54:	e1a02003 	mov	r2, r3
    de58:	e51b300c 	ldr	r3, [fp, #-12]
    de5c:	e0223003 	eor	r3, r2, r3
    de60:	e6ef2073 	uxtb	r2, r3
    de64:	e59f307c 	ldr	r3, [pc, #124]	; dee8 <crc32+0xc8>
    de68:	e7932102 	ldr	r2, [r3, r2, lsl #2]
    de6c:	e51b300c 	ldr	r3, [fp, #-12]
    de70:	e1a03423 	lsr	r3, r3, #8
    de74:	e0223003 	eor	r3, r2, r3
    de78:	e50b300c 	str	r3, [fp, #-12]
    de7c:	e51b3008 	ldr	r3, [fp, #-8]
    de80:	e2833001 	add	r3, r3, #1
    de84:	e50b3008 	str	r3, [fp, #-8]
    de88:	e51b3014 	ldr	r3, [fp, #-20]
    de8c:	e3530000 	cmp	r3, #0
    de90:	03a03000 	moveq	r3, #0
    de94:	13a03001 	movne	r3, #1
    de98:	e6ef3073 	uxtb	r3, r3
    de9c:	e51b2014 	ldr	r2, [fp, #-20]
    dea0:	e2422001 	sub	r2, r2, #1
    dea4:	e50b2014 	str	r2, [fp, #-20]
    dea8:	e3530000 	cmp	r3, #0
    deac:	1affffe6 	bne	de4c <crc32+0x2c>
    deb0:	e51b300c 	ldr	r3, [fp, #-12]
    deb4:	e1e03003 	mvn	r3, r3
    deb8:	e50b300c 	str	r3, [fp, #-12]
    debc:	e51b2018 	ldr	r2, [fp, #-24]
    dec0:	e24b300c 	sub	r3, fp, #12
    dec4:	e1a01002 	mov	r1, r2
    dec8:	e1a02003 	mov	r2, r3
    decc:	e3a03004 	mov	r3, #4
    ded0:	e1a00001 	mov	r0, r1
    ded4:	e1a01002 	mov	r1, r2
    ded8:	e1a02003 	mov	r2, r3
    dedc:	ebffeb25 	bl	8b78 <_init+0x74>
    dee0:	e24bd004 	sub	sp, fp, #4
    dee4:	e8bd8800 	pop	{fp, pc}
    dee8:	000271d8 	.word	0x000271d8

0000deec <sum8>:
    deec:	e52db004 	push	{fp}		; (str fp, [sp, #-4]!)
    def0:	e28db000 	add	fp, sp, #0
    def4:	e24dd01c 	sub	sp, sp, #28
    def8:	e50b0010 	str	r0, [fp, #-16]
    defc:	e50b1014 	str	r1, [fp, #-20]
    df00:	e50b2018 	str	r2, [fp, #-24]
    df04:	e3a03000 	mov	r3, #0
    df08:	e54b3006 	strb	r3, [fp, #-6]
    df0c:	e3a03000 	mov	r3, #0
    df10:	e54b3005 	strb	r3, [fp, #-5]
    df14:	ea00000a 	b	df44 <sum8+0x58>
    df18:	e55b3005 	ldrb	r3, [fp, #-5]
    df1c:	e51b2010 	ldr	r2, [fp, #-16]
    df20:	e0823003 	add	r3, r2, r3
    df24:	e5d32000 	ldrb	r2, [r3]
    df28:	e55b3006 	ldrb	r3, [fp, #-6]
    df2c:	e0823003 	add	r3, r2, r3
    df30:	e6ef3073 	uxtb	r3, r3
    df34:	e54b3006 	strb	r3, [fp, #-6]
    df38:	e55b3005 	ldrb	r3, [fp, #-5]
    df3c:	e2833001 	add	r3, r3, #1
    df40:	e54b3005 	strb	r3, [fp, #-5]
    df44:	e55b2005 	ldrb	r2, [fp, #-5]
    df48:	e51b3014 	ldr	r3, [fp, #-20]
    df4c:	e1520003 	cmp	r2, r3
    df50:	3afffff0 	bcc	df18 <sum8+0x2c>
    df54:	e24b3006 	sub	r3, fp, #6
    df58:	e5d32000 	ldrb	r2, [r3]
    df5c:	e51b3018 	ldr	r3, [fp, #-24]
    df60:	e5c32000 	strb	r2, [r3]
    df64:	e28bd000 	add	sp, fp, #0
    df68:	e8bd0800 	pop	{fp}
    df6c:	e12fff1e 	bx	lr

0000df70 <sum16>:
    df70:	e92d4800 	push	{fp, lr}
    df74:	e28db004 	add	fp, sp, #4
    df78:	e24dd018 	sub	sp, sp, #24
    df7c:	e50b0010 	str	r0, [fp, #-16]
    df80:	e50b1014 	str	r1, [fp, #-20]
    df84:	e50b2018 	str	r2, [fp, #-24]
    df88:	e3a03000 	mov	r3, #0
    df8c:	e14b30b6 	strh	r3, [fp, #-6]
    df90:	ea00000b 	b	dfc4 <sum16+0x54>
    df94:	e51b3010 	ldr	r3, [fp, #-16]
    df98:	e1d320b0 	ldrh	r2, [r3]
    df9c:	e15b30b6 	ldrh	r3, [fp, #-6]
    dfa0:	e0823003 	add	r3, r2, r3
    dfa4:	e6ff3073 	uxth	r3, r3
    dfa8:	e14b30b6 	strh	r3, [fp, #-6]
    dfac:	e51b3010 	ldr	r3, [fp, #-16]
    dfb0:	e2833002 	add	r3, r3, #2
    dfb4:	e50b3010 	str	r3, [fp, #-16]
    dfb8:	e51b3014 	ldr	r3, [fp, #-20]
    dfbc:	e2433002 	sub	r3, r3, #2
    dfc0:	e50b3014 	str	r3, [fp, #-20]
    dfc4:	e51b3014 	ldr	r3, [fp, #-20]
    dfc8:	e3530001 	cmp	r3, #1
    dfcc:	8afffff0 	bhi	df94 <sum16+0x24>
    dfd0:	e51b3014 	ldr	r3, [fp, #-20]
    dfd4:	e3530000 	cmp	r3, #0
    dfd8:	0a000006 	beq	dff8 <sum16+0x88>
    dfdc:	e51b3010 	ldr	r3, [fp, #-16]
    dfe0:	e5d33000 	ldrb	r3, [r3]
    dfe4:	e1a02003 	mov	r2, r3
    dfe8:	e15b30b6 	ldrh	r3, [fp, #-6]
    dfec:	e0823003 	add	r3, r2, r3
    dff0:	e6ff3073 	uxth	r3, r3
    dff4:	e14b30b6 	strh	r3, [fp, #-6]
    dff8:	e51b2018 	ldr	r2, [fp, #-24]
    dffc:	e24b3006 	sub	r3, fp, #6
    e000:	e1a01002 	mov	r1, r2
    e004:	e1a02003 	mov	r2, r3
    e008:	e3a03002 	mov	r3, #2
    e00c:	e1a00001 	mov	r0, r1
    e010:	e1a01002 	mov	r1, r2
    e014:	e1a02003 	mov	r2, r3
    e018:	ebffead6 	bl	8b78 <_init+0x74>
    e01c:	e24bd004 	sub	sp, fp, #4
    e020:	e8bd8800 	pop	{fp, pc}

0000e024 <sum32>:
    e024:	e92d4800 	push	{fp, lr}
    e028:	e28db004 	add	fp, sp, #4
    e02c:	e24dd018 	sub	sp, sp, #24
    e030:	e50b0010 	str	r0, [fp, #-16]
    e034:	e50b1014 	str	r1, [fp, #-20]
    e038:	e50b2018 	str	r2, [fp, #-24]
    e03c:	e3a03000 	mov	r3, #0
    e040:	e50b3008 	str	r3, [fp, #-8]
    e044:	ea00000a 	b	e074 <sum32+0x50>
    e048:	e51b3010 	ldr	r3, [fp, #-16]
    e04c:	e5932000 	ldr	r2, [r3]
    e050:	e51b3008 	ldr	r3, [fp, #-8]
    e054:	e0823003 	add	r3, r2, r3
    e058:	e50b3008 	str	r3, [fp, #-8]
    e05c:	e51b3010 	ldr	r3, [fp, #-16]
    e060:	e2833004 	add	r3, r3, #4
    e064:	e50b3010 	str	r3, [fp, #-16]
    e068:	e51b3014 	ldr	r3, [fp, #-20]
    e06c:	e2433004 	sub	r3, r3, #4
    e070:	e50b3014 	str	r3, [fp, #-20]
    e074:	e51b3014 	ldr	r3, [fp, #-20]
    e078:	e3530003 	cmp	r3, #3
    e07c:	8afffff1 	bhi	e048 <sum32+0x24>
    e080:	e51b3014 	ldr	r3, [fp, #-20]
    e084:	e3530000 	cmp	r3, #0
    e088:	0a000005 	beq	e0a4 <sum32+0x80>
    e08c:	e51b3010 	ldr	r3, [fp, #-16]
    e090:	e5933000 	ldr	r3, [r3]
    e094:	e3c324ff 	bic	r2, r3, #-16777216	; 0xff000000
    e098:	e51b3008 	ldr	r3, [fp, #-8]
    e09c:	e0823003 	add	r3, r2, r3
    e0a0:	e50b3008 	str	r3, [fp, #-8]
    e0a4:	e51b2018 	ldr	r2, [fp, #-24]
    e0a8:	e24b3008 	sub	r3, fp, #8
    e0ac:	e1a01002 	mov	r1, r2
    e0b0:	e1a02003 	mov	r2, r3
    e0b4:	e3a03004 	mov	r3, #4
    e0b8:	e1a00001 	mov	r0, r1
    e0bc:	e1a01002 	mov	r1, r2
    e0c0:	e1a02003 	mov	r2, r3
    e0c4:	ebffeaab 	bl	8b78 <_init+0x74>
    e0c8:	e24bd004 	sub	sp, fp, #4
    e0cc:	e8bd8800 	pop	{fp, pc}

0000e0d0 <fletcher16>:
    e0d0:	e92d4800 	push	{fp, lr}
    e0d4:	e28db004 	add	fp, sp, #4
    e0d8:	e24dd018 	sub	sp, sp, #24
    e0dc:	e50b0010 	str	r0, [fp, #-16]
    e0e0:	e50b1014 	str	r1, [fp, #-20]
    e0e4:	e50b2018 	str	r2, [fp, #-24]
    e0e8:	e3a03000 	mov	r3, #0
    e0ec:	e14b30b6 	strh	r3, [fp, #-6]
    e0f0:	e3a03000 	mov	r3, #0
    e0f4:	e14b30ba 	strh	r3, [fp, #-10]
    e0f8:	e3a03000 	mov	r3, #0
    e0fc:	e14b30b8 	strh	r3, [fp, #-8]
    e100:	ea000023 	b	e194 <fletcher16+0xc4>
    e104:	e15b20b6 	ldrh	r2, [fp, #-6]
    e108:	e15b30b8 	ldrh	r3, [fp, #-8]
    e10c:	e51b1010 	ldr	r1, [fp, #-16]
    e110:	e0813003 	add	r3, r1, r3
    e114:	e5d33000 	ldrb	r3, [r3]
    e118:	e0821003 	add	r1, r2, r3
    e11c:	e59f30cc 	ldr	r3, [pc, #204]	; e1f0 <fletcher16+0x120>
    e120:	e0c32193 	smull	r2, r3, r3, r1
    e124:	e0833001 	add	r3, r3, r1
    e128:	e1a023c3 	asr	r2, r3, #7
    e12c:	e1a03fc1 	asr	r3, r1, #31
    e130:	e0632002 	rsb	r2, r3, r2
    e134:	e1a03002 	mov	r3, r2
    e138:	e1a03403 	lsl	r3, r3, #8
    e13c:	e0623003 	rsb	r3, r2, r3
    e140:	e0632001 	rsb	r2, r3, r1
    e144:	e14b20b6 	strh	r2, [fp, #-6]
    e148:	e15b30b8 	ldrh	r3, [fp, #-8]
    e14c:	e2833001 	add	r3, r3, #1
    e150:	e14b30b8 	strh	r3, [fp, #-8]
    e154:	e15b30ba 	ldrh	r3, [fp, #-10]
    e158:	e1a02003 	mov	r2, r3
    e15c:	e15b30b6 	ldrh	r3, [fp, #-6]
    e160:	e0821003 	add	r1, r2, r3
    e164:	e59f3084 	ldr	r3, [pc, #132]	; e1f0 <fletcher16+0x120>
    e168:	e0c32193 	smull	r2, r3, r3, r1
    e16c:	e0833001 	add	r3, r3, r1
    e170:	e1a023c3 	asr	r2, r3, #7
    e174:	e1a03fc1 	asr	r3, r1, #31
    e178:	e0632002 	rsb	r2, r3, r2
    e17c:	e1a03002 	mov	r3, r2
    e180:	e1a03403 	lsl	r3, r3, #8
    e184:	e0623003 	rsb	r3, r2, r3
    e188:	e0632001 	rsb	r2, r3, r1
    e18c:	e6ff3072 	uxth	r3, r2
    e190:	e14b30ba 	strh	r3, [fp, #-10]
    e194:	e15b20b8 	ldrh	r2, [fp, #-8]
    e198:	e51b3014 	ldr	r3, [fp, #-20]
    e19c:	e1520003 	cmp	r2, r3
    e1a0:	3affffd7 	bcc	e104 <fletcher16+0x34>
    e1a4:	e15b30ba 	ldrh	r3, [fp, #-10]
    e1a8:	e1a03403 	lsl	r3, r3, #8
    e1ac:	e6ff2073 	uxth	r2, r3
    e1b0:	e15b30b6 	ldrh	r3, [fp, #-6]
    e1b4:	e1823003 	orr	r3, r2, r3
    e1b8:	e6ff3073 	uxth	r3, r3
    e1bc:	e6ff3073 	uxth	r3, r3
    e1c0:	e14b30ba 	strh	r3, [fp, #-10]
    e1c4:	e51b2018 	ldr	r2, [fp, #-24]
    e1c8:	e24b300a 	sub	r3, fp, #10
    e1cc:	e1a01002 	mov	r1, r2
    e1d0:	e1a02003 	mov	r2, r3
    e1d4:	e3a03002 	mov	r3, #2
    e1d8:	e1a00001 	mov	r0, r1
    e1dc:	e1a01002 	mov	r1, r2
    e1e0:	e1a02003 	mov	r2, r3
    e1e4:	ebffea63 	bl	8b78 <_init+0x74>
    e1e8:	e24bd004 	sub	sp, fp, #4
    e1ec:	e8bd8800 	pop	{fp, pc}
    e1f0:	80808081 	.word	0x80808081

0000e1f4 <fletcher32>:
    e1f4:	e92d4800 	push	{fp, lr}
    e1f8:	e28db004 	add	fp, sp, #4
    e1fc:	e24dd018 	sub	sp, sp, #24
    e200:	e50b0010 	str	r0, [fp, #-16]
    e204:	e50b1014 	str	r1, [fp, #-20]
    e208:	e50b2018 	str	r2, [fp, #-24]
    e20c:	e59f3170 	ldr	r3, [pc, #368]	; e384 <fletcher32+0x190>
    e210:	e50b3008 	str	r3, [fp, #-8]
    e214:	e59f3168 	ldr	r3, [pc, #360]	; e384 <fletcher32+0x190>
    e218:	e50b300c 	str	r3, [fp, #-12]
    e21c:	ea00001c 	b	e294 <fletcher32+0xa0>
    e220:	e51b3010 	ldr	r3, [fp, #-16]
    e224:	e1d330b0 	ldrh	r3, [r3]
    e228:	e51b2008 	ldr	r2, [fp, #-8]
    e22c:	e0823003 	add	r3, r2, r3
    e230:	e50b3008 	str	r3, [fp, #-8]
    e234:	e51b3010 	ldr	r3, [fp, #-16]
    e238:	e2833002 	add	r3, r3, #2
    e23c:	e50b3010 	str	r3, [fp, #-16]
    e240:	e51b3014 	ldr	r3, [fp, #-20]
    e244:	e2433002 	sub	r3, r3, #2
    e248:	e50b3014 	str	r3, [fp, #-20]
    e24c:	e51b200c 	ldr	r2, [fp, #-12]
    e250:	e51b3008 	ldr	r3, [fp, #-8]
    e254:	e0823003 	add	r3, r2, r3
    e258:	e50b300c 	str	r3, [fp, #-12]
    e25c:	e51b3008 	ldr	r3, [fp, #-8]
    e260:	e1a03803 	lsl	r3, r3, #16
    e264:	e1a03823 	lsr	r3, r3, #16
    e268:	e51b2008 	ldr	r2, [fp, #-8]
    e26c:	e1a02822 	lsr	r2, r2, #16
    e270:	e0833002 	add	r3, r3, r2
    e274:	e50b3008 	str	r3, [fp, #-8]
    e278:	e51b300c 	ldr	r3, [fp, #-12]
    e27c:	e1a03803 	lsl	r3, r3, #16
    e280:	e1a03823 	lsr	r3, r3, #16
    e284:	e51b200c 	ldr	r2, [fp, #-12]
    e288:	e1a02822 	lsr	r2, r2, #16
    e28c:	e0833002 	add	r3, r3, r2
    e290:	e50b300c 	str	r3, [fp, #-12]
    e294:	e51b3014 	ldr	r3, [fp, #-20]
    e298:	e3530001 	cmp	r3, #1
    e29c:	8affffdf 	bhi	e220 <fletcher32+0x2c>
    e2a0:	e51b3014 	ldr	r3, [fp, #-20]
    e2a4:	e3530000 	cmp	r3, #0
    e2a8:	0a000017 	beq	e30c <fletcher32+0x118>
    e2ac:	e51b3010 	ldr	r3, [fp, #-16]
    e2b0:	e5d33000 	ldrb	r3, [r3]
    e2b4:	e1a02003 	mov	r2, r3
    e2b8:	e51b3008 	ldr	r3, [fp, #-8]
    e2bc:	e0822003 	add	r2, r2, r3
    e2c0:	e59f30c0 	ldr	r3, [pc, #192]	; e388 <fletcher32+0x194>
    e2c4:	e0831293 	umull	r1, r3, r3, r2
    e2c8:	e1a017a3 	lsr	r1, r3, #15
    e2cc:	e1a03001 	mov	r3, r1
    e2d0:	e1a03803 	lsl	r3, r3, #16
    e2d4:	e0613003 	rsb	r3, r1, r3
    e2d8:	e0633002 	rsb	r3, r3, r2
    e2dc:	e50b3008 	str	r3, [fp, #-8]
    e2e0:	e51b200c 	ldr	r2, [fp, #-12]
    e2e4:	e51b3008 	ldr	r3, [fp, #-8]
    e2e8:	e0821003 	add	r1, r2, r3
    e2ec:	e59f3094 	ldr	r3, [pc, #148]	; e388 <fletcher32+0x194>
    e2f0:	e0832193 	umull	r2, r3, r3, r1
    e2f4:	e1a027a3 	lsr	r2, r3, #15
    e2f8:	e1a03002 	mov	r3, r2
    e2fc:	e1a03803 	lsl	r3, r3, #16
    e300:	e0623003 	rsb	r3, r2, r3
    e304:	e0632001 	rsb	r2, r3, r1
    e308:	e50b200c 	str	r2, [fp, #-12]
    e30c:	e51b3008 	ldr	r3, [fp, #-8]
    e310:	e1a03803 	lsl	r3, r3, #16
    e314:	e1a03823 	lsr	r3, r3, #16
    e318:	e51b2008 	ldr	r2, [fp, #-8]
    e31c:	e1a02822 	lsr	r2, r2, #16
    e320:	e0833002 	add	r3, r3, r2
    e324:	e50b3008 	str	r3, [fp, #-8]
    e328:	e51b300c 	ldr	r3, [fp, #-12]
    e32c:	e1a03803 	lsl	r3, r3, #16
    e330:	e1a03823 	lsr	r3, r3, #16
    e334:	e51b200c 	ldr	r2, [fp, #-12]
    e338:	e1a02822 	lsr	r2, r2, #16
    e33c:	e0833002 	add	r3, r3, r2
    e340:	e50b300c 	str	r3, [fp, #-12]
    e344:	e51b300c 	ldr	r3, [fp, #-12]
    e348:	e1a02803 	lsl	r2, r3, #16
    e34c:	e51b3008 	ldr	r3, [fp, #-8]
    e350:	e1823003 	orr	r3, r2, r3
    e354:	e50b300c 	str	r3, [fp, #-12]
    e358:	e51b2018 	ldr	r2, [fp, #-24]
    e35c:	e24b300c 	sub	r3, fp, #12
    e360:	e1a01002 	mov	r1, r2
    e364:	e1a02003 	mov	r2, r3
    e368:	e3a03004 	mov	r3, #4
    e36c:	e1a00001 	mov	r0, r1
    e370:	e1a01002 	mov	r1, r2
    e374:	e1a02003 	mov	r2, r3
    e378:	ebffe9fe 	bl	8b78 <_init+0x74>
    e37c:	e24bd004 	sub	sp, fp, #4
    e380:	e8bd8800 	pop	{fp, pc}
    e384:	0000ffff 	.word	0x0000ffff
    e388:	80008001 	.word	0x80008001

0000e38c <adler32>:
    e38c:	e92d4800 	push	{fp, lr}
    e390:	e28db004 	add	fp, sp, #4
    e394:	e24dd020 	sub	sp, sp, #32
    e398:	e50b0018 	str	r0, [fp, #-24]
    e39c:	e50b101c 	str	r1, [fp, #-28]
    e3a0:	e50b2020 	str	r2, [fp, #-32]
    e3a4:	e3a03001 	mov	r3, #1
    e3a8:	e50b3008 	str	r3, [fp, #-8]
    e3ac:	e3a03000 	mov	r3, #0
    e3b0:	e50b3010 	str	r3, [fp, #-16]
    e3b4:	e3a03000 	mov	r3, #0
    e3b8:	e50b300c 	str	r3, [fp, #-12]
    e3bc:	ea00001a 	b	e42c <adler32+0xa0>
    e3c0:	e51b300c 	ldr	r3, [fp, #-12]
    e3c4:	e51b2018 	ldr	r2, [fp, #-24]
    e3c8:	e0823003 	add	r3, r2, r3
    e3cc:	e5d33000 	ldrb	r3, [r3]
    e3d0:	e1a02003 	mov	r2, r3
    e3d4:	e51b3008 	ldr	r3, [fp, #-8]
    e3d8:	e0822003 	add	r2, r2, r3
    e3dc:	e59f3098 	ldr	r3, [pc, #152]	; e47c <adler32+0xf0>
    e3e0:	e5933000 	ldr	r3, [r3]
    e3e4:	e1a00002 	mov	r0, r2
    e3e8:	e1a01003 	mov	r1, r3
    e3ec:	eb003fdb 	bl	1e360 <__aeabi_uidivmod>
    e3f0:	e1a03001 	mov	r3, r1
    e3f4:	e50b3008 	str	r3, [fp, #-8]
    e3f8:	e51b2010 	ldr	r2, [fp, #-16]
    e3fc:	e51b3008 	ldr	r3, [fp, #-8]
    e400:	e0822003 	add	r2, r2, r3
    e404:	e59f3070 	ldr	r3, [pc, #112]	; e47c <adler32+0xf0>
    e408:	e5933000 	ldr	r3, [r3]
    e40c:	e1a00002 	mov	r0, r2
    e410:	e1a01003 	mov	r1, r3
    e414:	eb003fd1 	bl	1e360 <__aeabi_uidivmod>
    e418:	e1a03001 	mov	r3, r1
    e41c:	e50b3010 	str	r3, [fp, #-16]
    e420:	e51b300c 	ldr	r3, [fp, #-12]
    e424:	e2833001 	add	r3, r3, #1
    e428:	e50b300c 	str	r3, [fp, #-12]
    e42c:	e51b200c 	ldr	r2, [fp, #-12]
    e430:	e51b301c 	ldr	r3, [fp, #-28]
    e434:	e1520003 	cmp	r2, r3
    e438:	3affffe0 	bcc	e3c0 <adler32+0x34>
    e43c:	e51b3010 	ldr	r3, [fp, #-16]
    e440:	e1a02803 	lsl	r2, r3, #16
    e444:	e51b3008 	ldr	r3, [fp, #-8]
    e448:	e1823003 	orr	r3, r2, r3
    e44c:	e50b3010 	str	r3, [fp, #-16]
    e450:	e51b2020 	ldr	r2, [fp, #-32]
    e454:	e24b3010 	sub	r3, fp, #16
    e458:	e1a01002 	mov	r1, r2
    e45c:	e1a02003 	mov	r2, r3
    e460:	e3a03004 	mov	r3, #4
    e464:	e1a00001 	mov	r0, r1
    e468:	e1a01002 	mov	r1, r2
    e46c:	e1a02003 	mov	r2, r3
    e470:	ebffe9c0 	bl	8b78 <_init+0x74>
    e474:	e24bd004 	sub	sp, fp, #4
    e478:	e8bd8800 	pop	{fp, pc}
    e47c:	0001e9c8 	.word	0x0001e9c8

0000e480 <adler16>:
    e480:	e92d4800 	push	{fp, lr}
    e484:	e28db004 	add	fp, sp, #4
    e488:	e24dd020 	sub	sp, sp, #32
    e48c:	e50b0018 	str	r0, [fp, #-24]
    e490:	e50b101c 	str	r1, [fp, #-28]
    e494:	e50b2020 	str	r2, [fp, #-32]
    e498:	e3a03001 	mov	r3, #1
    e49c:	e50b3008 	str	r3, [fp, #-8]
    e4a0:	e3a03000 	mov	r3, #0
    e4a4:	e50b3010 	str	r3, [fp, #-16]
    e4a8:	e3a03000 	mov	r3, #0
    e4ac:	e50b300c 	str	r3, [fp, #-12]
    e4b0:	ea00001a 	b	e520 <adler16+0xa0>
    e4b4:	e51b300c 	ldr	r3, [fp, #-12]
    e4b8:	e51b2018 	ldr	r2, [fp, #-24]
    e4bc:	e0823003 	add	r3, r2, r3
    e4c0:	e5d33000 	ldrb	r3, [r3]
    e4c4:	e1a02003 	mov	r2, r3
    e4c8:	e51b3008 	ldr	r3, [fp, #-8]
    e4cc:	e0822003 	add	r2, r2, r3
    e4d0:	e59f3098 	ldr	r3, [pc, #152]	; e570 <adler16+0xf0>
    e4d4:	e5933000 	ldr	r3, [r3]
    e4d8:	e1a00002 	mov	r0, r2
    e4dc:	e1a01003 	mov	r1, r3
    e4e0:	eb003f9e 	bl	1e360 <__aeabi_uidivmod>
    e4e4:	e1a03001 	mov	r3, r1
    e4e8:	e50b3008 	str	r3, [fp, #-8]
    e4ec:	e51b2010 	ldr	r2, [fp, #-16]
    e4f0:	e51b3008 	ldr	r3, [fp, #-8]
    e4f4:	e0822003 	add	r2, r2, r3
    e4f8:	e59f3070 	ldr	r3, [pc, #112]	; e570 <adler16+0xf0>
    e4fc:	e5933000 	ldr	r3, [r3]
    e500:	e1a00002 	mov	r0, r2
    e504:	e1a01003 	mov	r1, r3
    e508:	eb003f94 	bl	1e360 <__aeabi_uidivmod>
    e50c:	e1a03001 	mov	r3, r1
    e510:	e50b3010 	str	r3, [fp, #-16]
    e514:	e51b300c 	ldr	r3, [fp, #-12]
    e518:	e2833001 	add	r3, r3, #1
    e51c:	e50b300c 	str	r3, [fp, #-12]
    e520:	e51b200c 	ldr	r2, [fp, #-12]
    e524:	e51b301c 	ldr	r3, [fp, #-28]
    e528:	e1520003 	cmp	r2, r3
    e52c:	3affffe0 	bcc	e4b4 <adler16+0x34>
    e530:	e51b3010 	ldr	r3, [fp, #-16]
    e534:	e1a02403 	lsl	r2, r3, #8
    e538:	e51b3008 	ldr	r3, [fp, #-8]
    e53c:	e1823003 	orr	r3, r2, r3
    e540:	e50b3010 	str	r3, [fp, #-16]
    e544:	e51b2020 	ldr	r2, [fp, #-32]
    e548:	e24b3010 	sub	r3, fp, #16
    e54c:	e1a01002 	mov	r1, r2
    e550:	e1a02003 	mov	r2, r3
    e554:	e3a03002 	mov	r3, #2
    e558:	e1a00001 	mov	r0, r1
    e55c:	e1a01002 	mov	r1, r2
    e560:	e1a02003 	mov	r2, r3
    e564:	ebffe983 	bl	8b78 <_init+0x74>
    e568:	e24bd004 	sub	sp, fp, #4
    e56c:	e8bd8800 	pop	{fp, pc}
    e570:	0001e9cc 	.word	0x0001e9cc

0000e574 <adler8>:
    e574:	e92d4800 	push	{fp, lr}
    e578:	e28db004 	add	fp, sp, #4
    e57c:	e24dd020 	sub	sp, sp, #32
    e580:	e50b0018 	str	r0, [fp, #-24]
    e584:	e50b101c 	str	r1, [fp, #-28]
    e588:	e50b2020 	str	r2, [fp, #-32]
    e58c:	e3a03001 	mov	r3, #1
    e590:	e50b3008 	str	r3, [fp, #-8]
    e594:	e3a03000 	mov	r3, #0
    e598:	e50b3010 	str	r3, [fp, #-16]
    e59c:	e3a03000 	mov	r3, #0
    e5a0:	e50b300c 	str	r3, [fp, #-12]
    e5a4:	ea00001a 	b	e614 <adler8+0xa0>
    e5a8:	e51b300c 	ldr	r3, [fp, #-12]
    e5ac:	e51b2018 	ldr	r2, [fp, #-24]
    e5b0:	e0823003 	add	r3, r2, r3
    e5b4:	e5d33000 	ldrb	r3, [r3]
    e5b8:	e1a02003 	mov	r2, r3
    e5bc:	e51b3008 	ldr	r3, [fp, #-8]
    e5c0:	e0822003 	add	r2, r2, r3
    e5c4:	e59f3084 	ldr	r3, [pc, #132]	; e650 <adler8+0xdc>
    e5c8:	e5933000 	ldr	r3, [r3]
    e5cc:	e1a00002 	mov	r0, r2
    e5d0:	e1a01003 	mov	r1, r3
    e5d4:	eb003f61 	bl	1e360 <__aeabi_uidivmod>
    e5d8:	e1a03001 	mov	r3, r1
    e5dc:	e50b3008 	str	r3, [fp, #-8]
    e5e0:	e51b2010 	ldr	r2, [fp, #-16]
    e5e4:	e51b3008 	ldr	r3, [fp, #-8]
    e5e8:	e0822003 	add	r2, r2, r3
    e5ec:	e59f305c 	ldr	r3, [pc, #92]	; e650 <adler8+0xdc>
    e5f0:	e5933000 	ldr	r3, [r3]
    e5f4:	e1a00002 	mov	r0, r2
    e5f8:	e1a01003 	mov	r1, r3
    e5fc:	eb003f57 	bl	1e360 <__aeabi_uidivmod>
    e600:	e1a03001 	mov	r3, r1
    e604:	e50b3010 	str	r3, [fp, #-16]
    e608:	e51b300c 	ldr	r3, [fp, #-12]
    e60c:	e2833001 	add	r3, r3, #1
    e610:	e50b300c 	str	r3, [fp, #-12]
    e614:	e51b200c 	ldr	r2, [fp, #-12]
    e618:	e51b301c 	ldr	r3, [fp, #-28]
    e61c:	e1520003 	cmp	r2, r3
    e620:	3affffe0 	bcc	e5a8 <adler8+0x34>
    e624:	e51b3010 	ldr	r3, [fp, #-16]
    e628:	e1a02203 	lsl	r2, r3, #4
    e62c:	e51b3008 	ldr	r3, [fp, #-8]
    e630:	e1823003 	orr	r3, r2, r3
    e634:	e50b3010 	str	r3, [fp, #-16]
    e638:	e51b3020 	ldr	r3, [fp, #-32]
    e63c:	e24b2010 	sub	r2, fp, #16
    e640:	e5d22000 	ldrb	r2, [r2]
    e644:	e5c32000 	strb	r2, [r3]
    e648:	e24bd004 	sub	sp, fp, #4
    e64c:	e8bd8800 	pop	{fp, pc}
    e650:	0001e9d0 	.word	0x0001e9d0

0000e654 <aphash>:
    e654:	e92d4800 	push	{fp, lr}
    e658:	e28db004 	add	fp, sp, #4
    e65c:	e24dd018 	sub	sp, sp, #24
    e660:	e50b0010 	str	r0, [fp, #-16]
    e664:	e50b1014 	str	r1, [fp, #-20]
    e668:	e50b2018 	str	r2, [fp, #-24]
    e66c:	e59f30d0 	ldr	r3, [pc, #208]	; e744 <aphash+0xf0>
    e670:	e50b300c 	str	r3, [fp, #-12]
    e674:	e3a03000 	mov	r3, #0
    e678:	e50b3008 	str	r3, [fp, #-8]
    e67c:	e3a03000 	mov	r3, #0
    e680:	e50b3008 	str	r3, [fp, #-8]
    e684:	ea00001f 	b	e708 <aphash+0xb4>
    e688:	e51b3008 	ldr	r3, [fp, #-8]
    e68c:	e2033001 	and	r3, r3, #1
    e690:	e3530000 	cmp	r3, #0
    e694:	1a000008 	bne	e6bc <aphash+0x68>
    e698:	e51b300c 	ldr	r3, [fp, #-12]
    e69c:	e1a02383 	lsl	r2, r3, #7
    e6a0:	e51b3010 	ldr	r3, [fp, #-16]
    e6a4:	e5d33000 	ldrb	r3, [r3]
    e6a8:	e51b100c 	ldr	r1, [fp, #-12]
    e6ac:	e1a011a1 	lsr	r1, r1, #3
    e6b0:	e0030391 	mul	r3, r1, r3
    e6b4:	e0223003 	eor	r3, r2, r3
    e6b8:	ea000009 	b	e6e4 <aphash+0x90>
    e6bc:	e51b300c 	ldr	r3, [fp, #-12]
    e6c0:	e1a02583 	lsl	r2, r3, #11
    e6c4:	e51b3010 	ldr	r3, [fp, #-16]
    e6c8:	e5d33000 	ldrb	r3, [r3]
    e6cc:	e1a01003 	mov	r1, r3
    e6d0:	e51b300c 	ldr	r3, [fp, #-12]
    e6d4:	e1a032a3 	lsr	r3, r3, #5
    e6d8:	e0213003 	eor	r3, r1, r3
    e6dc:	e0823003 	add	r3, r2, r3
    e6e0:	e1e03003 	mvn	r3, r3
    e6e4:	e51b200c 	ldr	r2, [fp, #-12]
    e6e8:	e0233002 	eor	r3, r3, r2
    e6ec:	e50b300c 	str	r3, [fp, #-12]
    e6f0:	e51b3010 	ldr	r3, [fp, #-16]
    e6f4:	e2833001 	add	r3, r3, #1
    e6f8:	e50b3010 	str	r3, [fp, #-16]
    e6fc:	e51b3008 	ldr	r3, [fp, #-8]
    e700:	e2833001 	add	r3, r3, #1
    e704:	e50b3008 	str	r3, [fp, #-8]
    e708:	e51b2008 	ldr	r2, [fp, #-8]
    e70c:	e51b3014 	ldr	r3, [fp, #-20]
    e710:	e1520003 	cmp	r2, r3
    e714:	3affffdb 	bcc	e688 <aphash+0x34>
    e718:	e51b2018 	ldr	r2, [fp, #-24]
    e71c:	e24b300c 	sub	r3, fp, #12
    e720:	e1a01002 	mov	r1, r2
    e724:	e1a02003 	mov	r2, r3
    e728:	e3a03004 	mov	r3, #4
    e72c:	e1a00001 	mov	r0, r1
    e730:	e1a01002 	mov	r1, r2
    e734:	e1a02003 	mov	r2, r3
    e738:	ebffe90e 	bl	8b78 <_init+0x74>
    e73c:	e24bd004 	sub	sp, fp, #4
    e740:	e8bd8800 	pop	{fp, pc}
    e744:	aaaaaaaa 	.word	0xaaaaaaaa

0000e748 <rshash>:
    e748:	e92d4800 	push	{fp, lr}
    e74c:	e28db004 	add	fp, sp, #4
    e750:	e24dd020 	sub	sp, sp, #32
    e754:	e50b0018 	str	r0, [fp, #-24]
    e758:	e50b101c 	str	r1, [fp, #-28]
    e75c:	e50b2020 	str	r2, [fp, #-32]
    e760:	e59f30a4 	ldr	r3, [pc, #164]	; e80c <rshash+0xc4>
    e764:	e50b3010 	str	r3, [fp, #-16]
    e768:	e59f30a0 	ldr	r3, [pc, #160]	; e810 <rshash+0xc8>
    e76c:	e50b3008 	str	r3, [fp, #-8]
    e770:	e3a03000 	mov	r3, #0
    e774:	e50b3014 	str	r3, [fp, #-20]
    e778:	e3a03000 	mov	r3, #0
    e77c:	e50b300c 	str	r3, [fp, #-12]
    e780:	e3a03000 	mov	r3, #0
    e784:	e50b300c 	str	r3, [fp, #-12]
    e788:	ea000010 	b	e7d0 <rshash+0x88>
    e78c:	e51b3014 	ldr	r3, [fp, #-20]
    e790:	e51b2008 	ldr	r2, [fp, #-8]
    e794:	e0020392 	mul	r2, r2, r3
    e798:	e51b3018 	ldr	r3, [fp, #-24]
    e79c:	e5d33000 	ldrb	r3, [r3]
    e7a0:	e0823003 	add	r3, r2, r3
    e7a4:	e50b3014 	str	r3, [fp, #-20]
    e7a8:	e51b3008 	ldr	r3, [fp, #-8]
    e7ac:	e51b2010 	ldr	r2, [fp, #-16]
    e7b0:	e0030392 	mul	r3, r2, r3
    e7b4:	e50b3008 	str	r3, [fp, #-8]
    e7b8:	e51b3018 	ldr	r3, [fp, #-24]
    e7bc:	e2833001 	add	r3, r3, #1
    e7c0:	e50b3018 	str	r3, [fp, #-24]
    e7c4:	e51b300c 	ldr	r3, [fp, #-12]
    e7c8:	e2833001 	add	r3, r3, #1
    e7cc:	e50b300c 	str	r3, [fp, #-12]
    e7d0:	e51b200c 	ldr	r2, [fp, #-12]
    e7d4:	e51b301c 	ldr	r3, [fp, #-28]
    e7d8:	e1520003 	cmp	r2, r3
    e7dc:	3affffea 	bcc	e78c <rshash+0x44>
    e7e0:	e51b2020 	ldr	r2, [fp, #-32]
    e7e4:	e24b3014 	sub	r3, fp, #20
    e7e8:	e1a01002 	mov	r1, r2
    e7ec:	e1a02003 	mov	r2, r3
    e7f0:	e3a03004 	mov	r3, #4
    e7f4:	e1a00001 	mov	r0, r1
    e7f8:	e1a01002 	mov	r1, r2
    e7fc:	e1a02003 	mov	r2, r3
    e800:	ebffe8dc 	bl	8b78 <_init+0x74>
    e804:	e24bd004 	sub	sp, fp, #4
    e808:	e8bd8800 	pop	{fp, pc}
    e80c:	0005c6b7 	.word	0x0005c6b7
    e810:	0000f8c9 	.word	0x0000f8c9

0000e814 <jshash>:
    e814:	e92d4800 	push	{fp, lr}
    e818:	e28db004 	add	fp, sp, #4
    e81c:	e24dd018 	sub	sp, sp, #24
    e820:	e50b0010 	str	r0, [fp, #-16]
    e824:	e50b1014 	str	r1, [fp, #-20]
    e828:	e50b2018 	str	r2, [fp, #-24]
    e82c:	e59f3094 	ldr	r3, [pc, #148]	; e8c8 <jshash+0xb4>
    e830:	e50b300c 	str	r3, [fp, #-12]
    e834:	e3a03000 	mov	r3, #0
    e838:	e50b3008 	str	r3, [fp, #-8]
    e83c:	e3a03000 	mov	r3, #0
    e840:	e50b3008 	str	r3, [fp, #-8]
    e844:	ea000010 	b	e88c <jshash+0x78>
    e848:	e51b300c 	ldr	r3, [fp, #-12]
    e84c:	e1a02283 	lsl	r2, r3, #5
    e850:	e51b3010 	ldr	r3, [fp, #-16]
    e854:	e5d33000 	ldrb	r3, [r3]
    e858:	e0822003 	add	r2, r2, r3
    e85c:	e51b300c 	ldr	r3, [fp, #-12]
    e860:	e1a03123 	lsr	r3, r3, #2
    e864:	e0822003 	add	r2, r2, r3
    e868:	e51b300c 	ldr	r3, [fp, #-12]
    e86c:	e0223003 	eor	r3, r2, r3
    e870:	e50b300c 	str	r3, [fp, #-12]
    e874:	e51b3010 	ldr	r3, [fp, #-16]
    e878:	e2833001 	add	r3, r3, #1
    e87c:	e50b3010 	str	r3, [fp, #-16]
    e880:	e51b3008 	ldr	r3, [fp, #-8]
    e884:	e2833001 	add	r3, r3, #1
    e888:	e50b3008 	str	r3, [fp, #-8]
    e88c:	e51b2008 	ldr	r2, [fp, #-8]
    e890:	e51b3014 	ldr	r3, [fp, #-20]
    e894:	e1520003 	cmp	r2, r3
    e898:	3affffea 	bcc	e848 <jshash+0x34>
    e89c:	e51b2018 	ldr	r2, [fp, #-24]
    e8a0:	e24b300c 	sub	r3, fp, #12
    e8a4:	e1a01002 	mov	r1, r2
    e8a8:	e1a02003 	mov	r2, r3
    e8ac:	e3a03004 	mov	r3, #4
    e8b0:	e1a00001 	mov	r0, r1
    e8b4:	e1a01002 	mov	r1, r2
    e8b8:	e1a02003 	mov	r2, r3
    e8bc:	ebffe8ad 	bl	8b78 <_init+0x74>
    e8c0:	e24bd004 	sub	sp, fp, #4
    e8c4:	e8bd8800 	pop	{fp, pc}
    e8c8:	4e67c6a7 	.word	0x4e67c6a7

0000e8cc <pjwhash>:
    e8cc:	e92d4800 	push	{fp, lr}
    e8d0:	e28db004 	add	fp, sp, #4
    e8d4:	e24dd030 	sub	sp, sp, #48	; 0x30
    e8d8:	e50b0028 	str	r0, [fp, #-40]	; 0x28
    e8dc:	e50b102c 	str	r1, [fp, #-44]	; 0x2c
    e8e0:	e50b2030 	str	r2, [fp, #-48]	; 0x30
    e8e4:	e3a03020 	mov	r3, #32
    e8e8:	e50b300c 	str	r3, [fp, #-12]
    e8ec:	e51b200c 	ldr	r2, [fp, #-12]
    e8f0:	e1a03002 	mov	r3, r2
    e8f4:	e1a03083 	lsl	r3, r3, #1
    e8f8:	e0833002 	add	r3, r3, r2
    e8fc:	e1a03123 	lsr	r3, r3, #2
    e900:	e50b3010 	str	r3, [fp, #-16]
    e904:	e51b300c 	ldr	r3, [fp, #-12]
    e908:	e1a031a3 	lsr	r3, r3, #3
    e90c:	e50b3014 	str	r3, [fp, #-20]
    e910:	e51b200c 	ldr	r2, [fp, #-12]
    e914:	e51b3014 	ldr	r3, [fp, #-20]
    e918:	e0633002 	rsb	r3, r3, r2
    e91c:	e3e02000 	mvn	r2, #0
    e920:	e1a03312 	lsl	r3, r2, r3
    e924:	e50b3018 	str	r3, [fp, #-24]
    e928:	e3a03000 	mov	r3, #0
    e92c:	e50b3020 	str	r3, [fp, #-32]
    e930:	e3a03000 	mov	r3, #0
    e934:	e50b301c 	str	r3, [fp, #-28]
    e938:	e3a03000 	mov	r3, #0
    e93c:	e50b3008 	str	r3, [fp, #-8]
    e940:	e3a03000 	mov	r3, #0
    e944:	e50b3008 	str	r3, [fp, #-8]
    e948:	ea00001c 	b	e9c0 <pjwhash+0xf4>
    e94c:	e51b2020 	ldr	r2, [fp, #-32]
    e950:	e51b3014 	ldr	r3, [fp, #-20]
    e954:	e1a02312 	lsl	r2, r2, r3
    e958:	e51b3028 	ldr	r3, [fp, #-40]	; 0x28
    e95c:	e5d33000 	ldrb	r3, [r3]
    e960:	e0823003 	add	r3, r2, r3
    e964:	e50b3020 	str	r3, [fp, #-32]
    e968:	e51b2020 	ldr	r2, [fp, #-32]
    e96c:	e51b3018 	ldr	r3, [fp, #-24]
    e970:	e0023003 	and	r3, r2, r3
    e974:	e50b301c 	str	r3, [fp, #-28]
    e978:	e51b301c 	ldr	r3, [fp, #-28]
    e97c:	e3530000 	cmp	r3, #0
    e980:	0a000008 	beq	e9a8 <pjwhash+0xdc>
    e984:	e51b3010 	ldr	r3, [fp, #-16]
    e988:	e51b201c 	ldr	r2, [fp, #-28]
    e98c:	e1a02332 	lsr	r2, r2, r3
    e990:	e51b3020 	ldr	r3, [fp, #-32]
    e994:	e0222003 	eor	r2, r2, r3
    e998:	e51b3018 	ldr	r3, [fp, #-24]
    e99c:	e1e03003 	mvn	r3, r3
    e9a0:	e0023003 	and	r3, r2, r3
    e9a4:	e50b3020 	str	r3, [fp, #-32]
    e9a8:	e51b3028 	ldr	r3, [fp, #-40]	; 0x28
    e9ac:	e2833001 	add	r3, r3, #1
    e9b0:	e50b3028 	str	r3, [fp, #-40]	; 0x28
    e9b4:	e51b3008 	ldr	r3, [fp, #-8]
    e9b8:	e2833001 	add	r3, r3, #1
    e9bc:	e50b3008 	str	r3, [fp, #-8]
    e9c0:	e51b2008 	ldr	r2, [fp, #-8]
    e9c4:	e51b302c 	ldr	r3, [fp, #-44]	; 0x2c
    e9c8:	e1520003 	cmp	r2, r3
    e9cc:	3affffde 	bcc	e94c <pjwhash+0x80>
    e9d0:	e51b2030 	ldr	r2, [fp, #-48]	; 0x30
    e9d4:	e24b3020 	sub	r3, fp, #32
    e9d8:	e1a01002 	mov	r1, r2
    e9dc:	e1a02003 	mov	r2, r3
    e9e0:	e3a03004 	mov	r3, #4
    e9e4:	e1a00001 	mov	r0, r1
    e9e8:	e1a01002 	mov	r1, r2
    e9ec:	e1a02003 	mov	r2, r3
    e9f0:	ebffe860 	bl	8b78 <_init+0x74>
    e9f4:	e24bd004 	sub	sp, fp, #4
    e9f8:	e8bd8800 	pop	{fp, pc}

0000e9fc <elfhash>:
    e9fc:	e92d4800 	push	{fp, lr}
    ea00:	e28db004 	add	fp, sp, #4
    ea04:	e24dd020 	sub	sp, sp, #32
    ea08:	e50b0018 	str	r0, [fp, #-24]
    ea0c:	e50b101c 	str	r1, [fp, #-28]
    ea10:	e50b2020 	str	r2, [fp, #-32]
    ea14:	e3a03000 	mov	r3, #0
    ea18:	e50b3010 	str	r3, [fp, #-16]
    ea1c:	e3a03000 	mov	r3, #0
    ea20:	e50b300c 	str	r3, [fp, #-12]
    ea24:	e3a03000 	mov	r3, #0
    ea28:	e50b3008 	str	r3, [fp, #-8]
    ea2c:	e3a03000 	mov	r3, #0
    ea30:	e50b3008 	str	r3, [fp, #-8]
    ea34:	ea00001b 	b	eaa8 <elfhash+0xac>
    ea38:	e51b3010 	ldr	r3, [fp, #-16]
    ea3c:	e1a02203 	lsl	r2, r3, #4
    ea40:	e51b3018 	ldr	r3, [fp, #-24]
    ea44:	e5d33000 	ldrb	r3, [r3]
    ea48:	e0823003 	add	r3, r2, r3
    ea4c:	e50b3010 	str	r3, [fp, #-16]
    ea50:	e51b3010 	ldr	r3, [fp, #-16]
    ea54:	e203320f 	and	r3, r3, #-268435456	; 0xf0000000
    ea58:	e50b300c 	str	r3, [fp, #-12]
    ea5c:	e51b300c 	ldr	r3, [fp, #-12]
    ea60:	e3530000 	cmp	r3, #0
    ea64:	0a000004 	beq	ea7c <elfhash+0x80>
    ea68:	e51b300c 	ldr	r3, [fp, #-12]
    ea6c:	e1a02c23 	lsr	r2, r3, #24
    ea70:	e51b3010 	ldr	r3, [fp, #-16]
    ea74:	e0223003 	eor	r3, r2, r3
    ea78:	e50b3010 	str	r3, [fp, #-16]
    ea7c:	e51b300c 	ldr	r3, [fp, #-12]
    ea80:	e1e02003 	mvn	r2, r3
    ea84:	e51b3010 	ldr	r3, [fp, #-16]
    ea88:	e0023003 	and	r3, r2, r3
    ea8c:	e50b3010 	str	r3, [fp, #-16]
    ea90:	e51b3018 	ldr	r3, [fp, #-24]
    ea94:	e2833001 	add	r3, r3, #1
    ea98:	e50b3018 	str	r3, [fp, #-24]
    ea9c:	e51b3008 	ldr	r3, [fp, #-8]
    eaa0:	e2833001 	add	r3, r3, #1
    eaa4:	e50b3008 	str	r3, [fp, #-8]
    eaa8:	e51b2008 	ldr	r2, [fp, #-8]
    eaac:	e51b301c 	ldr	r3, [fp, #-28]
    eab0:	e1520003 	cmp	r2, r3
    eab4:	3affffdf 	bcc	ea38 <elfhash+0x3c>
    eab8:	e51b2020 	ldr	r2, [fp, #-32]
    eabc:	e24b3010 	sub	r3, fp, #16
    eac0:	e1a01002 	mov	r1, r2
    eac4:	e1a02003 	mov	r2, r3
    eac8:	e3a03004 	mov	r3, #4
    eacc:	e1a00001 	mov	r0, r1
    ead0:	e1a01002 	mov	r1, r2
    ead4:	e1a02003 	mov	r2, r3
    ead8:	ebffe826 	bl	8b78 <_init+0x74>
    eadc:	e24bd004 	sub	sp, fp, #4
    eae0:	e8bd8800 	pop	{fp, pc}

0000eae4 <bkdrhash>:
    eae4:	e92d4800 	push	{fp, lr}
    eae8:	e28db004 	add	fp, sp, #4
    eaec:	e24dd020 	sub	sp, sp, #32
    eaf0:	e50b0018 	str	r0, [fp, #-24]
    eaf4:	e50b101c 	str	r1, [fp, #-28]
    eaf8:	e50b2020 	str	r2, [fp, #-32]
    eafc:	e3a03083 	mov	r3, #131	; 0x83
    eb00:	e50b300c 	str	r3, [fp, #-12]
    eb04:	e3a03000 	mov	r3, #0
    eb08:	e50b3010 	str	r3, [fp, #-16]
    eb0c:	e3a03000 	mov	r3, #0
    eb10:	e50b3008 	str	r3, [fp, #-8]
    eb14:	e3a03000 	mov	r3, #0
    eb18:	e50b3008 	str	r3, [fp, #-8]
    eb1c:	ea00000c 	b	eb54 <bkdrhash+0x70>
    eb20:	e51b3010 	ldr	r3, [fp, #-16]
    eb24:	e51b200c 	ldr	r2, [fp, #-12]
    eb28:	e0020392 	mul	r2, r2, r3
    eb2c:	e51b3018 	ldr	r3, [fp, #-24]
    eb30:	e5d33000 	ldrb	r3, [r3]
    eb34:	e0823003 	add	r3, r2, r3
    eb38:	e50b3010 	str	r3, [fp, #-16]
    eb3c:	e51b3018 	ldr	r3, [fp, #-24]
    eb40:	e2833001 	add	r3, r3, #1
    eb44:	e50b3018 	str	r3, [fp, #-24]
    eb48:	e51b3008 	ldr	r3, [fp, #-8]
    eb4c:	e2833001 	add	r3, r3, #1
    eb50:	e50b3008 	str	r3, [fp, #-8]
    eb54:	e51b2008 	ldr	r2, [fp, #-8]
    eb58:	e51b301c 	ldr	r3, [fp, #-28]
    eb5c:	e1520003 	cmp	r2, r3
    eb60:	3affffee 	bcc	eb20 <bkdrhash+0x3c>
    eb64:	e51b2020 	ldr	r2, [fp, #-32]
    eb68:	e24b3010 	sub	r3, fp, #16
    eb6c:	e1a01002 	mov	r1, r2
    eb70:	e1a02003 	mov	r2, r3
    eb74:	e3a03004 	mov	r3, #4
    eb78:	e1a00001 	mov	r0, r1
    eb7c:	e1a01002 	mov	r1, r2
    eb80:	e1a02003 	mov	r2, r3
    eb84:	ebffe7fb 	bl	8b78 <_init+0x74>
    eb88:	e24bd004 	sub	sp, fp, #4
    eb8c:	e8bd8800 	pop	{fp, pc}

0000eb90 <sdbmhash>:
    eb90:	e92d4800 	push	{fp, lr}
    eb94:	e28db004 	add	fp, sp, #4
    eb98:	e24dd018 	sub	sp, sp, #24
    eb9c:	e50b0010 	str	r0, [fp, #-16]
    eba0:	e50b1014 	str	r1, [fp, #-20]
    eba4:	e50b2018 	str	r2, [fp, #-24]
    eba8:	e3a03000 	mov	r3, #0
    ebac:	e50b300c 	str	r3, [fp, #-12]
    ebb0:	e3a03000 	mov	r3, #0
    ebb4:	e50b3008 	str	r3, [fp, #-8]
    ebb8:	e3a03000 	mov	r3, #0
    ebbc:	e50b3008 	str	r3, [fp, #-8]
    ebc0:	ea000011 	b	ec0c <sdbmhash+0x7c>
    ebc4:	e51b3010 	ldr	r3, [fp, #-16]
    ebc8:	e5d33000 	ldrb	r3, [r3]
    ebcc:	e1a02003 	mov	r2, r3
    ebd0:	e51b300c 	ldr	r3, [fp, #-12]
    ebd4:	e1a03303 	lsl	r3, r3, #6
    ebd8:	e0822003 	add	r2, r2, r3
    ebdc:	e51b300c 	ldr	r3, [fp, #-12]
    ebe0:	e1a03803 	lsl	r3, r3, #16
    ebe4:	e0822003 	add	r2, r2, r3
    ebe8:	e51b300c 	ldr	r3, [fp, #-12]
    ebec:	e0633002 	rsb	r3, r3, r2
    ebf0:	e50b300c 	str	r3, [fp, #-12]
    ebf4:	e51b3010 	ldr	r3, [fp, #-16]
    ebf8:	e2833001 	add	r3, r3, #1
    ebfc:	e50b3010 	str	r3, [fp, #-16]
    ec00:	e51b3008 	ldr	r3, [fp, #-8]
    ec04:	e2833001 	add	r3, r3, #1
    ec08:	e50b3008 	str	r3, [fp, #-8]
    ec0c:	e51b2008 	ldr	r2, [fp, #-8]
    ec10:	e51b3014 	ldr	r3, [fp, #-20]
    ec14:	e1520003 	cmp	r2, r3
    ec18:	3affffe9 	bcc	ebc4 <sdbmhash+0x34>
    ec1c:	e51b2018 	ldr	r2, [fp, #-24]
    ec20:	e24b300c 	sub	r3, fp, #12
    ec24:	e1a01002 	mov	r1, r2
    ec28:	e1a02003 	mov	r2, r3
    ec2c:	e3a03004 	mov	r3, #4
    ec30:	e1a00001 	mov	r0, r1
    ec34:	e1a01002 	mov	r1, r2
    ec38:	e1a02003 	mov	r2, r3
    ec3c:	ebffe7cd 	bl	8b78 <_init+0x74>
    ec40:	e24bd004 	sub	sp, fp, #4
    ec44:	e8bd8800 	pop	{fp, pc}

0000ec48 <djbhash>:
    ec48:	e92d4800 	push	{fp, lr}
    ec4c:	e28db004 	add	fp, sp, #4
    ec50:	e24dd018 	sub	sp, sp, #24
    ec54:	e50b0010 	str	r0, [fp, #-16]
    ec58:	e50b1014 	str	r1, [fp, #-20]
    ec5c:	e50b2018 	str	r2, [fp, #-24]
    ec60:	e59f3088 	ldr	r3, [pc, #136]	; ecf0 <djbhash+0xa8>
    ec64:	e50b300c 	str	r3, [fp, #-12]
    ec68:	e3a03000 	mov	r3, #0
    ec6c:	e50b3008 	str	r3, [fp, #-8]
    ec70:	e3a03000 	mov	r3, #0
    ec74:	e50b3008 	str	r3, [fp, #-8]
    ec78:	ea00000d 	b	ecb4 <djbhash+0x6c>
    ec7c:	e51b300c 	ldr	r3, [fp, #-12]
    ec80:	e1a02283 	lsl	r2, r3, #5
    ec84:	e51b300c 	ldr	r3, [fp, #-12]
    ec88:	e0822003 	add	r2, r2, r3
    ec8c:	e51b3010 	ldr	r3, [fp, #-16]
    ec90:	e5d33000 	ldrb	r3, [r3]
    ec94:	e0823003 	add	r3, r2, r3
    ec98:	e50b300c 	str	r3, [fp, #-12]
    ec9c:	e51b3010 	ldr	r3, [fp, #-16]
    eca0:	e2833001 	add	r3, r3, #1
    eca4:	e50b3010 	str	r3, [fp, #-16]
    eca8:	e51b3008 	ldr	r3, [fp, #-8]
    ecac:	e2833001 	add	r3, r3, #1
    ecb0:	e50b3008 	str	r3, [fp, #-8]
    ecb4:	e51b2008 	ldr	r2, [fp, #-8]
    ecb8:	e51b3014 	ldr	r3, [fp, #-20]
    ecbc:	e1520003 	cmp	r2, r3
    ecc0:	3affffed 	bcc	ec7c <djbhash+0x34>
    ecc4:	e51b2018 	ldr	r2, [fp, #-24]
    ecc8:	e24b300c 	sub	r3, fp, #12
    eccc:	e1a01002 	mov	r1, r2
    ecd0:	e1a02003 	mov	r2, r3
    ecd4:	e3a03004 	mov	r3, #4
    ecd8:	e1a00001 	mov	r0, r1
    ecdc:	e1a01002 	mov	r1, r2
    ece0:	e1a02003 	mov	r2, r3
    ece4:	ebffe7a3 	bl	8b78 <_init+0x74>
    ece8:	e24bd004 	sub	sp, fp, #4
    ecec:	e8bd8800 	pop	{fp, pc}
    ecf0:	00001505 	.word	0x00001505

0000ecf4 <dekhash>:
    ecf4:	e92d4800 	push	{fp, lr}
    ecf8:	e28db004 	add	fp, sp, #4
    ecfc:	e24dd018 	sub	sp, sp, #24
    ed00:	e50b0010 	str	r0, [fp, #-16]
    ed04:	e50b1014 	str	r1, [fp, #-20]
    ed08:	e50b2018 	str	r2, [fp, #-24]
    ed0c:	e51b3014 	ldr	r3, [fp, #-20]
    ed10:	e50b300c 	str	r3, [fp, #-12]
    ed14:	e3a03000 	mov	r3, #0
    ed18:	e50b3008 	str	r3, [fp, #-8]
    ed1c:	e3a03000 	mov	r3, #0
    ed20:	e50b3008 	str	r3, [fp, #-8]
    ed24:	ea00000b 	b	ed58 <dekhash+0x64>
    ed28:	e51b300c 	ldr	r3, [fp, #-12]
    ed2c:	e1a02de3 	ror	r2, r3, #27
    ed30:	e51b3010 	ldr	r3, [fp, #-16]
    ed34:	e5d33000 	ldrb	r3, [r3]
    ed38:	e0223003 	eor	r3, r2, r3
    ed3c:	e50b300c 	str	r3, [fp, #-12]
    ed40:	e51b3010 	ldr	r3, [fp, #-16]
    ed44:	e2833001 	add	r3, r3, #1
    ed48:	e50b3010 	str	r3, [fp, #-16]
    ed4c:	e51b3008 	ldr	r3, [fp, #-8]
    ed50:	e2833001 	add	r3, r3, #1
    ed54:	e50b3008 	str	r3, [fp, #-8]
    ed58:	e51b2008 	ldr	r2, [fp, #-8]
    ed5c:	e51b3014 	ldr	r3, [fp, #-20]
    ed60:	e1520003 	cmp	r2, r3
    ed64:	3affffef 	bcc	ed28 <dekhash+0x34>
    ed68:	e51b2018 	ldr	r2, [fp, #-24]
    ed6c:	e24b300c 	sub	r3, fp, #12
    ed70:	e1a01002 	mov	r1, r2
    ed74:	e1a02003 	mov	r2, r3
    ed78:	e3a03004 	mov	r3, #4
    ed7c:	e1a00001 	mov	r0, r1
    ed80:	e1a01002 	mov	r1, r2
    ed84:	e1a02003 	mov	r2, r3
    ed88:	ebffe77a 	bl	8b78 <_init+0x74>
    ed8c:	e24bd004 	sub	sp, fp, #4
    ed90:	e8bd8800 	pop	{fp, pc}

0000ed94 <bphash>:
    ed94:	e92d4800 	push	{fp, lr}
    ed98:	e28db004 	add	fp, sp, #4
    ed9c:	e24dd018 	sub	sp, sp, #24
    eda0:	e50b0010 	str	r0, [fp, #-16]
    eda4:	e50b1014 	str	r1, [fp, #-20]
    eda8:	e50b2018 	str	r2, [fp, #-24]
    edac:	e3a03000 	mov	r3, #0
    edb0:	e50b300c 	str	r3, [fp, #-12]
    edb4:	e3a03000 	mov	r3, #0
    edb8:	e50b3008 	str	r3, [fp, #-8]
    edbc:	e3a03000 	mov	r3, #0
    edc0:	e50b3008 	str	r3, [fp, #-8]
    edc4:	ea00000b 	b	edf8 <bphash+0x64>
    edc8:	e51b300c 	ldr	r3, [fp, #-12]
    edcc:	e1a02383 	lsl	r2, r3, #7
    edd0:	e51b3010 	ldr	r3, [fp, #-16]
    edd4:	e5d33000 	ldrb	r3, [r3]
    edd8:	e0223003 	eor	r3, r2, r3
    eddc:	e50b300c 	str	r3, [fp, #-12]
    ede0:	e51b3010 	ldr	r3, [fp, #-16]
    ede4:	e2833001 	add	r3, r3, #1
    ede8:	e50b3010 	str	r3, [fp, #-16]
    edec:	e51b3008 	ldr	r3, [fp, #-8]
    edf0:	e2833001 	add	r3, r3, #1
    edf4:	e50b3008 	str	r3, [fp, #-8]
    edf8:	e51b2008 	ldr	r2, [fp, #-8]
    edfc:	e51b3014 	ldr	r3, [fp, #-20]
    ee00:	e1520003 	cmp	r2, r3
    ee04:	3affffef 	bcc	edc8 <bphash+0x34>
    ee08:	e51b2018 	ldr	r2, [fp, #-24]
    ee0c:	e24b300c 	sub	r3, fp, #12
    ee10:	e1a01002 	mov	r1, r2
    ee14:	e1a02003 	mov	r2, r3
    ee18:	e3a03004 	mov	r3, #4
    ee1c:	e1a00001 	mov	r0, r1
    ee20:	e1a01002 	mov	r1, r2
    ee24:	e1a02003 	mov	r2, r3
    ee28:	ebffe752 	bl	8b78 <_init+0x74>
    ee2c:	e24bd004 	sub	sp, fp, #4
    ee30:	e8bd8800 	pop	{fp, pc}

0000ee34 <fnvhash>:
    ee34:	e92d4800 	push	{fp, lr}
    ee38:	e28db004 	add	fp, sp, #4
    ee3c:	e24dd020 	sub	sp, sp, #32
    ee40:	e50b0018 	str	r0, [fp, #-24]
    ee44:	e50b101c 	str	r1, [fp, #-28]
    ee48:	e50b2020 	str	r2, [fp, #-32]
    ee4c:	e59f3098 	ldr	r3, [pc, #152]	; eeec <fnvhash+0xb8>
    ee50:	e50b300c 	str	r3, [fp, #-12]
    ee54:	e3a03000 	mov	r3, #0
    ee58:	e50b3010 	str	r3, [fp, #-16]
    ee5c:	e3a03000 	mov	r3, #0
    ee60:	e50b3008 	str	r3, [fp, #-8]
    ee64:	e3a03000 	mov	r3, #0
    ee68:	e50b3008 	str	r3, [fp, #-8]
    ee6c:	ea00000f 	b	eeb0 <fnvhash+0x7c>
    ee70:	e51b3010 	ldr	r3, [fp, #-16]
    ee74:	e51b200c 	ldr	r2, [fp, #-12]
    ee78:	e0030392 	mul	r3, r2, r3
    ee7c:	e50b3010 	str	r3, [fp, #-16]
    ee80:	e51b3018 	ldr	r3, [fp, #-24]
    ee84:	e5d33000 	ldrb	r3, [r3]
    ee88:	e1a02003 	mov	r2, r3
    ee8c:	e51b3010 	ldr	r3, [fp, #-16]
    ee90:	e0223003 	eor	r3, r2, r3
    ee94:	e50b3010 	str	r3, [fp, #-16]
    ee98:	e51b3018 	ldr	r3, [fp, #-24]
    ee9c:	e2833001 	add	r3, r3, #1
    eea0:	e50b3018 	str	r3, [fp, #-24]
    eea4:	e51b3008 	ldr	r3, [fp, #-8]
    eea8:	e2833001 	add	r3, r3, #1
    eeac:	e50b3008 	str	r3, [fp, #-8]
    eeb0:	e51b2008 	ldr	r2, [fp, #-8]
    eeb4:	e51b301c 	ldr	r3, [fp, #-28]
    eeb8:	e1520003 	cmp	r2, r3
    eebc:	3affffeb 	bcc	ee70 <fnvhash+0x3c>
    eec0:	e51b2020 	ldr	r2, [fp, #-32]
    eec4:	e24b3010 	sub	r3, fp, #16
    eec8:	e1a01002 	mov	r1, r2
    eecc:	e1a02003 	mov	r2, r3
    eed0:	e3a03004 	mov	r3, #4
    eed4:	e1a00001 	mov	r0, r1
    eed8:	e1a01002 	mov	r1, r2
    eedc:	e1a02003 	mov	r2, r3
    eee0:	ebffe724 	bl	8b78 <_init+0x74>
    eee4:	e24bd004 	sub	sp, fp, #4
    eee8:	e8bd8800 	pop	{fp, pc}
    eeec:	811c9dc5 	.word	0x811c9dc5

0000eef0 <xor8>:
    eef0:	e52db004 	push	{fp}		; (str fp, [sp, #-4]!)
    eef4:	e28db000 	add	fp, sp, #0
    eef8:	e24dd01c 	sub	sp, sp, #28
    eefc:	e50b0010 	str	r0, [fp, #-16]
    ef00:	e50b1014 	str	r1, [fp, #-20]
    ef04:	e50b2018 	str	r2, [fp, #-24]
    ef08:	e3e03000 	mvn	r3, #0
    ef0c:	e54b3009 	strb	r3, [fp, #-9]
    ef10:	e3a03000 	mov	r3, #0
    ef14:	e50b3008 	str	r3, [fp, #-8]
    ef18:	ea00000a 	b	ef48 <xor8+0x58>
    ef1c:	e51b2010 	ldr	r2, [fp, #-16]
    ef20:	e51b3008 	ldr	r3, [fp, #-8]
    ef24:	e0823003 	add	r3, r2, r3
    ef28:	e5d32000 	ldrb	r2, [r3]
    ef2c:	e55b3009 	ldrb	r3, [fp, #-9]
    ef30:	e0223003 	eor	r3, r2, r3
    ef34:	e6ef3073 	uxtb	r3, r3
    ef38:	e54b3009 	strb	r3, [fp, #-9]
    ef3c:	e51b3008 	ldr	r3, [fp, #-8]
    ef40:	e2833001 	add	r3, r3, #1
    ef44:	e50b3008 	str	r3, [fp, #-8]
    ef48:	e51b2008 	ldr	r2, [fp, #-8]
    ef4c:	e51b3014 	ldr	r3, [fp, #-20]
    ef50:	e1520003 	cmp	r2, r3
    ef54:	3afffff0 	bcc	ef1c <xor8+0x2c>
    ef58:	e24b3009 	sub	r3, fp, #9
    ef5c:	e5d32000 	ldrb	r2, [r3]
    ef60:	e51b3018 	ldr	r3, [fp, #-24]
    ef64:	e5c32000 	strb	r2, [r3]
    ef68:	e28bd000 	add	sp, fp, #0
    ef6c:	e8bd0800 	pop	{fp}
    ef70:	e12fff1e 	bx	lr

0000ef74 <xor16>:
    ef74:	e92d4800 	push	{fp, lr}
    ef78:	e28db004 	add	fp, sp, #4
    ef7c:	e24dd018 	sub	sp, sp, #24
    ef80:	e50b0010 	str	r0, [fp, #-16]
    ef84:	e50b1014 	str	r1, [fp, #-20]
    ef88:	e50b2018 	str	r2, [fp, #-24]
    ef8c:	e3e03000 	mvn	r3, #0
    ef90:	e14b30ba 	strh	r3, [fp, #-10]
    ef94:	e3a03000 	mov	r3, #0
    ef98:	e50b3008 	str	r3, [fp, #-8]
    ef9c:	ea00000b 	b	efd0 <xor16+0x5c>
    efa0:	e51b3010 	ldr	r3, [fp, #-16]
    efa4:	e1d320b0 	ldrh	r2, [r3]
    efa8:	e15b30ba 	ldrh	r3, [fp, #-10]
    efac:	e0223003 	eor	r3, r2, r3
    efb0:	e6ff3073 	uxth	r3, r3
    efb4:	e14b30ba 	strh	r3, [fp, #-10]
    efb8:	e51b3010 	ldr	r3, [fp, #-16]
    efbc:	e2833002 	add	r3, r3, #2
    efc0:	e50b3010 	str	r3, [fp, #-16]
    efc4:	e51b3008 	ldr	r3, [fp, #-8]
    efc8:	e2833002 	add	r3, r3, #2
    efcc:	e50b3008 	str	r3, [fp, #-8]
    efd0:	e51b2008 	ldr	r2, [fp, #-8]
    efd4:	e51b3014 	ldr	r3, [fp, #-20]
    efd8:	e1520003 	cmp	r2, r3
    efdc:	3affffef 	bcc	efa0 <xor16+0x2c>
    efe0:	e51b2018 	ldr	r2, [fp, #-24]
    efe4:	e24b300a 	sub	r3, fp, #10
    efe8:	e1a01002 	mov	r1, r2
    efec:	e1a02003 	mov	r2, r3
    eff0:	e3a03002 	mov	r3, #2
    eff4:	e1a00001 	mov	r0, r1
    eff8:	e1a01002 	mov	r1, r2
    effc:	e1a02003 	mov	r2, r3
    f000:	ebffe6dc 	bl	8b78 <_init+0x74>
    f004:	e24bd004 	sub	sp, fp, #4
    f008:	e8bd8800 	pop	{fp, pc}

0000f00c <xor32>:
    f00c:	e92d4800 	push	{fp, lr}
    f010:	e28db004 	add	fp, sp, #4
    f014:	e24dd018 	sub	sp, sp, #24
    f018:	e50b0010 	str	r0, [fp, #-16]
    f01c:	e50b1014 	str	r1, [fp, #-20]
    f020:	e50b2018 	str	r2, [fp, #-24]
    f024:	e3e03000 	mvn	r3, #0
    f028:	e50b300c 	str	r3, [fp, #-12]
    f02c:	e3a03000 	mov	r3, #0
    f030:	e50b3008 	str	r3, [fp, #-8]
    f034:	ea00000a 	b	f064 <xor32+0x58>
    f038:	e51b3010 	ldr	r3, [fp, #-16]
    f03c:	e5932000 	ldr	r2, [r3]
    f040:	e51b300c 	ldr	r3, [fp, #-12]
    f044:	e0223003 	eor	r3, r2, r3
    f048:	e50b300c 	str	r3, [fp, #-12]
    f04c:	e51b3010 	ldr	r3, [fp, #-16]
    f050:	e2833004 	add	r3, r3, #4
    f054:	e50b3010 	str	r3, [fp, #-16]
    f058:	e51b3008 	ldr	r3, [fp, #-8]
    f05c:	e2833004 	add	r3, r3, #4
    f060:	e50b3008 	str	r3, [fp, #-8]
    f064:	e51b2008 	ldr	r2, [fp, #-8]
    f068:	e51b3014 	ldr	r3, [fp, #-20]
    f06c:	e1520003 	cmp	r2, r3
    f070:	3afffff0 	bcc	f038 <xor32+0x2c>
    f074:	e51b2018 	ldr	r2, [fp, #-24]
    f078:	e24b300c 	sub	r3, fp, #12
    f07c:	e1a01002 	mov	r1, r2
    f080:	e1a02003 	mov	r2, r3
    f084:	e3a03004 	mov	r3, #4
    f088:	e1a00001 	mov	r0, r1
    f08c:	e1a01002 	mov	r1, r2
    f090:	e1a02003 	mov	r2, r3
    f094:	ebffe6b7 	bl	8b78 <_init+0x74>
    f098:	e24bd004 	sub	sp, fp, #4
    f09c:	e8bd8800 	pop	{fp, pc}

0000f0a0 <sha1_starts>:
    f0a0:	e52db004 	push	{fp}		; (str fp, [sp, #-4]!)
    f0a4:	e28db000 	add	fp, sp, #0
    f0a8:	e24dd00c 	sub	sp, sp, #12
    f0ac:	e50b0008 	str	r0, [fp, #-8]
    f0b0:	e51b3008 	ldr	r3, [fp, #-8]
    f0b4:	e3a02000 	mov	r2, #0
    f0b8:	e5832000 	str	r2, [r3]
    f0bc:	e51b3008 	ldr	r3, [fp, #-8]
    f0c0:	e3a02000 	mov	r2, #0
    f0c4:	e5832004 	str	r2, [r3, #4]
    f0c8:	e51b3008 	ldr	r3, [fp, #-8]
    f0cc:	e59f203c 	ldr	r2, [pc, #60]	; f110 <sha1_starts+0x70>
    f0d0:	e5832008 	str	r2, [r3, #8]
    f0d4:	e51b3008 	ldr	r3, [fp, #-8]
    f0d8:	e59f2034 	ldr	r2, [pc, #52]	; f114 <sha1_starts+0x74>
    f0dc:	e583200c 	str	r2, [r3, #12]
    f0e0:	e51b3008 	ldr	r3, [fp, #-8]
    f0e4:	e59f202c 	ldr	r2, [pc, #44]	; f118 <sha1_starts+0x78>
    f0e8:	e5832010 	str	r2, [r3, #16]
    f0ec:	e51b3008 	ldr	r3, [fp, #-8]
    f0f0:	e59f2024 	ldr	r2, [pc, #36]	; f11c <sha1_starts+0x7c>
    f0f4:	e5832014 	str	r2, [r3, #20]
    f0f8:	e51b3008 	ldr	r3, [fp, #-8]
    f0fc:	e59f201c 	ldr	r2, [pc, #28]	; f120 <sha1_starts+0x80>
    f100:	e5832018 	str	r2, [r3, #24]
    f104:	e28bd000 	add	sp, fp, #0
    f108:	e8bd0800 	pop	{fp}
    f10c:	e12fff1e 	bx	lr
    f110:	67452301 	.word	0x67452301
    f114:	efcdab89 	.word	0xefcdab89
    f118:	98badcfe 	.word	0x98badcfe
    f11c:	10325476 	.word	0x10325476
    f120:	c3d2e1f0 	.word	0xc3d2e1f0

0000f124 <sha1_process>:
    f124:	e52db004 	push	{fp}		; (str fp, [sp, #-4]!)
    f128:	e28db000 	add	fp, sp, #0
    f12c:	e24dd064 	sub	sp, sp, #100	; 0x64
    f130:	e50b0060 	str	r0, [fp, #-96]	; 0x60
    f134:	e50b1064 	str	r1, [fp, #-100]	; 0x64
    f138:	e51b3064 	ldr	r3, [fp, #-100]	; 0x64
    f13c:	e5d33000 	ldrb	r3, [r3]
    f140:	e1a02c03 	lsl	r2, r3, #24
    f144:	e51b3064 	ldr	r3, [fp, #-100]	; 0x64
    f148:	e2833001 	add	r3, r3, #1
    f14c:	e5d33000 	ldrb	r3, [r3]
    f150:	e1a03803 	lsl	r3, r3, #16
    f154:	e1822003 	orr	r2, r2, r3
    f158:	e51b3064 	ldr	r3, [fp, #-100]	; 0x64
    f15c:	e2833002 	add	r3, r3, #2
    f160:	e5d33000 	ldrb	r3, [r3]
    f164:	e1a03403 	lsl	r3, r3, #8
    f168:	e1822003 	orr	r2, r2, r3
    f16c:	e51b3064 	ldr	r3, [fp, #-100]	; 0x64
    f170:	e2833003 	add	r3, r3, #3
    f174:	e5d33000 	ldrb	r3, [r3]
    f178:	e1823003 	orr	r3, r2, r3
    f17c:	e50b305c 	str	r3, [fp, #-92]	; 0x5c
    f180:	e51b3064 	ldr	r3, [fp, #-100]	; 0x64
    f184:	e2833004 	add	r3, r3, #4
    f188:	e5d33000 	ldrb	r3, [r3]
    f18c:	e1a02c03 	lsl	r2, r3, #24
    f190:	e51b3064 	ldr	r3, [fp, #-100]	; 0x64
    f194:	e2833005 	add	r3, r3, #5
    f198:	e5d33000 	ldrb	r3, [r3]
    f19c:	e1a03803 	lsl	r3, r3, #16
    f1a0:	e1822003 	orr	r2, r2, r3
    f1a4:	e51b3064 	ldr	r3, [fp, #-100]	; 0x64
    f1a8:	e2833006 	add	r3, r3, #6
    f1ac:	e5d33000 	ldrb	r3, [r3]
    f1b0:	e1a03403 	lsl	r3, r3, #8
    f1b4:	e1822003 	orr	r2, r2, r3
    f1b8:	e51b3064 	ldr	r3, [fp, #-100]	; 0x64
    f1bc:	e2833007 	add	r3, r3, #7
    f1c0:	e5d33000 	ldrb	r3, [r3]
    f1c4:	e1823003 	orr	r3, r2, r3
    f1c8:	e50b3058 	str	r3, [fp, #-88]	; 0x58
    f1cc:	e51b3064 	ldr	r3, [fp, #-100]	; 0x64
    f1d0:	e2833008 	add	r3, r3, #8
    f1d4:	e5d33000 	ldrb	r3, [r3]
    f1d8:	e1a02c03 	lsl	r2, r3, #24
    f1dc:	e51b3064 	ldr	r3, [fp, #-100]	; 0x64
    f1e0:	e2833009 	add	r3, r3, #9
    f1e4:	e5d33000 	ldrb	r3, [r3]
    f1e8:	e1a03803 	lsl	r3, r3, #16
    f1ec:	e1822003 	orr	r2, r2, r3
    f1f0:	e51b3064 	ldr	r3, [fp, #-100]	; 0x64
    f1f4:	e283300a 	add	r3, r3, #10
    f1f8:	e5d33000 	ldrb	r3, [r3]
    f1fc:	e1a03403 	lsl	r3, r3, #8
    f200:	e1822003 	orr	r2, r2, r3
    f204:	e51b3064 	ldr	r3, [fp, #-100]	; 0x64
    f208:	e283300b 	add	r3, r3, #11
    f20c:	e5d33000 	ldrb	r3, [r3]
    f210:	e1823003 	orr	r3, r2, r3
    f214:	e50b3054 	str	r3, [fp, #-84]	; 0x54
    f218:	e51b3064 	ldr	r3, [fp, #-100]	; 0x64
    f21c:	e283300c 	add	r3, r3, #12
    f220:	e5d33000 	ldrb	r3, [r3]
    f224:	e1a02c03 	lsl	r2, r3, #24
    f228:	e51b3064 	ldr	r3, [fp, #-100]	; 0x64
    f22c:	e283300d 	add	r3, r3, #13
    f230:	e5d33000 	ldrb	r3, [r3]
    f234:	e1a03803 	lsl	r3, r3, #16
    f238:	e1822003 	orr	r2, r2, r3
    f23c:	e51b3064 	ldr	r3, [fp, #-100]	; 0x64
    f240:	e283300e 	add	r3, r3, #14
    f244:	e5d33000 	ldrb	r3, [r3]
    f248:	e1a03403 	lsl	r3, r3, #8
    f24c:	e1822003 	orr	r2, r2, r3
    f250:	e51b3064 	ldr	r3, [fp, #-100]	; 0x64
    f254:	e283300f 	add	r3, r3, #15
    f258:	e5d33000 	ldrb	r3, [r3]
    f25c:	e1823003 	orr	r3, r2, r3
    f260:	e50b3050 	str	r3, [fp, #-80]	; 0x50
    f264:	e51b3064 	ldr	r3, [fp, #-100]	; 0x64
    f268:	e2833010 	add	r3, r3, #16
    f26c:	e5d33000 	ldrb	r3, [r3]
    f270:	e1a02c03 	lsl	r2, r3, #24
    f274:	e51b3064 	ldr	r3, [fp, #-100]	; 0x64
    f278:	e2833011 	add	r3, r3, #17
    f27c:	e5d33000 	ldrb	r3, [r3]
    f280:	e1a03803 	lsl	r3, r3, #16
    f284:	e1822003 	orr	r2, r2, r3
    f288:	e51b3064 	ldr	r3, [fp, #-100]	; 0x64
    f28c:	e2833012 	add	r3, r3, #18
    f290:	e5d33000 	ldrb	r3, [r3]
    f294:	e1a03403 	lsl	r3, r3, #8
    f298:	e1822003 	orr	r2, r2, r3
    f29c:	e51b3064 	ldr	r3, [fp, #-100]	; 0x64
    f2a0:	e2833013 	add	r3, r3, #19
    f2a4:	e5d33000 	ldrb	r3, [r3]
    f2a8:	e1823003 	orr	r3, r2, r3
    f2ac:	e50b304c 	str	r3, [fp, #-76]	; 0x4c
    f2b0:	e51b3064 	ldr	r3, [fp, #-100]	; 0x64
    f2b4:	e2833014 	add	r3, r3, #20
    f2b8:	e5d33000 	ldrb	r3, [r3]
    f2bc:	e1a02c03 	lsl	r2, r3, #24
    f2c0:	e51b3064 	ldr	r3, [fp, #-100]	; 0x64
    f2c4:	e2833015 	add	r3, r3, #21
    f2c8:	e5d33000 	ldrb	r3, [r3]
    f2cc:	e1a03803 	lsl	r3, r3, #16
    f2d0:	e1822003 	orr	r2, r2, r3
    f2d4:	e51b3064 	ldr	r3, [fp, #-100]	; 0x64
    f2d8:	e2833016 	add	r3, r3, #22
    f2dc:	e5d33000 	ldrb	r3, [r3]
    f2e0:	e1a03403 	lsl	r3, r3, #8
    f2e4:	e1822003 	orr	r2, r2, r3
    f2e8:	e51b3064 	ldr	r3, [fp, #-100]	; 0x64
    f2ec:	e2833017 	add	r3, r3, #23
    f2f0:	e5d33000 	ldrb	r3, [r3]
    f2f4:	e1823003 	orr	r3, r2, r3
    f2f8:	e50b3048 	str	r3, [fp, #-72]	; 0x48
    f2fc:	e51b3064 	ldr	r3, [fp, #-100]	; 0x64
    f300:	e2833018 	add	r3, r3, #24
    f304:	e5d33000 	ldrb	r3, [r3]
    f308:	e1a02c03 	lsl	r2, r3, #24
    f30c:	e51b3064 	ldr	r3, [fp, #-100]	; 0x64
    f310:	e2833019 	add	r3, r3, #25
    f314:	e5d33000 	ldrb	r3, [r3]
    f318:	e1a03803 	lsl	r3, r3, #16
    f31c:	e1822003 	orr	r2, r2, r3
    f320:	e51b3064 	ldr	r3, [fp, #-100]	; 0x64
    f324:	e283301a 	add	r3, r3, #26
    f328:	e5d33000 	ldrb	r3, [r3]
    f32c:	e1a03403 	lsl	r3, r3, #8
    f330:	e1822003 	orr	r2, r2, r3
    f334:	e51b3064 	ldr	r3, [fp, #-100]	; 0x64
    f338:	e283301b 	add	r3, r3, #27
    f33c:	e5d33000 	ldrb	r3, [r3]
    f340:	e1823003 	orr	r3, r2, r3
    f344:	e50b3044 	str	r3, [fp, #-68]	; 0x44
    f348:	e51b3064 	ldr	r3, [fp, #-100]	; 0x64
    f34c:	e283301c 	add	r3, r3, #28
    f350:	e5d33000 	ldrb	r3, [r3]
    f354:	e1a02c03 	lsl	r2, r3, #24
    f358:	e51b3064 	ldr	r3, [fp, #-100]	; 0x64
    f35c:	e283301d 	add	r3, r3, #29
    f360:	e5d33000 	ldrb	r3, [r3]
    f364:	e1a03803 	lsl	r3, r3, #16
    f368:	e1822003 	orr	r2, r2, r3
    f36c:	e51b3064 	ldr	r3, [fp, #-100]	; 0x64
    f370:	e283301e 	add	r3, r3, #30
    f374:	e5d33000 	ldrb	r3, [r3]
    f378:	e1a03403 	lsl	r3, r3, #8
    f37c:	e1822003 	orr	r2, r2, r3
    f380:	e51b3064 	ldr	r3, [fp, #-100]	; 0x64
    f384:	e283301f 	add	r3, r3, #31
    f388:	e5d33000 	ldrb	r3, [r3]
    f38c:	e1823003 	orr	r3, r2, r3
    f390:	e50b3040 	str	r3, [fp, #-64]	; 0x40
    f394:	e51b3064 	ldr	r3, [fp, #-100]	; 0x64
    f398:	e2833020 	add	r3, r3, #32
    f39c:	e5d33000 	ldrb	r3, [r3]
    f3a0:	e1a02c03 	lsl	r2, r3, #24
    f3a4:	e51b3064 	ldr	r3, [fp, #-100]	; 0x64
    f3a8:	e2833021 	add	r3, r3, #33	; 0x21
    f3ac:	e5d33000 	ldrb	r3, [r3]
    f3b0:	e1a03803 	lsl	r3, r3, #16
    f3b4:	e1822003 	orr	r2, r2, r3
    f3b8:	e51b3064 	ldr	r3, [fp, #-100]	; 0x64
    f3bc:	e2833022 	add	r3, r3, #34	; 0x22
    f3c0:	e5d33000 	ldrb	r3, [r3]
    f3c4:	e1a03403 	lsl	r3, r3, #8
    f3c8:	e1822003 	orr	r2, r2, r3
    f3cc:	e51b3064 	ldr	r3, [fp, #-100]	; 0x64
    f3d0:	e2833023 	add	r3, r3, #35	; 0x23
    f3d4:	e5d33000 	ldrb	r3, [r3]
    f3d8:	e1823003 	orr	r3, r2, r3
    f3dc:	e50b303c 	str	r3, [fp, #-60]	; 0x3c
    f3e0:	e51b3064 	ldr	r3, [fp, #-100]	; 0x64
    f3e4:	e2833024 	add	r3, r3, #36	; 0x24
    f3e8:	e5d33000 	ldrb	r3, [r3]
    f3ec:	e1a02c03 	lsl	r2, r3, #24
    f3f0:	e51b3064 	ldr	r3, [fp, #-100]	; 0x64
    f3f4:	e2833025 	add	r3, r3, #37	; 0x25
    f3f8:	e5d33000 	ldrb	r3, [r3]
    f3fc:	e1a03803 	lsl	r3, r3, #16
    f400:	e1822003 	orr	r2, r2, r3
    f404:	e51b3064 	ldr	r3, [fp, #-100]	; 0x64
    f408:	e2833026 	add	r3, r3, #38	; 0x26
    f40c:	e5d33000 	ldrb	r3, [r3]
    f410:	e1a03403 	lsl	r3, r3, #8
    f414:	e1822003 	orr	r2, r2, r3
    f418:	e51b3064 	ldr	r3, [fp, #-100]	; 0x64
    f41c:	e2833027 	add	r3, r3, #39	; 0x27
    f420:	e5d33000 	ldrb	r3, [r3]
    f424:	e1823003 	orr	r3, r2, r3
    f428:	e50b3038 	str	r3, [fp, #-56]	; 0x38
    f42c:	e51b3064 	ldr	r3, [fp, #-100]	; 0x64
    f430:	e2833028 	add	r3, r3, #40	; 0x28
    f434:	e5d33000 	ldrb	r3, [r3]
    f438:	e1a02c03 	lsl	r2, r3, #24
    f43c:	e51b3064 	ldr	r3, [fp, #-100]	; 0x64
    f440:	e2833029 	add	r3, r3, #41	; 0x29
    f444:	e5d33000 	ldrb	r3, [r3]
    f448:	e1a03803 	lsl	r3, r3, #16
    f44c:	e1822003 	orr	r2, r2, r3
    f450:	e51b3064 	ldr	r3, [fp, #-100]	; 0x64
    f454:	e283302a 	add	r3, r3, #42	; 0x2a
    f458:	e5d33000 	ldrb	r3, [r3]
    f45c:	e1a03403 	lsl	r3, r3, #8
    f460:	e1822003 	orr	r2, r2, r3
    f464:	e51b3064 	ldr	r3, [fp, #-100]	; 0x64
    f468:	e283302b 	add	r3, r3, #43	; 0x2b
    f46c:	e5d33000 	ldrb	r3, [r3]
    f470:	e1823003 	orr	r3, r2, r3
    f474:	e50b3034 	str	r3, [fp, #-52]	; 0x34
    f478:	e51b3064 	ldr	r3, [fp, #-100]	; 0x64
    f47c:	e283302c 	add	r3, r3, #44	; 0x2c
    f480:	e5d33000 	ldrb	r3, [r3]
    f484:	e1a02c03 	lsl	r2, r3, #24
    f488:	e51b3064 	ldr	r3, [fp, #-100]	; 0x64
    f48c:	e283302d 	add	r3, r3, #45	; 0x2d
    f490:	e5d33000 	ldrb	r3, [r3]
    f494:	e1a03803 	lsl	r3, r3, #16
    f498:	e1822003 	orr	r2, r2, r3
    f49c:	e51b3064 	ldr	r3, [fp, #-100]	; 0x64
    f4a0:	e283302e 	add	r3, r3, #46	; 0x2e
    f4a4:	e5d33000 	ldrb	r3, [r3]
    f4a8:	e1a03403 	lsl	r3, r3, #8
    f4ac:	e1822003 	orr	r2, r2, r3
    f4b0:	e51b3064 	ldr	r3, [fp, #-100]	; 0x64
    f4b4:	e283302f 	add	r3, r3, #47	; 0x2f
    f4b8:	e5d33000 	ldrb	r3, [r3]
    f4bc:	e1823003 	orr	r3, r2, r3
    f4c0:	e50b3030 	str	r3, [fp, #-48]	; 0x30
    f4c4:	e51b3064 	ldr	r3, [fp, #-100]	; 0x64
    f4c8:	e2833030 	add	r3, r3, #48	; 0x30
    f4cc:	e5d33000 	ldrb	r3, [r3]
    f4d0:	e1a02c03 	lsl	r2, r3, #24
    f4d4:	e51b3064 	ldr	r3, [fp, #-100]	; 0x64
    f4d8:	e2833031 	add	r3, r3, #49	; 0x31
    f4dc:	e5d33000 	ldrb	r3, [r3]
    f4e0:	e1a03803 	lsl	r3, r3, #16
    f4e4:	e1822003 	orr	r2, r2, r3
    f4e8:	e51b3064 	ldr	r3, [fp, #-100]	; 0x64
    f4ec:	e2833032 	add	r3, r3, #50	; 0x32
    f4f0:	e5d33000 	ldrb	r3, [r3]
    f4f4:	e1a03403 	lsl	r3, r3, #8
    f4f8:	e1822003 	orr	r2, r2, r3
    f4fc:	e51b3064 	ldr	r3, [fp, #-100]	; 0x64
    f500:	e2833033 	add	r3, r3, #51	; 0x33
    f504:	e5d33000 	ldrb	r3, [r3]
    f508:	e1823003 	orr	r3, r2, r3
    f50c:	e50b302c 	str	r3, [fp, #-44]	; 0x2c
    f510:	e51b3064 	ldr	r3, [fp, #-100]	; 0x64
    f514:	e2833034 	add	r3, r3, #52	; 0x34
    f518:	e5d33000 	ldrb	r3, [r3]
    f51c:	e1a02c03 	lsl	r2, r3, #24
    f520:	e51b3064 	ldr	r3, [fp, #-100]	; 0x64
    f524:	e2833035 	add	r3, r3, #53	; 0x35
    f528:	e5d33000 	ldrb	r3, [r3]
    f52c:	e1a03803 	lsl	r3, r3, #16
    f530:	e1822003 	orr	r2, r2, r3
    f534:	e51b3064 	ldr	r3, [fp, #-100]	; 0x64
    f538:	e2833036 	add	r3, r3, #54	; 0x36
    f53c:	e5d33000 	ldrb	r3, [r3]
    f540:	e1a03403 	lsl	r3, r3, #8
    f544:	e1822003 	orr	r2, r2, r3
    f548:	e51b3064 	ldr	r3, [fp, #-100]	; 0x64
    f54c:	e2833037 	add	r3, r3, #55	; 0x37
    f550:	e5d33000 	ldrb	r3, [r3]
    f554:	e1823003 	orr	r3, r2, r3
    f558:	e50b3028 	str	r3, [fp, #-40]	; 0x28
    f55c:	e51b3064 	ldr	r3, [fp, #-100]	; 0x64
    f560:	e2833038 	add	r3, r3, #56	; 0x38
    f564:	e5d33000 	ldrb	r3, [r3]
    f568:	e1a02c03 	lsl	r2, r3, #24
    f56c:	e51b3064 	ldr	r3, [fp, #-100]	; 0x64
    f570:	e2833039 	add	r3, r3, #57	; 0x39
    f574:	e5d33000 	ldrb	r3, [r3]
    f578:	e1a03803 	lsl	r3, r3, #16
    f57c:	e1822003 	orr	r2, r2, r3
    f580:	e51b3064 	ldr	r3, [fp, #-100]	; 0x64
    f584:	e283303a 	add	r3, r3, #58	; 0x3a
    f588:	e5d33000 	ldrb	r3, [r3]
    f58c:	e1a03403 	lsl	r3, r3, #8
    f590:	e1822003 	orr	r2, r2, r3
    f594:	e51b3064 	ldr	r3, [fp, #-100]	; 0x64
    f598:	e283303b 	add	r3, r3, #59	; 0x3b
    f59c:	e5d33000 	ldrb	r3, [r3]
    f5a0:	e1823003 	orr	r3, r2, r3
    f5a4:	e50b3024 	str	r3, [fp, #-36]	; 0x24
    f5a8:	e51b3064 	ldr	r3, [fp, #-100]	; 0x64
    f5ac:	e283303c 	add	r3, r3, #60	; 0x3c
    f5b0:	e5d33000 	ldrb	r3, [r3]
    f5b4:	e1a02c03 	lsl	r2, r3, #24
    f5b8:	e51b3064 	ldr	r3, [fp, #-100]	; 0x64
    f5bc:	e283303d 	add	r3, r3, #61	; 0x3d
    f5c0:	e5d33000 	ldrb	r3, [r3]
    f5c4:	e1a03803 	lsl	r3, r3, #16
    f5c8:	e1822003 	orr	r2, r2, r3
    f5cc:	e51b3064 	ldr	r3, [fp, #-100]	; 0x64
    f5d0:	e283303e 	add	r3, r3, #62	; 0x3e
    f5d4:	e5d33000 	ldrb	r3, [r3]
    f5d8:	e1a03403 	lsl	r3, r3, #8
    f5dc:	e1822003 	orr	r2, r2, r3
    f5e0:	e51b3064 	ldr	r3, [fp, #-100]	; 0x64
    f5e4:	e283303f 	add	r3, r3, #63	; 0x3f
    f5e8:	e5d33000 	ldrb	r3, [r3]
    f5ec:	e1823003 	orr	r3, r2, r3
    f5f0:	e50b3020 	str	r3, [fp, #-32]
    f5f4:	e51b3060 	ldr	r3, [fp, #-96]	; 0x60
    f5f8:	e5933008 	ldr	r3, [r3, #8]
    f5fc:	e50b3008 	str	r3, [fp, #-8]
    f600:	e51b3060 	ldr	r3, [fp, #-96]	; 0x60
    f604:	e593300c 	ldr	r3, [r3, #12]
    f608:	e50b300c 	str	r3, [fp, #-12]
    f60c:	e51b3060 	ldr	r3, [fp, #-96]	; 0x60
    f610:	e5933010 	ldr	r3, [r3, #16]
    f614:	e50b3010 	str	r3, [fp, #-16]
    f618:	e51b3060 	ldr	r3, [fp, #-96]	; 0x60
    f61c:	e5933014 	ldr	r3, [r3, #20]
    f620:	e50b3014 	str	r3, [fp, #-20]
    f624:	e51b3060 	ldr	r3, [fp, #-96]	; 0x60
    f628:	e5933018 	ldr	r3, [r3, #24]
    f62c:	e50b3018 	str	r3, [fp, #-24]
    f630:	e51b3008 	ldr	r3, [fp, #-8]
    f634:	e1a02de3 	ror	r2, r3, #27
    f638:	e51b1010 	ldr	r1, [fp, #-16]
    f63c:	e51b3014 	ldr	r3, [fp, #-20]
    f640:	e0211003 	eor	r1, r1, r3
    f644:	e51b300c 	ldr	r3, [fp, #-12]
    f648:	e0011003 	and	r1, r1, r3
    f64c:	e51b3014 	ldr	r3, [fp, #-20]
    f650:	e0213003 	eor	r3, r1, r3
    f654:	e0822003 	add	r2, r2, r3
    f658:	e51b305c 	ldr	r3, [fp, #-92]	; 0x5c
    f65c:	e0822003 	add	r2, r2, r3
    f660:	e51b3018 	ldr	r3, [fp, #-24]
    f664:	e0822003 	add	r2, r2, r3
    f668:	e59f3ff8 	ldr	r3, [pc, #4088]	; 10668 <sha1_process+0x1544>
    f66c:	e0823003 	add	r3, r2, r3
    f670:	e50b3018 	str	r3, [fp, #-24]
    f674:	e51b300c 	ldr	r3, [fp, #-12]
    f678:	e1a03163 	ror	r3, r3, #2
    f67c:	e50b300c 	str	r3, [fp, #-12]
    f680:	e51b3018 	ldr	r3, [fp, #-24]
    f684:	e1a02de3 	ror	r2, r3, #27
    f688:	e51b100c 	ldr	r1, [fp, #-12]
    f68c:	e51b3010 	ldr	r3, [fp, #-16]
    f690:	e0211003 	eor	r1, r1, r3
    f694:	e51b3008 	ldr	r3, [fp, #-8]
    f698:	e0011003 	and	r1, r1, r3
    f69c:	e51b3010 	ldr	r3, [fp, #-16]
    f6a0:	e0213003 	eor	r3, r1, r3
    f6a4:	e0822003 	add	r2, r2, r3
    f6a8:	e51b3058 	ldr	r3, [fp, #-88]	; 0x58
    f6ac:	e0822003 	add	r2, r2, r3
    f6b0:	e51b3014 	ldr	r3, [fp, #-20]
    f6b4:	e0822003 	add	r2, r2, r3
    f6b8:	e59f3fa8 	ldr	r3, [pc, #4008]	; 10668 <sha1_process+0x1544>
    f6bc:	e0823003 	add	r3, r2, r3
    f6c0:	e50b3014 	str	r3, [fp, #-20]
    f6c4:	e51b3008 	ldr	r3, [fp, #-8]
    f6c8:	e1a03163 	ror	r3, r3, #2
    f6cc:	e50b3008 	str	r3, [fp, #-8]
    f6d0:	e51b3014 	ldr	r3, [fp, #-20]
    f6d4:	e1a02de3 	ror	r2, r3, #27
    f6d8:	e51b1008 	ldr	r1, [fp, #-8]
    f6dc:	e51b300c 	ldr	r3, [fp, #-12]
    f6e0:	e0211003 	eor	r1, r1, r3
    f6e4:	e51b3018 	ldr	r3, [fp, #-24]
    f6e8:	e0011003 	and	r1, r1, r3
    f6ec:	e51b300c 	ldr	r3, [fp, #-12]
    f6f0:	e0213003 	eor	r3, r1, r3
    f6f4:	e0822003 	add	r2, r2, r3
    f6f8:	e51b3054 	ldr	r3, [fp, #-84]	; 0x54
    f6fc:	e0822003 	add	r2, r2, r3
    f700:	e51b3010 	ldr	r3, [fp, #-16]
    f704:	e0822003 	add	r2, r2, r3
    f708:	e59f3f58 	ldr	r3, [pc, #3928]	; 10668 <sha1_process+0x1544>
    f70c:	e0823003 	add	r3, r2, r3
    f710:	e50b3010 	str	r3, [fp, #-16]
    f714:	e51b3018 	ldr	r3, [fp, #-24]
    f718:	e1a03163 	ror	r3, r3, #2
    f71c:	e50b3018 	str	r3, [fp, #-24]
    f720:	e51b3010 	ldr	r3, [fp, #-16]
    f724:	e1a02de3 	ror	r2, r3, #27
    f728:	e51b1018 	ldr	r1, [fp, #-24]
    f72c:	e51b3008 	ldr	r3, [fp, #-8]
    f730:	e0211003 	eor	r1, r1, r3
    f734:	e51b3014 	ldr	r3, [fp, #-20]
    f738:	e0011003 	and	r1, r1, r3
    f73c:	e51b3008 	ldr	r3, [fp, #-8]
    f740:	e0213003 	eor	r3, r1, r3
    f744:	e0822003 	add	r2, r2, r3
    f748:	e51b3050 	ldr	r3, [fp, #-80]	; 0x50
    f74c:	e0822003 	add	r2, r2, r3
    f750:	e51b300c 	ldr	r3, [fp, #-12]
    f754:	e0822003 	add	r2, r2, r3
    f758:	e59f3f08 	ldr	r3, [pc, #3848]	; 10668 <sha1_process+0x1544>
    f75c:	e0823003 	add	r3, r2, r3
    f760:	e50b300c 	str	r3, [fp, #-12]
    f764:	e51b3014 	ldr	r3, [fp, #-20]
    f768:	e1a03163 	ror	r3, r3, #2
    f76c:	e50b3014 	str	r3, [fp, #-20]
    f770:	e51b300c 	ldr	r3, [fp, #-12]
    f774:	e1a02de3 	ror	r2, r3, #27
    f778:	e51b1014 	ldr	r1, [fp, #-20]
    f77c:	e51b3018 	ldr	r3, [fp, #-24]
    f780:	e0211003 	eor	r1, r1, r3
    f784:	e51b3010 	ldr	r3, [fp, #-16]
    f788:	e0011003 	and	r1, r1, r3
    f78c:	e51b3018 	ldr	r3, [fp, #-24]
    f790:	e0213003 	eor	r3, r1, r3
    f794:	e0822003 	add	r2, r2, r3
    f798:	e51b304c 	ldr	r3, [fp, #-76]	; 0x4c
    f79c:	e0822003 	add	r2, r2, r3
    f7a0:	e51b3008 	ldr	r3, [fp, #-8]
    f7a4:	e0822003 	add	r2, r2, r3
    f7a8:	e59f3eb8 	ldr	r3, [pc, #3768]	; 10668 <sha1_process+0x1544>
    f7ac:	e0823003 	add	r3, r2, r3
    f7b0:	e50b3008 	str	r3, [fp, #-8]
    f7b4:	e51b3010 	ldr	r3, [fp, #-16]
    f7b8:	e1a03163 	ror	r3, r3, #2
    f7bc:	e50b3010 	str	r3, [fp, #-16]
    f7c0:	e51b3008 	ldr	r3, [fp, #-8]
    f7c4:	e1a02de3 	ror	r2, r3, #27
    f7c8:	e51b1010 	ldr	r1, [fp, #-16]
    f7cc:	e51b3014 	ldr	r3, [fp, #-20]
    f7d0:	e0211003 	eor	r1, r1, r3
    f7d4:	e51b300c 	ldr	r3, [fp, #-12]
    f7d8:	e0011003 	and	r1, r1, r3
    f7dc:	e51b3014 	ldr	r3, [fp, #-20]
    f7e0:	e0213003 	eor	r3, r1, r3
    f7e4:	e0822003 	add	r2, r2, r3
    f7e8:	e51b3048 	ldr	r3, [fp, #-72]	; 0x48
    f7ec:	e0822003 	add	r2, r2, r3
    f7f0:	e51b3018 	ldr	r3, [fp, #-24]
    f7f4:	e0822003 	add	r2, r2, r3
    f7f8:	e59f3e68 	ldr	r3, [pc, #3688]	; 10668 <sha1_process+0x1544>
    f7fc:	e0823003 	add	r3, r2, r3
    f800:	e50b3018 	str	r3, [fp, #-24]
    f804:	e51b300c 	ldr	r3, [fp, #-12]
    f808:	e1a03163 	ror	r3, r3, #2
    f80c:	e50b300c 	str	r3, [fp, #-12]
    f810:	e51b3018 	ldr	r3, [fp, #-24]
    f814:	e1a02de3 	ror	r2, r3, #27
    f818:	e51b100c 	ldr	r1, [fp, #-12]
    f81c:	e51b3010 	ldr	r3, [fp, #-16]
    f820:	e0211003 	eor	r1, r1, r3
    f824:	e51b3008 	ldr	r3, [fp, #-8]
    f828:	e0011003 	and	r1, r1, r3
    f82c:	e51b3010 	ldr	r3, [fp, #-16]
    f830:	e0213003 	eor	r3, r1, r3
    f834:	e0822003 	add	r2, r2, r3
    f838:	e51b3044 	ldr	r3, [fp, #-68]	; 0x44
    f83c:	e0822003 	add	r2, r2, r3
    f840:	e51b3014 	ldr	r3, [fp, #-20]
    f844:	e0822003 	add	r2, r2, r3
    f848:	e59f3e18 	ldr	r3, [pc, #3608]	; 10668 <sha1_process+0x1544>
    f84c:	e0823003 	add	r3, r2, r3
    f850:	e50b3014 	str	r3, [fp, #-20]
    f854:	e51b3008 	ldr	r3, [fp, #-8]
    f858:	e1a03163 	ror	r3, r3, #2
    f85c:	e50b3008 	str	r3, [fp, #-8]
    f860:	e51b3014 	ldr	r3, [fp, #-20]
    f864:	e1a02de3 	ror	r2, r3, #27
    f868:	e51b1008 	ldr	r1, [fp, #-8]
    f86c:	e51b300c 	ldr	r3, [fp, #-12]
    f870:	e0211003 	eor	r1, r1, r3
    f874:	e51b3018 	ldr	r3, [fp, #-24]
    f878:	e0011003 	and	r1, r1, r3
    f87c:	e51b300c 	ldr	r3, [fp, #-12]
    f880:	e0213003 	eor	r3, r1, r3
    f884:	e0822003 	add	r2, r2, r3
    f888:	e51b3040 	ldr	r3, [fp, #-64]	; 0x40
    f88c:	e0822003 	add	r2, r2, r3
    f890:	e51b3010 	ldr	r3, [fp, #-16]
    f894:	e0822003 	add	r2, r2, r3
    f898:	e59f3dc8 	ldr	r3, [pc, #3528]	; 10668 <sha1_process+0x1544>
    f89c:	e0823003 	add	r3, r2, r3
    f8a0:	e50b3010 	str	r3, [fp, #-16]
    f8a4:	e51b3018 	ldr	r3, [fp, #-24]
    f8a8:	e1a03163 	ror	r3, r3, #2
    f8ac:	e50b3018 	str	r3, [fp, #-24]
    f8b0:	e51b3010 	ldr	r3, [fp, #-16]
    f8b4:	e1a02de3 	ror	r2, r3, #27
    f8b8:	e51b1018 	ldr	r1, [fp, #-24]
    f8bc:	e51b3008 	ldr	r3, [fp, #-8]
    f8c0:	e0211003 	eor	r1, r1, r3
    f8c4:	e51b3014 	ldr	r3, [fp, #-20]
    f8c8:	e0011003 	and	r1, r1, r3
    f8cc:	e51b3008 	ldr	r3, [fp, #-8]
    f8d0:	e0213003 	eor	r3, r1, r3
    f8d4:	e0822003 	add	r2, r2, r3
    f8d8:	e51b303c 	ldr	r3, [fp, #-60]	; 0x3c
    f8dc:	e0822003 	add	r2, r2, r3
    f8e0:	e51b300c 	ldr	r3, [fp, #-12]
    f8e4:	e0822003 	add	r2, r2, r3
    f8e8:	e59f3d78 	ldr	r3, [pc, #3448]	; 10668 <sha1_process+0x1544>
    f8ec:	e0823003 	add	r3, r2, r3
    f8f0:	e50b300c 	str	r3, [fp, #-12]
    f8f4:	e51b3014 	ldr	r3, [fp, #-20]
    f8f8:	e1a03163 	ror	r3, r3, #2
    f8fc:	e50b3014 	str	r3, [fp, #-20]
    f900:	e51b300c 	ldr	r3, [fp, #-12]
    f904:	e1a02de3 	ror	r2, r3, #27
    f908:	e51b1014 	ldr	r1, [fp, #-20]
    f90c:	e51b3018 	ldr	r3, [fp, #-24]
    f910:	e0211003 	eor	r1, r1, r3
    f914:	e51b3010 	ldr	r3, [fp, #-16]
    f918:	e0011003 	and	r1, r1, r3
    f91c:	e51b3018 	ldr	r3, [fp, #-24]
    f920:	e0213003 	eor	r3, r1, r3
    f924:	e0822003 	add	r2, r2, r3
    f928:	e51b3038 	ldr	r3, [fp, #-56]	; 0x38
    f92c:	e0822003 	add	r2, r2, r3
    f930:	e51b3008 	ldr	r3, [fp, #-8]
    f934:	e0822003 	add	r2, r2, r3
    f938:	e59f3d28 	ldr	r3, [pc, #3368]	; 10668 <sha1_process+0x1544>
    f93c:	e0823003 	add	r3, r2, r3
    f940:	e50b3008 	str	r3, [fp, #-8]
    f944:	e51b3010 	ldr	r3, [fp, #-16]
    f948:	e1a03163 	ror	r3, r3, #2
    f94c:	e50b3010 	str	r3, [fp, #-16]
    f950:	e51b3008 	ldr	r3, [fp, #-8]
    f954:	e1a02de3 	ror	r2, r3, #27
    f958:	e51b1010 	ldr	r1, [fp, #-16]
    f95c:	e51b3014 	ldr	r3, [fp, #-20]
    f960:	e0211003 	eor	r1, r1, r3
    f964:	e51b300c 	ldr	r3, [fp, #-12]
    f968:	e0011003 	and	r1, r1, r3
    f96c:	e51b3014 	ldr	r3, [fp, #-20]
    f970:	e0213003 	eor	r3, r1, r3
    f974:	e0822003 	add	r2, r2, r3
    f978:	e51b3034 	ldr	r3, [fp, #-52]	; 0x34
    f97c:	e0822003 	add	r2, r2, r3
    f980:	e51b3018 	ldr	r3, [fp, #-24]
    f984:	e0822003 	add	r2, r2, r3
    f988:	e59f3cd8 	ldr	r3, [pc, #3288]	; 10668 <sha1_process+0x1544>
    f98c:	e0823003 	add	r3, r2, r3
    f990:	e50b3018 	str	r3, [fp, #-24]
    f994:	e51b300c 	ldr	r3, [fp, #-12]
    f998:	e1a03163 	ror	r3, r3, #2
    f99c:	e50b300c 	str	r3, [fp, #-12]
    f9a0:	e51b3018 	ldr	r3, [fp, #-24]
    f9a4:	e1a02de3 	ror	r2, r3, #27
    f9a8:	e51b100c 	ldr	r1, [fp, #-12]
    f9ac:	e51b3010 	ldr	r3, [fp, #-16]
    f9b0:	e0211003 	eor	r1, r1, r3
    f9b4:	e51b3008 	ldr	r3, [fp, #-8]
    f9b8:	e0011003 	and	r1, r1, r3
    f9bc:	e51b3010 	ldr	r3, [fp, #-16]
    f9c0:	e0213003 	eor	r3, r1, r3
    f9c4:	e0822003 	add	r2, r2, r3
    f9c8:	e51b3030 	ldr	r3, [fp, #-48]	; 0x30
    f9cc:	e0822003 	add	r2, r2, r3
    f9d0:	e51b3014 	ldr	r3, [fp, #-20]
    f9d4:	e0822003 	add	r2, r2, r3
    f9d8:	e59f3c88 	ldr	r3, [pc, #3208]	; 10668 <sha1_process+0x1544>
    f9dc:	e0823003 	add	r3, r2, r3
    f9e0:	e50b3014 	str	r3, [fp, #-20]
    f9e4:	e51b3008 	ldr	r3, [fp, #-8]
    f9e8:	e1a03163 	ror	r3, r3, #2
    f9ec:	e50b3008 	str	r3, [fp, #-8]
    f9f0:	e51b3014 	ldr	r3, [fp, #-20]
    f9f4:	e1a02de3 	ror	r2, r3, #27
    f9f8:	e51b1008 	ldr	r1, [fp, #-8]
    f9fc:	e51b300c 	ldr	r3, [fp, #-12]
    fa00:	e0211003 	eor	r1, r1, r3
    fa04:	e51b3018 	ldr	r3, [fp, #-24]
    fa08:	e0011003 	and	r1, r1, r3
    fa0c:	e51b300c 	ldr	r3, [fp, #-12]
    fa10:	e0213003 	eor	r3, r1, r3
    fa14:	e0822003 	add	r2, r2, r3
    fa18:	e51b302c 	ldr	r3, [fp, #-44]	; 0x2c
    fa1c:	e0822003 	add	r2, r2, r3
    fa20:	e51b3010 	ldr	r3, [fp, #-16]
    fa24:	e0822003 	add	r2, r2, r3
    fa28:	e59f3c38 	ldr	r3, [pc, #3128]	; 10668 <sha1_process+0x1544>
    fa2c:	e0823003 	add	r3, r2, r3
    fa30:	e50b3010 	str	r3, [fp, #-16]
    fa34:	e51b3018 	ldr	r3, [fp, #-24]
    fa38:	e1a03163 	ror	r3, r3, #2
    fa3c:	e50b3018 	str	r3, [fp, #-24]
    fa40:	e51b3010 	ldr	r3, [fp, #-16]
    fa44:	e1a02de3 	ror	r2, r3, #27
    fa48:	e51b1018 	ldr	r1, [fp, #-24]
    fa4c:	e51b3008 	ldr	r3, [fp, #-8]
    fa50:	e0211003 	eor	r1, r1, r3
    fa54:	e51b3014 	ldr	r3, [fp, #-20]
    fa58:	e0011003 	and	r1, r1, r3
    fa5c:	e51b3008 	ldr	r3, [fp, #-8]
    fa60:	e0213003 	eor	r3, r1, r3
    fa64:	e0822003 	add	r2, r2, r3
    fa68:	e51b3028 	ldr	r3, [fp, #-40]	; 0x28
    fa6c:	e0822003 	add	r2, r2, r3
    fa70:	e51b300c 	ldr	r3, [fp, #-12]
    fa74:	e0822003 	add	r2, r2, r3
    fa78:	e59f3be8 	ldr	r3, [pc, #3048]	; 10668 <sha1_process+0x1544>
    fa7c:	e0823003 	add	r3, r2, r3
    fa80:	e50b300c 	str	r3, [fp, #-12]
    fa84:	e51b3014 	ldr	r3, [fp, #-20]
    fa88:	e1a03163 	ror	r3, r3, #2
    fa8c:	e50b3014 	str	r3, [fp, #-20]
    fa90:	e51b300c 	ldr	r3, [fp, #-12]
    fa94:	e1a02de3 	ror	r2, r3, #27
    fa98:	e51b1014 	ldr	r1, [fp, #-20]
    fa9c:	e51b3018 	ldr	r3, [fp, #-24]
    faa0:	e0211003 	eor	r1, r1, r3
    faa4:	e51b3010 	ldr	r3, [fp, #-16]
    faa8:	e0011003 	and	r1, r1, r3
    faac:	e51b3018 	ldr	r3, [fp, #-24]
    fab0:	e0213003 	eor	r3, r1, r3
    fab4:	e0822003 	add	r2, r2, r3
    fab8:	e51b3024 	ldr	r3, [fp, #-36]	; 0x24
    fabc:	e0822003 	add	r2, r2, r3
    fac0:	e51b3008 	ldr	r3, [fp, #-8]
    fac4:	e0822003 	add	r2, r2, r3
    fac8:	e59f3b98 	ldr	r3, [pc, #2968]	; 10668 <sha1_process+0x1544>
    facc:	e0823003 	add	r3, r2, r3
    fad0:	e50b3008 	str	r3, [fp, #-8]
    fad4:	e51b3010 	ldr	r3, [fp, #-16]
    fad8:	e1a03163 	ror	r3, r3, #2
    fadc:	e50b3010 	str	r3, [fp, #-16]
    fae0:	e51b3008 	ldr	r3, [fp, #-8]
    fae4:	e1a02de3 	ror	r2, r3, #27
    fae8:	e51b1010 	ldr	r1, [fp, #-16]
    faec:	e51b3014 	ldr	r3, [fp, #-20]
    faf0:	e0211003 	eor	r1, r1, r3
    faf4:	e51b300c 	ldr	r3, [fp, #-12]
    faf8:	e0011003 	and	r1, r1, r3
    fafc:	e51b3014 	ldr	r3, [fp, #-20]
    fb00:	e0213003 	eor	r3, r1, r3
    fb04:	e0822003 	add	r2, r2, r3
    fb08:	e51b3020 	ldr	r3, [fp, #-32]
    fb0c:	e0822003 	add	r2, r2, r3
    fb10:	e51b3018 	ldr	r3, [fp, #-24]
    fb14:	e0822003 	add	r2, r2, r3
    fb18:	e59f3b48 	ldr	r3, [pc, #2888]	; 10668 <sha1_process+0x1544>
    fb1c:	e0823003 	add	r3, r2, r3
    fb20:	e50b3018 	str	r3, [fp, #-24]
    fb24:	e51b300c 	ldr	r3, [fp, #-12]
    fb28:	e1a03163 	ror	r3, r3, #2
    fb2c:	e50b300c 	str	r3, [fp, #-12]
    fb30:	e51b2028 	ldr	r2, [fp, #-40]	; 0x28
    fb34:	e51b303c 	ldr	r3, [fp, #-60]	; 0x3c
    fb38:	e0222003 	eor	r2, r2, r3
    fb3c:	e51b3054 	ldr	r3, [fp, #-84]	; 0x54
    fb40:	e0222003 	eor	r2, r2, r3
    fb44:	e51b305c 	ldr	r3, [fp, #-92]	; 0x5c
    fb48:	e0223003 	eor	r3, r2, r3
    fb4c:	e50b301c 	str	r3, [fp, #-28]
    fb50:	e51b3018 	ldr	r3, [fp, #-24]
    fb54:	e1a02de3 	ror	r2, r3, #27
    fb58:	e51b100c 	ldr	r1, [fp, #-12]
    fb5c:	e51b3010 	ldr	r3, [fp, #-16]
    fb60:	e0211003 	eor	r1, r1, r3
    fb64:	e51b3008 	ldr	r3, [fp, #-8]
    fb68:	e0011003 	and	r1, r1, r3
    fb6c:	e51b3010 	ldr	r3, [fp, #-16]
    fb70:	e0213003 	eor	r3, r1, r3
    fb74:	e0822003 	add	r2, r2, r3
    fb78:	e51b301c 	ldr	r3, [fp, #-28]
    fb7c:	e1a03fe3 	ror	r3, r3, #31
    fb80:	e50b305c 	str	r3, [fp, #-92]	; 0x5c
    fb84:	e51b305c 	ldr	r3, [fp, #-92]	; 0x5c
    fb88:	e0822003 	add	r2, r2, r3
    fb8c:	e51b3014 	ldr	r3, [fp, #-20]
    fb90:	e0822003 	add	r2, r2, r3
    fb94:	e59f3acc 	ldr	r3, [pc, #2764]	; 10668 <sha1_process+0x1544>
    fb98:	e0823003 	add	r3, r2, r3
    fb9c:	e50b3014 	str	r3, [fp, #-20]
    fba0:	e51b3008 	ldr	r3, [fp, #-8]
    fba4:	e1a03163 	ror	r3, r3, #2
    fba8:	e50b3008 	str	r3, [fp, #-8]
    fbac:	e51b2024 	ldr	r2, [fp, #-36]	; 0x24
    fbb0:	e51b3038 	ldr	r3, [fp, #-56]	; 0x38
    fbb4:	e0222003 	eor	r2, r2, r3
    fbb8:	e51b3050 	ldr	r3, [fp, #-80]	; 0x50
    fbbc:	e0222003 	eor	r2, r2, r3
    fbc0:	e51b3058 	ldr	r3, [fp, #-88]	; 0x58
    fbc4:	e0223003 	eor	r3, r2, r3
    fbc8:	e50b301c 	str	r3, [fp, #-28]
    fbcc:	e51b3014 	ldr	r3, [fp, #-20]
    fbd0:	e1a02de3 	ror	r2, r3, #27
    fbd4:	e51b1008 	ldr	r1, [fp, #-8]
    fbd8:	e51b300c 	ldr	r3, [fp, #-12]
    fbdc:	e0211003 	eor	r1, r1, r3
    fbe0:	e51b3018 	ldr	r3, [fp, #-24]
    fbe4:	e0011003 	and	r1, r1, r3
    fbe8:	e51b300c 	ldr	r3, [fp, #-12]
    fbec:	e0213003 	eor	r3, r1, r3
    fbf0:	e0822003 	add	r2, r2, r3
    fbf4:	e51b301c 	ldr	r3, [fp, #-28]
    fbf8:	e1a03fe3 	ror	r3, r3, #31
    fbfc:	e50b3058 	str	r3, [fp, #-88]	; 0x58
    fc00:	e51b3058 	ldr	r3, [fp, #-88]	; 0x58
    fc04:	e0822003 	add	r2, r2, r3
    fc08:	e51b3010 	ldr	r3, [fp, #-16]
    fc0c:	e0822003 	add	r2, r2, r3
    fc10:	e59f3a50 	ldr	r3, [pc, #2640]	; 10668 <sha1_process+0x1544>
    fc14:	e0823003 	add	r3, r2, r3
    fc18:	e50b3010 	str	r3, [fp, #-16]
    fc1c:	e51b3018 	ldr	r3, [fp, #-24]
    fc20:	e1a03163 	ror	r3, r3, #2
    fc24:	e50b3018 	str	r3, [fp, #-24]
    fc28:	e51b2020 	ldr	r2, [fp, #-32]
    fc2c:	e51b3034 	ldr	r3, [fp, #-52]	; 0x34
    fc30:	e0222003 	eor	r2, r2, r3
    fc34:	e51b304c 	ldr	r3, [fp, #-76]	; 0x4c
    fc38:	e0222003 	eor	r2, r2, r3
    fc3c:	e51b3054 	ldr	r3, [fp, #-84]	; 0x54
    fc40:	e0223003 	eor	r3, r2, r3
    fc44:	e50b301c 	str	r3, [fp, #-28]
    fc48:	e51b3010 	ldr	r3, [fp, #-16]
    fc4c:	e1a02de3 	ror	r2, r3, #27
    fc50:	e51b1018 	ldr	r1, [fp, #-24]
    fc54:	e51b3008 	ldr	r3, [fp, #-8]
    fc58:	e0211003 	eor	r1, r1, r3
    fc5c:	e51b3014 	ldr	r3, [fp, #-20]
    fc60:	e0011003 	and	r1, r1, r3
    fc64:	e51b3008 	ldr	r3, [fp, #-8]
    fc68:	e0213003 	eor	r3, r1, r3
    fc6c:	e0822003 	add	r2, r2, r3
    fc70:	e51b301c 	ldr	r3, [fp, #-28]
    fc74:	e1a03fe3 	ror	r3, r3, #31
    fc78:	e50b3054 	str	r3, [fp, #-84]	; 0x54
    fc7c:	e51b3054 	ldr	r3, [fp, #-84]	; 0x54
    fc80:	e0822003 	add	r2, r2, r3
    fc84:	e51b300c 	ldr	r3, [fp, #-12]
    fc88:	e0822003 	add	r2, r2, r3
    fc8c:	e59f39d4 	ldr	r3, [pc, #2516]	; 10668 <sha1_process+0x1544>
    fc90:	e0823003 	add	r3, r2, r3
    fc94:	e50b300c 	str	r3, [fp, #-12]
    fc98:	e51b3014 	ldr	r3, [fp, #-20]
    fc9c:	e1a03163 	ror	r3, r3, #2
    fca0:	e50b3014 	str	r3, [fp, #-20]
    fca4:	e51b205c 	ldr	r2, [fp, #-92]	; 0x5c
    fca8:	e51b3030 	ldr	r3, [fp, #-48]	; 0x30
    fcac:	e0222003 	eor	r2, r2, r3
    fcb0:	e51b3048 	ldr	r3, [fp, #-72]	; 0x48
    fcb4:	e0222003 	eor	r2, r2, r3
    fcb8:	e51b3050 	ldr	r3, [fp, #-80]	; 0x50
    fcbc:	e0223003 	eor	r3, r2, r3
    fcc0:	e50b301c 	str	r3, [fp, #-28]
    fcc4:	e51b300c 	ldr	r3, [fp, #-12]
    fcc8:	e1a02de3 	ror	r2, r3, #27
    fccc:	e51b1014 	ldr	r1, [fp, #-20]
    fcd0:	e51b3018 	ldr	r3, [fp, #-24]
    fcd4:	e0211003 	eor	r1, r1, r3
    fcd8:	e51b3010 	ldr	r3, [fp, #-16]
    fcdc:	e0011003 	and	r1, r1, r3
    fce0:	e51b3018 	ldr	r3, [fp, #-24]
    fce4:	e0213003 	eor	r3, r1, r3
    fce8:	e0822003 	add	r2, r2, r3
    fcec:	e51b301c 	ldr	r3, [fp, #-28]
    fcf0:	e1a03fe3 	ror	r3, r3, #31
    fcf4:	e50b3050 	str	r3, [fp, #-80]	; 0x50
    fcf8:	e51b3050 	ldr	r3, [fp, #-80]	; 0x50
    fcfc:	e0822003 	add	r2, r2, r3
    fd00:	e51b3008 	ldr	r3, [fp, #-8]
    fd04:	e0822003 	add	r2, r2, r3
    fd08:	e59f3958 	ldr	r3, [pc, #2392]	; 10668 <sha1_process+0x1544>
    fd0c:	e0823003 	add	r3, r2, r3
    fd10:	e50b3008 	str	r3, [fp, #-8]
    fd14:	e51b3010 	ldr	r3, [fp, #-16]
    fd18:	e1a03163 	ror	r3, r3, #2
    fd1c:	e50b3010 	str	r3, [fp, #-16]
    fd20:	e51b2058 	ldr	r2, [fp, #-88]	; 0x58
    fd24:	e51b302c 	ldr	r3, [fp, #-44]	; 0x2c
    fd28:	e0222003 	eor	r2, r2, r3
    fd2c:	e51b3044 	ldr	r3, [fp, #-68]	; 0x44
    fd30:	e0222003 	eor	r2, r2, r3
    fd34:	e51b304c 	ldr	r3, [fp, #-76]	; 0x4c
    fd38:	e0223003 	eor	r3, r2, r3
    fd3c:	e50b301c 	str	r3, [fp, #-28]
    fd40:	e51b3008 	ldr	r3, [fp, #-8]
    fd44:	e1a02de3 	ror	r2, r3, #27
    fd48:	e51b100c 	ldr	r1, [fp, #-12]
    fd4c:	e51b3010 	ldr	r3, [fp, #-16]
    fd50:	e0211003 	eor	r1, r1, r3
    fd54:	e51b3014 	ldr	r3, [fp, #-20]
    fd58:	e0213003 	eor	r3, r1, r3
    fd5c:	e0822003 	add	r2, r2, r3
    fd60:	e51b301c 	ldr	r3, [fp, #-28]
    fd64:	e1a03fe3 	ror	r3, r3, #31
    fd68:	e50b304c 	str	r3, [fp, #-76]	; 0x4c
    fd6c:	e51b304c 	ldr	r3, [fp, #-76]	; 0x4c
    fd70:	e0822003 	add	r2, r2, r3
    fd74:	e51b3018 	ldr	r3, [fp, #-24]
    fd78:	e0822003 	add	r2, r2, r3
    fd7c:	e59f38e8 	ldr	r3, [pc, #2280]	; 1066c <sha1_process+0x1548>
    fd80:	e0823003 	add	r3, r2, r3
    fd84:	e50b3018 	str	r3, [fp, #-24]
    fd88:	e51b300c 	ldr	r3, [fp, #-12]
    fd8c:	e1a03163 	ror	r3, r3, #2
    fd90:	e50b300c 	str	r3, [fp, #-12]
    fd94:	e51b2054 	ldr	r2, [fp, #-84]	; 0x54
    fd98:	e51b3028 	ldr	r3, [fp, #-40]	; 0x28
    fd9c:	e0222003 	eor	r2, r2, r3
    fda0:	e51b3040 	ldr	r3, [fp, #-64]	; 0x40
    fda4:	e0222003 	eor	r2, r2, r3
    fda8:	e51b3048 	ldr	r3, [fp, #-72]	; 0x48
    fdac:	e0223003 	eor	r3, r2, r3
    fdb0:	e50b301c 	str	r3, [fp, #-28]
    fdb4:	e51b3018 	ldr	r3, [fp, #-24]
    fdb8:	e1a02de3 	ror	r2, r3, #27
    fdbc:	e51b1008 	ldr	r1, [fp, #-8]
    fdc0:	e51b300c 	ldr	r3, [fp, #-12]
    fdc4:	e0211003 	eor	r1, r1, r3
    fdc8:	e51b3010 	ldr	r3, [fp, #-16]
    fdcc:	e0213003 	eor	r3, r1, r3
    fdd0:	e0822003 	add	r2, r2, r3
    fdd4:	e51b301c 	ldr	r3, [fp, #-28]
    fdd8:	e1a03fe3 	ror	r3, r3, #31
    fddc:	e50b3048 	str	r3, [fp, #-72]	; 0x48
    fde0:	e51b3048 	ldr	r3, [fp, #-72]	; 0x48
    fde4:	e0822003 	add	r2, r2, r3
    fde8:	e51b3014 	ldr	r3, [fp, #-20]
    fdec:	e0822003 	add	r2, r2, r3
    fdf0:	e59f3874 	ldr	r3, [pc, #2164]	; 1066c <sha1_process+0x1548>
    fdf4:	e0823003 	add	r3, r2, r3
    fdf8:	e50b3014 	str	r3, [fp, #-20]
    fdfc:	e51b3008 	ldr	r3, [fp, #-8]
    fe00:	e1a03163 	ror	r3, r3, #2
    fe04:	e50b3008 	str	r3, [fp, #-8]
    fe08:	e51b2050 	ldr	r2, [fp, #-80]	; 0x50
    fe0c:	e51b3024 	ldr	r3, [fp, #-36]	; 0x24
    fe10:	e0222003 	eor	r2, r2, r3
    fe14:	e51b303c 	ldr	r3, [fp, #-60]	; 0x3c
    fe18:	e0222003 	eor	r2, r2, r3
    fe1c:	e51b3044 	ldr	r3, [fp, #-68]	; 0x44
    fe20:	e0223003 	eor	r3, r2, r3
    fe24:	e50b301c 	str	r3, [fp, #-28]
    fe28:	e51b3014 	ldr	r3, [fp, #-20]
    fe2c:	e1a02de3 	ror	r2, r3, #27
    fe30:	e51b1018 	ldr	r1, [fp, #-24]
    fe34:	e51b3008 	ldr	r3, [fp, #-8]
    fe38:	e0211003 	eor	r1, r1, r3
    fe3c:	e51b300c 	ldr	r3, [fp, #-12]
    fe40:	e0213003 	eor	r3, r1, r3
    fe44:	e0822003 	add	r2, r2, r3
    fe48:	e51b301c 	ldr	r3, [fp, #-28]
    fe4c:	e1a03fe3 	ror	r3, r3, #31
    fe50:	e50b3044 	str	r3, [fp, #-68]	; 0x44
    fe54:	e51b3044 	ldr	r3, [fp, #-68]	; 0x44
    fe58:	e0822003 	add	r2, r2, r3
    fe5c:	e51b3010 	ldr	r3, [fp, #-16]
    fe60:	e0822003 	add	r2, r2, r3
    fe64:	e59f3800 	ldr	r3, [pc, #2048]	; 1066c <sha1_process+0x1548>
    fe68:	e0823003 	add	r3, r2, r3
    fe6c:	e50b3010 	str	r3, [fp, #-16]
    fe70:	e51b3018 	ldr	r3, [fp, #-24]
    fe74:	e1a03163 	ror	r3, r3, #2
    fe78:	e50b3018 	str	r3, [fp, #-24]
    fe7c:	e51b204c 	ldr	r2, [fp, #-76]	; 0x4c
    fe80:	e51b3020 	ldr	r3, [fp, #-32]
    fe84:	e0222003 	eor	r2, r2, r3
    fe88:	e51b3038 	ldr	r3, [fp, #-56]	; 0x38
    fe8c:	e0222003 	eor	r2, r2, r3
    fe90:	e51b3040 	ldr	r3, [fp, #-64]	; 0x40
    fe94:	e0223003 	eor	r3, r2, r3
    fe98:	e50b301c 	str	r3, [fp, #-28]
    fe9c:	e51b3010 	ldr	r3, [fp, #-16]
    fea0:	e1a02de3 	ror	r2, r3, #27
    fea4:	e51b1014 	ldr	r1, [fp, #-20]
    fea8:	e51b3018 	ldr	r3, [fp, #-24]
    feac:	e0211003 	eor	r1, r1, r3
    feb0:	e51b3008 	ldr	r3, [fp, #-8]
    feb4:	e0213003 	eor	r3, r1, r3
    feb8:	e0822003 	add	r2, r2, r3
    febc:	e51b301c 	ldr	r3, [fp, #-28]
    fec0:	e1a03fe3 	ror	r3, r3, #31
    fec4:	e50b3040 	str	r3, [fp, #-64]	; 0x40
    fec8:	e51b3040 	ldr	r3, [fp, #-64]	; 0x40
    fecc:	e0822003 	add	r2, r2, r3
    fed0:	e51b300c 	ldr	r3, [fp, #-12]
    fed4:	e0822003 	add	r2, r2, r3
    fed8:	e59f378c 	ldr	r3, [pc, #1932]	; 1066c <sha1_process+0x1548>
    fedc:	e0823003 	add	r3, r2, r3
    fee0:	e50b300c 	str	r3, [fp, #-12]
    fee4:	e51b3014 	ldr	r3, [fp, #-20]
    fee8:	e1a03163 	ror	r3, r3, #2
    feec:	e50b3014 	str	r3, [fp, #-20]
    fef0:	e51b2048 	ldr	r2, [fp, #-72]	; 0x48
    fef4:	e51b305c 	ldr	r3, [fp, #-92]	; 0x5c
    fef8:	e0222003 	eor	r2, r2, r3
    fefc:	e51b3034 	ldr	r3, [fp, #-52]	; 0x34
    ff00:	e0222003 	eor	r2, r2, r3
    ff04:	e51b303c 	ldr	r3, [fp, #-60]	; 0x3c
    ff08:	e0223003 	eor	r3, r2, r3
    ff0c:	e50b301c 	str	r3, [fp, #-28]
    ff10:	e51b300c 	ldr	r3, [fp, #-12]
    ff14:	e1a02de3 	ror	r2, r3, #27
    ff18:	e51b1010 	ldr	r1, [fp, #-16]
    ff1c:	e51b3014 	ldr	r3, [fp, #-20]
    ff20:	e0211003 	eor	r1, r1, r3
    ff24:	e51b3018 	ldr	r3, [fp, #-24]
    ff28:	e0213003 	eor	r3, r1, r3
    ff2c:	e0822003 	add	r2, r2, r3
    ff30:	e51b301c 	ldr	r3, [fp, #-28]
    ff34:	e1a03fe3 	ror	r3, r3, #31
    ff38:	e50b303c 	str	r3, [fp, #-60]	; 0x3c
    ff3c:	e51b303c 	ldr	r3, [fp, #-60]	; 0x3c
    ff40:	e0822003 	add	r2, r2, r3
    ff44:	e51b3008 	ldr	r3, [fp, #-8]
    ff48:	e0822003 	add	r2, r2, r3
    ff4c:	e59f3718 	ldr	r3, [pc, #1816]	; 1066c <sha1_process+0x1548>
    ff50:	e0823003 	add	r3, r2, r3
    ff54:	e50b3008 	str	r3, [fp, #-8]
    ff58:	e51b3010 	ldr	r3, [fp, #-16]
    ff5c:	e1a03163 	ror	r3, r3, #2
    ff60:	e50b3010 	str	r3, [fp, #-16]
    ff64:	e51b2044 	ldr	r2, [fp, #-68]	; 0x44
    ff68:	e51b3058 	ldr	r3, [fp, #-88]	; 0x58
    ff6c:	e0222003 	eor	r2, r2, r3
    ff70:	e51b3030 	ldr	r3, [fp, #-48]	; 0x30
    ff74:	e0222003 	eor	r2, r2, r3
    ff78:	e51b3038 	ldr	r3, [fp, #-56]	; 0x38
    ff7c:	e0223003 	eor	r3, r2, r3
    ff80:	e50b301c 	str	r3, [fp, #-28]
    ff84:	e51b3008 	ldr	r3, [fp, #-8]
    ff88:	e1a02de3 	ror	r2, r3, #27
    ff8c:	e51b100c 	ldr	r1, [fp, #-12]
    ff90:	e51b3010 	ldr	r3, [fp, #-16]
    ff94:	e0211003 	eor	r1, r1, r3
    ff98:	e51b3014 	ldr	r3, [fp, #-20]
    ff9c:	e0213003 	eor	r3, r1, r3
    ffa0:	e0822003 	add	r2, r2, r3
    ffa4:	e51b301c 	ldr	r3, [fp, #-28]
    ffa8:	e1a03fe3 	ror	r3, r3, #31
    ffac:	e50b3038 	str	r3, [fp, #-56]	; 0x38
    ffb0:	e51b3038 	ldr	r3, [fp, #-56]	; 0x38
    ffb4:	e0822003 	add	r2, r2, r3
    ffb8:	e51b3018 	ldr	r3, [fp, #-24]
    ffbc:	e0822003 	add	r2, r2, r3
    ffc0:	e59f36a4 	ldr	r3, [pc, #1700]	; 1066c <sha1_process+0x1548>
    ffc4:	e0823003 	add	r3, r2, r3
    ffc8:	e50b3018 	str	r3, [fp, #-24]
    ffcc:	e51b300c 	ldr	r3, [fp, #-12]
    ffd0:	e1a03163 	ror	r3, r3, #2
    ffd4:	e50b300c 	str	r3, [fp, #-12]
    ffd8:	e51b2040 	ldr	r2, [fp, #-64]	; 0x40
    ffdc:	e51b3054 	ldr	r3, [fp, #-84]	; 0x54
    ffe0:	e0222003 	eor	r2, r2, r3
    ffe4:	e51b302c 	ldr	r3, [fp, #-44]	; 0x2c
    ffe8:	e0222003 	eor	r2, r2, r3
    ffec:	e51b3034 	ldr	r3, [fp, #-52]	; 0x34
    fff0:	e0223003 	eor	r3, r2, r3
    fff4:	e50b301c 	str	r3, [fp, #-28]
    fff8:	e51b3018 	ldr	r3, [fp, #-24]
    fffc:	e1a02de3 	ror	r2, r3, #27
   10000:	e51b1008 	ldr	r1, [fp, #-8]
   10004:	e51b300c 	ldr	r3, [fp, #-12]
   10008:	e0211003 	eor	r1, r1, r3
   1000c:	e51b3010 	ldr	r3, [fp, #-16]
   10010:	e0213003 	eor	r3, r1, r3
   10014:	e0822003 	add	r2, r2, r3
   10018:	e51b301c 	ldr	r3, [fp, #-28]
   1001c:	e1a03fe3 	ror	r3, r3, #31
   10020:	e50b3034 	str	r3, [fp, #-52]	; 0x34
   10024:	e51b3034 	ldr	r3, [fp, #-52]	; 0x34
   10028:	e0822003 	add	r2, r2, r3
   1002c:	e51b3014 	ldr	r3, [fp, #-20]
   10030:	e0822003 	add	r2, r2, r3
   10034:	e59f3630 	ldr	r3, [pc, #1584]	; 1066c <sha1_process+0x1548>
   10038:	e0823003 	add	r3, r2, r3
   1003c:	e50b3014 	str	r3, [fp, #-20]
   10040:	e51b3008 	ldr	r3, [fp, #-8]
   10044:	e1a03163 	ror	r3, r3, #2
   10048:	e50b3008 	str	r3, [fp, #-8]
   1004c:	e51b203c 	ldr	r2, [fp, #-60]	; 0x3c
   10050:	e51b3050 	ldr	r3, [fp, #-80]	; 0x50
   10054:	e0222003 	eor	r2, r2, r3
   10058:	e51b3028 	ldr	r3, [fp, #-40]	; 0x28
   1005c:	e0222003 	eor	r2, r2, r3
   10060:	e51b3030 	ldr	r3, [fp, #-48]	; 0x30
   10064:	e0223003 	eor	r3, r2, r3
   10068:	e50b301c 	str	r3, [fp, #-28]
   1006c:	e51b3014 	ldr	r3, [fp, #-20]
   10070:	e1a02de3 	ror	r2, r3, #27
   10074:	e51b1018 	ldr	r1, [fp, #-24]
   10078:	e51b3008 	ldr	r3, [fp, #-8]
   1007c:	e0211003 	eor	r1, r1, r3
   10080:	e51b300c 	ldr	r3, [fp, #-12]
   10084:	e0213003 	eor	r3, r1, r3
   10088:	e0822003 	add	r2, r2, r3
   1008c:	e51b301c 	ldr	r3, [fp, #-28]
   10090:	e1a03fe3 	ror	r3, r3, #31
   10094:	e50b3030 	str	r3, [fp, #-48]	; 0x30
   10098:	e51b3030 	ldr	r3, [fp, #-48]	; 0x30
   1009c:	e0822003 	add	r2, r2, r3
   100a0:	e51b3010 	ldr	r3, [fp, #-16]
   100a4:	e0822003 	add	r2, r2, r3
   100a8:	e59f35bc 	ldr	r3, [pc, #1468]	; 1066c <sha1_process+0x1548>
   100ac:	e0823003 	add	r3, r2, r3
   100b0:	e50b3010 	str	r3, [fp, #-16]
   100b4:	e51b3018 	ldr	r3, [fp, #-24]
   100b8:	e1a03163 	ror	r3, r3, #2
   100bc:	e50b3018 	str	r3, [fp, #-24]
   100c0:	e51b2038 	ldr	r2, [fp, #-56]	; 0x38
   100c4:	e51b304c 	ldr	r3, [fp, #-76]	; 0x4c
   100c8:	e0222003 	eor	r2, r2, r3
   100cc:	e51b3024 	ldr	r3, [fp, #-36]	; 0x24
   100d0:	e0222003 	eor	r2, r2, r3
   100d4:	e51b302c 	ldr	r3, [fp, #-44]	; 0x2c
   100d8:	e0223003 	eor	r3, r2, r3
   100dc:	e50b301c 	str	r3, [fp, #-28]
   100e0:	e51b3010 	ldr	r3, [fp, #-16]
   100e4:	e1a02de3 	ror	r2, r3, #27
   100e8:	e51b1014 	ldr	r1, [fp, #-20]
   100ec:	e51b3018 	ldr	r3, [fp, #-24]
   100f0:	e0211003 	eor	r1, r1, r3
   100f4:	e51b3008 	ldr	r3, [fp, #-8]
   100f8:	e0213003 	eor	r3, r1, r3
   100fc:	e0822003 	add	r2, r2, r3
   10100:	e51b301c 	ldr	r3, [fp, #-28]
   10104:	e1a03fe3 	ror	r3, r3, #31
   10108:	e50b302c 	str	r3, [fp, #-44]	; 0x2c
   1010c:	e51b302c 	ldr	r3, [fp, #-44]	; 0x2c
   10110:	e0822003 	add	r2, r2, r3
   10114:	e51b300c 	ldr	r3, [fp, #-12]
   10118:	e0822003 	add	r2, r2, r3
   1011c:	e59f3548 	ldr	r3, [pc, #1352]	; 1066c <sha1_process+0x1548>
   10120:	e0823003 	add	r3, r2, r3
   10124:	e50b300c 	str	r3, [fp, #-12]
   10128:	e51b3014 	ldr	r3, [fp, #-20]
   1012c:	e1a03163 	ror	r3, r3, #2
   10130:	e50b3014 	str	r3, [fp, #-20]
   10134:	e51b2034 	ldr	r2, [fp, #-52]	; 0x34
   10138:	e51b3048 	ldr	r3, [fp, #-72]	; 0x48
   1013c:	e0222003 	eor	r2, r2, r3
   10140:	e51b3020 	ldr	r3, [fp, #-32]
   10144:	e0222003 	eor	r2, r2, r3
   10148:	e51b3028 	ldr	r3, [fp, #-40]	; 0x28
   1014c:	e0223003 	eor	r3, r2, r3
   10150:	e50b301c 	str	r3, [fp, #-28]
   10154:	e51b300c 	ldr	r3, [fp, #-12]
   10158:	e1a02de3 	ror	r2, r3, #27
   1015c:	e51b1010 	ldr	r1, [fp, #-16]
   10160:	e51b3014 	ldr	r3, [fp, #-20]
   10164:	e0211003 	eor	r1, r1, r3
   10168:	e51b3018 	ldr	r3, [fp, #-24]
   1016c:	e0213003 	eor	r3, r1, r3
   10170:	e0822003 	add	r2, r2, r3
   10174:	e51b301c 	ldr	r3, [fp, #-28]
   10178:	e1a03fe3 	ror	r3, r3, #31
   1017c:	e50b3028 	str	r3, [fp, #-40]	; 0x28
   10180:	e51b3028 	ldr	r3, [fp, #-40]	; 0x28
   10184:	e0822003 	add	r2, r2, r3
   10188:	e51b3008 	ldr	r3, [fp, #-8]
   1018c:	e0822003 	add	r2, r2, r3
   10190:	e59f34d4 	ldr	r3, [pc, #1236]	; 1066c <sha1_process+0x1548>
   10194:	e0823003 	add	r3, r2, r3
   10198:	e50b3008 	str	r3, [fp, #-8]
   1019c:	e51b3010 	ldr	r3, [fp, #-16]
   101a0:	e1a03163 	ror	r3, r3, #2
   101a4:	e50b3010 	str	r3, [fp, #-16]
   101a8:	e51b2030 	ldr	r2, [fp, #-48]	; 0x30
   101ac:	e51b3044 	ldr	r3, [fp, #-68]	; 0x44
   101b0:	e0222003 	eor	r2, r2, r3
   101b4:	e51b305c 	ldr	r3, [fp, #-92]	; 0x5c
   101b8:	e0222003 	eor	r2, r2, r3
   101bc:	e51b3024 	ldr	r3, [fp, #-36]	; 0x24
   101c0:	e0223003 	eor	r3, r2, r3
   101c4:	e50b301c 	str	r3, [fp, #-28]
   101c8:	e51b3008 	ldr	r3, [fp, #-8]
   101cc:	e1a02de3 	ror	r2, r3, #27
   101d0:	e51b100c 	ldr	r1, [fp, #-12]
   101d4:	e51b3010 	ldr	r3, [fp, #-16]
   101d8:	e0211003 	eor	r1, r1, r3
   101dc:	e51b3014 	ldr	r3, [fp, #-20]
   101e0:	e0213003 	eor	r3, r1, r3
   101e4:	e0822003 	add	r2, r2, r3
   101e8:	e51b301c 	ldr	r3, [fp, #-28]
   101ec:	e1a03fe3 	ror	r3, r3, #31
   101f0:	e50b3024 	str	r3, [fp, #-36]	; 0x24
   101f4:	e51b3024 	ldr	r3, [fp, #-36]	; 0x24
   101f8:	e0822003 	add	r2, r2, r3
   101fc:	e51b3018 	ldr	r3, [fp, #-24]
   10200:	e0822003 	add	r2, r2, r3
   10204:	e59f3460 	ldr	r3, [pc, #1120]	; 1066c <sha1_process+0x1548>
   10208:	e0823003 	add	r3, r2, r3
   1020c:	e50b3018 	str	r3, [fp, #-24]
   10210:	e51b300c 	ldr	r3, [fp, #-12]
   10214:	e1a03163 	ror	r3, r3, #2
   10218:	e50b300c 	str	r3, [fp, #-12]
   1021c:	e51b202c 	ldr	r2, [fp, #-44]	; 0x2c
   10220:	e51b3040 	ldr	r3, [fp, #-64]	; 0x40
   10224:	e0222003 	eor	r2, r2, r3
   10228:	e51b3058 	ldr	r3, [fp, #-88]	; 0x58
   1022c:	e0222003 	eor	r2, r2, r3
   10230:	e51b3020 	ldr	r3, [fp, #-32]
   10234:	e0223003 	eor	r3, r2, r3
   10238:	e50b301c 	str	r3, [fp, #-28]
   1023c:	e51b3018 	ldr	r3, [fp, #-24]
   10240:	e1a02de3 	ror	r2, r3, #27
   10244:	e51b1008 	ldr	r1, [fp, #-8]
   10248:	e51b300c 	ldr	r3, [fp, #-12]
   1024c:	e0211003 	eor	r1, r1, r3
   10250:	e51b3010 	ldr	r3, [fp, #-16]
   10254:	e0213003 	eor	r3, r1, r3
   10258:	e0822003 	add	r2, r2, r3
   1025c:	e51b301c 	ldr	r3, [fp, #-28]
   10260:	e1a03fe3 	ror	r3, r3, #31
   10264:	e50b3020 	str	r3, [fp, #-32]
   10268:	e51b3020 	ldr	r3, [fp, #-32]
   1026c:	e0822003 	add	r2, r2, r3
   10270:	e51b3014 	ldr	r3, [fp, #-20]
   10274:	e0822003 	add	r2, r2, r3
   10278:	e59f33ec 	ldr	r3, [pc, #1004]	; 1066c <sha1_process+0x1548>
   1027c:	e0823003 	add	r3, r2, r3
   10280:	e50b3014 	str	r3, [fp, #-20]
   10284:	e51b3008 	ldr	r3, [fp, #-8]
   10288:	e1a03163 	ror	r3, r3, #2
   1028c:	e50b3008 	str	r3, [fp, #-8]
   10290:	e51b2028 	ldr	r2, [fp, #-40]	; 0x28
   10294:	e51b303c 	ldr	r3, [fp, #-60]	; 0x3c
   10298:	e0222003 	eor	r2, r2, r3
   1029c:	e51b3054 	ldr	r3, [fp, #-84]	; 0x54
   102a0:	e0222003 	eor	r2, r2, r3
   102a4:	e51b305c 	ldr	r3, [fp, #-92]	; 0x5c
   102a8:	e0223003 	eor	r3, r2, r3
   102ac:	e50b301c 	str	r3, [fp, #-28]
   102b0:	e51b3014 	ldr	r3, [fp, #-20]
   102b4:	e1a02de3 	ror	r2, r3, #27
   102b8:	e51b1018 	ldr	r1, [fp, #-24]
   102bc:	e51b3008 	ldr	r3, [fp, #-8]
   102c0:	e0211003 	eor	r1, r1, r3
   102c4:	e51b300c 	ldr	r3, [fp, #-12]
   102c8:	e0213003 	eor	r3, r1, r3
   102cc:	e0822003 	add	r2, r2, r3
   102d0:	e51b301c 	ldr	r3, [fp, #-28]
   102d4:	e1a03fe3 	ror	r3, r3, #31
   102d8:	e50b305c 	str	r3, [fp, #-92]	; 0x5c
   102dc:	e51b305c 	ldr	r3, [fp, #-92]	; 0x5c
   102e0:	e0822003 	add	r2, r2, r3
   102e4:	e51b3010 	ldr	r3, [fp, #-16]
   102e8:	e0822003 	add	r2, r2, r3
   102ec:	e59f3378 	ldr	r3, [pc, #888]	; 1066c <sha1_process+0x1548>
   102f0:	e0823003 	add	r3, r2, r3
   102f4:	e50b3010 	str	r3, [fp, #-16]
   102f8:	e51b3018 	ldr	r3, [fp, #-24]
   102fc:	e1a03163 	ror	r3, r3, #2
   10300:	e50b3018 	str	r3, [fp, #-24]
   10304:	e51b2024 	ldr	r2, [fp, #-36]	; 0x24
   10308:	e51b3038 	ldr	r3, [fp, #-56]	; 0x38
   1030c:	e0222003 	eor	r2, r2, r3
   10310:	e51b3050 	ldr	r3, [fp, #-80]	; 0x50
   10314:	e0222003 	eor	r2, r2, r3
   10318:	e51b3058 	ldr	r3, [fp, #-88]	; 0x58
   1031c:	e0223003 	eor	r3, r2, r3
   10320:	e50b301c 	str	r3, [fp, #-28]
   10324:	e51b3010 	ldr	r3, [fp, #-16]
   10328:	e1a02de3 	ror	r2, r3, #27
   1032c:	e51b1014 	ldr	r1, [fp, #-20]
   10330:	e51b3018 	ldr	r3, [fp, #-24]
   10334:	e0211003 	eor	r1, r1, r3
   10338:	e51b3008 	ldr	r3, [fp, #-8]
   1033c:	e0213003 	eor	r3, r1, r3
   10340:	e0822003 	add	r2, r2, r3
   10344:	e51b301c 	ldr	r3, [fp, #-28]
   10348:	e1a03fe3 	ror	r3, r3, #31
   1034c:	e50b3058 	str	r3, [fp, #-88]	; 0x58
   10350:	e51b3058 	ldr	r3, [fp, #-88]	; 0x58
   10354:	e0822003 	add	r2, r2, r3
   10358:	e51b300c 	ldr	r3, [fp, #-12]
   1035c:	e0822003 	add	r2, r2, r3
   10360:	e59f3304 	ldr	r3, [pc, #772]	; 1066c <sha1_process+0x1548>
   10364:	e0823003 	add	r3, r2, r3
   10368:	e50b300c 	str	r3, [fp, #-12]
   1036c:	e51b3014 	ldr	r3, [fp, #-20]
   10370:	e1a03163 	ror	r3, r3, #2
   10374:	e50b3014 	str	r3, [fp, #-20]
   10378:	e51b2020 	ldr	r2, [fp, #-32]
   1037c:	e51b3034 	ldr	r3, [fp, #-52]	; 0x34
   10380:	e0222003 	eor	r2, r2, r3
   10384:	e51b304c 	ldr	r3, [fp, #-76]	; 0x4c
   10388:	e0222003 	eor	r2, r2, r3
   1038c:	e51b3054 	ldr	r3, [fp, #-84]	; 0x54
   10390:	e0223003 	eor	r3, r2, r3
   10394:	e50b301c 	str	r3, [fp, #-28]
   10398:	e51b300c 	ldr	r3, [fp, #-12]
   1039c:	e1a02de3 	ror	r2, r3, #27
   103a0:	e51b1010 	ldr	r1, [fp, #-16]
   103a4:	e51b3014 	ldr	r3, [fp, #-20]
   103a8:	e0211003 	eor	r1, r1, r3
   103ac:	e51b3018 	ldr	r3, [fp, #-24]
   103b0:	e0213003 	eor	r3, r1, r3
   103b4:	e0822003 	add	r2, r2, r3
   103b8:	e51b301c 	ldr	r3, [fp, #-28]
   103bc:	e1a03fe3 	ror	r3, r3, #31
   103c0:	e50b3054 	str	r3, [fp, #-84]	; 0x54
   103c4:	e51b3054 	ldr	r3, [fp, #-84]	; 0x54
   103c8:	e0822003 	add	r2, r2, r3
   103cc:	e51b3008 	ldr	r3, [fp, #-8]
   103d0:	e0822003 	add	r2, r2, r3
   103d4:	e59f3290 	ldr	r3, [pc, #656]	; 1066c <sha1_process+0x1548>
   103d8:	e0823003 	add	r3, r2, r3
   103dc:	e50b3008 	str	r3, [fp, #-8]
   103e0:	e51b3010 	ldr	r3, [fp, #-16]
   103e4:	e1a03163 	ror	r3, r3, #2
   103e8:	e50b3010 	str	r3, [fp, #-16]
   103ec:	e51b205c 	ldr	r2, [fp, #-92]	; 0x5c
   103f0:	e51b3030 	ldr	r3, [fp, #-48]	; 0x30
   103f4:	e0222003 	eor	r2, r2, r3
   103f8:	e51b3048 	ldr	r3, [fp, #-72]	; 0x48
   103fc:	e0222003 	eor	r2, r2, r3
   10400:	e51b3050 	ldr	r3, [fp, #-80]	; 0x50
   10404:	e0223003 	eor	r3, r2, r3
   10408:	e50b301c 	str	r3, [fp, #-28]
   1040c:	e51b3008 	ldr	r3, [fp, #-8]
   10410:	e1a02de3 	ror	r2, r3, #27
   10414:	e51b100c 	ldr	r1, [fp, #-12]
   10418:	e51b3010 	ldr	r3, [fp, #-16]
   1041c:	e0211003 	eor	r1, r1, r3
   10420:	e51b3014 	ldr	r3, [fp, #-20]
   10424:	e0213003 	eor	r3, r1, r3
   10428:	e0822003 	add	r2, r2, r3
   1042c:	e51b301c 	ldr	r3, [fp, #-28]
   10430:	e1a03fe3 	ror	r3, r3, #31
   10434:	e50b3050 	str	r3, [fp, #-80]	; 0x50
   10438:	e51b3050 	ldr	r3, [fp, #-80]	; 0x50
   1043c:	e0822003 	add	r2, r2, r3
   10440:	e51b3018 	ldr	r3, [fp, #-24]
   10444:	e0822003 	add	r2, r2, r3
   10448:	e59f321c 	ldr	r3, [pc, #540]	; 1066c <sha1_process+0x1548>
   1044c:	e0823003 	add	r3, r2, r3
   10450:	e50b3018 	str	r3, [fp, #-24]
   10454:	e51b300c 	ldr	r3, [fp, #-12]
   10458:	e1a03163 	ror	r3, r3, #2
   1045c:	e50b300c 	str	r3, [fp, #-12]
   10460:	e51b2058 	ldr	r2, [fp, #-88]	; 0x58
   10464:	e51b302c 	ldr	r3, [fp, #-44]	; 0x2c
   10468:	e0222003 	eor	r2, r2, r3
   1046c:	e51b3044 	ldr	r3, [fp, #-68]	; 0x44
   10470:	e0222003 	eor	r2, r2, r3
   10474:	e51b304c 	ldr	r3, [fp, #-76]	; 0x4c
   10478:	e0223003 	eor	r3, r2, r3
   1047c:	e50b301c 	str	r3, [fp, #-28]
   10480:	e51b3018 	ldr	r3, [fp, #-24]
   10484:	e1a02de3 	ror	r2, r3, #27
   10488:	e51b1008 	ldr	r1, [fp, #-8]
   1048c:	e51b300c 	ldr	r3, [fp, #-12]
   10490:	e0211003 	eor	r1, r1, r3
   10494:	e51b3010 	ldr	r3, [fp, #-16]
   10498:	e0213003 	eor	r3, r1, r3
   1049c:	e0822003 	add	r2, r2, r3
   104a0:	e51b301c 	ldr	r3, [fp, #-28]
   104a4:	e1a03fe3 	ror	r3, r3, #31
   104a8:	e50b304c 	str	r3, [fp, #-76]	; 0x4c
   104ac:	e51b304c 	ldr	r3, [fp, #-76]	; 0x4c
   104b0:	e0822003 	add	r2, r2, r3
   104b4:	e51b3014 	ldr	r3, [fp, #-20]
   104b8:	e0822003 	add	r2, r2, r3
   104bc:	e59f31a8 	ldr	r3, [pc, #424]	; 1066c <sha1_process+0x1548>
   104c0:	e0823003 	add	r3, r2, r3
   104c4:	e50b3014 	str	r3, [fp, #-20]
   104c8:	e51b3008 	ldr	r3, [fp, #-8]
   104cc:	e1a03163 	ror	r3, r3, #2
   104d0:	e50b3008 	str	r3, [fp, #-8]
   104d4:	e51b2054 	ldr	r2, [fp, #-84]	; 0x54
   104d8:	e51b3028 	ldr	r3, [fp, #-40]	; 0x28
   104dc:	e0222003 	eor	r2, r2, r3
   104e0:	e51b3040 	ldr	r3, [fp, #-64]	; 0x40
   104e4:	e0222003 	eor	r2, r2, r3
   104e8:	e51b3048 	ldr	r3, [fp, #-72]	; 0x48
   104ec:	e0223003 	eor	r3, r2, r3
   104f0:	e50b301c 	str	r3, [fp, #-28]
   104f4:	e51b3014 	ldr	r3, [fp, #-20]
   104f8:	e1a02de3 	ror	r2, r3, #27
   104fc:	e51b1018 	ldr	r1, [fp, #-24]
   10500:	e51b3008 	ldr	r3, [fp, #-8]
   10504:	e0211003 	eor	r1, r1, r3
   10508:	e51b300c 	ldr	r3, [fp, #-12]
   1050c:	e0213003 	eor	r3, r1, r3
   10510:	e0822003 	add	r2, r2, r3
   10514:	e51b301c 	ldr	r3, [fp, #-28]
   10518:	e1a03fe3 	ror	r3, r3, #31
   1051c:	e50b3048 	str	r3, [fp, #-72]	; 0x48
   10520:	e51b3048 	ldr	r3, [fp, #-72]	; 0x48
   10524:	e0822003 	add	r2, r2, r3
   10528:	e51b3010 	ldr	r3, [fp, #-16]
   1052c:	e0822003 	add	r2, r2, r3
   10530:	e59f3134 	ldr	r3, [pc, #308]	; 1066c <sha1_process+0x1548>
   10534:	e0823003 	add	r3, r2, r3
   10538:	e50b3010 	str	r3, [fp, #-16]
   1053c:	e51b3018 	ldr	r3, [fp, #-24]
   10540:	e1a03163 	ror	r3, r3, #2
   10544:	e50b3018 	str	r3, [fp, #-24]
   10548:	e51b2050 	ldr	r2, [fp, #-80]	; 0x50
   1054c:	e51b3024 	ldr	r3, [fp, #-36]	; 0x24
   10550:	e0222003 	eor	r2, r2, r3
   10554:	e51b303c 	ldr	r3, [fp, #-60]	; 0x3c
   10558:	e0222003 	eor	r2, r2, r3
   1055c:	e51b3044 	ldr	r3, [fp, #-68]	; 0x44
   10560:	e0223003 	eor	r3, r2, r3
   10564:	e50b301c 	str	r3, [fp, #-28]
   10568:	e51b3010 	ldr	r3, [fp, #-16]
   1056c:	e1a02de3 	ror	r2, r3, #27
   10570:	e51b1014 	ldr	r1, [fp, #-20]
   10574:	e51b3018 	ldr	r3, [fp, #-24]
   10578:	e0211003 	eor	r1, r1, r3
   1057c:	e51b3008 	ldr	r3, [fp, #-8]
   10580:	e0213003 	eor	r3, r1, r3
   10584:	e0822003 	add	r2, r2, r3
   10588:	e51b301c 	ldr	r3, [fp, #-28]
   1058c:	e1a03fe3 	ror	r3, r3, #31
   10590:	e50b3044 	str	r3, [fp, #-68]	; 0x44
   10594:	e51b3044 	ldr	r3, [fp, #-68]	; 0x44
   10598:	e0822003 	add	r2, r2, r3
   1059c:	e51b300c 	ldr	r3, [fp, #-12]
   105a0:	e0822003 	add	r2, r2, r3
   105a4:	e59f30c0 	ldr	r3, [pc, #192]	; 1066c <sha1_process+0x1548>
   105a8:	e0823003 	add	r3, r2, r3
   105ac:	e50b300c 	str	r3, [fp, #-12]
   105b0:	e51b3014 	ldr	r3, [fp, #-20]
   105b4:	e1a03163 	ror	r3, r3, #2
   105b8:	e50b3014 	str	r3, [fp, #-20]
   105bc:	e51b204c 	ldr	r2, [fp, #-76]	; 0x4c
   105c0:	e51b3020 	ldr	r3, [fp, #-32]
   105c4:	e0222003 	eor	r2, r2, r3
   105c8:	e51b3038 	ldr	r3, [fp, #-56]	; 0x38
   105cc:	e0222003 	eor	r2, r2, r3
   105d0:	e51b3040 	ldr	r3, [fp, #-64]	; 0x40
   105d4:	e0223003 	eor	r3, r2, r3
   105d8:	e50b301c 	str	r3, [fp, #-28]
   105dc:	e51b300c 	ldr	r3, [fp, #-12]
   105e0:	e1a02de3 	ror	r2, r3, #27
   105e4:	e51b1010 	ldr	r1, [fp, #-16]
   105e8:	e51b3014 	ldr	r3, [fp, #-20]
   105ec:	e0211003 	eor	r1, r1, r3
   105f0:	e51b3018 	ldr	r3, [fp, #-24]
   105f4:	e0213003 	eor	r3, r1, r3
   105f8:	e0822003 	add	r2, r2, r3
   105fc:	e51b301c 	ldr	r3, [fp, #-28]
   10600:	e1a03fe3 	ror	r3, r3, #31
   10604:	e50b3040 	str	r3, [fp, #-64]	; 0x40
   10608:	e51b3040 	ldr	r3, [fp, #-64]	; 0x40
   1060c:	e0822003 	add	r2, r2, r3
   10610:	e51b3008 	ldr	r3, [fp, #-8]
   10614:	e0822003 	add	r2, r2, r3
   10618:	e59f304c 	ldr	r3, [pc, #76]	; 1066c <sha1_process+0x1548>
   1061c:	e0823003 	add	r3, r2, r3
   10620:	e50b3008 	str	r3, [fp, #-8]
   10624:	e51b3010 	ldr	r3, [fp, #-16]
   10628:	e1a03163 	ror	r3, r3, #2
   1062c:	e50b3010 	str	r3, [fp, #-16]
   10630:	e51b2048 	ldr	r2, [fp, #-72]	; 0x48
   10634:	e51b305c 	ldr	r3, [fp, #-92]	; 0x5c
   10638:	e0222003 	eor	r2, r2, r3
   1063c:	e51b3034 	ldr	r3, [fp, #-52]	; 0x34
   10640:	e0222003 	eor	r2, r2, r3
   10644:	e51b303c 	ldr	r3, [fp, #-60]	; 0x3c
   10648:	e0223003 	eor	r3, r2, r3
   1064c:	e50b301c 	str	r3, [fp, #-28]
   10650:	e51b3008 	ldr	r3, [fp, #-8]
   10654:	e1a02de3 	ror	r2, r3, #27
   10658:	e51b100c 	ldr	r1, [fp, #-12]
   1065c:	e51b3010 	ldr	r3, [fp, #-16]
   10660:	e0011003 	and	r1, r1, r3
   10664:	ea000003 	b	10678 <sha1_process+0x1554>
   10668:	5a827999 	.word	0x5a827999
   1066c:	6ed9eba1 	.word	0x6ed9eba1
   10670:	8f1bbcdc 	.word	0x8f1bbcdc
   10674:	ca62c1d6 	.word	0xca62c1d6
   10678:	e51b000c 	ldr	r0, [fp, #-12]
   1067c:	e51b3010 	ldr	r3, [fp, #-16]
   10680:	e1800003 	orr	r0, r0, r3
   10684:	e51b3014 	ldr	r3, [fp, #-20]
   10688:	e0003003 	and	r3, r0, r3
   1068c:	e1813003 	orr	r3, r1, r3
   10690:	e0822003 	add	r2, r2, r3
   10694:	e51b301c 	ldr	r3, [fp, #-28]
   10698:	e1a03fe3 	ror	r3, r3, #31
   1069c:	e50b303c 	str	r3, [fp, #-60]	; 0x3c
   106a0:	e51b303c 	ldr	r3, [fp, #-60]	; 0x3c
   106a4:	e0822003 	add	r2, r2, r3
   106a8:	e51b3018 	ldr	r3, [fp, #-24]
   106ac:	e0822003 	add	r2, r2, r3
   106b0:	e51f3048 	ldr	r3, [pc, #-72]	; 10670 <sha1_process+0x154c>
   106b4:	e0823003 	add	r3, r2, r3
   106b8:	e50b3018 	str	r3, [fp, #-24]
   106bc:	e51b300c 	ldr	r3, [fp, #-12]
   106c0:	e1a03163 	ror	r3, r3, #2
   106c4:	e50b300c 	str	r3, [fp, #-12]
   106c8:	e51b2044 	ldr	r2, [fp, #-68]	; 0x44
   106cc:	e51b3058 	ldr	r3, [fp, #-88]	; 0x58
   106d0:	e0222003 	eor	r2, r2, r3
   106d4:	e51b3030 	ldr	r3, [fp, #-48]	; 0x30
   106d8:	e0222003 	eor	r2, r2, r3
   106dc:	e51b3038 	ldr	r3, [fp, #-56]	; 0x38
   106e0:	e0223003 	eor	r3, r2, r3
   106e4:	e50b301c 	str	r3, [fp, #-28]
   106e8:	e51b3018 	ldr	r3, [fp, #-24]
   106ec:	e1a02de3 	ror	r2, r3, #27
   106f0:	e51b1008 	ldr	r1, [fp, #-8]
   106f4:	e51b300c 	ldr	r3, [fp, #-12]
   106f8:	e0011003 	and	r1, r1, r3
   106fc:	e51b0008 	ldr	r0, [fp, #-8]
   10700:	e51b300c 	ldr	r3, [fp, #-12]
   10704:	e1800003 	orr	r0, r0, r3
   10708:	e51b3010 	ldr	r3, [fp, #-16]
   1070c:	e0003003 	and	r3, r0, r3
   10710:	e1813003 	orr	r3, r1, r3
   10714:	e0822003 	add	r2, r2, r3
   10718:	e51b301c 	ldr	r3, [fp, #-28]
   1071c:	e1a03fe3 	ror	r3, r3, #31
   10720:	e50b3038 	str	r3, [fp, #-56]	; 0x38
   10724:	e51b3038 	ldr	r3, [fp, #-56]	; 0x38
   10728:	e0822003 	add	r2, r2, r3
   1072c:	e51b3014 	ldr	r3, [fp, #-20]
   10730:	e0822003 	add	r2, r2, r3
   10734:	e51f30cc 	ldr	r3, [pc, #-204]	; 10670 <sha1_process+0x154c>
   10738:	e0823003 	add	r3, r2, r3
   1073c:	e50b3014 	str	r3, [fp, #-20]
   10740:	e51b3008 	ldr	r3, [fp, #-8]
   10744:	e1a03163 	ror	r3, r3, #2
   10748:	e50b3008 	str	r3, [fp, #-8]
   1074c:	e51b2040 	ldr	r2, [fp, #-64]	; 0x40
   10750:	e51b3054 	ldr	r3, [fp, #-84]	; 0x54
   10754:	e0222003 	eor	r2, r2, r3
   10758:	e51b302c 	ldr	r3, [fp, #-44]	; 0x2c
   1075c:	e0222003 	eor	r2, r2, r3
   10760:	e51b3034 	ldr	r3, [fp, #-52]	; 0x34
   10764:	e0223003 	eor	r3, r2, r3
   10768:	e50b301c 	str	r3, [fp, #-28]
   1076c:	e51b3014 	ldr	r3, [fp, #-20]
   10770:	e1a02de3 	ror	r2, r3, #27
   10774:	e51b1018 	ldr	r1, [fp, #-24]
   10778:	e51b3008 	ldr	r3, [fp, #-8]
   1077c:	e0011003 	and	r1, r1, r3
   10780:	e51b0018 	ldr	r0, [fp, #-24]
   10784:	e51b3008 	ldr	r3, [fp, #-8]
   10788:	e1800003 	orr	r0, r0, r3
   1078c:	e51b300c 	ldr	r3, [fp, #-12]
   10790:	e0003003 	and	r3, r0, r3
   10794:	e1813003 	orr	r3, r1, r3
   10798:	e0822003 	add	r2, r2, r3
   1079c:	e51b301c 	ldr	r3, [fp, #-28]
   107a0:	e1a03fe3 	ror	r3, r3, #31
   107a4:	e50b3034 	str	r3, [fp, #-52]	; 0x34
   107a8:	e51b3034 	ldr	r3, [fp, #-52]	; 0x34
   107ac:	e0822003 	add	r2, r2, r3
   107b0:	e51b3010 	ldr	r3, [fp, #-16]
   107b4:	e0822003 	add	r2, r2, r3
   107b8:	e51f3150 	ldr	r3, [pc, #-336]	; 10670 <sha1_process+0x154c>
   107bc:	e0823003 	add	r3, r2, r3
   107c0:	e50b3010 	str	r3, [fp, #-16]
   107c4:	e51b3018 	ldr	r3, [fp, #-24]
   107c8:	e1a03163 	ror	r3, r3, #2
   107cc:	e50b3018 	str	r3, [fp, #-24]
   107d0:	e51b203c 	ldr	r2, [fp, #-60]	; 0x3c
   107d4:	e51b3050 	ldr	r3, [fp, #-80]	; 0x50
   107d8:	e0222003 	eor	r2, r2, r3
   107dc:	e51b3028 	ldr	r3, [fp, #-40]	; 0x28
   107e0:	e0222003 	eor	r2, r2, r3
   107e4:	e51b3030 	ldr	r3, [fp, #-48]	; 0x30
   107e8:	e0223003 	eor	r3, r2, r3
   107ec:	e50b301c 	str	r3, [fp, #-28]
   107f0:	e51b3010 	ldr	r3, [fp, #-16]
   107f4:	e1a02de3 	ror	r2, r3, #27
   107f8:	e51b1014 	ldr	r1, [fp, #-20]
   107fc:	e51b3018 	ldr	r3, [fp, #-24]
   10800:	e0011003 	and	r1, r1, r3
   10804:	e51b0014 	ldr	r0, [fp, #-20]
   10808:	e51b3018 	ldr	r3, [fp, #-24]
   1080c:	e1800003 	orr	r0, r0, r3
   10810:	e51b3008 	ldr	r3, [fp, #-8]
   10814:	e0003003 	and	r3, r0, r3
   10818:	e1813003 	orr	r3, r1, r3
   1081c:	e0822003 	add	r2, r2, r3
   10820:	e51b301c 	ldr	r3, [fp, #-28]
   10824:	e1a03fe3 	ror	r3, r3, #31
   10828:	e50b3030 	str	r3, [fp, #-48]	; 0x30
   1082c:	e51b3030 	ldr	r3, [fp, #-48]	; 0x30
   10830:	e0822003 	add	r2, r2, r3
   10834:	e51b300c 	ldr	r3, [fp, #-12]
   10838:	e0822003 	add	r2, r2, r3
   1083c:	e51f31d4 	ldr	r3, [pc, #-468]	; 10670 <sha1_process+0x154c>
   10840:	e0823003 	add	r3, r2, r3
   10844:	e50b300c 	str	r3, [fp, #-12]
   10848:	e51b3014 	ldr	r3, [fp, #-20]
   1084c:	e1a03163 	ror	r3, r3, #2
   10850:	e50b3014 	str	r3, [fp, #-20]
   10854:	e51b2038 	ldr	r2, [fp, #-56]	; 0x38
   10858:	e51b304c 	ldr	r3, [fp, #-76]	; 0x4c
   1085c:	e0222003 	eor	r2, r2, r3
   10860:	e51b3024 	ldr	r3, [fp, #-36]	; 0x24
   10864:	e0222003 	eor	r2, r2, r3
   10868:	e51b302c 	ldr	r3, [fp, #-44]	; 0x2c
   1086c:	e0223003 	eor	r3, r2, r3
   10870:	e50b301c 	str	r3, [fp, #-28]
   10874:	e51b300c 	ldr	r3, [fp, #-12]
   10878:	e1a02de3 	ror	r2, r3, #27
   1087c:	e51b1010 	ldr	r1, [fp, #-16]
   10880:	e51b3014 	ldr	r3, [fp, #-20]
   10884:	e0011003 	and	r1, r1, r3
   10888:	e51b0010 	ldr	r0, [fp, #-16]
   1088c:	e51b3014 	ldr	r3, [fp, #-20]
   10890:	e1800003 	orr	r0, r0, r3
   10894:	e51b3018 	ldr	r3, [fp, #-24]
   10898:	e0003003 	and	r3, r0, r3
   1089c:	e1813003 	orr	r3, r1, r3
   108a0:	e0822003 	add	r2, r2, r3
   108a4:	e51b301c 	ldr	r3, [fp, #-28]
   108a8:	e1a03fe3 	ror	r3, r3, #31
   108ac:	e50b302c 	str	r3, [fp, #-44]	; 0x2c
   108b0:	e51b302c 	ldr	r3, [fp, #-44]	; 0x2c
   108b4:	e0822003 	add	r2, r2, r3
   108b8:	e51b3008 	ldr	r3, [fp, #-8]
   108bc:	e0822003 	add	r2, r2, r3
   108c0:	e51f3258 	ldr	r3, [pc, #-600]	; 10670 <sha1_process+0x154c>
   108c4:	e0823003 	add	r3, r2, r3
   108c8:	e50b3008 	str	r3, [fp, #-8]
   108cc:	e51b3010 	ldr	r3, [fp, #-16]
   108d0:	e1a03163 	ror	r3, r3, #2
   108d4:	e50b3010 	str	r3, [fp, #-16]
   108d8:	e51b2034 	ldr	r2, [fp, #-52]	; 0x34
   108dc:	e51b3048 	ldr	r3, [fp, #-72]	; 0x48
   108e0:	e0222003 	eor	r2, r2, r3
   108e4:	e51b3020 	ldr	r3, [fp, #-32]
   108e8:	e0222003 	eor	r2, r2, r3
   108ec:	e51b3028 	ldr	r3, [fp, #-40]	; 0x28
   108f0:	e0223003 	eor	r3, r2, r3
   108f4:	e50b301c 	str	r3, [fp, #-28]
   108f8:	e51b3008 	ldr	r3, [fp, #-8]
   108fc:	e1a02de3 	ror	r2, r3, #27
   10900:	e51b100c 	ldr	r1, [fp, #-12]
   10904:	e51b3010 	ldr	r3, [fp, #-16]
   10908:	e0011003 	and	r1, r1, r3
   1090c:	e51b000c 	ldr	r0, [fp, #-12]
   10910:	e51b3010 	ldr	r3, [fp, #-16]
   10914:	e1800003 	orr	r0, r0, r3
   10918:	e51b3014 	ldr	r3, [fp, #-20]
   1091c:	e0003003 	and	r3, r0, r3
   10920:	e1813003 	orr	r3, r1, r3
   10924:	e0822003 	add	r2, r2, r3
   10928:	e51b301c 	ldr	r3, [fp, #-28]
   1092c:	e1a03fe3 	ror	r3, r3, #31
   10930:	e50b3028 	str	r3, [fp, #-40]	; 0x28
   10934:	e51b3028 	ldr	r3, [fp, #-40]	; 0x28
   10938:	e0822003 	add	r2, r2, r3
   1093c:	e51b3018 	ldr	r3, [fp, #-24]
   10940:	e0822003 	add	r2, r2, r3
   10944:	e51f32dc 	ldr	r3, [pc, #-732]	; 10670 <sha1_process+0x154c>
   10948:	e0823003 	add	r3, r2, r3
   1094c:	e50b3018 	str	r3, [fp, #-24]
   10950:	e51b300c 	ldr	r3, [fp, #-12]
   10954:	e1a03163 	ror	r3, r3, #2
   10958:	e50b300c 	str	r3, [fp, #-12]
   1095c:	e51b2030 	ldr	r2, [fp, #-48]	; 0x30
   10960:	e51b3044 	ldr	r3, [fp, #-68]	; 0x44
   10964:	e0222003 	eor	r2, r2, r3
   10968:	e51b305c 	ldr	r3, [fp, #-92]	; 0x5c
   1096c:	e0222003 	eor	r2, r2, r3
   10970:	e51b3024 	ldr	r3, [fp, #-36]	; 0x24
   10974:	e0223003 	eor	r3, r2, r3
   10978:	e50b301c 	str	r3, [fp, #-28]
   1097c:	e51b3018 	ldr	r3, [fp, #-24]
   10980:	e1a02de3 	ror	r2, r3, #27
   10984:	e51b1008 	ldr	r1, [fp, #-8]
   10988:	e51b300c 	ldr	r3, [fp, #-12]
   1098c:	e0011003 	and	r1, r1, r3
   10990:	e51b0008 	ldr	r0, [fp, #-8]
   10994:	e51b300c 	ldr	r3, [fp, #-12]
   10998:	e1800003 	orr	r0, r0, r3
   1099c:	e51b3010 	ldr	r3, [fp, #-16]
   109a0:	e0003003 	and	r3, r0, r3
   109a4:	e1813003 	orr	r3, r1, r3
   109a8:	e0822003 	add	r2, r2, r3
   109ac:	e51b301c 	ldr	r3, [fp, #-28]
   109b0:	e1a03fe3 	ror	r3, r3, #31
   109b4:	e50b3024 	str	r3, [fp, #-36]	; 0x24
   109b8:	e51b3024 	ldr	r3, [fp, #-36]	; 0x24
   109bc:	e0822003 	add	r2, r2, r3
   109c0:	e51b3014 	ldr	r3, [fp, #-20]
   109c4:	e0822003 	add	r2, r2, r3
   109c8:	e51f3360 	ldr	r3, [pc, #-864]	; 10670 <sha1_process+0x154c>
   109cc:	e0823003 	add	r3, r2, r3
   109d0:	e50b3014 	str	r3, [fp, #-20]
   109d4:	e51b3008 	ldr	r3, [fp, #-8]
   109d8:	e1a03163 	ror	r3, r3, #2
   109dc:	e50b3008 	str	r3, [fp, #-8]
   109e0:	e51b202c 	ldr	r2, [fp, #-44]	; 0x2c
   109e4:	e51b3040 	ldr	r3, [fp, #-64]	; 0x40
   109e8:	e0222003 	eor	r2, r2, r3
   109ec:	e51b3058 	ldr	r3, [fp, #-88]	; 0x58
   109f0:	e0222003 	eor	r2, r2, r3
   109f4:	e51b3020 	ldr	r3, [fp, #-32]
   109f8:	e0223003 	eor	r3, r2, r3
   109fc:	e50b301c 	str	r3, [fp, #-28]
   10a00:	e51b3014 	ldr	r3, [fp, #-20]
   10a04:	e1a02de3 	ror	r2, r3, #27
   10a08:	e51b1018 	ldr	r1, [fp, #-24]
   10a0c:	e51b3008 	ldr	r3, [fp, #-8]
   10a10:	e0011003 	and	r1, r1, r3
   10a14:	e51b0018 	ldr	r0, [fp, #-24]
   10a18:	e51b3008 	ldr	r3, [fp, #-8]
   10a1c:	e1800003 	orr	r0, r0, r3
   10a20:	e51b300c 	ldr	r3, [fp, #-12]
   10a24:	e0003003 	and	r3, r0, r3
   10a28:	e1813003 	orr	r3, r1, r3
   10a2c:	e0822003 	add	r2, r2, r3
   10a30:	e51b301c 	ldr	r3, [fp, #-28]
   10a34:	e1a03fe3 	ror	r3, r3, #31
   10a38:	e50b3020 	str	r3, [fp, #-32]
   10a3c:	e51b3020 	ldr	r3, [fp, #-32]
   10a40:	e0822003 	add	r2, r2, r3
   10a44:	e51b3010 	ldr	r3, [fp, #-16]
   10a48:	e0822003 	add	r2, r2, r3
   10a4c:	e51f33e4 	ldr	r3, [pc, #-996]	; 10670 <sha1_process+0x154c>
   10a50:	e0823003 	add	r3, r2, r3
   10a54:	e50b3010 	str	r3, [fp, #-16]
   10a58:	e51b3018 	ldr	r3, [fp, #-24]
   10a5c:	e1a03163 	ror	r3, r3, #2
   10a60:	e50b3018 	str	r3, [fp, #-24]
   10a64:	e51b2028 	ldr	r2, [fp, #-40]	; 0x28
   10a68:	e51b303c 	ldr	r3, [fp, #-60]	; 0x3c
   10a6c:	e0222003 	eor	r2, r2, r3
   10a70:	e51b3054 	ldr	r3, [fp, #-84]	; 0x54
   10a74:	e0222003 	eor	r2, r2, r3
   10a78:	e51b305c 	ldr	r3, [fp, #-92]	; 0x5c
   10a7c:	e0223003 	eor	r3, r2, r3
   10a80:	e50b301c 	str	r3, [fp, #-28]
   10a84:	e51b3010 	ldr	r3, [fp, #-16]
   10a88:	e1a02de3 	ror	r2, r3, #27
   10a8c:	e51b1014 	ldr	r1, [fp, #-20]
   10a90:	e51b3018 	ldr	r3, [fp, #-24]
   10a94:	e0011003 	and	r1, r1, r3
   10a98:	e51b0014 	ldr	r0, [fp, #-20]
   10a9c:	e51b3018 	ldr	r3, [fp, #-24]
   10aa0:	e1800003 	orr	r0, r0, r3
   10aa4:	e51b3008 	ldr	r3, [fp, #-8]
   10aa8:	e0003003 	and	r3, r0, r3
   10aac:	e1813003 	orr	r3, r1, r3
   10ab0:	e0822003 	add	r2, r2, r3
   10ab4:	e51b301c 	ldr	r3, [fp, #-28]
   10ab8:	e1a03fe3 	ror	r3, r3, #31
   10abc:	e50b305c 	str	r3, [fp, #-92]	; 0x5c
   10ac0:	e51b305c 	ldr	r3, [fp, #-92]	; 0x5c
   10ac4:	e0822003 	add	r2, r2, r3
   10ac8:	e51b300c 	ldr	r3, [fp, #-12]
   10acc:	e0822003 	add	r2, r2, r3
   10ad0:	e51f3468 	ldr	r3, [pc, #-1128]	; 10670 <sha1_process+0x154c>
   10ad4:	e0823003 	add	r3, r2, r3
   10ad8:	e50b300c 	str	r3, [fp, #-12]
   10adc:	e51b3014 	ldr	r3, [fp, #-20]
   10ae0:	e1a03163 	ror	r3, r3, #2
   10ae4:	e50b3014 	str	r3, [fp, #-20]
   10ae8:	e51b2024 	ldr	r2, [fp, #-36]	; 0x24
   10aec:	e51b3038 	ldr	r3, [fp, #-56]	; 0x38
   10af0:	e0222003 	eor	r2, r2, r3
   10af4:	e51b3050 	ldr	r3, [fp, #-80]	; 0x50
   10af8:	e0222003 	eor	r2, r2, r3
   10afc:	e51b3058 	ldr	r3, [fp, #-88]	; 0x58
   10b00:	e0223003 	eor	r3, r2, r3
   10b04:	e50b301c 	str	r3, [fp, #-28]
   10b08:	e51b300c 	ldr	r3, [fp, #-12]
   10b0c:	e1a02de3 	ror	r2, r3, #27
   10b10:	e51b1010 	ldr	r1, [fp, #-16]
   10b14:	e51b3014 	ldr	r3, [fp, #-20]
   10b18:	e0011003 	and	r1, r1, r3
   10b1c:	e51b0010 	ldr	r0, [fp, #-16]
   10b20:	e51b3014 	ldr	r3, [fp, #-20]
   10b24:	e1800003 	orr	r0, r0, r3
   10b28:	e51b3018 	ldr	r3, [fp, #-24]
   10b2c:	e0003003 	and	r3, r0, r3
   10b30:	e1813003 	orr	r3, r1, r3
   10b34:	e0822003 	add	r2, r2, r3
   10b38:	e51b301c 	ldr	r3, [fp, #-28]
   10b3c:	e1a03fe3 	ror	r3, r3, #31
   10b40:	e50b3058 	str	r3, [fp, #-88]	; 0x58
   10b44:	e51b3058 	ldr	r3, [fp, #-88]	; 0x58
   10b48:	e0822003 	add	r2, r2, r3
   10b4c:	e51b3008 	ldr	r3, [fp, #-8]
   10b50:	e0822003 	add	r2, r2, r3
   10b54:	e51f34ec 	ldr	r3, [pc, #-1260]	; 10670 <sha1_process+0x154c>
   10b58:	e0823003 	add	r3, r2, r3
   10b5c:	e50b3008 	str	r3, [fp, #-8]
   10b60:	e51b3010 	ldr	r3, [fp, #-16]
   10b64:	e1a03163 	ror	r3, r3, #2
   10b68:	e50b3010 	str	r3, [fp, #-16]
   10b6c:	e51b2020 	ldr	r2, [fp, #-32]
   10b70:	e51b3034 	ldr	r3, [fp, #-52]	; 0x34
   10b74:	e0222003 	eor	r2, r2, r3
   10b78:	e51b304c 	ldr	r3, [fp, #-76]	; 0x4c
   10b7c:	e0222003 	eor	r2, r2, r3
   10b80:	e51b3054 	ldr	r3, [fp, #-84]	; 0x54
   10b84:	e0223003 	eor	r3, r2, r3
   10b88:	e50b301c 	str	r3, [fp, #-28]
   10b8c:	e51b3008 	ldr	r3, [fp, #-8]
   10b90:	e1a02de3 	ror	r2, r3, #27
   10b94:	e51b100c 	ldr	r1, [fp, #-12]
   10b98:	e51b3010 	ldr	r3, [fp, #-16]
   10b9c:	e0011003 	and	r1, r1, r3
   10ba0:	e51b000c 	ldr	r0, [fp, #-12]
   10ba4:	e51b3010 	ldr	r3, [fp, #-16]
   10ba8:	e1800003 	orr	r0, r0, r3
   10bac:	e51b3014 	ldr	r3, [fp, #-20]
   10bb0:	e0003003 	and	r3, r0, r3
   10bb4:	e1813003 	orr	r3, r1, r3
   10bb8:	e0822003 	add	r2, r2, r3
   10bbc:	e51b301c 	ldr	r3, [fp, #-28]
   10bc0:	e1a03fe3 	ror	r3, r3, #31
   10bc4:	e50b3054 	str	r3, [fp, #-84]	; 0x54
   10bc8:	e51b3054 	ldr	r3, [fp, #-84]	; 0x54
   10bcc:	e0822003 	add	r2, r2, r3
   10bd0:	e51b3018 	ldr	r3, [fp, #-24]
   10bd4:	e0822003 	add	r2, r2, r3
   10bd8:	e51f3570 	ldr	r3, [pc, #-1392]	; 10670 <sha1_process+0x154c>
   10bdc:	e0823003 	add	r3, r2, r3
   10be0:	e50b3018 	str	r3, [fp, #-24]
   10be4:	e51b300c 	ldr	r3, [fp, #-12]
   10be8:	e1a03163 	ror	r3, r3, #2
   10bec:	e50b300c 	str	r3, [fp, #-12]
   10bf0:	e51b205c 	ldr	r2, [fp, #-92]	; 0x5c
   10bf4:	e51b3030 	ldr	r3, [fp, #-48]	; 0x30
   10bf8:	e0222003 	eor	r2, r2, r3
   10bfc:	e51b3048 	ldr	r3, [fp, #-72]	; 0x48
   10c00:	e0222003 	eor	r2, r2, r3
   10c04:	e51b3050 	ldr	r3, [fp, #-80]	; 0x50
   10c08:	e0223003 	eor	r3, r2, r3
   10c0c:	e50b301c 	str	r3, [fp, #-28]
   10c10:	e51b3018 	ldr	r3, [fp, #-24]
   10c14:	e1a02de3 	ror	r2, r3, #27
   10c18:	e51b1008 	ldr	r1, [fp, #-8]
   10c1c:	e51b300c 	ldr	r3, [fp, #-12]
   10c20:	e0011003 	and	r1, r1, r3
   10c24:	e51b0008 	ldr	r0, [fp, #-8]
   10c28:	e51b300c 	ldr	r3, [fp, #-12]
   10c2c:	e1800003 	orr	r0, r0, r3
   10c30:	e51b3010 	ldr	r3, [fp, #-16]
   10c34:	e0003003 	and	r3, r0, r3
   10c38:	e1813003 	orr	r3, r1, r3
   10c3c:	e0822003 	add	r2, r2, r3
   10c40:	e51b301c 	ldr	r3, [fp, #-28]
   10c44:	e1a03fe3 	ror	r3, r3, #31
   10c48:	e50b3050 	str	r3, [fp, #-80]	; 0x50
   10c4c:	e51b3050 	ldr	r3, [fp, #-80]	; 0x50
   10c50:	e0822003 	add	r2, r2, r3
   10c54:	e51b3014 	ldr	r3, [fp, #-20]
   10c58:	e0822003 	add	r2, r2, r3
   10c5c:	e51f35f4 	ldr	r3, [pc, #-1524]	; 10670 <sha1_process+0x154c>
   10c60:	e0823003 	add	r3, r2, r3
   10c64:	e50b3014 	str	r3, [fp, #-20]
   10c68:	e51b3008 	ldr	r3, [fp, #-8]
   10c6c:	e1a03163 	ror	r3, r3, #2
   10c70:	e50b3008 	str	r3, [fp, #-8]
   10c74:	e51b2058 	ldr	r2, [fp, #-88]	; 0x58
   10c78:	e51b302c 	ldr	r3, [fp, #-44]	; 0x2c
   10c7c:	e0222003 	eor	r2, r2, r3
   10c80:	e51b3044 	ldr	r3, [fp, #-68]	; 0x44
   10c84:	e0222003 	eor	r2, r2, r3
   10c88:	e51b304c 	ldr	r3, [fp, #-76]	; 0x4c
   10c8c:	e0223003 	eor	r3, r2, r3
   10c90:	e50b301c 	str	r3, [fp, #-28]
   10c94:	e51b3014 	ldr	r3, [fp, #-20]
   10c98:	e1a02de3 	ror	r2, r3, #27
   10c9c:	e51b1018 	ldr	r1, [fp, #-24]
   10ca0:	e51b3008 	ldr	r3, [fp, #-8]
   10ca4:	e0011003 	and	r1, r1, r3
   10ca8:	e51b0018 	ldr	r0, [fp, #-24]
   10cac:	e51b3008 	ldr	r3, [fp, #-8]
   10cb0:	e1800003 	orr	r0, r0, r3
   10cb4:	e51b300c 	ldr	r3, [fp, #-12]
   10cb8:	e0003003 	and	r3, r0, r3
   10cbc:	e1813003 	orr	r3, r1, r3
   10cc0:	e0822003 	add	r2, r2, r3
   10cc4:	e51b301c 	ldr	r3, [fp, #-28]
   10cc8:	e1a03fe3 	ror	r3, r3, #31
   10ccc:	e50b304c 	str	r3, [fp, #-76]	; 0x4c
   10cd0:	e51b304c 	ldr	r3, [fp, #-76]	; 0x4c
   10cd4:	e0822003 	add	r2, r2, r3
   10cd8:	e51b3010 	ldr	r3, [fp, #-16]
   10cdc:	e0822003 	add	r2, r2, r3
   10ce0:	e51f3678 	ldr	r3, [pc, #-1656]	; 10670 <sha1_process+0x154c>
   10ce4:	e0823003 	add	r3, r2, r3
   10ce8:	e50b3010 	str	r3, [fp, #-16]
   10cec:	e51b3018 	ldr	r3, [fp, #-24]
   10cf0:	e1a03163 	ror	r3, r3, #2
   10cf4:	e50b3018 	str	r3, [fp, #-24]
   10cf8:	e51b2054 	ldr	r2, [fp, #-84]	; 0x54
   10cfc:	e51b3028 	ldr	r3, [fp, #-40]	; 0x28
   10d00:	e0222003 	eor	r2, r2, r3
   10d04:	e51b3040 	ldr	r3, [fp, #-64]	; 0x40
   10d08:	e0222003 	eor	r2, r2, r3
   10d0c:	e51b3048 	ldr	r3, [fp, #-72]	; 0x48
   10d10:	e0223003 	eor	r3, r2, r3
   10d14:	e50b301c 	str	r3, [fp, #-28]
   10d18:	e51b3010 	ldr	r3, [fp, #-16]
   10d1c:	e1a02de3 	ror	r2, r3, #27
   10d20:	e51b1014 	ldr	r1, [fp, #-20]
   10d24:	e51b3018 	ldr	r3, [fp, #-24]
   10d28:	e0011003 	and	r1, r1, r3
   10d2c:	e51b0014 	ldr	r0, [fp, #-20]
   10d30:	e51b3018 	ldr	r3, [fp, #-24]
   10d34:	e1800003 	orr	r0, r0, r3
   10d38:	e51b3008 	ldr	r3, [fp, #-8]
   10d3c:	e0003003 	and	r3, r0, r3
   10d40:	e1813003 	orr	r3, r1, r3
   10d44:	e0822003 	add	r2, r2, r3
   10d48:	e51b301c 	ldr	r3, [fp, #-28]
   10d4c:	e1a03fe3 	ror	r3, r3, #31
   10d50:	e50b3048 	str	r3, [fp, #-72]	; 0x48
   10d54:	e51b3048 	ldr	r3, [fp, #-72]	; 0x48
   10d58:	e0822003 	add	r2, r2, r3
   10d5c:	e51b300c 	ldr	r3, [fp, #-12]
   10d60:	e0822003 	add	r2, r2, r3
   10d64:	e51f36fc 	ldr	r3, [pc, #-1788]	; 10670 <sha1_process+0x154c>
   10d68:	e0823003 	add	r3, r2, r3
   10d6c:	e50b300c 	str	r3, [fp, #-12]
   10d70:	e51b3014 	ldr	r3, [fp, #-20]
   10d74:	e1a03163 	ror	r3, r3, #2
   10d78:	e50b3014 	str	r3, [fp, #-20]
   10d7c:	e51b2050 	ldr	r2, [fp, #-80]	; 0x50
   10d80:	e51b3024 	ldr	r3, [fp, #-36]	; 0x24
   10d84:	e0222003 	eor	r2, r2, r3
   10d88:	e51b303c 	ldr	r3, [fp, #-60]	; 0x3c
   10d8c:	e0222003 	eor	r2, r2, r3
   10d90:	e51b3044 	ldr	r3, [fp, #-68]	; 0x44
   10d94:	e0223003 	eor	r3, r2, r3
   10d98:	e50b301c 	str	r3, [fp, #-28]
   10d9c:	e51b300c 	ldr	r3, [fp, #-12]
   10da0:	e1a02de3 	ror	r2, r3, #27
   10da4:	e51b1010 	ldr	r1, [fp, #-16]
   10da8:	e51b3014 	ldr	r3, [fp, #-20]
   10dac:	e0011003 	and	r1, r1, r3
   10db0:	e51b0010 	ldr	r0, [fp, #-16]
   10db4:	e51b3014 	ldr	r3, [fp, #-20]
   10db8:	e1800003 	orr	r0, r0, r3
   10dbc:	e51b3018 	ldr	r3, [fp, #-24]
   10dc0:	e0003003 	and	r3, r0, r3
   10dc4:	e1813003 	orr	r3, r1, r3
   10dc8:	e0822003 	add	r2, r2, r3
   10dcc:	e51b301c 	ldr	r3, [fp, #-28]
   10dd0:	e1a03fe3 	ror	r3, r3, #31
   10dd4:	e50b3044 	str	r3, [fp, #-68]	; 0x44
   10dd8:	e51b3044 	ldr	r3, [fp, #-68]	; 0x44
   10ddc:	e0822003 	add	r2, r2, r3
   10de0:	e51b3008 	ldr	r3, [fp, #-8]
   10de4:	e0822003 	add	r2, r2, r3
   10de8:	e51f3780 	ldr	r3, [pc, #-1920]	; 10670 <sha1_process+0x154c>
   10dec:	e0823003 	add	r3, r2, r3
   10df0:	e50b3008 	str	r3, [fp, #-8]
   10df4:	e51b3010 	ldr	r3, [fp, #-16]
   10df8:	e1a03163 	ror	r3, r3, #2
   10dfc:	e50b3010 	str	r3, [fp, #-16]
   10e00:	e51b204c 	ldr	r2, [fp, #-76]	; 0x4c
   10e04:	e51b3020 	ldr	r3, [fp, #-32]
   10e08:	e0222003 	eor	r2, r2, r3
   10e0c:	e51b3038 	ldr	r3, [fp, #-56]	; 0x38
   10e10:	e0222003 	eor	r2, r2, r3
   10e14:	e51b3040 	ldr	r3, [fp, #-64]	; 0x40
   10e18:	e0223003 	eor	r3, r2, r3
   10e1c:	e50b301c 	str	r3, [fp, #-28]
   10e20:	e51b3008 	ldr	r3, [fp, #-8]
   10e24:	e1a02de3 	ror	r2, r3, #27
   10e28:	e51b100c 	ldr	r1, [fp, #-12]
   10e2c:	e51b3010 	ldr	r3, [fp, #-16]
   10e30:	e0011003 	and	r1, r1, r3
   10e34:	e51b000c 	ldr	r0, [fp, #-12]
   10e38:	e51b3010 	ldr	r3, [fp, #-16]
   10e3c:	e1800003 	orr	r0, r0, r3
   10e40:	e51b3014 	ldr	r3, [fp, #-20]
   10e44:	e0003003 	and	r3, r0, r3
   10e48:	e1813003 	orr	r3, r1, r3
   10e4c:	e0822003 	add	r2, r2, r3
   10e50:	e51b301c 	ldr	r3, [fp, #-28]
   10e54:	e1a03fe3 	ror	r3, r3, #31
   10e58:	e50b3040 	str	r3, [fp, #-64]	; 0x40
   10e5c:	e51b3040 	ldr	r3, [fp, #-64]	; 0x40
   10e60:	e0822003 	add	r2, r2, r3
   10e64:	e51b3018 	ldr	r3, [fp, #-24]
   10e68:	e0822003 	add	r2, r2, r3
   10e6c:	e51f3804 	ldr	r3, [pc, #-2052]	; 10670 <sha1_process+0x154c>
   10e70:	e0823003 	add	r3, r2, r3
   10e74:	e50b3018 	str	r3, [fp, #-24]
   10e78:	e51b300c 	ldr	r3, [fp, #-12]
   10e7c:	e1a03163 	ror	r3, r3, #2
   10e80:	e50b300c 	str	r3, [fp, #-12]
   10e84:	e51b2048 	ldr	r2, [fp, #-72]	; 0x48
   10e88:	e51b305c 	ldr	r3, [fp, #-92]	; 0x5c
   10e8c:	e0222003 	eor	r2, r2, r3
   10e90:	e51b3034 	ldr	r3, [fp, #-52]	; 0x34
   10e94:	e0222003 	eor	r2, r2, r3
   10e98:	e51b303c 	ldr	r3, [fp, #-60]	; 0x3c
   10e9c:	e0223003 	eor	r3, r2, r3
   10ea0:	e50b301c 	str	r3, [fp, #-28]
   10ea4:	e51b3018 	ldr	r3, [fp, #-24]
   10ea8:	e1a02de3 	ror	r2, r3, #27
   10eac:	e51b1008 	ldr	r1, [fp, #-8]
   10eb0:	e51b300c 	ldr	r3, [fp, #-12]
   10eb4:	e0011003 	and	r1, r1, r3
   10eb8:	e51b0008 	ldr	r0, [fp, #-8]
   10ebc:	e51b300c 	ldr	r3, [fp, #-12]
   10ec0:	e1800003 	orr	r0, r0, r3
   10ec4:	e51b3010 	ldr	r3, [fp, #-16]
   10ec8:	e0003003 	and	r3, r0, r3
   10ecc:	e1813003 	orr	r3, r1, r3
   10ed0:	e0822003 	add	r2, r2, r3
   10ed4:	e51b301c 	ldr	r3, [fp, #-28]
   10ed8:	e1a03fe3 	ror	r3, r3, #31
   10edc:	e50b303c 	str	r3, [fp, #-60]	; 0x3c
   10ee0:	e51b303c 	ldr	r3, [fp, #-60]	; 0x3c
   10ee4:	e0822003 	add	r2, r2, r3
   10ee8:	e51b3014 	ldr	r3, [fp, #-20]
   10eec:	e0822003 	add	r2, r2, r3
   10ef0:	e51f3888 	ldr	r3, [pc, #-2184]	; 10670 <sha1_process+0x154c>
   10ef4:	e0823003 	add	r3, r2, r3
   10ef8:	e50b3014 	str	r3, [fp, #-20]
   10efc:	e51b3008 	ldr	r3, [fp, #-8]
   10f00:	e1a03163 	ror	r3, r3, #2
   10f04:	e50b3008 	str	r3, [fp, #-8]
   10f08:	e51b2044 	ldr	r2, [fp, #-68]	; 0x44
   10f0c:	e51b3058 	ldr	r3, [fp, #-88]	; 0x58
   10f10:	e0222003 	eor	r2, r2, r3
   10f14:	e51b3030 	ldr	r3, [fp, #-48]	; 0x30
   10f18:	e0222003 	eor	r2, r2, r3
   10f1c:	e51b3038 	ldr	r3, [fp, #-56]	; 0x38
   10f20:	e0223003 	eor	r3, r2, r3
   10f24:	e50b301c 	str	r3, [fp, #-28]
   10f28:	e51b3014 	ldr	r3, [fp, #-20]
   10f2c:	e1a02de3 	ror	r2, r3, #27
   10f30:	e51b1018 	ldr	r1, [fp, #-24]
   10f34:	e51b3008 	ldr	r3, [fp, #-8]
   10f38:	e0011003 	and	r1, r1, r3
   10f3c:	e51b0018 	ldr	r0, [fp, #-24]
   10f40:	e51b3008 	ldr	r3, [fp, #-8]
   10f44:	e1800003 	orr	r0, r0, r3
   10f48:	e51b300c 	ldr	r3, [fp, #-12]
   10f4c:	e0003003 	and	r3, r0, r3
   10f50:	e1813003 	orr	r3, r1, r3
   10f54:	e0822003 	add	r2, r2, r3
   10f58:	e51b301c 	ldr	r3, [fp, #-28]
   10f5c:	e1a03fe3 	ror	r3, r3, #31
   10f60:	e50b3038 	str	r3, [fp, #-56]	; 0x38
   10f64:	e51b3038 	ldr	r3, [fp, #-56]	; 0x38
   10f68:	e0822003 	add	r2, r2, r3
   10f6c:	e51b3010 	ldr	r3, [fp, #-16]
   10f70:	e0822003 	add	r2, r2, r3
   10f74:	e51f390c 	ldr	r3, [pc, #-2316]	; 10670 <sha1_process+0x154c>
   10f78:	e0823003 	add	r3, r2, r3
   10f7c:	e50b3010 	str	r3, [fp, #-16]
   10f80:	e51b3018 	ldr	r3, [fp, #-24]
   10f84:	e1a03163 	ror	r3, r3, #2
   10f88:	e50b3018 	str	r3, [fp, #-24]
   10f8c:	e51b2040 	ldr	r2, [fp, #-64]	; 0x40
   10f90:	e51b3054 	ldr	r3, [fp, #-84]	; 0x54
   10f94:	e0222003 	eor	r2, r2, r3
   10f98:	e51b302c 	ldr	r3, [fp, #-44]	; 0x2c
   10f9c:	e0222003 	eor	r2, r2, r3
   10fa0:	e51b3034 	ldr	r3, [fp, #-52]	; 0x34
   10fa4:	e0223003 	eor	r3, r2, r3
   10fa8:	e50b301c 	str	r3, [fp, #-28]
   10fac:	e51b3010 	ldr	r3, [fp, #-16]
   10fb0:	e1a02de3 	ror	r2, r3, #27
   10fb4:	e51b1014 	ldr	r1, [fp, #-20]
   10fb8:	e51b3018 	ldr	r3, [fp, #-24]
   10fbc:	e0011003 	and	r1, r1, r3
   10fc0:	e51b0014 	ldr	r0, [fp, #-20]
   10fc4:	e51b3018 	ldr	r3, [fp, #-24]
   10fc8:	e1800003 	orr	r0, r0, r3
   10fcc:	e51b3008 	ldr	r3, [fp, #-8]
   10fd0:	e0003003 	and	r3, r0, r3
   10fd4:	e1813003 	orr	r3, r1, r3
   10fd8:	e0822003 	add	r2, r2, r3
   10fdc:	e51b301c 	ldr	r3, [fp, #-28]
   10fe0:	e1a03fe3 	ror	r3, r3, #31
   10fe4:	e50b3034 	str	r3, [fp, #-52]	; 0x34
   10fe8:	e51b3034 	ldr	r3, [fp, #-52]	; 0x34
   10fec:	e0822003 	add	r2, r2, r3
   10ff0:	e51b300c 	ldr	r3, [fp, #-12]
   10ff4:	e0822003 	add	r2, r2, r3
   10ff8:	e51f3990 	ldr	r3, [pc, #-2448]	; 10670 <sha1_process+0x154c>
   10ffc:	e0823003 	add	r3, r2, r3
   11000:	e50b300c 	str	r3, [fp, #-12]
   11004:	e51b3014 	ldr	r3, [fp, #-20]
   11008:	e1a03163 	ror	r3, r3, #2
   1100c:	e50b3014 	str	r3, [fp, #-20]
   11010:	e51b203c 	ldr	r2, [fp, #-60]	; 0x3c
   11014:	e51b3050 	ldr	r3, [fp, #-80]	; 0x50
   11018:	e0222003 	eor	r2, r2, r3
   1101c:	e51b3028 	ldr	r3, [fp, #-40]	; 0x28
   11020:	e0222003 	eor	r2, r2, r3
   11024:	e51b3030 	ldr	r3, [fp, #-48]	; 0x30
   11028:	e0223003 	eor	r3, r2, r3
   1102c:	e50b301c 	str	r3, [fp, #-28]
   11030:	e51b300c 	ldr	r3, [fp, #-12]
   11034:	e1a02de3 	ror	r2, r3, #27
   11038:	e51b1010 	ldr	r1, [fp, #-16]
   1103c:	e51b3014 	ldr	r3, [fp, #-20]
   11040:	e0011003 	and	r1, r1, r3
   11044:	e51b0010 	ldr	r0, [fp, #-16]
   11048:	e51b3014 	ldr	r3, [fp, #-20]
   1104c:	e1800003 	orr	r0, r0, r3
   11050:	e51b3018 	ldr	r3, [fp, #-24]
   11054:	e0003003 	and	r3, r0, r3
   11058:	e1813003 	orr	r3, r1, r3
   1105c:	e0822003 	add	r2, r2, r3
   11060:	e51b301c 	ldr	r3, [fp, #-28]
   11064:	e1a03fe3 	ror	r3, r3, #31
   11068:	e50b3030 	str	r3, [fp, #-48]	; 0x30
   1106c:	e51b3030 	ldr	r3, [fp, #-48]	; 0x30
   11070:	e0822003 	add	r2, r2, r3
   11074:	e51b3008 	ldr	r3, [fp, #-8]
   11078:	e0822003 	add	r2, r2, r3
   1107c:	e51f3a14 	ldr	r3, [pc, #-2580]	; 10670 <sha1_process+0x154c>
   11080:	e0823003 	add	r3, r2, r3
   11084:	e50b3008 	str	r3, [fp, #-8]
   11088:	e51b3010 	ldr	r3, [fp, #-16]
   1108c:	e1a03163 	ror	r3, r3, #2
   11090:	e50b3010 	str	r3, [fp, #-16]
   11094:	e51b2038 	ldr	r2, [fp, #-56]	; 0x38
   11098:	e51b304c 	ldr	r3, [fp, #-76]	; 0x4c
   1109c:	e0222003 	eor	r2, r2, r3
   110a0:	e51b3024 	ldr	r3, [fp, #-36]	; 0x24
   110a4:	e0222003 	eor	r2, r2, r3
   110a8:	e51b302c 	ldr	r3, [fp, #-44]	; 0x2c
   110ac:	e0223003 	eor	r3, r2, r3
   110b0:	e50b301c 	str	r3, [fp, #-28]
   110b4:	e51b3008 	ldr	r3, [fp, #-8]
   110b8:	e1a02de3 	ror	r2, r3, #27
   110bc:	e51b100c 	ldr	r1, [fp, #-12]
   110c0:	e51b3010 	ldr	r3, [fp, #-16]
   110c4:	e0211003 	eor	r1, r1, r3
   110c8:	e51b3014 	ldr	r3, [fp, #-20]
   110cc:	e0213003 	eor	r3, r1, r3
   110d0:	e0822003 	add	r2, r2, r3
   110d4:	e51b301c 	ldr	r3, [fp, #-28]
   110d8:	e1a03fe3 	ror	r3, r3, #31
   110dc:	e50b302c 	str	r3, [fp, #-44]	; 0x2c
   110e0:	e51b302c 	ldr	r3, [fp, #-44]	; 0x2c
   110e4:	e0822003 	add	r2, r2, r3
   110e8:	e51b3018 	ldr	r3, [fp, #-24]
   110ec:	e0822003 	add	r2, r2, r3
   110f0:	e51f3a84 	ldr	r3, [pc, #-2692]	; 10674 <sha1_process+0x1550>
   110f4:	e0823003 	add	r3, r2, r3
   110f8:	e50b3018 	str	r3, [fp, #-24]
   110fc:	e51b300c 	ldr	r3, [fp, #-12]
   11100:	e1a03163 	ror	r3, r3, #2
   11104:	e50b300c 	str	r3, [fp, #-12]
   11108:	e51b2034 	ldr	r2, [fp, #-52]	; 0x34
   1110c:	e51b3048 	ldr	r3, [fp, #-72]	; 0x48
   11110:	e0222003 	eor	r2, r2, r3
   11114:	e51b3020 	ldr	r3, [fp, #-32]
   11118:	e0222003 	eor	r2, r2, r3
   1111c:	e51b3028 	ldr	r3, [fp, #-40]	; 0x28
   11120:	e0223003 	eor	r3, r2, r3
   11124:	e50b301c 	str	r3, [fp, #-28]
   11128:	e51b3018 	ldr	r3, [fp, #-24]
   1112c:	e1a02de3 	ror	r2, r3, #27
   11130:	e51b1008 	ldr	r1, [fp, #-8]
   11134:	e51b300c 	ldr	r3, [fp, #-12]
   11138:	e0211003 	eor	r1, r1, r3
   1113c:	e51b3010 	ldr	r3, [fp, #-16]
   11140:	e0213003 	eor	r3, r1, r3
   11144:	e0822003 	add	r2, r2, r3
   11148:	e51b301c 	ldr	r3, [fp, #-28]
   1114c:	e1a03fe3 	ror	r3, r3, #31
   11150:	e50b3028 	str	r3, [fp, #-40]	; 0x28
   11154:	e51b3028 	ldr	r3, [fp, #-40]	; 0x28
   11158:	e0822003 	add	r2, r2, r3
   1115c:	e51b3014 	ldr	r3, [fp, #-20]
   11160:	e0822003 	add	r2, r2, r3
   11164:	e51f3af8 	ldr	r3, [pc, #-2808]	; 10674 <sha1_process+0x1550>
   11168:	e0823003 	add	r3, r2, r3
   1116c:	e50b3014 	str	r3, [fp, #-20]
   11170:	e51b3008 	ldr	r3, [fp, #-8]
   11174:	e1a03163 	ror	r3, r3, #2
   11178:	e50b3008 	str	r3, [fp, #-8]
   1117c:	e51b2030 	ldr	r2, [fp, #-48]	; 0x30
   11180:	e51b3044 	ldr	r3, [fp, #-68]	; 0x44
   11184:	e0222003 	eor	r2, r2, r3
   11188:	e51b305c 	ldr	r3, [fp, #-92]	; 0x5c
   1118c:	e0222003 	eor	r2, r2, r3
   11190:	e51b3024 	ldr	r3, [fp, #-36]	; 0x24
   11194:	e0223003 	eor	r3, r2, r3
   11198:	e50b301c 	str	r3, [fp, #-28]
   1119c:	e51b3014 	ldr	r3, [fp, #-20]
   111a0:	e1a02de3 	ror	r2, r3, #27
   111a4:	e51b1018 	ldr	r1, [fp, #-24]
   111a8:	e51b3008 	ldr	r3, [fp, #-8]
   111ac:	e0211003 	eor	r1, r1, r3
   111b0:	e51b300c 	ldr	r3, [fp, #-12]
   111b4:	e0213003 	eor	r3, r1, r3
   111b8:	e0822003 	add	r2, r2, r3
   111bc:	e51b301c 	ldr	r3, [fp, #-28]
   111c0:	e1a03fe3 	ror	r3, r3, #31
   111c4:	e50b3024 	str	r3, [fp, #-36]	; 0x24
   111c8:	e51b3024 	ldr	r3, [fp, #-36]	; 0x24
   111cc:	e0822003 	add	r2, r2, r3
   111d0:	e51b3010 	ldr	r3, [fp, #-16]
   111d4:	e0822003 	add	r2, r2, r3
   111d8:	e51f3b6c 	ldr	r3, [pc, #-2924]	; 10674 <sha1_process+0x1550>
   111dc:	e0823003 	add	r3, r2, r3
   111e0:	e50b3010 	str	r3, [fp, #-16]
   111e4:	e51b3018 	ldr	r3, [fp, #-24]
   111e8:	e1a03163 	ror	r3, r3, #2
   111ec:	e50b3018 	str	r3, [fp, #-24]
   111f0:	e51b202c 	ldr	r2, [fp, #-44]	; 0x2c
   111f4:	e51b3040 	ldr	r3, [fp, #-64]	; 0x40
   111f8:	e0222003 	eor	r2, r2, r3
   111fc:	e51b3058 	ldr	r3, [fp, #-88]	; 0x58
   11200:	e0222003 	eor	r2, r2, r3
   11204:	e51b3020 	ldr	r3, [fp, #-32]
   11208:	e0223003 	eor	r3, r2, r3
   1120c:	e50b301c 	str	r3, [fp, #-28]
   11210:	e51b3010 	ldr	r3, [fp, #-16]
   11214:	e1a02de3 	ror	r2, r3, #27
   11218:	e51b1014 	ldr	r1, [fp, #-20]
   1121c:	e51b3018 	ldr	r3, [fp, #-24]
   11220:	e0211003 	eor	r1, r1, r3
   11224:	e51b3008 	ldr	r3, [fp, #-8]
   11228:	e0213003 	eor	r3, r1, r3
   1122c:	e0822003 	add	r2, r2, r3
   11230:	e51b301c 	ldr	r3, [fp, #-28]
   11234:	e1a03fe3 	ror	r3, r3, #31
   11238:	e50b3020 	str	r3, [fp, #-32]
   1123c:	e51b3020 	ldr	r3, [fp, #-32]
   11240:	e0822003 	add	r2, r2, r3
   11244:	e51b300c 	ldr	r3, [fp, #-12]
   11248:	e0822003 	add	r2, r2, r3
   1124c:	e51f3be0 	ldr	r3, [pc, #-3040]	; 10674 <sha1_process+0x1550>
   11250:	e0823003 	add	r3, r2, r3
   11254:	e50b300c 	str	r3, [fp, #-12]
   11258:	e51b3014 	ldr	r3, [fp, #-20]
   1125c:	e1a03163 	ror	r3, r3, #2
   11260:	e50b3014 	str	r3, [fp, #-20]
   11264:	e51b2028 	ldr	r2, [fp, #-40]	; 0x28
   11268:	e51b303c 	ldr	r3, [fp, #-60]	; 0x3c
   1126c:	e0222003 	eor	r2, r2, r3
   11270:	e51b3054 	ldr	r3, [fp, #-84]	; 0x54
   11274:	e0222003 	eor	r2, r2, r3
   11278:	e51b305c 	ldr	r3, [fp, #-92]	; 0x5c
   1127c:	e0223003 	eor	r3, r2, r3
   11280:	e50b301c 	str	r3, [fp, #-28]
   11284:	e51b300c 	ldr	r3, [fp, #-12]
   11288:	e1a02de3 	ror	r2, r3, #27
   1128c:	e51b1010 	ldr	r1, [fp, #-16]
   11290:	e51b3014 	ldr	r3, [fp, #-20]
   11294:	e0211003 	eor	r1, r1, r3
   11298:	e51b3018 	ldr	r3, [fp, #-24]
   1129c:	e0213003 	eor	r3, r1, r3
   112a0:	e0822003 	add	r2, r2, r3
   112a4:	e51b301c 	ldr	r3, [fp, #-28]
   112a8:	e1a03fe3 	ror	r3, r3, #31
   112ac:	e50b305c 	str	r3, [fp, #-92]	; 0x5c
   112b0:	e51b305c 	ldr	r3, [fp, #-92]	; 0x5c
   112b4:	e0822003 	add	r2, r2, r3
   112b8:	e51b3008 	ldr	r3, [fp, #-8]
   112bc:	e0822003 	add	r2, r2, r3
   112c0:	e51f3c54 	ldr	r3, [pc, #-3156]	; 10674 <sha1_process+0x1550>
   112c4:	e0823003 	add	r3, r2, r3
   112c8:	e50b3008 	str	r3, [fp, #-8]
   112cc:	e51b3010 	ldr	r3, [fp, #-16]
   112d0:	e1a03163 	ror	r3, r3, #2
   112d4:	e50b3010 	str	r3, [fp, #-16]
   112d8:	e51b2024 	ldr	r2, [fp, #-36]	; 0x24
   112dc:	e51b3038 	ldr	r3, [fp, #-56]	; 0x38
   112e0:	e0222003 	eor	r2, r2, r3
   112e4:	e51b3050 	ldr	r3, [fp, #-80]	; 0x50
   112e8:	e0222003 	eor	r2, r2, r3
   112ec:	e51b3058 	ldr	r3, [fp, #-88]	; 0x58
   112f0:	e0223003 	eor	r3, r2, r3
   112f4:	e50b301c 	str	r3, [fp, #-28]
   112f8:	e51b3008 	ldr	r3, [fp, #-8]
   112fc:	e1a02de3 	ror	r2, r3, #27
   11300:	e51b100c 	ldr	r1, [fp, #-12]
   11304:	e51b3010 	ldr	r3, [fp, #-16]
   11308:	e0211003 	eor	r1, r1, r3
   1130c:	e51b3014 	ldr	r3, [fp, #-20]
   11310:	e0213003 	eor	r3, r1, r3
   11314:	e0822003 	add	r2, r2, r3
   11318:	e51b301c 	ldr	r3, [fp, #-28]
   1131c:	e1a03fe3 	ror	r3, r3, #31
   11320:	e50b3058 	str	r3, [fp, #-88]	; 0x58
   11324:	e51b3058 	ldr	r3, [fp, #-88]	; 0x58
   11328:	e0822003 	add	r2, r2, r3
   1132c:	e51b3018 	ldr	r3, [fp, #-24]
   11330:	e0822003 	add	r2, r2, r3
   11334:	e51f3cc8 	ldr	r3, [pc, #-3272]	; 10674 <sha1_process+0x1550>
   11338:	e0823003 	add	r3, r2, r3
   1133c:	e50b3018 	str	r3, [fp, #-24]
   11340:	e51b300c 	ldr	r3, [fp, #-12]
   11344:	e1a03163 	ror	r3, r3, #2
   11348:	e50b300c 	str	r3, [fp, #-12]
   1134c:	e51b2020 	ldr	r2, [fp, #-32]
   11350:	e51b3034 	ldr	r3, [fp, #-52]	; 0x34
   11354:	e0222003 	eor	r2, r2, r3
   11358:	e51b304c 	ldr	r3, [fp, #-76]	; 0x4c
   1135c:	e0222003 	eor	r2, r2, r3
   11360:	e51b3054 	ldr	r3, [fp, #-84]	; 0x54
   11364:	e0223003 	eor	r3, r2, r3
   11368:	e50b301c 	str	r3, [fp, #-28]
   1136c:	e51b3018 	ldr	r3, [fp, #-24]
   11370:	e1a02de3 	ror	r2, r3, #27
   11374:	e51b1008 	ldr	r1, [fp, #-8]
   11378:	e51b300c 	ldr	r3, [fp, #-12]
   1137c:	e0211003 	eor	r1, r1, r3
   11380:	e51b3010 	ldr	r3, [fp, #-16]
   11384:	e0213003 	eor	r3, r1, r3
   11388:	e0822003 	add	r2, r2, r3
   1138c:	e51b301c 	ldr	r3, [fp, #-28]
   11390:	e1a03fe3 	ror	r3, r3, #31
   11394:	e50b3054 	str	r3, [fp, #-84]	; 0x54
   11398:	e51b3054 	ldr	r3, [fp, #-84]	; 0x54
   1139c:	e0822003 	add	r2, r2, r3
   113a0:	e51b3014 	ldr	r3, [fp, #-20]
   113a4:	e0822003 	add	r2, r2, r3
   113a8:	e51f3d3c 	ldr	r3, [pc, #-3388]	; 10674 <sha1_process+0x1550>
   113ac:	e0823003 	add	r3, r2, r3
   113b0:	e50b3014 	str	r3, [fp, #-20]
   113b4:	e51b3008 	ldr	r3, [fp, #-8]
   113b8:	e1a03163 	ror	r3, r3, #2
   113bc:	e50b3008 	str	r3, [fp, #-8]
   113c0:	e51b205c 	ldr	r2, [fp, #-92]	; 0x5c
   113c4:	e51b3030 	ldr	r3, [fp, #-48]	; 0x30
   113c8:	e0222003 	eor	r2, r2, r3
   113cc:	e51b3048 	ldr	r3, [fp, #-72]	; 0x48
   113d0:	e0222003 	eor	r2, r2, r3
   113d4:	e51b3050 	ldr	r3, [fp, #-80]	; 0x50
   113d8:	e0223003 	eor	r3, r2, r3
   113dc:	e50b301c 	str	r3, [fp, #-28]
   113e0:	e51b3014 	ldr	r3, [fp, #-20]
   113e4:	e1a02de3 	ror	r2, r3, #27
   113e8:	e51b1018 	ldr	r1, [fp, #-24]
   113ec:	e51b3008 	ldr	r3, [fp, #-8]
   113f0:	e0211003 	eor	r1, r1, r3
   113f4:	e51b300c 	ldr	r3, [fp, #-12]
   113f8:	e0213003 	eor	r3, r1, r3
   113fc:	e0822003 	add	r2, r2, r3
   11400:	e51b301c 	ldr	r3, [fp, #-28]
   11404:	e1a03fe3 	ror	r3, r3, #31
   11408:	e50b3050 	str	r3, [fp, #-80]	; 0x50
   1140c:	e51b3050 	ldr	r3, [fp, #-80]	; 0x50
   11410:	e0822003 	add	r2, r2, r3
   11414:	e51b3010 	ldr	r3, [fp, #-16]
   11418:	e0822003 	add	r2, r2, r3
   1141c:	e51f3db0 	ldr	r3, [pc, #-3504]	; 10674 <sha1_process+0x1550>
   11420:	e0823003 	add	r3, r2, r3
   11424:	e50b3010 	str	r3, [fp, #-16]
   11428:	e51b3018 	ldr	r3, [fp, #-24]
   1142c:	e1a03163 	ror	r3, r3, #2
   11430:	e50b3018 	str	r3, [fp, #-24]
   11434:	e51b2058 	ldr	r2, [fp, #-88]	; 0x58
   11438:	e51b302c 	ldr	r3, [fp, #-44]	; 0x2c
   1143c:	e0222003 	eor	r2, r2, r3
   11440:	e51b3044 	ldr	r3, [fp, #-68]	; 0x44
   11444:	e0222003 	eor	r2, r2, r3
   11448:	e51b304c 	ldr	r3, [fp, #-76]	; 0x4c
   1144c:	e0223003 	eor	r3, r2, r3
   11450:	e50b301c 	str	r3, [fp, #-28]
   11454:	e51b3010 	ldr	r3, [fp, #-16]
   11458:	e1a02de3 	ror	r2, r3, #27
   1145c:	e51b1014 	ldr	r1, [fp, #-20]
   11460:	e51b3018 	ldr	r3, [fp, #-24]
   11464:	e0211003 	eor	r1, r1, r3
   11468:	e51b3008 	ldr	r3, [fp, #-8]
   1146c:	e0213003 	eor	r3, r1, r3
   11470:	e0822003 	add	r2, r2, r3
   11474:	e51b301c 	ldr	r3, [fp, #-28]
   11478:	e1a03fe3 	ror	r3, r3, #31
   1147c:	e50b304c 	str	r3, [fp, #-76]	; 0x4c
   11480:	e51b304c 	ldr	r3, [fp, #-76]	; 0x4c
   11484:	e0822003 	add	r2, r2, r3
   11488:	e51b300c 	ldr	r3, [fp, #-12]
   1148c:	e0822003 	add	r2, r2, r3
   11490:	e51f3e24 	ldr	r3, [pc, #-3620]	; 10674 <sha1_process+0x1550>
   11494:	e0823003 	add	r3, r2, r3
   11498:	e50b300c 	str	r3, [fp, #-12]
   1149c:	e51b3014 	ldr	r3, [fp, #-20]
   114a0:	e1a03163 	ror	r3, r3, #2
   114a4:	e50b3014 	str	r3, [fp, #-20]
   114a8:	e51b2054 	ldr	r2, [fp, #-84]	; 0x54
   114ac:	e51b3028 	ldr	r3, [fp, #-40]	; 0x28
   114b0:	e0222003 	eor	r2, r2, r3
   114b4:	e51b3040 	ldr	r3, [fp, #-64]	; 0x40
   114b8:	e0222003 	eor	r2, r2, r3
   114bc:	e51b3048 	ldr	r3, [fp, #-72]	; 0x48
   114c0:	e0223003 	eor	r3, r2, r3
   114c4:	e50b301c 	str	r3, [fp, #-28]
   114c8:	e51b300c 	ldr	r3, [fp, #-12]
   114cc:	e1a02de3 	ror	r2, r3, #27
   114d0:	e51b1010 	ldr	r1, [fp, #-16]
   114d4:	e51b3014 	ldr	r3, [fp, #-20]
   114d8:	e0211003 	eor	r1, r1, r3
   114dc:	e51b3018 	ldr	r3, [fp, #-24]
   114e0:	e0213003 	eor	r3, r1, r3
   114e4:	e0822003 	add	r2, r2, r3
   114e8:	e51b301c 	ldr	r3, [fp, #-28]
   114ec:	e1a03fe3 	ror	r3, r3, #31
   114f0:	e50b3048 	str	r3, [fp, #-72]	; 0x48
   114f4:	e51b3048 	ldr	r3, [fp, #-72]	; 0x48
   114f8:	e0822003 	add	r2, r2, r3
   114fc:	e51b3008 	ldr	r3, [fp, #-8]
   11500:	e0822003 	add	r2, r2, r3
   11504:	e51f3e98 	ldr	r3, [pc, #-3736]	; 10674 <sha1_process+0x1550>
   11508:	e0823003 	add	r3, r2, r3
   1150c:	e50b3008 	str	r3, [fp, #-8]
   11510:	e51b3010 	ldr	r3, [fp, #-16]
   11514:	e1a03163 	ror	r3, r3, #2
   11518:	e50b3010 	str	r3, [fp, #-16]
   1151c:	e51b2050 	ldr	r2, [fp, #-80]	; 0x50
   11520:	e51b3024 	ldr	r3, [fp, #-36]	; 0x24
   11524:	e0222003 	eor	r2, r2, r3
   11528:	e51b303c 	ldr	r3, [fp, #-60]	; 0x3c
   1152c:	e0222003 	eor	r2, r2, r3
   11530:	e51b3044 	ldr	r3, [fp, #-68]	; 0x44
   11534:	e0223003 	eor	r3, r2, r3
   11538:	e50b301c 	str	r3, [fp, #-28]
   1153c:	e51b3008 	ldr	r3, [fp, #-8]
   11540:	e1a02de3 	ror	r2, r3, #27
   11544:	e51b100c 	ldr	r1, [fp, #-12]
   11548:	e51b3010 	ldr	r3, [fp, #-16]
   1154c:	e0211003 	eor	r1, r1, r3
   11550:	e51b3014 	ldr	r3, [fp, #-20]
   11554:	e0213003 	eor	r3, r1, r3
   11558:	e0822003 	add	r2, r2, r3
   1155c:	e51b301c 	ldr	r3, [fp, #-28]
   11560:	e1a03fe3 	ror	r3, r3, #31
   11564:	e50b3044 	str	r3, [fp, #-68]	; 0x44
   11568:	e51b3044 	ldr	r3, [fp, #-68]	; 0x44
   1156c:	e0822003 	add	r2, r2, r3
   11570:	e51b3018 	ldr	r3, [fp, #-24]
   11574:	e0822003 	add	r2, r2, r3
   11578:	e51f3f0c 	ldr	r3, [pc, #-3852]	; 10674 <sha1_process+0x1550>
   1157c:	e0823003 	add	r3, r2, r3
   11580:	e50b3018 	str	r3, [fp, #-24]
   11584:	e51b300c 	ldr	r3, [fp, #-12]
   11588:	e1a03163 	ror	r3, r3, #2
   1158c:	e50b300c 	str	r3, [fp, #-12]
   11590:	e51b204c 	ldr	r2, [fp, #-76]	; 0x4c
   11594:	e51b3020 	ldr	r3, [fp, #-32]
   11598:	e0222003 	eor	r2, r2, r3
   1159c:	e51b3038 	ldr	r3, [fp, #-56]	; 0x38
   115a0:	e0222003 	eor	r2, r2, r3
   115a4:	e51b3040 	ldr	r3, [fp, #-64]	; 0x40
   115a8:	e0223003 	eor	r3, r2, r3
   115ac:	e50b301c 	str	r3, [fp, #-28]
   115b0:	e51b3018 	ldr	r3, [fp, #-24]
   115b4:	e1a02de3 	ror	r2, r3, #27
   115b8:	e51b1008 	ldr	r1, [fp, #-8]
   115bc:	e51b300c 	ldr	r3, [fp, #-12]
   115c0:	e0211003 	eor	r1, r1, r3
   115c4:	e51b3010 	ldr	r3, [fp, #-16]
   115c8:	e0213003 	eor	r3, r1, r3
   115cc:	e0822003 	add	r2, r2, r3
   115d0:	e51b301c 	ldr	r3, [fp, #-28]
   115d4:	e1a03fe3 	ror	r3, r3, #31
   115d8:	e50b3040 	str	r3, [fp, #-64]	; 0x40
   115dc:	e51b3040 	ldr	r3, [fp, #-64]	; 0x40
   115e0:	e0822003 	add	r2, r2, r3
   115e4:	e51b3014 	ldr	r3, [fp, #-20]
   115e8:	e0822003 	add	r2, r2, r3
   115ec:	e51f3f80 	ldr	r3, [pc, #-3968]	; 10674 <sha1_process+0x1550>
   115f0:	e0823003 	add	r3, r2, r3
   115f4:	e50b3014 	str	r3, [fp, #-20]
   115f8:	e51b3008 	ldr	r3, [fp, #-8]
   115fc:	e1a03163 	ror	r3, r3, #2
   11600:	e50b3008 	str	r3, [fp, #-8]
   11604:	e51b2048 	ldr	r2, [fp, #-72]	; 0x48
   11608:	e51b305c 	ldr	r3, [fp, #-92]	; 0x5c
   1160c:	e0222003 	eor	r2, r2, r3
   11610:	e51b3034 	ldr	r3, [fp, #-52]	; 0x34
   11614:	e0222003 	eor	r2, r2, r3
   11618:	e51b303c 	ldr	r3, [fp, #-60]	; 0x3c
   1161c:	e0223003 	eor	r3, r2, r3
   11620:	e50b301c 	str	r3, [fp, #-28]
   11624:	e51b3014 	ldr	r3, [fp, #-20]
   11628:	e1a02de3 	ror	r2, r3, #27
   1162c:	e51b1018 	ldr	r1, [fp, #-24]
   11630:	e51b3008 	ldr	r3, [fp, #-8]
   11634:	e0211003 	eor	r1, r1, r3
   11638:	e51b300c 	ldr	r3, [fp, #-12]
   1163c:	e0213003 	eor	r3, r1, r3
   11640:	e0822003 	add	r2, r2, r3
   11644:	e51b301c 	ldr	r3, [fp, #-28]
   11648:	e1a03fe3 	ror	r3, r3, #31
   1164c:	e50b303c 	str	r3, [fp, #-60]	; 0x3c
   11650:	e51b303c 	ldr	r3, [fp, #-60]	; 0x3c
   11654:	e0822003 	add	r2, r2, r3
   11658:	e51b3010 	ldr	r3, [fp, #-16]
   1165c:	e0822003 	add	r2, r2, r3
   11660:	e51f3ff4 	ldr	r3, [pc, #-4084]	; 10674 <sha1_process+0x1550>
   11664:	e0823003 	add	r3, r2, r3
   11668:	e50b3010 	str	r3, [fp, #-16]
   1166c:	e51b3018 	ldr	r3, [fp, #-24]
   11670:	e1a03163 	ror	r3, r3, #2
   11674:	e50b3018 	str	r3, [fp, #-24]
   11678:	e51b2044 	ldr	r2, [fp, #-68]	; 0x44
   1167c:	e51b3058 	ldr	r3, [fp, #-88]	; 0x58
   11680:	e0222003 	eor	r2, r2, r3
   11684:	e51b3030 	ldr	r3, [fp, #-48]	; 0x30
   11688:	e0222003 	eor	r2, r2, r3
   1168c:	e51b3038 	ldr	r3, [fp, #-56]	; 0x38
   11690:	e0223003 	eor	r3, r2, r3
   11694:	e50b301c 	str	r3, [fp, #-28]
   11698:	e51b3010 	ldr	r3, [fp, #-16]
   1169c:	e1a02de3 	ror	r2, r3, #27
   116a0:	e51b1014 	ldr	r1, [fp, #-20]
   116a4:	e51b3018 	ldr	r3, [fp, #-24]
   116a8:	e0211003 	eor	r1, r1, r3
   116ac:	e51b3008 	ldr	r3, [fp, #-8]
   116b0:	e0213003 	eor	r3, r1, r3
   116b4:	e0822003 	add	r2, r2, r3
   116b8:	e51b301c 	ldr	r3, [fp, #-28]
   116bc:	e1a03fe3 	ror	r3, r3, #31
   116c0:	e50b3038 	str	r3, [fp, #-56]	; 0x38
   116c4:	e51b3038 	ldr	r3, [fp, #-56]	; 0x38
   116c8:	e0822003 	add	r2, r2, r3
   116cc:	e51b300c 	ldr	r3, [fp, #-12]
   116d0:	e0822003 	add	r2, r2, r3
   116d4:	e59f334c 	ldr	r3, [pc, #844]	; 11a28 <sha1_process+0x2904>
   116d8:	e0823003 	add	r3, r2, r3
   116dc:	e50b300c 	str	r3, [fp, #-12]
   116e0:	e51b3014 	ldr	r3, [fp, #-20]
   116e4:	e1a03163 	ror	r3, r3, #2
   116e8:	e50b3014 	str	r3, [fp, #-20]
   116ec:	e51b2040 	ldr	r2, [fp, #-64]	; 0x40
   116f0:	e51b3054 	ldr	r3, [fp, #-84]	; 0x54
   116f4:	e0222003 	eor	r2, r2, r3
   116f8:	e51b302c 	ldr	r3, [fp, #-44]	; 0x2c
   116fc:	e0222003 	eor	r2, r2, r3
   11700:	e51b3034 	ldr	r3, [fp, #-52]	; 0x34
   11704:	e0223003 	eor	r3, r2, r3
   11708:	e50b301c 	str	r3, [fp, #-28]
   1170c:	e51b300c 	ldr	r3, [fp, #-12]
   11710:	e1a02de3 	ror	r2, r3, #27
   11714:	e51b1010 	ldr	r1, [fp, #-16]
   11718:	e51b3014 	ldr	r3, [fp, #-20]
   1171c:	e0211003 	eor	r1, r1, r3
   11720:	e51b3018 	ldr	r3, [fp, #-24]
   11724:	e0213003 	eor	r3, r1, r3
   11728:	e0822003 	add	r2, r2, r3
   1172c:	e51b301c 	ldr	r3, [fp, #-28]
   11730:	e1a03fe3 	ror	r3, r3, #31
   11734:	e50b3034 	str	r3, [fp, #-52]	; 0x34
   11738:	e51b3034 	ldr	r3, [fp, #-52]	; 0x34
   1173c:	e0822003 	add	r2, r2, r3
   11740:	e51b3008 	ldr	r3, [fp, #-8]
   11744:	e0822003 	add	r2, r2, r3
   11748:	e59f32d8 	ldr	r3, [pc, #728]	; 11a28 <sha1_process+0x2904>
   1174c:	e0823003 	add	r3, r2, r3
   11750:	e50b3008 	str	r3, [fp, #-8]
   11754:	e51b3010 	ldr	r3, [fp, #-16]
   11758:	e1a03163 	ror	r3, r3, #2
   1175c:	e50b3010 	str	r3, [fp, #-16]
   11760:	e51b203c 	ldr	r2, [fp, #-60]	; 0x3c
   11764:	e51b3050 	ldr	r3, [fp, #-80]	; 0x50
   11768:	e0222003 	eor	r2, r2, r3
   1176c:	e51b3028 	ldr	r3, [fp, #-40]	; 0x28
   11770:	e0222003 	eor	r2, r2, r3
   11774:	e51b3030 	ldr	r3, [fp, #-48]	; 0x30
   11778:	e0223003 	eor	r3, r2, r3
   1177c:	e50b301c 	str	r3, [fp, #-28]
   11780:	e51b3008 	ldr	r3, [fp, #-8]
   11784:	e1a02de3 	ror	r2, r3, #27
   11788:	e51b100c 	ldr	r1, [fp, #-12]
   1178c:	e51b3010 	ldr	r3, [fp, #-16]
   11790:	e0211003 	eor	r1, r1, r3
   11794:	e51b3014 	ldr	r3, [fp, #-20]
   11798:	e0213003 	eor	r3, r1, r3
   1179c:	e0822003 	add	r2, r2, r3
   117a0:	e51b301c 	ldr	r3, [fp, #-28]
   117a4:	e1a03fe3 	ror	r3, r3, #31
   117a8:	e50b3030 	str	r3, [fp, #-48]	; 0x30
   117ac:	e51b3030 	ldr	r3, [fp, #-48]	; 0x30
   117b0:	e0822003 	add	r2, r2, r3
   117b4:	e51b3018 	ldr	r3, [fp, #-24]
   117b8:	e0822003 	add	r2, r2, r3
   117bc:	e59f3264 	ldr	r3, [pc, #612]	; 11a28 <sha1_process+0x2904>
   117c0:	e0823003 	add	r3, r2, r3
   117c4:	e50b3018 	str	r3, [fp, #-24]
   117c8:	e51b300c 	ldr	r3, [fp, #-12]
   117cc:	e1a03163 	ror	r3, r3, #2
   117d0:	e50b300c 	str	r3, [fp, #-12]
   117d4:	e51b2038 	ldr	r2, [fp, #-56]	; 0x38
   117d8:	e51b304c 	ldr	r3, [fp, #-76]	; 0x4c
   117dc:	e0222003 	eor	r2, r2, r3
   117e0:	e51b3024 	ldr	r3, [fp, #-36]	; 0x24
   117e4:	e0222003 	eor	r2, r2, r3
   117e8:	e51b302c 	ldr	r3, [fp, #-44]	; 0x2c
   117ec:	e0223003 	eor	r3, r2, r3
   117f0:	e50b301c 	str	r3, [fp, #-28]
   117f4:	e51b3018 	ldr	r3, [fp, #-24]
   117f8:	e1a02de3 	ror	r2, r3, #27
   117fc:	e51b1008 	ldr	r1, [fp, #-8]
   11800:	e51b300c 	ldr	r3, [fp, #-12]
   11804:	e0211003 	eor	r1, r1, r3
   11808:	e51b3010 	ldr	r3, [fp, #-16]
   1180c:	e0213003 	eor	r3, r1, r3
   11810:	e0822003 	add	r2, r2, r3
   11814:	e51b301c 	ldr	r3, [fp, #-28]
   11818:	e1a03fe3 	ror	r3, r3, #31
   1181c:	e50b302c 	str	r3, [fp, #-44]	; 0x2c
   11820:	e51b302c 	ldr	r3, [fp, #-44]	; 0x2c
   11824:	e0822003 	add	r2, r2, r3
   11828:	e51b3014 	ldr	r3, [fp, #-20]
   1182c:	e0822003 	add	r2, r2, r3
   11830:	e59f31f0 	ldr	r3, [pc, #496]	; 11a28 <sha1_process+0x2904>
   11834:	e0823003 	add	r3, r2, r3
   11838:	e50b3014 	str	r3, [fp, #-20]
   1183c:	e51b3008 	ldr	r3, [fp, #-8]
   11840:	e1a03163 	ror	r3, r3, #2
   11844:	e50b3008 	str	r3, [fp, #-8]
   11848:	e51b2034 	ldr	r2, [fp, #-52]	; 0x34
   1184c:	e51b3048 	ldr	r3, [fp, #-72]	; 0x48
   11850:	e0222003 	eor	r2, r2, r3
   11854:	e51b3020 	ldr	r3, [fp, #-32]
   11858:	e0222003 	eor	r2, r2, r3
   1185c:	e51b3028 	ldr	r3, [fp, #-40]	; 0x28
   11860:	e0223003 	eor	r3, r2, r3
   11864:	e50b301c 	str	r3, [fp, #-28]
   11868:	e51b3014 	ldr	r3, [fp, #-20]
   1186c:	e1a02de3 	ror	r2, r3, #27
   11870:	e51b1018 	ldr	r1, [fp, #-24]
   11874:	e51b3008 	ldr	r3, [fp, #-8]
   11878:	e0211003 	eor	r1, r1, r3
   1187c:	e51b300c 	ldr	r3, [fp, #-12]
   11880:	e0213003 	eor	r3, r1, r3
   11884:	e0822003 	add	r2, r2, r3
   11888:	e51b301c 	ldr	r3, [fp, #-28]
   1188c:	e1a03fe3 	ror	r3, r3, #31
   11890:	e50b3028 	str	r3, [fp, #-40]	; 0x28
   11894:	e51b3028 	ldr	r3, [fp, #-40]	; 0x28
   11898:	e0822003 	add	r2, r2, r3
   1189c:	e51b3010 	ldr	r3, [fp, #-16]
   118a0:	e0822003 	add	r2, r2, r3
   118a4:	e59f317c 	ldr	r3, [pc, #380]	; 11a28 <sha1_process+0x2904>
   118a8:	e0823003 	add	r3, r2, r3
   118ac:	e50b3010 	str	r3, [fp, #-16]
   118b0:	e51b3018 	ldr	r3, [fp, #-24]
   118b4:	e1a03163 	ror	r3, r3, #2
   118b8:	e50b3018 	str	r3, [fp, #-24]
   118bc:	e51b2030 	ldr	r2, [fp, #-48]	; 0x30
   118c0:	e51b3044 	ldr	r3, [fp, #-68]	; 0x44
   118c4:	e0222003 	eor	r2, r2, r3
   118c8:	e51b305c 	ldr	r3, [fp, #-92]	; 0x5c
   118cc:	e0222003 	eor	r2, r2, r3
   118d0:	e51b3024 	ldr	r3, [fp, #-36]	; 0x24
   118d4:	e0223003 	eor	r3, r2, r3
   118d8:	e50b301c 	str	r3, [fp, #-28]
   118dc:	e51b3010 	ldr	r3, [fp, #-16]
   118e0:	e1a02de3 	ror	r2, r3, #27
   118e4:	e51b1014 	ldr	r1, [fp, #-20]
   118e8:	e51b3018 	ldr	r3, [fp, #-24]
   118ec:	e0211003 	eor	r1, r1, r3
   118f0:	e51b3008 	ldr	r3, [fp, #-8]
   118f4:	e0213003 	eor	r3, r1, r3
   118f8:	e0822003 	add	r2, r2, r3
   118fc:	e51b301c 	ldr	r3, [fp, #-28]
   11900:	e1a03fe3 	ror	r3, r3, #31
   11904:	e50b3024 	str	r3, [fp, #-36]	; 0x24
   11908:	e51b3024 	ldr	r3, [fp, #-36]	; 0x24
   1190c:	e0822003 	add	r2, r2, r3
   11910:	e51b300c 	ldr	r3, [fp, #-12]
   11914:	e0822003 	add	r2, r2, r3
   11918:	e59f3108 	ldr	r3, [pc, #264]	; 11a28 <sha1_process+0x2904>
   1191c:	e0823003 	add	r3, r2, r3
   11920:	e50b300c 	str	r3, [fp, #-12]
   11924:	e51b3014 	ldr	r3, [fp, #-20]
   11928:	e1a03163 	ror	r3, r3, #2
   1192c:	e50b3014 	str	r3, [fp, #-20]
   11930:	e51b202c 	ldr	r2, [fp, #-44]	; 0x2c
   11934:	e51b3040 	ldr	r3, [fp, #-64]	; 0x40
   11938:	e0222003 	eor	r2, r2, r3
   1193c:	e51b3058 	ldr	r3, [fp, #-88]	; 0x58
   11940:	e0222003 	eor	r2, r2, r3
   11944:	e51b3020 	ldr	r3, [fp, #-32]
   11948:	e0223003 	eor	r3, r2, r3
   1194c:	e50b301c 	str	r3, [fp, #-28]
   11950:	e51b300c 	ldr	r3, [fp, #-12]
   11954:	e1a02de3 	ror	r2, r3, #27
   11958:	e51b1010 	ldr	r1, [fp, #-16]
   1195c:	e51b3014 	ldr	r3, [fp, #-20]
   11960:	e0211003 	eor	r1, r1, r3
   11964:	e51b3018 	ldr	r3, [fp, #-24]
   11968:	e0213003 	eor	r3, r1, r3
   1196c:	e0822003 	add	r2, r2, r3
   11970:	e51b301c 	ldr	r3, [fp, #-28]
   11974:	e1a03fe3 	ror	r3, r3, #31
   11978:	e50b3020 	str	r3, [fp, #-32]
   1197c:	e51b3020 	ldr	r3, [fp, #-32]
   11980:	e0822003 	add	r2, r2, r3
   11984:	e51b3008 	ldr	r3, [fp, #-8]
   11988:	e0822003 	add	r2, r2, r3
   1198c:	e59f3094 	ldr	r3, [pc, #148]	; 11a28 <sha1_process+0x2904>
   11990:	e0823003 	add	r3, r2, r3
   11994:	e50b3008 	str	r3, [fp, #-8]
   11998:	e51b3010 	ldr	r3, [fp, #-16]
   1199c:	e1a03163 	ror	r3, r3, #2
   119a0:	e50b3010 	str	r3, [fp, #-16]
   119a4:	e51b3060 	ldr	r3, [fp, #-96]	; 0x60
   119a8:	e5932008 	ldr	r2, [r3, #8]
   119ac:	e51b3008 	ldr	r3, [fp, #-8]
   119b0:	e0822003 	add	r2, r2, r3
   119b4:	e51b3060 	ldr	r3, [fp, #-96]	; 0x60
   119b8:	e5832008 	str	r2, [r3, #8]
   119bc:	e51b3060 	ldr	r3, [fp, #-96]	; 0x60
   119c0:	e593200c 	ldr	r2, [r3, #12]
   119c4:	e51b300c 	ldr	r3, [fp, #-12]
   119c8:	e0822003 	add	r2, r2, r3
   119cc:	e51b3060 	ldr	r3, [fp, #-96]	; 0x60
   119d0:	e583200c 	str	r2, [r3, #12]
   119d4:	e51b3060 	ldr	r3, [fp, #-96]	; 0x60
   119d8:	e5932010 	ldr	r2, [r3, #16]
   119dc:	e51b3010 	ldr	r3, [fp, #-16]
   119e0:	e0822003 	add	r2, r2, r3
   119e4:	e51b3060 	ldr	r3, [fp, #-96]	; 0x60
   119e8:	e5832010 	str	r2, [r3, #16]
   119ec:	e51b3060 	ldr	r3, [fp, #-96]	; 0x60
   119f0:	e5932014 	ldr	r2, [r3, #20]
   119f4:	e51b3014 	ldr	r3, [fp, #-20]
   119f8:	e0822003 	add	r2, r2, r3
   119fc:	e51b3060 	ldr	r3, [fp, #-96]	; 0x60
   11a00:	e5832014 	str	r2, [r3, #20]
   11a04:	e51b3060 	ldr	r3, [fp, #-96]	; 0x60
   11a08:	e5932018 	ldr	r2, [r3, #24]
   11a0c:	e51b3018 	ldr	r3, [fp, #-24]
   11a10:	e0822003 	add	r2, r2, r3
   11a14:	e51b3060 	ldr	r3, [fp, #-96]	; 0x60
   11a18:	e5832018 	str	r2, [r3, #24]
   11a1c:	e28bd000 	add	sp, fp, #0
   11a20:	e8bd0800 	pop	{fp}
   11a24:	e12fff1e 	bx	lr
   11a28:	ca62c1d6 	.word	0xca62c1d6

00011a2c <sha1_update>:
   11a2c:	e92d4800 	push	{fp, lr}
   11a30:	e28db004 	add	fp, sp, #4
   11a34:	e24dd018 	sub	sp, sp, #24
   11a38:	e50b0010 	str	r0, [fp, #-16]
   11a3c:	e50b1014 	str	r1, [fp, #-20]
   11a40:	e50b2018 	str	r2, [fp, #-24]
   11a44:	e51b3018 	ldr	r3, [fp, #-24]
   11a48:	e3530000 	cmp	r3, #0
   11a4c:	0a000059 	beq	11bb8 <sha1_update+0x18c>
   11a50:	e51b3010 	ldr	r3, [fp, #-16]
   11a54:	e5933000 	ldr	r3, [r3]
   11a58:	e203303f 	and	r3, r3, #63	; 0x3f
   11a5c:	e50b3008 	str	r3, [fp, #-8]
   11a60:	e51b3008 	ldr	r3, [fp, #-8]
   11a64:	e2633040 	rsb	r3, r3, #64	; 0x40
   11a68:	e50b300c 	str	r3, [fp, #-12]
   11a6c:	e51b3010 	ldr	r3, [fp, #-16]
   11a70:	e5932000 	ldr	r2, [r3]
   11a74:	e51b3018 	ldr	r3, [fp, #-24]
   11a78:	e0822003 	add	r2, r2, r3
   11a7c:	e51b3010 	ldr	r3, [fp, #-16]
   11a80:	e5832000 	str	r2, [r3]
   11a84:	e51b3010 	ldr	r3, [fp, #-16]
   11a88:	e5932000 	ldr	r2, [r3]
   11a8c:	e51b3010 	ldr	r3, [fp, #-16]
   11a90:	e5832000 	str	r2, [r3]
   11a94:	e51b3010 	ldr	r3, [fp, #-16]
   11a98:	e5932000 	ldr	r2, [r3]
   11a9c:	e51b3018 	ldr	r3, [fp, #-24]
   11aa0:	e1520003 	cmp	r2, r3
   11aa4:	2a000004 	bcs	11abc <sha1_update+0x90>
   11aa8:	e51b3010 	ldr	r3, [fp, #-16]
   11aac:	e5933004 	ldr	r3, [r3, #4]
   11ab0:	e2832001 	add	r2, r3, #1
   11ab4:	e51b3010 	ldr	r3, [fp, #-16]
   11ab8:	e5832004 	str	r2, [r3, #4]
   11abc:	e51b3008 	ldr	r3, [fp, #-8]
   11ac0:	e3530000 	cmp	r3, #0
   11ac4:	0a000028 	beq	11b6c <sha1_update+0x140>
   11ac8:	e51b2018 	ldr	r2, [fp, #-24]
   11acc:	e51b300c 	ldr	r3, [fp, #-12]
   11ad0:	e1520003 	cmp	r2, r3
   11ad4:	3a000024 	bcc	11b6c <sha1_update+0x140>
   11ad8:	e51b3010 	ldr	r3, [fp, #-16]
   11adc:	e283201c 	add	r2, r3, #28
   11ae0:	e51b3008 	ldr	r3, [fp, #-8]
   11ae4:	e0822003 	add	r2, r2, r3
   11ae8:	e51b3014 	ldr	r3, [fp, #-20]
   11aec:	e1a01002 	mov	r1, r2
   11af0:	e1a02003 	mov	r2, r3
   11af4:	e51b300c 	ldr	r3, [fp, #-12]
   11af8:	e1a00001 	mov	r0, r1
   11afc:	e1a01002 	mov	r1, r2
   11b00:	e1a02003 	mov	r2, r3
   11b04:	ebffdc1b 	bl	8b78 <_init+0x74>
   11b08:	e51b3010 	ldr	r3, [fp, #-16]
   11b0c:	e283301c 	add	r3, r3, #28
   11b10:	e51b0010 	ldr	r0, [fp, #-16]
   11b14:	e1a01003 	mov	r1, r3
   11b18:	ebfff581 	bl	f124 <sha1_process>
   11b1c:	e51b2014 	ldr	r2, [fp, #-20]
   11b20:	e51b300c 	ldr	r3, [fp, #-12]
   11b24:	e0823003 	add	r3, r2, r3
   11b28:	e50b3014 	str	r3, [fp, #-20]
   11b2c:	e51b2018 	ldr	r2, [fp, #-24]
   11b30:	e51b300c 	ldr	r3, [fp, #-12]
   11b34:	e0633002 	rsb	r3, r3, r2
   11b38:	e50b3018 	str	r3, [fp, #-24]
   11b3c:	e3a03000 	mov	r3, #0
   11b40:	e50b3008 	str	r3, [fp, #-8]
   11b44:	ea000008 	b	11b6c <sha1_update+0x140>
   11b48:	e51b0010 	ldr	r0, [fp, #-16]
   11b4c:	e51b1014 	ldr	r1, [fp, #-20]
   11b50:	ebfff573 	bl	f124 <sha1_process>
   11b54:	e51b3014 	ldr	r3, [fp, #-20]
   11b58:	e2833040 	add	r3, r3, #64	; 0x40
   11b5c:	e50b3014 	str	r3, [fp, #-20]
   11b60:	e51b3018 	ldr	r3, [fp, #-24]
   11b64:	e2433040 	sub	r3, r3, #64	; 0x40
   11b68:	e50b3018 	str	r3, [fp, #-24]
   11b6c:	e51b3018 	ldr	r3, [fp, #-24]
   11b70:	e353003f 	cmp	r3, #63	; 0x3f
   11b74:	8afffff3 	bhi	11b48 <sha1_update+0x11c>
   11b78:	e51b3018 	ldr	r3, [fp, #-24]
   11b7c:	e3530000 	cmp	r3, #0
   11b80:	0a00000d 	beq	11bbc <sha1_update+0x190>
   11b84:	e51b3010 	ldr	r3, [fp, #-16]
   11b88:	e283201c 	add	r2, r3, #28
   11b8c:	e51b3008 	ldr	r3, [fp, #-8]
   11b90:	e0822003 	add	r2, r2, r3
   11b94:	e51b3014 	ldr	r3, [fp, #-20]
   11b98:	e1a01002 	mov	r1, r2
   11b9c:	e1a02003 	mov	r2, r3
   11ba0:	e51b3018 	ldr	r3, [fp, #-24]
   11ba4:	e1a00001 	mov	r0, r1
   11ba8:	e1a01002 	mov	r1, r2
   11bac:	e1a02003 	mov	r2, r3
   11bb0:	ebffdbf0 	bl	8b78 <_init+0x74>
   11bb4:	ea000000 	b	11bbc <sha1_update+0x190>
   11bb8:	e1a00000 	nop			; (mov r0, r0)
   11bbc:	e24bd004 	sub	sp, fp, #4
   11bc0:	e8bd8800 	pop	{fp, pc}

00011bc4 <sha1_finish>:
   11bc4:	e92d4800 	push	{fp, lr}
   11bc8:	e28db004 	add	fp, sp, #4
   11bcc:	e24dd020 	sub	sp, sp, #32
   11bd0:	e50b0020 	str	r0, [fp, #-32]
   11bd4:	e50b1024 	str	r1, [fp, #-36]	; 0x24
   11bd8:	e51b3020 	ldr	r3, [fp, #-32]
   11bdc:	e5933000 	ldr	r3, [r3]
   11be0:	e1a02ea3 	lsr	r2, r3, #29
   11be4:	e51b3020 	ldr	r3, [fp, #-32]
   11be8:	e5933004 	ldr	r3, [r3, #4]
   11bec:	e1a03183 	lsl	r3, r3, #3
   11bf0:	e1823003 	orr	r3, r2, r3
   11bf4:	e50b3008 	str	r3, [fp, #-8]
   11bf8:	e51b3020 	ldr	r3, [fp, #-32]
   11bfc:	e5933000 	ldr	r3, [r3]
   11c00:	e1a03183 	lsl	r3, r3, #3
   11c04:	e50b300c 	str	r3, [fp, #-12]
   11c08:	e51b3008 	ldr	r3, [fp, #-8]
   11c0c:	e1a03c23 	lsr	r3, r3, #24
   11c10:	e6ef3073 	uxtb	r3, r3
   11c14:	e54b301c 	strb	r3, [fp, #-28]
   11c18:	e51b3008 	ldr	r3, [fp, #-8]
   11c1c:	e1a03823 	lsr	r3, r3, #16
   11c20:	e6ef3073 	uxtb	r3, r3
   11c24:	e54b301b 	strb	r3, [fp, #-27]
   11c28:	e51b3008 	ldr	r3, [fp, #-8]
   11c2c:	e1a03423 	lsr	r3, r3, #8
   11c30:	e6ef3073 	uxtb	r3, r3
   11c34:	e54b301a 	strb	r3, [fp, #-26]
   11c38:	e51b3008 	ldr	r3, [fp, #-8]
   11c3c:	e6ef3073 	uxtb	r3, r3
   11c40:	e54b3019 	strb	r3, [fp, #-25]
   11c44:	e51b300c 	ldr	r3, [fp, #-12]
   11c48:	e1a03c23 	lsr	r3, r3, #24
   11c4c:	e6ef3073 	uxtb	r3, r3
   11c50:	e54b3018 	strb	r3, [fp, #-24]
   11c54:	e51b300c 	ldr	r3, [fp, #-12]
   11c58:	e1a03823 	lsr	r3, r3, #16
   11c5c:	e6ef3073 	uxtb	r3, r3
   11c60:	e54b3017 	strb	r3, [fp, #-23]
   11c64:	e51b300c 	ldr	r3, [fp, #-12]
   11c68:	e1a03423 	lsr	r3, r3, #8
   11c6c:	e6ef3073 	uxtb	r3, r3
   11c70:	e54b3016 	strb	r3, [fp, #-22]
   11c74:	e51b300c 	ldr	r3, [fp, #-12]
   11c78:	e6ef3073 	uxtb	r3, r3
   11c7c:	e54b3015 	strb	r3, [fp, #-21]
   11c80:	e51b3020 	ldr	r3, [fp, #-32]
   11c84:	e5933000 	ldr	r3, [r3]
   11c88:	e203303f 	and	r3, r3, #63	; 0x3f
   11c8c:	e50b3010 	str	r3, [fp, #-16]
   11c90:	e51b3010 	ldr	r3, [fp, #-16]
   11c94:	e3530037 	cmp	r3, #55	; 0x37
   11c98:	8a000002 	bhi	11ca8 <sha1_finish+0xe4>
   11c9c:	e51b3010 	ldr	r3, [fp, #-16]
   11ca0:	e2633038 	rsb	r3, r3, #56	; 0x38
   11ca4:	ea000001 	b	11cb0 <sha1_finish+0xec>
   11ca8:	e51b3010 	ldr	r3, [fp, #-16]
   11cac:	e2633078 	rsb	r3, r3, #120	; 0x78
   11cb0:	e50b3014 	str	r3, [fp, #-20]
   11cb4:	e51b0020 	ldr	r0, [fp, #-32]
   11cb8:	e59f1238 	ldr	r1, [pc, #568]	; 11ef8 <sha1_finish+0x334>
   11cbc:	e51b2014 	ldr	r2, [fp, #-20]
   11cc0:	ebffff59 	bl	11a2c <sha1_update>
   11cc4:	e24b301c 	sub	r3, fp, #28
   11cc8:	e51b0020 	ldr	r0, [fp, #-32]
   11ccc:	e1a01003 	mov	r1, r3
   11cd0:	e3a02008 	mov	r2, #8
   11cd4:	ebffff54 	bl	11a2c <sha1_update>
   11cd8:	e51b3020 	ldr	r3, [fp, #-32]
   11cdc:	e5933008 	ldr	r3, [r3, #8]
   11ce0:	e1a03c23 	lsr	r3, r3, #24
   11ce4:	e6ef2073 	uxtb	r2, r3
   11ce8:	e51b3024 	ldr	r3, [fp, #-36]	; 0x24
   11cec:	e5c32000 	strb	r2, [r3]
   11cf0:	e51b3024 	ldr	r3, [fp, #-36]	; 0x24
   11cf4:	e2833001 	add	r3, r3, #1
   11cf8:	e51b2020 	ldr	r2, [fp, #-32]
   11cfc:	e5922008 	ldr	r2, [r2, #8]
   11d00:	e1a02822 	lsr	r2, r2, #16
   11d04:	e6ef2072 	uxtb	r2, r2
   11d08:	e5c32000 	strb	r2, [r3]
   11d0c:	e51b3024 	ldr	r3, [fp, #-36]	; 0x24
   11d10:	e2833002 	add	r3, r3, #2
   11d14:	e51b2020 	ldr	r2, [fp, #-32]
   11d18:	e5922008 	ldr	r2, [r2, #8]
   11d1c:	e1a02422 	lsr	r2, r2, #8
   11d20:	e6ef2072 	uxtb	r2, r2
   11d24:	e5c32000 	strb	r2, [r3]
   11d28:	e51b3024 	ldr	r3, [fp, #-36]	; 0x24
   11d2c:	e2833003 	add	r3, r3, #3
   11d30:	e51b2020 	ldr	r2, [fp, #-32]
   11d34:	e5922008 	ldr	r2, [r2, #8]
   11d38:	e6ef2072 	uxtb	r2, r2
   11d3c:	e5c32000 	strb	r2, [r3]
   11d40:	e51b3024 	ldr	r3, [fp, #-36]	; 0x24
   11d44:	e2833004 	add	r3, r3, #4
   11d48:	e51b2020 	ldr	r2, [fp, #-32]
   11d4c:	e592200c 	ldr	r2, [r2, #12]
   11d50:	e1a02c22 	lsr	r2, r2, #24
   11d54:	e6ef2072 	uxtb	r2, r2
   11d58:	e5c32000 	strb	r2, [r3]
   11d5c:	e51b3024 	ldr	r3, [fp, #-36]	; 0x24
   11d60:	e2833005 	add	r3, r3, #5
   11d64:	e51b2020 	ldr	r2, [fp, #-32]
   11d68:	e592200c 	ldr	r2, [r2, #12]
   11d6c:	e1a02822 	lsr	r2, r2, #16
   11d70:	e6ef2072 	uxtb	r2, r2
   11d74:	e5c32000 	strb	r2, [r3]
   11d78:	e51b3024 	ldr	r3, [fp, #-36]	; 0x24
   11d7c:	e2833006 	add	r3, r3, #6
   11d80:	e51b2020 	ldr	r2, [fp, #-32]
   11d84:	e592200c 	ldr	r2, [r2, #12]
   11d88:	e1a02422 	lsr	r2, r2, #8
   11d8c:	e6ef2072 	uxtb	r2, r2
   11d90:	e5c32000 	strb	r2, [r3]
   11d94:	e51b3024 	ldr	r3, [fp, #-36]	; 0x24
   11d98:	e2833007 	add	r3, r3, #7
   11d9c:	e51b2020 	ldr	r2, [fp, #-32]
   11da0:	e592200c 	ldr	r2, [r2, #12]
   11da4:	e6ef2072 	uxtb	r2, r2
   11da8:	e5c32000 	strb	r2, [r3]
   11dac:	e51b3024 	ldr	r3, [fp, #-36]	; 0x24
   11db0:	e2833008 	add	r3, r3, #8
   11db4:	e51b2020 	ldr	r2, [fp, #-32]
   11db8:	e5922010 	ldr	r2, [r2, #16]
   11dbc:	e1a02c22 	lsr	r2, r2, #24
   11dc0:	e6ef2072 	uxtb	r2, r2
   11dc4:	e5c32000 	strb	r2, [r3]
   11dc8:	e51b3024 	ldr	r3, [fp, #-36]	; 0x24
   11dcc:	e2833009 	add	r3, r3, #9
   11dd0:	e51b2020 	ldr	r2, [fp, #-32]
   11dd4:	e5922010 	ldr	r2, [r2, #16]
   11dd8:	e1a02822 	lsr	r2, r2, #16
   11ddc:	e6ef2072 	uxtb	r2, r2
   11de0:	e5c32000 	strb	r2, [r3]
   11de4:	e51b3024 	ldr	r3, [fp, #-36]	; 0x24
   11de8:	e283300a 	add	r3, r3, #10
   11dec:	e51b2020 	ldr	r2, [fp, #-32]
   11df0:	e5922010 	ldr	r2, [r2, #16]
   11df4:	e1a02422 	lsr	r2, r2, #8
   11df8:	e6ef2072 	uxtb	r2, r2
   11dfc:	e5c32000 	strb	r2, [r3]
   11e00:	e51b3024 	ldr	r3, [fp, #-36]	; 0x24
   11e04:	e283300b 	add	r3, r3, #11
   11e08:	e51b2020 	ldr	r2, [fp, #-32]
   11e0c:	e5922010 	ldr	r2, [r2, #16]
   11e10:	e6ef2072 	uxtb	r2, r2
   11e14:	e5c32000 	strb	r2, [r3]
   11e18:	e51b3024 	ldr	r3, [fp, #-36]	; 0x24
   11e1c:	e283300c 	add	r3, r3, #12
   11e20:	e51b2020 	ldr	r2, [fp, #-32]
   11e24:	e5922014 	ldr	r2, [r2, #20]
   11e28:	e1a02c22 	lsr	r2, r2, #24
   11e2c:	e6ef2072 	uxtb	r2, r2
   11e30:	e5c32000 	strb	r2, [r3]
   11e34:	e51b3024 	ldr	r3, [fp, #-36]	; 0x24
   11e38:	e283300d 	add	r3, r3, #13
   11e3c:	e51b2020 	ldr	r2, [fp, #-32]
   11e40:	e5922014 	ldr	r2, [r2, #20]
   11e44:	e1a02822 	lsr	r2, r2, #16
   11e48:	e6ef2072 	uxtb	r2, r2
   11e4c:	e5c32000 	strb	r2, [r3]
   11e50:	e51b3024 	ldr	r3, [fp, #-36]	; 0x24
   11e54:	e283300e 	add	r3, r3, #14
   11e58:	e51b2020 	ldr	r2, [fp, #-32]
   11e5c:	e5922014 	ldr	r2, [r2, #20]
   11e60:	e1a02422 	lsr	r2, r2, #8
   11e64:	e6ef2072 	uxtb	r2, r2
   11e68:	e5c32000 	strb	r2, [r3]
   11e6c:	e51b3024 	ldr	r3, [fp, #-36]	; 0x24
   11e70:	e283300f 	add	r3, r3, #15
   11e74:	e51b2020 	ldr	r2, [fp, #-32]
   11e78:	e5922014 	ldr	r2, [r2, #20]
   11e7c:	e6ef2072 	uxtb	r2, r2
   11e80:	e5c32000 	strb	r2, [r3]
   11e84:	e51b3024 	ldr	r3, [fp, #-36]	; 0x24
   11e88:	e2833010 	add	r3, r3, #16
   11e8c:	e51b2020 	ldr	r2, [fp, #-32]
   11e90:	e5922018 	ldr	r2, [r2, #24]
   11e94:	e1a02c22 	lsr	r2, r2, #24
   11e98:	e6ef2072 	uxtb	r2, r2
   11e9c:	e5c32000 	strb	r2, [r3]
   11ea0:	e51b3024 	ldr	r3, [fp, #-36]	; 0x24
   11ea4:	e2833011 	add	r3, r3, #17
   11ea8:	e51b2020 	ldr	r2, [fp, #-32]
   11eac:	e5922018 	ldr	r2, [r2, #24]
   11eb0:	e1a02822 	lsr	r2, r2, #16
   11eb4:	e6ef2072 	uxtb	r2, r2
   11eb8:	e5c32000 	strb	r2, [r3]
   11ebc:	e51b3024 	ldr	r3, [fp, #-36]	; 0x24
   11ec0:	e2833012 	add	r3, r3, #18
   11ec4:	e51b2020 	ldr	r2, [fp, #-32]
   11ec8:	e5922018 	ldr	r2, [r2, #24]
   11ecc:	e1a02422 	lsr	r2, r2, #8
   11ed0:	e6ef2072 	uxtb	r2, r2
   11ed4:	e5c32000 	strb	r2, [r3]
   11ed8:	e51b3024 	ldr	r3, [fp, #-36]	; 0x24
   11edc:	e2833013 	add	r3, r3, #19
   11ee0:	e51b2020 	ldr	r2, [fp, #-32]
   11ee4:	e5922018 	ldr	r2, [r2, #24]
   11ee8:	e6ef2072 	uxtb	r2, r2
   11eec:	e5c32000 	strb	r2, [r3]
   11ef0:	e24bd004 	sub	sp, fp, #4
   11ef4:	e8bd8800 	pop	{fp, pc}
   11ef8:	0001e9d4 	.word	0x0001e9d4

00011efc <sha1>:
   11efc:	e92d4800 	push	{fp, lr}
   11f00:	e28db004 	add	fp, sp, #4
   11f04:	e24dd0f0 	sub	sp, sp, #240	; 0xf0
   11f08:	e50b00e8 	str	r0, [fp, #-232]	; 0xe8
   11f0c:	e50b10ec 	str	r1, [fp, #-236]	; 0xec
   11f10:	e50b20f0 	str	r2, [fp, #-240]	; 0xf0
   11f14:	e24b30e0 	sub	r3, fp, #224	; 0xe0
   11f18:	e1a00003 	mov	r0, r3
   11f1c:	ebfff45f 	bl	f0a0 <sha1_starts>
   11f20:	e24b30e0 	sub	r3, fp, #224	; 0xe0
   11f24:	e1a00003 	mov	r0, r3
   11f28:	e51b10e8 	ldr	r1, [fp, #-232]	; 0xe8
   11f2c:	e51b20ec 	ldr	r2, [fp, #-236]	; 0xec
   11f30:	ebfffebd 	bl	11a2c <sha1_update>
   11f34:	e24b30e0 	sub	r3, fp, #224	; 0xe0
   11f38:	e1a00003 	mov	r0, r3
   11f3c:	e51b10f0 	ldr	r1, [fp, #-240]	; 0xf0
   11f40:	ebffff1f 	bl	11bc4 <sha1_finish>
   11f44:	e24b30e0 	sub	r3, fp, #224	; 0xe0
   11f48:	e1a02003 	mov	r2, r3
   11f4c:	e3a030dc 	mov	r3, #220	; 0xdc
   11f50:	e1a00002 	mov	r0, r2
   11f54:	e3a01000 	mov	r1, #0
   11f58:	e1a02003 	mov	r2, r3
   11f5c:	ebffdb4d 	bl	8c98 <_init+0x194>
   11f60:	e24bd004 	sub	sp, fp, #4
   11f64:	e8bd8800 	pop	{fp, pc}

00011f68 <sha2_starts>:
   11f68:	e52db004 	push	{fp}		; (str fp, [sp, #-4]!)
   11f6c:	e28db000 	add	fp, sp, #0
   11f70:	e24dd00c 	sub	sp, sp, #12
   11f74:	e50b0008 	str	r0, [fp, #-8]
   11f78:	e50b100c 	str	r1, [fp, #-12]
   11f7c:	e51b3008 	ldr	r3, [fp, #-8]
   11f80:	e3a02000 	mov	r2, #0
   11f84:	e5832000 	str	r2, [r3]
   11f88:	e51b3008 	ldr	r3, [fp, #-8]
   11f8c:	e3a02000 	mov	r2, #0
   11f90:	e5832004 	str	r2, [r3, #4]
   11f94:	e51b300c 	ldr	r3, [fp, #-12]
   11f98:	e3530000 	cmp	r3, #0
   11f9c:	1a000018 	bne	12004 <sha2_starts+0x9c>
   11fa0:	e51b3008 	ldr	r3, [fp, #-8]
   11fa4:	e59f20d0 	ldr	r2, [pc, #208]	; 1207c <sha2_starts+0x114>
   11fa8:	e5832008 	str	r2, [r3, #8]
   11fac:	e51b3008 	ldr	r3, [fp, #-8]
   11fb0:	e59f20c8 	ldr	r2, [pc, #200]	; 12080 <sha2_starts+0x118>
   11fb4:	e583200c 	str	r2, [r3, #12]
   11fb8:	e51b3008 	ldr	r3, [fp, #-8]
   11fbc:	e59f20c0 	ldr	r2, [pc, #192]	; 12084 <sha2_starts+0x11c>
   11fc0:	e5832010 	str	r2, [r3, #16]
   11fc4:	e51b3008 	ldr	r3, [fp, #-8]
   11fc8:	e59f20b8 	ldr	r2, [pc, #184]	; 12088 <sha2_starts+0x120>
   11fcc:	e5832014 	str	r2, [r3, #20]
   11fd0:	e51b3008 	ldr	r3, [fp, #-8]
   11fd4:	e59f20b0 	ldr	r2, [pc, #176]	; 1208c <sha2_starts+0x124>
   11fd8:	e5832018 	str	r2, [r3, #24]
   11fdc:	e51b3008 	ldr	r3, [fp, #-8]
   11fe0:	e59f20a8 	ldr	r2, [pc, #168]	; 12090 <sha2_starts+0x128>
   11fe4:	e583201c 	str	r2, [r3, #28]
   11fe8:	e51b3008 	ldr	r3, [fp, #-8]
   11fec:	e59f20a0 	ldr	r2, [pc, #160]	; 12094 <sha2_starts+0x12c>
   11ff0:	e5832020 	str	r2, [r3, #32]
   11ff4:	e51b3008 	ldr	r3, [fp, #-8]
   11ff8:	e59f2098 	ldr	r2, [pc, #152]	; 12098 <sha2_starts+0x130>
   11ffc:	e5832024 	str	r2, [r3, #36]	; 0x24
   12000:	ea000017 	b	12064 <sha2_starts+0xfc>
   12004:	e51b3008 	ldr	r3, [fp, #-8]
   12008:	e59f208c 	ldr	r2, [pc, #140]	; 1209c <sha2_starts+0x134>
   1200c:	e5832008 	str	r2, [r3, #8]
   12010:	e51b3008 	ldr	r3, [fp, #-8]
   12014:	e59f2084 	ldr	r2, [pc, #132]	; 120a0 <sha2_starts+0x138>
   12018:	e583200c 	str	r2, [r3, #12]
   1201c:	e51b3008 	ldr	r3, [fp, #-8]
   12020:	e59f207c 	ldr	r2, [pc, #124]	; 120a4 <sha2_starts+0x13c>
   12024:	e5832010 	str	r2, [r3, #16]
   12028:	e51b3008 	ldr	r3, [fp, #-8]
   1202c:	e59f2074 	ldr	r2, [pc, #116]	; 120a8 <sha2_starts+0x140>
   12030:	e5832014 	str	r2, [r3, #20]
   12034:	e51b3008 	ldr	r3, [fp, #-8]
   12038:	e59f206c 	ldr	r2, [pc, #108]	; 120ac <sha2_starts+0x144>
   1203c:	e5832018 	str	r2, [r3, #24]
   12040:	e51b3008 	ldr	r3, [fp, #-8]
   12044:	e59f2064 	ldr	r2, [pc, #100]	; 120b0 <sha2_starts+0x148>
   12048:	e583201c 	str	r2, [r3, #28]
   1204c:	e51b3008 	ldr	r3, [fp, #-8]
   12050:	e59f205c 	ldr	r2, [pc, #92]	; 120b4 <sha2_starts+0x14c>
   12054:	e5832020 	str	r2, [r3, #32]
   12058:	e51b3008 	ldr	r3, [fp, #-8]
   1205c:	e59f2054 	ldr	r2, [pc, #84]	; 120b8 <sha2_starts+0x150>
   12060:	e5832024 	str	r2, [r3, #36]	; 0x24
   12064:	e51b3008 	ldr	r3, [fp, #-8]
   12068:	e51b200c 	ldr	r2, [fp, #-12]
   1206c:	e58320e8 	str	r2, [r3, #232]	; 0xe8
   12070:	e28bd000 	add	sp, fp, #0
   12074:	e8bd0800 	pop	{fp}
   12078:	e12fff1e 	bx	lr
   1207c:	6a09e667 	.word	0x6a09e667
   12080:	bb67ae85 	.word	0xbb67ae85
   12084:	3c6ef372 	.word	0x3c6ef372
   12088:	a54ff53a 	.word	0xa54ff53a
   1208c:	510e527f 	.word	0x510e527f
   12090:	9b05688c 	.word	0x9b05688c
   12094:	1f83d9ab 	.word	0x1f83d9ab
   12098:	5be0cd19 	.word	0x5be0cd19
   1209c:	c1059ed8 	.word	0xc1059ed8
   120a0:	367cd507 	.word	0x367cd507
   120a4:	3070dd17 	.word	0x3070dd17
   120a8:	f70e5939 	.word	0xf70e5939
   120ac:	ffc00b31 	.word	0xffc00b31
   120b0:	68581511 	.word	0x68581511
   120b4:	64f98fa7 	.word	0x64f98fa7
   120b8:	befa4fa4 	.word	0xbefa4fa4

000120bc <sha2_process>:
   120bc:	e52db004 	push	{fp}		; (str fp, [sp, #-4]!)
   120c0:	e28db000 	add	fp, sp, #0
   120c4:	e24ddf4d 	sub	sp, sp, #308	; 0x134
   120c8:	e50b0130 	str	r0, [fp, #-304]	; 0x130
   120cc:	e50b1134 	str	r1, [fp, #-308]	; 0x134
   120d0:	e51b3134 	ldr	r3, [fp, #-308]	; 0x134
   120d4:	e5d33000 	ldrb	r3, [r3]
   120d8:	e1a02c03 	lsl	r2, r3, #24
   120dc:	e51b3134 	ldr	r3, [fp, #-308]	; 0x134
   120e0:	e2833001 	add	r3, r3, #1
   120e4:	e5d33000 	ldrb	r3, [r3]
   120e8:	e1a03803 	lsl	r3, r3, #16
   120ec:	e1822003 	orr	r2, r2, r3
   120f0:	e51b3134 	ldr	r3, [fp, #-308]	; 0x134
   120f4:	e2833002 	add	r3, r3, #2
   120f8:	e5d33000 	ldrb	r3, [r3]
   120fc:	e1a03403 	lsl	r3, r3, #8
   12100:	e1822003 	orr	r2, r2, r3
   12104:	e51b3134 	ldr	r3, [fp, #-308]	; 0x134
   12108:	e2833003 	add	r3, r3, #3
   1210c:	e5d33000 	ldrb	r3, [r3]
   12110:	e1823003 	orr	r3, r2, r3
   12114:	e50b312c 	str	r3, [fp, #-300]	; 0x12c
   12118:	e51b3134 	ldr	r3, [fp, #-308]	; 0x134
   1211c:	e2833004 	add	r3, r3, #4
   12120:	e5d33000 	ldrb	r3, [r3]
   12124:	e1a02c03 	lsl	r2, r3, #24
   12128:	e51b3134 	ldr	r3, [fp, #-308]	; 0x134
   1212c:	e2833005 	add	r3, r3, #5
   12130:	e5d33000 	ldrb	r3, [r3]
   12134:	e1a03803 	lsl	r3, r3, #16
   12138:	e1822003 	orr	r2, r2, r3
   1213c:	e51b3134 	ldr	r3, [fp, #-308]	; 0x134
   12140:	e2833006 	add	r3, r3, #6
   12144:	e5d33000 	ldrb	r3, [r3]
   12148:	e1a03403 	lsl	r3, r3, #8
   1214c:	e1822003 	orr	r2, r2, r3
   12150:	e51b3134 	ldr	r3, [fp, #-308]	; 0x134
   12154:	e2833007 	add	r3, r3, #7
   12158:	e5d33000 	ldrb	r3, [r3]
   1215c:	e1823003 	orr	r3, r2, r3
   12160:	e50b3128 	str	r3, [fp, #-296]	; 0x128
   12164:	e51b3134 	ldr	r3, [fp, #-308]	; 0x134
   12168:	e2833008 	add	r3, r3, #8
   1216c:	e5d33000 	ldrb	r3, [r3]
   12170:	e1a02c03 	lsl	r2, r3, #24
   12174:	e51b3134 	ldr	r3, [fp, #-308]	; 0x134
   12178:	e2833009 	add	r3, r3, #9
   1217c:	e5d33000 	ldrb	r3, [r3]
   12180:	e1a03803 	lsl	r3, r3, #16
   12184:	e1822003 	orr	r2, r2, r3
   12188:	e51b3134 	ldr	r3, [fp, #-308]	; 0x134
   1218c:	e283300a 	add	r3, r3, #10
   12190:	e5d33000 	ldrb	r3, [r3]
   12194:	e1a03403 	lsl	r3, r3, #8
   12198:	e1822003 	orr	r2, r2, r3
   1219c:	e51b3134 	ldr	r3, [fp, #-308]	; 0x134
   121a0:	e283300b 	add	r3, r3, #11
   121a4:	e5d33000 	ldrb	r3, [r3]
   121a8:	e1823003 	orr	r3, r2, r3
   121ac:	e50b3124 	str	r3, [fp, #-292]	; 0x124
   121b0:	e51b3134 	ldr	r3, [fp, #-308]	; 0x134
   121b4:	e283300c 	add	r3, r3, #12
   121b8:	e5d33000 	ldrb	r3, [r3]
   121bc:	e1a02c03 	lsl	r2, r3, #24
   121c0:	e51b3134 	ldr	r3, [fp, #-308]	; 0x134
   121c4:	e283300d 	add	r3, r3, #13
   121c8:	e5d33000 	ldrb	r3, [r3]
   121cc:	e1a03803 	lsl	r3, r3, #16
   121d0:	e1822003 	orr	r2, r2, r3
   121d4:	e51b3134 	ldr	r3, [fp, #-308]	; 0x134
   121d8:	e283300e 	add	r3, r3, #14
   121dc:	e5d33000 	ldrb	r3, [r3]
   121e0:	e1a03403 	lsl	r3, r3, #8
   121e4:	e1822003 	orr	r2, r2, r3
   121e8:	e51b3134 	ldr	r3, [fp, #-308]	; 0x134
   121ec:	e283300f 	add	r3, r3, #15
   121f0:	e5d33000 	ldrb	r3, [r3]
   121f4:	e1823003 	orr	r3, r2, r3
   121f8:	e50b3120 	str	r3, [fp, #-288]	; 0x120
   121fc:	e51b3134 	ldr	r3, [fp, #-308]	; 0x134
   12200:	e2833010 	add	r3, r3, #16
   12204:	e5d33000 	ldrb	r3, [r3]
   12208:	e1a02c03 	lsl	r2, r3, #24
   1220c:	e51b3134 	ldr	r3, [fp, #-308]	; 0x134
   12210:	e2833011 	add	r3, r3, #17
   12214:	e5d33000 	ldrb	r3, [r3]
   12218:	e1a03803 	lsl	r3, r3, #16
   1221c:	e1822003 	orr	r2, r2, r3
   12220:	e51b3134 	ldr	r3, [fp, #-308]	; 0x134
   12224:	e2833012 	add	r3, r3, #18
   12228:	e5d33000 	ldrb	r3, [r3]
   1222c:	e1a03403 	lsl	r3, r3, #8
   12230:	e1822003 	orr	r2, r2, r3
   12234:	e51b3134 	ldr	r3, [fp, #-308]	; 0x134
   12238:	e2833013 	add	r3, r3, #19
   1223c:	e5d33000 	ldrb	r3, [r3]
   12240:	e1823003 	orr	r3, r2, r3
   12244:	e50b311c 	str	r3, [fp, #-284]	; 0x11c
   12248:	e51b3134 	ldr	r3, [fp, #-308]	; 0x134
   1224c:	e2833014 	add	r3, r3, #20
   12250:	e5d33000 	ldrb	r3, [r3]
   12254:	e1a02c03 	lsl	r2, r3, #24
   12258:	e51b3134 	ldr	r3, [fp, #-308]	; 0x134
   1225c:	e2833015 	add	r3, r3, #21
   12260:	e5d33000 	ldrb	r3, [r3]
   12264:	e1a03803 	lsl	r3, r3, #16
   12268:	e1822003 	orr	r2, r2, r3
   1226c:	e51b3134 	ldr	r3, [fp, #-308]	; 0x134
   12270:	e2833016 	add	r3, r3, #22
   12274:	e5d33000 	ldrb	r3, [r3]
   12278:	e1a03403 	lsl	r3, r3, #8
   1227c:	e1822003 	orr	r2, r2, r3
   12280:	e51b3134 	ldr	r3, [fp, #-308]	; 0x134
   12284:	e2833017 	add	r3, r3, #23
   12288:	e5d33000 	ldrb	r3, [r3]
   1228c:	e1823003 	orr	r3, r2, r3
   12290:	e50b3118 	str	r3, [fp, #-280]	; 0x118
   12294:	e51b3134 	ldr	r3, [fp, #-308]	; 0x134
   12298:	e2833018 	add	r3, r3, #24
   1229c:	e5d33000 	ldrb	r3, [r3]
   122a0:	e1a02c03 	lsl	r2, r3, #24
   122a4:	e51b3134 	ldr	r3, [fp, #-308]	; 0x134
   122a8:	e2833019 	add	r3, r3, #25
   122ac:	e5d33000 	ldrb	r3, [r3]
   122b0:	e1a03803 	lsl	r3, r3, #16
   122b4:	e1822003 	orr	r2, r2, r3
   122b8:	e51b3134 	ldr	r3, [fp, #-308]	; 0x134
   122bc:	e283301a 	add	r3, r3, #26
   122c0:	e5d33000 	ldrb	r3, [r3]
   122c4:	e1a03403 	lsl	r3, r3, #8
   122c8:	e1822003 	orr	r2, r2, r3
   122cc:	e51b3134 	ldr	r3, [fp, #-308]	; 0x134
   122d0:	e283301b 	add	r3, r3, #27
   122d4:	e5d33000 	ldrb	r3, [r3]
   122d8:	e1823003 	orr	r3, r2, r3
   122dc:	e50b3114 	str	r3, [fp, #-276]	; 0x114
   122e0:	e51b3134 	ldr	r3, [fp, #-308]	; 0x134
   122e4:	e283301c 	add	r3, r3, #28
   122e8:	e5d33000 	ldrb	r3, [r3]
   122ec:	e1a02c03 	lsl	r2, r3, #24
   122f0:	e51b3134 	ldr	r3, [fp, #-308]	; 0x134
   122f4:	e283301d 	add	r3, r3, #29
   122f8:	e5d33000 	ldrb	r3, [r3]
   122fc:	e1a03803 	lsl	r3, r3, #16
   12300:	e1822003 	orr	r2, r2, r3
   12304:	e51b3134 	ldr	r3, [fp, #-308]	; 0x134
   12308:	e283301e 	add	r3, r3, #30
   1230c:	e5d33000 	ldrb	r3, [r3]
   12310:	e1a03403 	lsl	r3, r3, #8
   12314:	e1822003 	orr	r2, r2, r3
   12318:	e51b3134 	ldr	r3, [fp, #-308]	; 0x134
   1231c:	e283301f 	add	r3, r3, #31
   12320:	e5d33000 	ldrb	r3, [r3]
   12324:	e1823003 	orr	r3, r2, r3
   12328:	e50b3110 	str	r3, [fp, #-272]	; 0x110
   1232c:	e51b3134 	ldr	r3, [fp, #-308]	; 0x134
   12330:	e2833020 	add	r3, r3, #32
   12334:	e5d33000 	ldrb	r3, [r3]
   12338:	e1a02c03 	lsl	r2, r3, #24
   1233c:	e51b3134 	ldr	r3, [fp, #-308]	; 0x134
   12340:	e2833021 	add	r3, r3, #33	; 0x21
   12344:	e5d33000 	ldrb	r3, [r3]
   12348:	e1a03803 	lsl	r3, r3, #16
   1234c:	e1822003 	orr	r2, r2, r3
   12350:	e51b3134 	ldr	r3, [fp, #-308]	; 0x134
   12354:	e2833022 	add	r3, r3, #34	; 0x22
   12358:	e5d33000 	ldrb	r3, [r3]
   1235c:	e1a03403 	lsl	r3, r3, #8
   12360:	e1822003 	orr	r2, r2, r3
   12364:	e51b3134 	ldr	r3, [fp, #-308]	; 0x134
   12368:	e2833023 	add	r3, r3, #35	; 0x23
   1236c:	e5d33000 	ldrb	r3, [r3]
   12370:	e1823003 	orr	r3, r2, r3
   12374:	e50b310c 	str	r3, [fp, #-268]	; 0x10c
   12378:	e51b3134 	ldr	r3, [fp, #-308]	; 0x134
   1237c:	e2833024 	add	r3, r3, #36	; 0x24
   12380:	e5d33000 	ldrb	r3, [r3]
   12384:	e1a02c03 	lsl	r2, r3, #24
   12388:	e51b3134 	ldr	r3, [fp, #-308]	; 0x134
   1238c:	e2833025 	add	r3, r3, #37	; 0x25
   12390:	e5d33000 	ldrb	r3, [r3]
   12394:	e1a03803 	lsl	r3, r3, #16
   12398:	e1822003 	orr	r2, r2, r3
   1239c:	e51b3134 	ldr	r3, [fp, #-308]	; 0x134
   123a0:	e2833026 	add	r3, r3, #38	; 0x26
   123a4:	e5d33000 	ldrb	r3, [r3]
   123a8:	e1a03403 	lsl	r3, r3, #8
   123ac:	e1822003 	orr	r2, r2, r3
   123b0:	e51b3134 	ldr	r3, [fp, #-308]	; 0x134
   123b4:	e2833027 	add	r3, r3, #39	; 0x27
   123b8:	e5d33000 	ldrb	r3, [r3]
   123bc:	e1823003 	orr	r3, r2, r3
   123c0:	e50b3108 	str	r3, [fp, #-264]	; 0x108
   123c4:	e51b3134 	ldr	r3, [fp, #-308]	; 0x134
   123c8:	e2833028 	add	r3, r3, #40	; 0x28
   123cc:	e5d33000 	ldrb	r3, [r3]
   123d0:	e1a02c03 	lsl	r2, r3, #24
   123d4:	e51b3134 	ldr	r3, [fp, #-308]	; 0x134
   123d8:	e2833029 	add	r3, r3, #41	; 0x29
   123dc:	e5d33000 	ldrb	r3, [r3]
   123e0:	e1a03803 	lsl	r3, r3, #16
   123e4:	e1822003 	orr	r2, r2, r3
   123e8:	e51b3134 	ldr	r3, [fp, #-308]	; 0x134
   123ec:	e283302a 	add	r3, r3, #42	; 0x2a
   123f0:	e5d33000 	ldrb	r3, [r3]
   123f4:	e1a03403 	lsl	r3, r3, #8
   123f8:	e1822003 	orr	r2, r2, r3
   123fc:	e51b3134 	ldr	r3, [fp, #-308]	; 0x134
   12400:	e283302b 	add	r3, r3, #43	; 0x2b
   12404:	e5d33000 	ldrb	r3, [r3]
   12408:	e1823003 	orr	r3, r2, r3
   1240c:	e50b3104 	str	r3, [fp, #-260]	; 0x104
   12410:	e51b3134 	ldr	r3, [fp, #-308]	; 0x134
   12414:	e283302c 	add	r3, r3, #44	; 0x2c
   12418:	e5d33000 	ldrb	r3, [r3]
   1241c:	e1a02c03 	lsl	r2, r3, #24
   12420:	e51b3134 	ldr	r3, [fp, #-308]	; 0x134
   12424:	e283302d 	add	r3, r3, #45	; 0x2d
   12428:	e5d33000 	ldrb	r3, [r3]
   1242c:	e1a03803 	lsl	r3, r3, #16
   12430:	e1822003 	orr	r2, r2, r3
   12434:	e51b3134 	ldr	r3, [fp, #-308]	; 0x134
   12438:	e283302e 	add	r3, r3, #46	; 0x2e
   1243c:	e5d33000 	ldrb	r3, [r3]
   12440:	e1a03403 	lsl	r3, r3, #8
   12444:	e1822003 	orr	r2, r2, r3
   12448:	e51b3134 	ldr	r3, [fp, #-308]	; 0x134
   1244c:	e283302f 	add	r3, r3, #47	; 0x2f
   12450:	e5d33000 	ldrb	r3, [r3]
   12454:	e1823003 	orr	r3, r2, r3
   12458:	e50b3100 	str	r3, [fp, #-256]	; 0x100
   1245c:	e51b3134 	ldr	r3, [fp, #-308]	; 0x134
   12460:	e2833030 	add	r3, r3, #48	; 0x30
   12464:	e5d33000 	ldrb	r3, [r3]
   12468:	e1a02c03 	lsl	r2, r3, #24
   1246c:	e51b3134 	ldr	r3, [fp, #-308]	; 0x134
   12470:	e2833031 	add	r3, r3, #49	; 0x31
   12474:	e5d33000 	ldrb	r3, [r3]
   12478:	e1a03803 	lsl	r3, r3, #16
   1247c:	e1822003 	orr	r2, r2, r3
   12480:	e51b3134 	ldr	r3, [fp, #-308]	; 0x134
   12484:	e2833032 	add	r3, r3, #50	; 0x32
   12488:	e5d33000 	ldrb	r3, [r3]
   1248c:	e1a03403 	lsl	r3, r3, #8
   12490:	e1822003 	orr	r2, r2, r3
   12494:	e51b3134 	ldr	r3, [fp, #-308]	; 0x134
   12498:	e2833033 	add	r3, r3, #51	; 0x33
   1249c:	e5d33000 	ldrb	r3, [r3]
   124a0:	e1823003 	orr	r3, r2, r3
   124a4:	e50b30fc 	str	r3, [fp, #-252]	; 0xfc
   124a8:	e51b3134 	ldr	r3, [fp, #-308]	; 0x134
   124ac:	e2833034 	add	r3, r3, #52	; 0x34
   124b0:	e5d33000 	ldrb	r3, [r3]
   124b4:	e1a02c03 	lsl	r2, r3, #24
   124b8:	e51b3134 	ldr	r3, [fp, #-308]	; 0x134
   124bc:	e2833035 	add	r3, r3, #53	; 0x35
   124c0:	e5d33000 	ldrb	r3, [r3]
   124c4:	e1a03803 	lsl	r3, r3, #16
   124c8:	e1822003 	orr	r2, r2, r3
   124cc:	e51b3134 	ldr	r3, [fp, #-308]	; 0x134
   124d0:	e2833036 	add	r3, r3, #54	; 0x36
   124d4:	e5d33000 	ldrb	r3, [r3]
   124d8:	e1a03403 	lsl	r3, r3, #8
   124dc:	e1822003 	orr	r2, r2, r3
   124e0:	e51b3134 	ldr	r3, [fp, #-308]	; 0x134
   124e4:	e2833037 	add	r3, r3, #55	; 0x37
   124e8:	e5d33000 	ldrb	r3, [r3]
   124ec:	e1823003 	orr	r3, r2, r3
   124f0:	e50b30f8 	str	r3, [fp, #-248]	; 0xf8
   124f4:	e51b3134 	ldr	r3, [fp, #-308]	; 0x134
   124f8:	e2833038 	add	r3, r3, #56	; 0x38
   124fc:	e5d33000 	ldrb	r3, [r3]
   12500:	e1a02c03 	lsl	r2, r3, #24
   12504:	e51b3134 	ldr	r3, [fp, #-308]	; 0x134
   12508:	e2833039 	add	r3, r3, #57	; 0x39
   1250c:	e5d33000 	ldrb	r3, [r3]
   12510:	e1a03803 	lsl	r3, r3, #16
   12514:	e1822003 	orr	r2, r2, r3
   12518:	e51b3134 	ldr	r3, [fp, #-308]	; 0x134
   1251c:	e283303a 	add	r3, r3, #58	; 0x3a
   12520:	e5d33000 	ldrb	r3, [r3]
   12524:	e1a03403 	lsl	r3, r3, #8
   12528:	e1822003 	orr	r2, r2, r3
   1252c:	e51b3134 	ldr	r3, [fp, #-308]	; 0x134
   12530:	e283303b 	add	r3, r3, #59	; 0x3b
   12534:	e5d33000 	ldrb	r3, [r3]
   12538:	e1823003 	orr	r3, r2, r3
   1253c:	e50b30f4 	str	r3, [fp, #-244]	; 0xf4
   12540:	e51b3134 	ldr	r3, [fp, #-308]	; 0x134
   12544:	e283303c 	add	r3, r3, #60	; 0x3c
   12548:	e5d33000 	ldrb	r3, [r3]
   1254c:	e1a02c03 	lsl	r2, r3, #24
   12550:	e51b3134 	ldr	r3, [fp, #-308]	; 0x134
   12554:	e283303d 	add	r3, r3, #61	; 0x3d
   12558:	e5d33000 	ldrb	r3, [r3]
   1255c:	e1a03803 	lsl	r3, r3, #16
   12560:	e1822003 	orr	r2, r2, r3
   12564:	e51b3134 	ldr	r3, [fp, #-308]	; 0x134
   12568:	e283303e 	add	r3, r3, #62	; 0x3e
   1256c:	e5d33000 	ldrb	r3, [r3]
   12570:	e1a03403 	lsl	r3, r3, #8
   12574:	e1822003 	orr	r2, r2, r3
   12578:	e51b3134 	ldr	r3, [fp, #-308]	; 0x134
   1257c:	e283303f 	add	r3, r3, #63	; 0x3f
   12580:	e5d33000 	ldrb	r3, [r3]
   12584:	e1823003 	orr	r3, r2, r3
   12588:	e50b30f0 	str	r3, [fp, #-240]	; 0xf0
   1258c:	e51b3130 	ldr	r3, [fp, #-304]	; 0x130
   12590:	e5933008 	ldr	r3, [r3, #8]
   12594:	e50b3008 	str	r3, [fp, #-8]
   12598:	e51b3130 	ldr	r3, [fp, #-304]	; 0x130
   1259c:	e593300c 	ldr	r3, [r3, #12]
   125a0:	e50b300c 	str	r3, [fp, #-12]
   125a4:	e51b3130 	ldr	r3, [fp, #-304]	; 0x130
   125a8:	e5933010 	ldr	r3, [r3, #16]
   125ac:	e50b3010 	str	r3, [fp, #-16]
   125b0:	e51b3130 	ldr	r3, [fp, #-304]	; 0x130
   125b4:	e5933014 	ldr	r3, [r3, #20]
   125b8:	e50b3014 	str	r3, [fp, #-20]
   125bc:	e51b3130 	ldr	r3, [fp, #-304]	; 0x130
   125c0:	e5933018 	ldr	r3, [r3, #24]
   125c4:	e50b3018 	str	r3, [fp, #-24]
   125c8:	e51b3130 	ldr	r3, [fp, #-304]	; 0x130
   125cc:	e593301c 	ldr	r3, [r3, #28]
   125d0:	e50b301c 	str	r3, [fp, #-28]
   125d4:	e51b3130 	ldr	r3, [fp, #-304]	; 0x130
   125d8:	e5933020 	ldr	r3, [r3, #32]
   125dc:	e50b3020 	str	r3, [fp, #-32]
   125e0:	e51b3130 	ldr	r3, [fp, #-304]	; 0x130
   125e4:	e5933024 	ldr	r3, [r3, #36]	; 0x24
   125e8:	e50b3024 	str	r3, [fp, #-36]	; 0x24
   125ec:	e51b3018 	ldr	r3, [fp, #-24]
   125f0:	e1a02363 	ror	r2, r3, #6
   125f4:	e51b3018 	ldr	r3, [fp, #-24]
   125f8:	e1a035e3 	ror	r3, r3, #11
   125fc:	e0222003 	eor	r2, r2, r3
   12600:	e51b3018 	ldr	r3, [fp, #-24]
   12604:	e1a03ce3 	ror	r3, r3, #25
   12608:	e0222003 	eor	r2, r2, r3
   1260c:	e51b3024 	ldr	r3, [fp, #-36]	; 0x24
   12610:	e0822003 	add	r2, r2, r3
   12614:	e51b101c 	ldr	r1, [fp, #-28]
   12618:	e51b3020 	ldr	r3, [fp, #-32]
   1261c:	e0211003 	eor	r1, r1, r3
   12620:	e51b3018 	ldr	r3, [fp, #-24]
   12624:	e0011003 	and	r1, r1, r3
   12628:	e51b3020 	ldr	r3, [fp, #-32]
   1262c:	e0213003 	eor	r3, r1, r3
   12630:	e0822003 	add	r2, r2, r3
   12634:	e51b312c 	ldr	r3, [fp, #-300]	; 0x12c
   12638:	e0822003 	add	r2, r2, r3
   1263c:	e59f3ff8 	ldr	r3, [pc, #4088]	; 1363c <sha2_process+0x1580>
   12640:	e0823003 	add	r3, r2, r3
   12644:	e50b3028 	str	r3, [fp, #-40]	; 0x28
   12648:	e51b3008 	ldr	r3, [fp, #-8]
   1264c:	e1a02163 	ror	r2, r3, #2
   12650:	e51b3008 	ldr	r3, [fp, #-8]
   12654:	e1a036e3 	ror	r3, r3, #13
   12658:	e0222003 	eor	r2, r2, r3
   1265c:	e51b3008 	ldr	r3, [fp, #-8]
   12660:	e1a03b63 	ror	r3, r3, #22
   12664:	e0222003 	eor	r2, r2, r3
   12668:	e51b1008 	ldr	r1, [fp, #-8]
   1266c:	e51b300c 	ldr	r3, [fp, #-12]
   12670:	e0011003 	and	r1, r1, r3
   12674:	e51b0008 	ldr	r0, [fp, #-8]
   12678:	e51b300c 	ldr	r3, [fp, #-12]
   1267c:	e1800003 	orr	r0, r0, r3
   12680:	e51b3010 	ldr	r3, [fp, #-16]
   12684:	e0003003 	and	r3, r0, r3
   12688:	e1813003 	orr	r3, r1, r3
   1268c:	e0823003 	add	r3, r2, r3
   12690:	e50b302c 	str	r3, [fp, #-44]	; 0x2c
   12694:	e51b2014 	ldr	r2, [fp, #-20]
   12698:	e51b3028 	ldr	r3, [fp, #-40]	; 0x28
   1269c:	e0823003 	add	r3, r2, r3
   126a0:	e50b3014 	str	r3, [fp, #-20]
   126a4:	e51b2028 	ldr	r2, [fp, #-40]	; 0x28
   126a8:	e51b302c 	ldr	r3, [fp, #-44]	; 0x2c
   126ac:	e0823003 	add	r3, r2, r3
   126b0:	e50b3024 	str	r3, [fp, #-36]	; 0x24
   126b4:	e51b3014 	ldr	r3, [fp, #-20]
   126b8:	e1a02363 	ror	r2, r3, #6
   126bc:	e51b3014 	ldr	r3, [fp, #-20]
   126c0:	e1a035e3 	ror	r3, r3, #11
   126c4:	e0222003 	eor	r2, r2, r3
   126c8:	e51b3014 	ldr	r3, [fp, #-20]
   126cc:	e1a03ce3 	ror	r3, r3, #25
   126d0:	e0222003 	eor	r2, r2, r3
   126d4:	e51b3020 	ldr	r3, [fp, #-32]
   126d8:	e0822003 	add	r2, r2, r3
   126dc:	e51b1018 	ldr	r1, [fp, #-24]
   126e0:	e51b301c 	ldr	r3, [fp, #-28]
   126e4:	e0211003 	eor	r1, r1, r3
   126e8:	e51b3014 	ldr	r3, [fp, #-20]
   126ec:	e0011003 	and	r1, r1, r3
   126f0:	e51b301c 	ldr	r3, [fp, #-28]
   126f4:	e0213003 	eor	r3, r1, r3
   126f8:	e0822003 	add	r2, r2, r3
   126fc:	e51b3128 	ldr	r3, [fp, #-296]	; 0x128
   12700:	e0822003 	add	r2, r2, r3
   12704:	e59f3f34 	ldr	r3, [pc, #3892]	; 13640 <sha2_process+0x1584>
   12708:	e0823003 	add	r3, r2, r3
   1270c:	e50b3028 	str	r3, [fp, #-40]	; 0x28
   12710:	e51b3024 	ldr	r3, [fp, #-36]	; 0x24
   12714:	e1a02163 	ror	r2, r3, #2
   12718:	e51b3024 	ldr	r3, [fp, #-36]	; 0x24
   1271c:	e1a036e3 	ror	r3, r3, #13
   12720:	e0222003 	eor	r2, r2, r3
   12724:	e51b3024 	ldr	r3, [fp, #-36]	; 0x24
   12728:	e1a03b63 	ror	r3, r3, #22
   1272c:	e0222003 	eor	r2, r2, r3
   12730:	e51b1024 	ldr	r1, [fp, #-36]	; 0x24
   12734:	e51b3008 	ldr	r3, [fp, #-8]
   12738:	e0011003 	and	r1, r1, r3
   1273c:	e51b0024 	ldr	r0, [fp, #-36]	; 0x24
   12740:	e51b3008 	ldr	r3, [fp, #-8]
   12744:	e1800003 	orr	r0, r0, r3
   12748:	e51b300c 	ldr	r3, [fp, #-12]
   1274c:	e0003003 	and	r3, r0, r3
   12750:	e1813003 	orr	r3, r1, r3
   12754:	e0823003 	add	r3, r2, r3
   12758:	e50b302c 	str	r3, [fp, #-44]	; 0x2c
   1275c:	e51b2010 	ldr	r2, [fp, #-16]
   12760:	e51b3028 	ldr	r3, [fp, #-40]	; 0x28
   12764:	e0823003 	add	r3, r2, r3
   12768:	e50b3010 	str	r3, [fp, #-16]
   1276c:	e51b2028 	ldr	r2, [fp, #-40]	; 0x28
   12770:	e51b302c 	ldr	r3, [fp, #-44]	; 0x2c
   12774:	e0823003 	add	r3, r2, r3
   12778:	e50b3020 	str	r3, [fp, #-32]
   1277c:	e51b3010 	ldr	r3, [fp, #-16]
   12780:	e1a02363 	ror	r2, r3, #6
   12784:	e51b3010 	ldr	r3, [fp, #-16]
   12788:	e1a035e3 	ror	r3, r3, #11
   1278c:	e0222003 	eor	r2, r2, r3
   12790:	e51b3010 	ldr	r3, [fp, #-16]
   12794:	e1a03ce3 	ror	r3, r3, #25
   12798:	e0222003 	eor	r2, r2, r3
   1279c:	e51b301c 	ldr	r3, [fp, #-28]
   127a0:	e0822003 	add	r2, r2, r3
   127a4:	e51b1014 	ldr	r1, [fp, #-20]
   127a8:	e51b3018 	ldr	r3, [fp, #-24]
   127ac:	e0211003 	eor	r1, r1, r3
   127b0:	e51b3010 	ldr	r3, [fp, #-16]
   127b4:	e0011003 	and	r1, r1, r3
   127b8:	e51b3018 	ldr	r3, [fp, #-24]
   127bc:	e0213003 	eor	r3, r1, r3
   127c0:	e0822003 	add	r2, r2, r3
   127c4:	e51b3124 	ldr	r3, [fp, #-292]	; 0x124
   127c8:	e0822003 	add	r2, r2, r3
   127cc:	e59f3e70 	ldr	r3, [pc, #3696]	; 13644 <sha2_process+0x1588>
   127d0:	e0823003 	add	r3, r2, r3
   127d4:	e50b3028 	str	r3, [fp, #-40]	; 0x28
   127d8:	e51b3020 	ldr	r3, [fp, #-32]
   127dc:	e1a02163 	ror	r2, r3, #2
   127e0:	e51b3020 	ldr	r3, [fp, #-32]
   127e4:	e1a036e3 	ror	r3, r3, #13
   127e8:	e0222003 	eor	r2, r2, r3
   127ec:	e51b3020 	ldr	r3, [fp, #-32]
   127f0:	e1a03b63 	ror	r3, r3, #22
   127f4:	e0222003 	eor	r2, r2, r3
   127f8:	e51b1020 	ldr	r1, [fp, #-32]
   127fc:	e51b3024 	ldr	r3, [fp, #-36]	; 0x24
   12800:	e0011003 	and	r1, r1, r3
   12804:	e51b0020 	ldr	r0, [fp, #-32]
   12808:	e51b3024 	ldr	r3, [fp, #-36]	; 0x24
   1280c:	e1800003 	orr	r0, r0, r3
   12810:	e51b3008 	ldr	r3, [fp, #-8]
   12814:	e0003003 	and	r3, r0, r3
   12818:	e1813003 	orr	r3, r1, r3
   1281c:	e0823003 	add	r3, r2, r3
   12820:	e50b302c 	str	r3, [fp, #-44]	; 0x2c
   12824:	e51b200c 	ldr	r2, [fp, #-12]
   12828:	e51b3028 	ldr	r3, [fp, #-40]	; 0x28
   1282c:	e0823003 	add	r3, r2, r3
   12830:	e50b300c 	str	r3, [fp, #-12]
   12834:	e51b2028 	ldr	r2, [fp, #-40]	; 0x28
   12838:	e51b302c 	ldr	r3, [fp, #-44]	; 0x2c
   1283c:	e0823003 	add	r3, r2, r3
   12840:	e50b301c 	str	r3, [fp, #-28]
   12844:	e51b300c 	ldr	r3, [fp, #-12]
   12848:	e1a02363 	ror	r2, r3, #6
   1284c:	e51b300c 	ldr	r3, [fp, #-12]
   12850:	e1a035e3 	ror	r3, r3, #11
   12854:	e0222003 	eor	r2, r2, r3
   12858:	e51b300c 	ldr	r3, [fp, #-12]
   1285c:	e1a03ce3 	ror	r3, r3, #25
   12860:	e0222003 	eor	r2, r2, r3
   12864:	e51b3018 	ldr	r3, [fp, #-24]
   12868:	e0822003 	add	r2, r2, r3
   1286c:	e51b1010 	ldr	r1, [fp, #-16]
   12870:	e51b3014 	ldr	r3, [fp, #-20]
   12874:	e0211003 	eor	r1, r1, r3
   12878:	e51b300c 	ldr	r3, [fp, #-12]
   1287c:	e0011003 	and	r1, r1, r3
   12880:	e51b3014 	ldr	r3, [fp, #-20]
   12884:	e0213003 	eor	r3, r1, r3
   12888:	e0822003 	add	r2, r2, r3
   1288c:	e51b3120 	ldr	r3, [fp, #-288]	; 0x120
   12890:	e0822003 	add	r2, r2, r3
   12894:	e59f3dac 	ldr	r3, [pc, #3500]	; 13648 <sha2_process+0x158c>
   12898:	e0823003 	add	r3, r2, r3
   1289c:	e50b3028 	str	r3, [fp, #-40]	; 0x28
   128a0:	e51b301c 	ldr	r3, [fp, #-28]
   128a4:	e1a02163 	ror	r2, r3, #2
   128a8:	e51b301c 	ldr	r3, [fp, #-28]
   128ac:	e1a036e3 	ror	r3, r3, #13
   128b0:	e0222003 	eor	r2, r2, r3
   128b4:	e51b301c 	ldr	r3, [fp, #-28]
   128b8:	e1a03b63 	ror	r3, r3, #22
   128bc:	e0222003 	eor	r2, r2, r3
   128c0:	e51b101c 	ldr	r1, [fp, #-28]
   128c4:	e51b3020 	ldr	r3, [fp, #-32]
   128c8:	e0011003 	and	r1, r1, r3
   128cc:	e51b001c 	ldr	r0, [fp, #-28]
   128d0:	e51b3020 	ldr	r3, [fp, #-32]
   128d4:	e1800003 	orr	r0, r0, r3
   128d8:	e51b3024 	ldr	r3, [fp, #-36]	; 0x24
   128dc:	e0003003 	and	r3, r0, r3
   128e0:	e1813003 	orr	r3, r1, r3
   128e4:	e0823003 	add	r3, r2, r3
   128e8:	e50b302c 	str	r3, [fp, #-44]	; 0x2c
   128ec:	e51b2008 	ldr	r2, [fp, #-8]
   128f0:	e51b3028 	ldr	r3, [fp, #-40]	; 0x28
   128f4:	e0823003 	add	r3, r2, r3
   128f8:	e50b3008 	str	r3, [fp, #-8]
   128fc:	e51b2028 	ldr	r2, [fp, #-40]	; 0x28
   12900:	e51b302c 	ldr	r3, [fp, #-44]	; 0x2c
   12904:	e0823003 	add	r3, r2, r3
   12908:	e50b3018 	str	r3, [fp, #-24]
   1290c:	e51b3008 	ldr	r3, [fp, #-8]
   12910:	e1a02363 	ror	r2, r3, #6
   12914:	e51b3008 	ldr	r3, [fp, #-8]
   12918:	e1a035e3 	ror	r3, r3, #11
   1291c:	e0222003 	eor	r2, r2, r3
   12920:	e51b3008 	ldr	r3, [fp, #-8]
   12924:	e1a03ce3 	ror	r3, r3, #25
   12928:	e0222003 	eor	r2, r2, r3
   1292c:	e51b3014 	ldr	r3, [fp, #-20]
   12930:	e0822003 	add	r2, r2, r3
   12934:	e51b100c 	ldr	r1, [fp, #-12]
   12938:	e51b3010 	ldr	r3, [fp, #-16]
   1293c:	e0211003 	eor	r1, r1, r3
   12940:	e51b3008 	ldr	r3, [fp, #-8]
   12944:	e0011003 	and	r1, r1, r3
   12948:	e51b3010 	ldr	r3, [fp, #-16]
   1294c:	e0213003 	eor	r3, r1, r3
   12950:	e0822003 	add	r2, r2, r3
   12954:	e51b311c 	ldr	r3, [fp, #-284]	; 0x11c
   12958:	e0822003 	add	r2, r2, r3
   1295c:	e59f3ce8 	ldr	r3, [pc, #3304]	; 1364c <sha2_process+0x1590>
   12960:	e0823003 	add	r3, r2, r3
   12964:	e50b3028 	str	r3, [fp, #-40]	; 0x28
   12968:	e51b3018 	ldr	r3, [fp, #-24]
   1296c:	e1a02163 	ror	r2, r3, #2
   12970:	e51b3018 	ldr	r3, [fp, #-24]
   12974:	e1a036e3 	ror	r3, r3, #13
   12978:	e0222003 	eor	r2, r2, r3
   1297c:	e51b3018 	ldr	r3, [fp, #-24]
   12980:	e1a03b63 	ror	r3, r3, #22
   12984:	e0222003 	eor	r2, r2, r3
   12988:	e51b1018 	ldr	r1, [fp, #-24]
   1298c:	e51b301c 	ldr	r3, [fp, #-28]
   12990:	e0011003 	and	r1, r1, r3
   12994:	e51b0018 	ldr	r0, [fp, #-24]
   12998:	e51b301c 	ldr	r3, [fp, #-28]
   1299c:	e1800003 	orr	r0, r0, r3
   129a0:	e51b3020 	ldr	r3, [fp, #-32]
   129a4:	e0003003 	and	r3, r0, r3
   129a8:	e1813003 	orr	r3, r1, r3
   129ac:	e0823003 	add	r3, r2, r3
   129b0:	e50b302c 	str	r3, [fp, #-44]	; 0x2c
   129b4:	e51b2024 	ldr	r2, [fp, #-36]	; 0x24
   129b8:	e51b3028 	ldr	r3, [fp, #-40]	; 0x28
   129bc:	e0823003 	add	r3, r2, r3
   129c0:	e50b3024 	str	r3, [fp, #-36]	; 0x24
   129c4:	e51b2028 	ldr	r2, [fp, #-40]	; 0x28
   129c8:	e51b302c 	ldr	r3, [fp, #-44]	; 0x2c
   129cc:	e0823003 	add	r3, r2, r3
   129d0:	e50b3014 	str	r3, [fp, #-20]
   129d4:	e51b3024 	ldr	r3, [fp, #-36]	; 0x24
   129d8:	e1a02363 	ror	r2, r3, #6
   129dc:	e51b3024 	ldr	r3, [fp, #-36]	; 0x24
   129e0:	e1a035e3 	ror	r3, r3, #11
   129e4:	e0222003 	eor	r2, r2, r3
   129e8:	e51b3024 	ldr	r3, [fp, #-36]	; 0x24
   129ec:	e1a03ce3 	ror	r3, r3, #25
   129f0:	e0222003 	eor	r2, r2, r3
   129f4:	e51b3010 	ldr	r3, [fp, #-16]
   129f8:	e0822003 	add	r2, r2, r3
   129fc:	e51b1008 	ldr	r1, [fp, #-8]
   12a00:	e51b300c 	ldr	r3, [fp, #-12]
   12a04:	e0211003 	eor	r1, r1, r3
   12a08:	e51b3024 	ldr	r3, [fp, #-36]	; 0x24
   12a0c:	e0011003 	and	r1, r1, r3
   12a10:	e51b300c 	ldr	r3, [fp, #-12]
   12a14:	e0213003 	eor	r3, r1, r3
   12a18:	e0822003 	add	r2, r2, r3
   12a1c:	e51b3118 	ldr	r3, [fp, #-280]	; 0x118
   12a20:	e0822003 	add	r2, r2, r3
   12a24:	e59f3c24 	ldr	r3, [pc, #3108]	; 13650 <sha2_process+0x1594>
   12a28:	e0823003 	add	r3, r2, r3
   12a2c:	e50b3028 	str	r3, [fp, #-40]	; 0x28
   12a30:	e51b3014 	ldr	r3, [fp, #-20]
   12a34:	e1a02163 	ror	r2, r3, #2
   12a38:	e51b3014 	ldr	r3, [fp, #-20]
   12a3c:	e1a036e3 	ror	r3, r3, #13
   12a40:	e0222003 	eor	r2, r2, r3
   12a44:	e51b3014 	ldr	r3, [fp, #-20]
   12a48:	e1a03b63 	ror	r3, r3, #22
   12a4c:	e0222003 	eor	r2, r2, r3
   12a50:	e51b1014 	ldr	r1, [fp, #-20]
   12a54:	e51b3018 	ldr	r3, [fp, #-24]
   12a58:	e0011003 	and	r1, r1, r3
   12a5c:	e51b0014 	ldr	r0, [fp, #-20]
   12a60:	e51b3018 	ldr	r3, [fp, #-24]
   12a64:	e1800003 	orr	r0, r0, r3
   12a68:	e51b301c 	ldr	r3, [fp, #-28]
   12a6c:	e0003003 	and	r3, r0, r3
   12a70:	e1813003 	orr	r3, r1, r3
   12a74:	e0823003 	add	r3, r2, r3
   12a78:	e50b302c 	str	r3, [fp, #-44]	; 0x2c
   12a7c:	e51b2020 	ldr	r2, [fp, #-32]
   12a80:	e51b3028 	ldr	r3, [fp, #-40]	; 0x28
   12a84:	e0823003 	add	r3, r2, r3
   12a88:	e50b3020 	str	r3, [fp, #-32]
   12a8c:	e51b2028 	ldr	r2, [fp, #-40]	; 0x28
   12a90:	e51b302c 	ldr	r3, [fp, #-44]	; 0x2c
   12a94:	e0823003 	add	r3, r2, r3
   12a98:	e50b3010 	str	r3, [fp, #-16]
   12a9c:	e51b3020 	ldr	r3, [fp, #-32]
   12aa0:	e1a02363 	ror	r2, r3, #6
   12aa4:	e51b3020 	ldr	r3, [fp, #-32]
   12aa8:	e1a035e3 	ror	r3, r3, #11
   12aac:	e0222003 	eor	r2, r2, r3
   12ab0:	e51b3020 	ldr	r3, [fp, #-32]
   12ab4:	e1a03ce3 	ror	r3, r3, #25
   12ab8:	e0222003 	eor	r2, r2, r3
   12abc:	e51b300c 	ldr	r3, [fp, #-12]
   12ac0:	e0822003 	add	r2, r2, r3
   12ac4:	e51b1024 	ldr	r1, [fp, #-36]	; 0x24
   12ac8:	e51b3008 	ldr	r3, [fp, #-8]
   12acc:	e0211003 	eor	r1, r1, r3
   12ad0:	e51b3020 	ldr	r3, [fp, #-32]
   12ad4:	e0011003 	and	r1, r1, r3
   12ad8:	e51b3008 	ldr	r3, [fp, #-8]
   12adc:	e0213003 	eor	r3, r1, r3
   12ae0:	e0822003 	add	r2, r2, r3
   12ae4:	e51b3114 	ldr	r3, [fp, #-276]	; 0x114
   12ae8:	e0822003 	add	r2, r2, r3
   12aec:	e59f3b60 	ldr	r3, [pc, #2912]	; 13654 <sha2_process+0x1598>
   12af0:	e0823003 	add	r3, r2, r3
   12af4:	e50b3028 	str	r3, [fp, #-40]	; 0x28
   12af8:	e51b3010 	ldr	r3, [fp, #-16]
   12afc:	e1a02163 	ror	r2, r3, #2
   12b00:	e51b3010 	ldr	r3, [fp, #-16]
   12b04:	e1a036e3 	ror	r3, r3, #13
   12b08:	e0222003 	eor	r2, r2, r3
   12b0c:	e51b3010 	ldr	r3, [fp, #-16]
   12b10:	e1a03b63 	ror	r3, r3, #22
   12b14:	e0222003 	eor	r2, r2, r3
   12b18:	e51b1010 	ldr	r1, [fp, #-16]
   12b1c:	e51b3014 	ldr	r3, [fp, #-20]
   12b20:	e0011003 	and	r1, r1, r3
   12b24:	e51b0010 	ldr	r0, [fp, #-16]
   12b28:	e51b3014 	ldr	r3, [fp, #-20]
   12b2c:	e1800003 	orr	r0, r0, r3
   12b30:	e51b3018 	ldr	r3, [fp, #-24]
   12b34:	e0003003 	and	r3, r0, r3
   12b38:	e1813003 	orr	r3, r1, r3
   12b3c:	e0823003 	add	r3, r2, r3
   12b40:	e50b302c 	str	r3, [fp, #-44]	; 0x2c
   12b44:	e51b201c 	ldr	r2, [fp, #-28]
   12b48:	e51b3028 	ldr	r3, [fp, #-40]	; 0x28
   12b4c:	e0823003 	add	r3, r2, r3
   12b50:	e50b301c 	str	r3, [fp, #-28]
   12b54:	e51b2028 	ldr	r2, [fp, #-40]	; 0x28
   12b58:	e51b302c 	ldr	r3, [fp, #-44]	; 0x2c
   12b5c:	e0823003 	add	r3, r2, r3
   12b60:	e50b300c 	str	r3, [fp, #-12]
   12b64:	e51b301c 	ldr	r3, [fp, #-28]
   12b68:	e1a02363 	ror	r2, r3, #6
   12b6c:	e51b301c 	ldr	r3, [fp, #-28]
   12b70:	e1a035e3 	ror	r3, r3, #11
   12b74:	e0222003 	eor	r2, r2, r3
   12b78:	e51b301c 	ldr	r3, [fp, #-28]
   12b7c:	e1a03ce3 	ror	r3, r3, #25
   12b80:	e0222003 	eor	r2, r2, r3
   12b84:	e51b3008 	ldr	r3, [fp, #-8]
   12b88:	e0822003 	add	r2, r2, r3
   12b8c:	e51b1020 	ldr	r1, [fp, #-32]
   12b90:	e51b3024 	ldr	r3, [fp, #-36]	; 0x24
   12b94:	e0211003 	eor	r1, r1, r3
   12b98:	e51b301c 	ldr	r3, [fp, #-28]
   12b9c:	e0011003 	and	r1, r1, r3
   12ba0:	e51b3024 	ldr	r3, [fp, #-36]	; 0x24
   12ba4:	e0213003 	eor	r3, r1, r3
   12ba8:	e0822003 	add	r2, r2, r3
   12bac:	e51b3110 	ldr	r3, [fp, #-272]	; 0x110
   12bb0:	e0822003 	add	r2, r2, r3
   12bb4:	e59f3a9c 	ldr	r3, [pc, #2716]	; 13658 <sha2_process+0x159c>
   12bb8:	e0823003 	add	r3, r2, r3
   12bbc:	e50b3028 	str	r3, [fp, #-40]	; 0x28
   12bc0:	e51b300c 	ldr	r3, [fp, #-12]
   12bc4:	e1a02163 	ror	r2, r3, #2
   12bc8:	e51b300c 	ldr	r3, [fp, #-12]
   12bcc:	e1a036e3 	ror	r3, r3, #13
   12bd0:	e0222003 	eor	r2, r2, r3
   12bd4:	e51b300c 	ldr	r3, [fp, #-12]
   12bd8:	e1a03b63 	ror	r3, r3, #22
   12bdc:	e0222003 	eor	r2, r2, r3
   12be0:	e51b100c 	ldr	r1, [fp, #-12]
   12be4:	e51b3010 	ldr	r3, [fp, #-16]
   12be8:	e0011003 	and	r1, r1, r3
   12bec:	e51b000c 	ldr	r0, [fp, #-12]
   12bf0:	e51b3010 	ldr	r3, [fp, #-16]
   12bf4:	e1800003 	orr	r0, r0, r3
   12bf8:	e51b3014 	ldr	r3, [fp, #-20]
   12bfc:	e0003003 	and	r3, r0, r3
   12c00:	e1813003 	orr	r3, r1, r3
   12c04:	e0823003 	add	r3, r2, r3
   12c08:	e50b302c 	str	r3, [fp, #-44]	; 0x2c
   12c0c:	e51b2018 	ldr	r2, [fp, #-24]
   12c10:	e51b3028 	ldr	r3, [fp, #-40]	; 0x28
   12c14:	e0823003 	add	r3, r2, r3
   12c18:	e50b3018 	str	r3, [fp, #-24]
   12c1c:	e51b2028 	ldr	r2, [fp, #-40]	; 0x28
   12c20:	e51b302c 	ldr	r3, [fp, #-44]	; 0x2c
   12c24:	e0823003 	add	r3, r2, r3
   12c28:	e50b3008 	str	r3, [fp, #-8]
   12c2c:	e51b3018 	ldr	r3, [fp, #-24]
   12c30:	e1a02363 	ror	r2, r3, #6
   12c34:	e51b3018 	ldr	r3, [fp, #-24]
   12c38:	e1a035e3 	ror	r3, r3, #11
   12c3c:	e0222003 	eor	r2, r2, r3
   12c40:	e51b3018 	ldr	r3, [fp, #-24]
   12c44:	e1a03ce3 	ror	r3, r3, #25
   12c48:	e0222003 	eor	r2, r2, r3
   12c4c:	e51b3024 	ldr	r3, [fp, #-36]	; 0x24
   12c50:	e0822003 	add	r2, r2, r3
   12c54:	e51b101c 	ldr	r1, [fp, #-28]
   12c58:	e51b3020 	ldr	r3, [fp, #-32]
   12c5c:	e0211003 	eor	r1, r1, r3
   12c60:	e51b3018 	ldr	r3, [fp, #-24]
   12c64:	e0011003 	and	r1, r1, r3
   12c68:	e51b3020 	ldr	r3, [fp, #-32]
   12c6c:	e0213003 	eor	r3, r1, r3
   12c70:	e0822003 	add	r2, r2, r3
   12c74:	e51b310c 	ldr	r3, [fp, #-268]	; 0x10c
   12c78:	e0822003 	add	r2, r2, r3
   12c7c:	e59f39d8 	ldr	r3, [pc, #2520]	; 1365c <sha2_process+0x15a0>
   12c80:	e0823003 	add	r3, r2, r3
   12c84:	e50b3028 	str	r3, [fp, #-40]	; 0x28
   12c88:	e51b3008 	ldr	r3, [fp, #-8]
   12c8c:	e1a02163 	ror	r2, r3, #2
   12c90:	e51b3008 	ldr	r3, [fp, #-8]
   12c94:	e1a036e3 	ror	r3, r3, #13
   12c98:	e0222003 	eor	r2, r2, r3
   12c9c:	e51b3008 	ldr	r3, [fp, #-8]
   12ca0:	e1a03b63 	ror	r3, r3, #22
   12ca4:	e0222003 	eor	r2, r2, r3
   12ca8:	e51b1008 	ldr	r1, [fp, #-8]
   12cac:	e51b300c 	ldr	r3, [fp, #-12]
   12cb0:	e0011003 	and	r1, r1, r3
   12cb4:	e51b0008 	ldr	r0, [fp, #-8]
   12cb8:	e51b300c 	ldr	r3, [fp, #-12]
   12cbc:	e1800003 	orr	r0, r0, r3
   12cc0:	e51b3010 	ldr	r3, [fp, #-16]
   12cc4:	e0003003 	and	r3, r0, r3
   12cc8:	e1813003 	orr	r3, r1, r3
   12ccc:	e0823003 	add	r3, r2, r3
   12cd0:	e50b302c 	str	r3, [fp, #-44]	; 0x2c
   12cd4:	e51b2014 	ldr	r2, [fp, #-20]
   12cd8:	e51b3028 	ldr	r3, [fp, #-40]	; 0x28
   12cdc:	e0823003 	add	r3, r2, r3
   12ce0:	e50b3014 	str	r3, [fp, #-20]
   12ce4:	e51b2028 	ldr	r2, [fp, #-40]	; 0x28
   12ce8:	e51b302c 	ldr	r3, [fp, #-44]	; 0x2c
   12cec:	e0823003 	add	r3, r2, r3
   12cf0:	e50b3024 	str	r3, [fp, #-36]	; 0x24
   12cf4:	e51b3014 	ldr	r3, [fp, #-20]
   12cf8:	e1a02363 	ror	r2, r3, #6
   12cfc:	e51b3014 	ldr	r3, [fp, #-20]
   12d00:	e1a035e3 	ror	r3, r3, #11
   12d04:	e0222003 	eor	r2, r2, r3
   12d08:	e51b3014 	ldr	r3, [fp, #-20]
   12d0c:	e1a03ce3 	ror	r3, r3, #25
   12d10:	e0222003 	eor	r2, r2, r3
   12d14:	e51b3020 	ldr	r3, [fp, #-32]
   12d18:	e0822003 	add	r2, r2, r3
   12d1c:	e51b1018 	ldr	r1, [fp, #-24]
   12d20:	e51b301c 	ldr	r3, [fp, #-28]
   12d24:	e0211003 	eor	r1, r1, r3
   12d28:	e51b3014 	ldr	r3, [fp, #-20]
   12d2c:	e0011003 	and	r1, r1, r3
   12d30:	e51b301c 	ldr	r3, [fp, #-28]
   12d34:	e0213003 	eor	r3, r1, r3
   12d38:	e0822003 	add	r2, r2, r3
   12d3c:	e51b3108 	ldr	r3, [fp, #-264]	; 0x108
   12d40:	e0822003 	add	r2, r2, r3
   12d44:	e59f3914 	ldr	r3, [pc, #2324]	; 13660 <sha2_process+0x15a4>
   12d48:	e0823003 	add	r3, r2, r3
   12d4c:	e50b3028 	str	r3, [fp, #-40]	; 0x28
   12d50:	e51b3024 	ldr	r3, [fp, #-36]	; 0x24
   12d54:	e1a02163 	ror	r2, r3, #2
   12d58:	e51b3024 	ldr	r3, [fp, #-36]	; 0x24
   12d5c:	e1a036e3 	ror	r3, r3, #13
   12d60:	e0222003 	eor	r2, r2, r3
   12d64:	e51b3024 	ldr	r3, [fp, #-36]	; 0x24
   12d68:	e1a03b63 	ror	r3, r3, #22
   12d6c:	e0222003 	eor	r2, r2, r3
   12d70:	e51b1024 	ldr	r1, [fp, #-36]	; 0x24
   12d74:	e51b3008 	ldr	r3, [fp, #-8]
   12d78:	e0011003 	and	r1, r1, r3
   12d7c:	e51b0024 	ldr	r0, [fp, #-36]	; 0x24
   12d80:	e51b3008 	ldr	r3, [fp, #-8]
   12d84:	e1800003 	orr	r0, r0, r3
   12d88:	e51b300c 	ldr	r3, [fp, #-12]
   12d8c:	e0003003 	and	r3, r0, r3
   12d90:	e1813003 	orr	r3, r1, r3
   12d94:	e0823003 	add	r3, r2, r3
   12d98:	e50b302c 	str	r3, [fp, #-44]	; 0x2c
   12d9c:	e51b2010 	ldr	r2, [fp, #-16]
   12da0:	e51b3028 	ldr	r3, [fp, #-40]	; 0x28
   12da4:	e0823003 	add	r3, r2, r3
   12da8:	e50b3010 	str	r3, [fp, #-16]
   12dac:	e51b2028 	ldr	r2, [fp, #-40]	; 0x28
   12db0:	e51b302c 	ldr	r3, [fp, #-44]	; 0x2c
   12db4:	e0823003 	add	r3, r2, r3
   12db8:	e50b3020 	str	r3, [fp, #-32]
   12dbc:	e51b3010 	ldr	r3, [fp, #-16]
   12dc0:	e1a02363 	ror	r2, r3, #6
   12dc4:	e51b3010 	ldr	r3, [fp, #-16]
   12dc8:	e1a035e3 	ror	r3, r3, #11
   12dcc:	e0222003 	eor	r2, r2, r3
   12dd0:	e51b3010 	ldr	r3, [fp, #-16]
   12dd4:	e1a03ce3 	ror	r3, r3, #25
   12dd8:	e0222003 	eor	r2, r2, r3
   12ddc:	e51b301c 	ldr	r3, [fp, #-28]
   12de0:	e0822003 	add	r2, r2, r3
   12de4:	e51b1014 	ldr	r1, [fp, #-20]
   12de8:	e51b3018 	ldr	r3, [fp, #-24]
   12dec:	e0211003 	eor	r1, r1, r3
   12df0:	e51b3010 	ldr	r3, [fp, #-16]
   12df4:	e0011003 	and	r1, r1, r3
   12df8:	e51b3018 	ldr	r3, [fp, #-24]
   12dfc:	e0213003 	eor	r3, r1, r3
   12e00:	e0822003 	add	r2, r2, r3
   12e04:	e51b3104 	ldr	r3, [fp, #-260]	; 0x104
   12e08:	e0822003 	add	r2, r2, r3
   12e0c:	e59f3850 	ldr	r3, [pc, #2128]	; 13664 <sha2_process+0x15a8>
   12e10:	e0823003 	add	r3, r2, r3
   12e14:	e50b3028 	str	r3, [fp, #-40]	; 0x28
   12e18:	e51b3020 	ldr	r3, [fp, #-32]
   12e1c:	e1a02163 	ror	r2, r3, #2
   12e20:	e51b3020 	ldr	r3, [fp, #-32]
   12e24:	e1a036e3 	ror	r3, r3, #13
   12e28:	e0222003 	eor	r2, r2, r3
   12e2c:	e51b3020 	ldr	r3, [fp, #-32]
   12e30:	e1a03b63 	ror	r3, r3, #22
   12e34:	e0222003 	eor	r2, r2, r3
   12e38:	e51b1020 	ldr	r1, [fp, #-32]
   12e3c:	e51b3024 	ldr	r3, [fp, #-36]	; 0x24
   12e40:	e0011003 	and	r1, r1, r3
   12e44:	e51b0020 	ldr	r0, [fp, #-32]
   12e48:	e51b3024 	ldr	r3, [fp, #-36]	; 0x24
   12e4c:	e1800003 	orr	r0, r0, r3
   12e50:	e51b3008 	ldr	r3, [fp, #-8]
   12e54:	e0003003 	and	r3, r0, r3
   12e58:	e1813003 	orr	r3, r1, r3
   12e5c:	e0823003 	add	r3, r2, r3
   12e60:	e50b302c 	str	r3, [fp, #-44]	; 0x2c
   12e64:	e51b200c 	ldr	r2, [fp, #-12]
   12e68:	e51b3028 	ldr	r3, [fp, #-40]	; 0x28
   12e6c:	e0823003 	add	r3, r2, r3
   12e70:	e50b300c 	str	r3, [fp, #-12]
   12e74:	e51b2028 	ldr	r2, [fp, #-40]	; 0x28
   12e78:	e51b302c 	ldr	r3, [fp, #-44]	; 0x2c
   12e7c:	e0823003 	add	r3, r2, r3
   12e80:	e50b301c 	str	r3, [fp, #-28]
   12e84:	e51b300c 	ldr	r3, [fp, #-12]
   12e88:	e1a02363 	ror	r2, r3, #6
   12e8c:	e51b300c 	ldr	r3, [fp, #-12]
   12e90:	e1a035e3 	ror	r3, r3, #11
   12e94:	e0222003 	eor	r2, r2, r3
   12e98:	e51b300c 	ldr	r3, [fp, #-12]
   12e9c:	e1a03ce3 	ror	r3, r3, #25
   12ea0:	e0222003 	eor	r2, r2, r3
   12ea4:	e51b3018 	ldr	r3, [fp, #-24]
   12ea8:	e0822003 	add	r2, r2, r3
   12eac:	e51b1010 	ldr	r1, [fp, #-16]
   12eb0:	e51b3014 	ldr	r3, [fp, #-20]
   12eb4:	e0211003 	eor	r1, r1, r3
   12eb8:	e51b300c 	ldr	r3, [fp, #-12]
   12ebc:	e0011003 	and	r1, r1, r3
   12ec0:	e51b3014 	ldr	r3, [fp, #-20]
   12ec4:	e0213003 	eor	r3, r1, r3
   12ec8:	e0822003 	add	r2, r2, r3
   12ecc:	e51b3100 	ldr	r3, [fp, #-256]	; 0x100
   12ed0:	e0822003 	add	r2, r2, r3
   12ed4:	e59f378c 	ldr	r3, [pc, #1932]	; 13668 <sha2_process+0x15ac>
   12ed8:	e0823003 	add	r3, r2, r3
   12edc:	e50b3028 	str	r3, [fp, #-40]	; 0x28
   12ee0:	e51b301c 	ldr	r3, [fp, #-28]
   12ee4:	e1a02163 	ror	r2, r3, #2
   12ee8:	e51b301c 	ldr	r3, [fp, #-28]
   12eec:	e1a036e3 	ror	r3, r3, #13
   12ef0:	e0222003 	eor	r2, r2, r3
   12ef4:	e51b301c 	ldr	r3, [fp, #-28]
   12ef8:	e1a03b63 	ror	r3, r3, #22
   12efc:	e0222003 	eor	r2, r2, r3
   12f00:	e51b101c 	ldr	r1, [fp, #-28]
   12f04:	e51b3020 	ldr	r3, [fp, #-32]
   12f08:	e0011003 	and	r1, r1, r3
   12f0c:	e51b001c 	ldr	r0, [fp, #-28]
   12f10:	e51b3020 	ldr	r3, [fp, #-32]
   12f14:	e1800003 	orr	r0, r0, r3
   12f18:	e51b3024 	ldr	r3, [fp, #-36]	; 0x24
   12f1c:	e0003003 	and	r3, r0, r3
   12f20:	e1813003 	orr	r3, r1, r3
   12f24:	e0823003 	add	r3, r2, r3
   12f28:	e50b302c 	str	r3, [fp, #-44]	; 0x2c
   12f2c:	e51b2008 	ldr	r2, [fp, #-8]
   12f30:	e51b3028 	ldr	r3, [fp, #-40]	; 0x28
   12f34:	e0823003 	add	r3, r2, r3
   12f38:	e50b3008 	str	r3, [fp, #-8]
   12f3c:	e51b2028 	ldr	r2, [fp, #-40]	; 0x28
   12f40:	e51b302c 	ldr	r3, [fp, #-44]	; 0x2c
   12f44:	e0823003 	add	r3, r2, r3
   12f48:	e50b3018 	str	r3, [fp, #-24]
   12f4c:	e51b3008 	ldr	r3, [fp, #-8]
   12f50:	e1a02363 	ror	r2, r3, #6
   12f54:	e51b3008 	ldr	r3, [fp, #-8]
   12f58:	e1a035e3 	ror	r3, r3, #11
   12f5c:	e0222003 	eor	r2, r2, r3
   12f60:	e51b3008 	ldr	r3, [fp, #-8]
   12f64:	e1a03ce3 	ror	r3, r3, #25
   12f68:	e0222003 	eor	r2, r2, r3
   12f6c:	e51b3014 	ldr	r3, [fp, #-20]
   12f70:	e0822003 	add	r2, r2, r3
   12f74:	e51b100c 	ldr	r1, [fp, #-12]
   12f78:	e51b3010 	ldr	r3, [fp, #-16]
   12f7c:	e0211003 	eor	r1, r1, r3
   12f80:	e51b3008 	ldr	r3, [fp, #-8]
   12f84:	e0011003 	and	r1, r1, r3
   12f88:	e51b3010 	ldr	r3, [fp, #-16]
   12f8c:	e0213003 	eor	r3, r1, r3
   12f90:	e0822003 	add	r2, r2, r3
   12f94:	e51b30fc 	ldr	r3, [fp, #-252]	; 0xfc
   12f98:	e0822003 	add	r2, r2, r3
   12f9c:	e59f36c8 	ldr	r3, [pc, #1736]	; 1366c <sha2_process+0x15b0>
   12fa0:	e0823003 	add	r3, r2, r3
   12fa4:	e50b3028 	str	r3, [fp, #-40]	; 0x28
   12fa8:	e51b3018 	ldr	r3, [fp, #-24]
   12fac:	e1a02163 	ror	r2, r3, #2
   12fb0:	e51b3018 	ldr	r3, [fp, #-24]
   12fb4:	e1a036e3 	ror	r3, r3, #13
   12fb8:	e0222003 	eor	r2, r2, r3
   12fbc:	e51b3018 	ldr	r3, [fp, #-24]
   12fc0:	e1a03b63 	ror	r3, r3, #22
   12fc4:	e0222003 	eor	r2, r2, r3
   12fc8:	e51b1018 	ldr	r1, [fp, #-24]
   12fcc:	e51b301c 	ldr	r3, [fp, #-28]
   12fd0:	e0011003 	and	r1, r1, r3
   12fd4:	e51b0018 	ldr	r0, [fp, #-24]
   12fd8:	e51b301c 	ldr	r3, [fp, #-28]
   12fdc:	e1800003 	orr	r0, r0, r3
   12fe0:	e51b3020 	ldr	r3, [fp, #-32]
   12fe4:	e0003003 	and	r3, r0, r3
   12fe8:	e1813003 	orr	r3, r1, r3
   12fec:	e0823003 	add	r3, r2, r3
   12ff0:	e50b302c 	str	r3, [fp, #-44]	; 0x2c
   12ff4:	e51b2024 	ldr	r2, [fp, #-36]	; 0x24
   12ff8:	e51b3028 	ldr	r3, [fp, #-40]	; 0x28
   12ffc:	e0823003 	add	r3, r2, r3
   13000:	e50b3024 	str	r3, [fp, #-36]	; 0x24
   13004:	e51b2028 	ldr	r2, [fp, #-40]	; 0x28
   13008:	e51b302c 	ldr	r3, [fp, #-44]	; 0x2c
   1300c:	e0823003 	add	r3, r2, r3
   13010:	e50b3014 	str	r3, [fp, #-20]
   13014:	e51b3024 	ldr	r3, [fp, #-36]	; 0x24
   13018:	e1a02363 	ror	r2, r3, #6
   1301c:	e51b3024 	ldr	r3, [fp, #-36]	; 0x24
   13020:	e1a035e3 	ror	r3, r3, #11
   13024:	e0222003 	eor	r2, r2, r3
   13028:	e51b3024 	ldr	r3, [fp, #-36]	; 0x24
   1302c:	e1a03ce3 	ror	r3, r3, #25
   13030:	e0222003 	eor	r2, r2, r3
   13034:	e51b3010 	ldr	r3, [fp, #-16]
   13038:	e0822003 	add	r2, r2, r3
   1303c:	e51b1008 	ldr	r1, [fp, #-8]
   13040:	e51b300c 	ldr	r3, [fp, #-12]
   13044:	e0211003 	eor	r1, r1, r3
   13048:	e51b3024 	ldr	r3, [fp, #-36]	; 0x24
   1304c:	e0011003 	and	r1, r1, r3
   13050:	e51b300c 	ldr	r3, [fp, #-12]
   13054:	e0213003 	eor	r3, r1, r3
   13058:	e0822003 	add	r2, r2, r3
   1305c:	e51b30f8 	ldr	r3, [fp, #-248]	; 0xf8
   13060:	e0822003 	add	r2, r2, r3
   13064:	e59f3604 	ldr	r3, [pc, #1540]	; 13670 <sha2_process+0x15b4>
   13068:	e0823003 	add	r3, r2, r3
   1306c:	e50b3028 	str	r3, [fp, #-40]	; 0x28
   13070:	e51b3014 	ldr	r3, [fp, #-20]
   13074:	e1a02163 	ror	r2, r3, #2
   13078:	e51b3014 	ldr	r3, [fp, #-20]
   1307c:	e1a036e3 	ror	r3, r3, #13
   13080:	e0222003 	eor	r2, r2, r3
   13084:	e51b3014 	ldr	r3, [fp, #-20]
   13088:	e1a03b63 	ror	r3, r3, #22
   1308c:	e0222003 	eor	r2, r2, r3
   13090:	e51b1014 	ldr	r1, [fp, #-20]
   13094:	e51b3018 	ldr	r3, [fp, #-24]
   13098:	e0011003 	and	r1, r1, r3
   1309c:	e51b0014 	ldr	r0, [fp, #-20]
   130a0:	e51b3018 	ldr	r3, [fp, #-24]
   130a4:	e1800003 	orr	r0, r0, r3
   130a8:	e51b301c 	ldr	r3, [fp, #-28]
   130ac:	e0003003 	and	r3, r0, r3
   130b0:	e1813003 	orr	r3, r1, r3
   130b4:	e0823003 	add	r3, r2, r3
   130b8:	e50b302c 	str	r3, [fp, #-44]	; 0x2c
   130bc:	e51b2020 	ldr	r2, [fp, #-32]
   130c0:	e51b3028 	ldr	r3, [fp, #-40]	; 0x28
   130c4:	e0823003 	add	r3, r2, r3
   130c8:	e50b3020 	str	r3, [fp, #-32]
   130cc:	e51b2028 	ldr	r2, [fp, #-40]	; 0x28
   130d0:	e51b302c 	ldr	r3, [fp, #-44]	; 0x2c
   130d4:	e0823003 	add	r3, r2, r3
   130d8:	e50b3010 	str	r3, [fp, #-16]
   130dc:	e51b3020 	ldr	r3, [fp, #-32]
   130e0:	e1a02363 	ror	r2, r3, #6
   130e4:	e51b3020 	ldr	r3, [fp, #-32]
   130e8:	e1a035e3 	ror	r3, r3, #11
   130ec:	e0222003 	eor	r2, r2, r3
   130f0:	e51b3020 	ldr	r3, [fp, #-32]
   130f4:	e1a03ce3 	ror	r3, r3, #25
   130f8:	e0222003 	eor	r2, r2, r3
   130fc:	e51b300c 	ldr	r3, [fp, #-12]
   13100:	e0822003 	add	r2, r2, r3
   13104:	e51b1024 	ldr	r1, [fp, #-36]	; 0x24
   13108:	e51b3008 	ldr	r3, [fp, #-8]
   1310c:	e0211003 	eor	r1, r1, r3
   13110:	e51b3020 	ldr	r3, [fp, #-32]
   13114:	e0011003 	and	r1, r1, r3
   13118:	e51b3008 	ldr	r3, [fp, #-8]
   1311c:	e0213003 	eor	r3, r1, r3
   13120:	e0822003 	add	r2, r2, r3
   13124:	e51b30f4 	ldr	r3, [fp, #-244]	; 0xf4
   13128:	e0822003 	add	r2, r2, r3
   1312c:	e59f3540 	ldr	r3, [pc, #1344]	; 13674 <sha2_process+0x15b8>
   13130:	e0823003 	add	r3, r2, r3
   13134:	e50b3028 	str	r3, [fp, #-40]	; 0x28
   13138:	e51b3010 	ldr	r3, [fp, #-16]
   1313c:	e1a02163 	ror	r2, r3, #2
   13140:	e51b3010 	ldr	r3, [fp, #-16]
   13144:	e1a036e3 	ror	r3, r3, #13
   13148:	e0222003 	eor	r2, r2, r3
   1314c:	e51b3010 	ldr	r3, [fp, #-16]
   13150:	e1a03b63 	ror	r3, r3, #22
   13154:	e0222003 	eor	r2, r2, r3
   13158:	e51b1010 	ldr	r1, [fp, #-16]
   1315c:	e51b3014 	ldr	r3, [fp, #-20]
   13160:	e0011003 	and	r1, r1, r3
   13164:	e51b0010 	ldr	r0, [fp, #-16]
   13168:	e51b3014 	ldr	r3, [fp, #-20]
   1316c:	e1800003 	orr	r0, r0, r3
   13170:	e51b3018 	ldr	r3, [fp, #-24]
   13174:	e0003003 	and	r3, r0, r3
   13178:	e1813003 	orr	r3, r1, r3
   1317c:	e0823003 	add	r3, r2, r3
   13180:	e50b302c 	str	r3, [fp, #-44]	; 0x2c
   13184:	e51b201c 	ldr	r2, [fp, #-28]
   13188:	e51b3028 	ldr	r3, [fp, #-40]	; 0x28
   1318c:	e0823003 	add	r3, r2, r3
   13190:	e50b301c 	str	r3, [fp, #-28]
   13194:	e51b2028 	ldr	r2, [fp, #-40]	; 0x28
   13198:	e51b302c 	ldr	r3, [fp, #-44]	; 0x2c
   1319c:	e0823003 	add	r3, r2, r3
   131a0:	e50b300c 	str	r3, [fp, #-12]
   131a4:	e51b301c 	ldr	r3, [fp, #-28]
   131a8:	e1a02363 	ror	r2, r3, #6
   131ac:	e51b301c 	ldr	r3, [fp, #-28]
   131b0:	e1a035e3 	ror	r3, r3, #11
   131b4:	e0222003 	eor	r2, r2, r3
   131b8:	e51b301c 	ldr	r3, [fp, #-28]
   131bc:	e1a03ce3 	ror	r3, r3, #25
   131c0:	e0222003 	eor	r2, r2, r3
   131c4:	e51b3008 	ldr	r3, [fp, #-8]
   131c8:	e0822003 	add	r2, r2, r3
   131cc:	e51b1020 	ldr	r1, [fp, #-32]
   131d0:	e51b3024 	ldr	r3, [fp, #-36]	; 0x24
   131d4:	e0211003 	eor	r1, r1, r3
   131d8:	e51b301c 	ldr	r3, [fp, #-28]
   131dc:	e0011003 	and	r1, r1, r3
   131e0:	e51b3024 	ldr	r3, [fp, #-36]	; 0x24
   131e4:	e0213003 	eor	r3, r1, r3
   131e8:	e0822003 	add	r2, r2, r3
   131ec:	e51b30f0 	ldr	r3, [fp, #-240]	; 0xf0
   131f0:	e0822003 	add	r2, r2, r3
   131f4:	e59f347c 	ldr	r3, [pc, #1148]	; 13678 <sha2_process+0x15bc>
   131f8:	e0823003 	add	r3, r2, r3
   131fc:	e50b3028 	str	r3, [fp, #-40]	; 0x28
   13200:	e51b300c 	ldr	r3, [fp, #-12]
   13204:	e1a02163 	ror	r2, r3, #2
   13208:	e51b300c 	ldr	r3, [fp, #-12]
   1320c:	e1a036e3 	ror	r3, r3, #13
   13210:	e0222003 	eor	r2, r2, r3
   13214:	e51b300c 	ldr	r3, [fp, #-12]
   13218:	e1a03b63 	ror	r3, r3, #22
   1321c:	e0222003 	eor	r2, r2, r3
   13220:	e51b100c 	ldr	r1, [fp, #-12]
   13224:	e51b3010 	ldr	r3, [fp, #-16]
   13228:	e0011003 	and	r1, r1, r3
   1322c:	e51b000c 	ldr	r0, [fp, #-12]
   13230:	e51b3010 	ldr	r3, [fp, #-16]
   13234:	e1800003 	orr	r0, r0, r3
   13238:	e51b3014 	ldr	r3, [fp, #-20]
   1323c:	e0003003 	and	r3, r0, r3
   13240:	e1813003 	orr	r3, r1, r3
   13244:	e0823003 	add	r3, r2, r3
   13248:	e50b302c 	str	r3, [fp, #-44]	; 0x2c
   1324c:	e51b2018 	ldr	r2, [fp, #-24]
   13250:	e51b3028 	ldr	r3, [fp, #-40]	; 0x28
   13254:	e0823003 	add	r3, r2, r3
   13258:	e50b3018 	str	r3, [fp, #-24]
   1325c:	e51b2028 	ldr	r2, [fp, #-40]	; 0x28
   13260:	e51b302c 	ldr	r3, [fp, #-44]	; 0x2c
   13264:	e0823003 	add	r3, r2, r3
   13268:	e50b3008 	str	r3, [fp, #-8]
   1326c:	e51b3018 	ldr	r3, [fp, #-24]
   13270:	e1a02363 	ror	r2, r3, #6
   13274:	e51b3018 	ldr	r3, [fp, #-24]
   13278:	e1a035e3 	ror	r3, r3, #11
   1327c:	e0222003 	eor	r2, r2, r3
   13280:	e51b3018 	ldr	r3, [fp, #-24]
   13284:	e1a03ce3 	ror	r3, r3, #25
   13288:	e0222003 	eor	r2, r2, r3
   1328c:	e51b3024 	ldr	r3, [fp, #-36]	; 0x24
   13290:	e0822003 	add	r2, r2, r3
   13294:	e51b101c 	ldr	r1, [fp, #-28]
   13298:	e51b3020 	ldr	r3, [fp, #-32]
   1329c:	e0211003 	eor	r1, r1, r3
   132a0:	e51b3018 	ldr	r3, [fp, #-24]
   132a4:	e0011003 	and	r1, r1, r3
   132a8:	e51b3020 	ldr	r3, [fp, #-32]
   132ac:	e0213003 	eor	r3, r1, r3
   132b0:	e0822003 	add	r2, r2, r3
   132b4:	e51b30f4 	ldr	r3, [fp, #-244]	; 0xf4
   132b8:	e1a018e3 	ror	r1, r3, #17
   132bc:	e51b30f4 	ldr	r3, [fp, #-244]	; 0xf4
   132c0:	e1a039e3 	ror	r3, r3, #19
   132c4:	e0211003 	eor	r1, r1, r3
   132c8:	e51b30f4 	ldr	r3, [fp, #-244]	; 0xf4
   132cc:	e1a03523 	lsr	r3, r3, #10
   132d0:	e0211003 	eor	r1, r1, r3
   132d4:	e51b3108 	ldr	r3, [fp, #-264]	; 0x108
   132d8:	e0811003 	add	r1, r1, r3
   132dc:	e51b3128 	ldr	r3, [fp, #-296]	; 0x128
   132e0:	e1a003e3 	ror	r0, r3, #7
   132e4:	e51b3128 	ldr	r3, [fp, #-296]	; 0x128
   132e8:	e1a03963 	ror	r3, r3, #18
   132ec:	e0200003 	eor	r0, r0, r3
   132f0:	e51b3128 	ldr	r3, [fp, #-296]	; 0x128
   132f4:	e1a031a3 	lsr	r3, r3, #3
   132f8:	e0203003 	eor	r3, r0, r3
   132fc:	e0811003 	add	r1, r1, r3
   13300:	e51b312c 	ldr	r3, [fp, #-300]	; 0x12c
   13304:	e0813003 	add	r3, r1, r3
   13308:	e50b30ec 	str	r3, [fp, #-236]	; 0xec
   1330c:	e51b30ec 	ldr	r3, [fp, #-236]	; 0xec
   13310:	e0822003 	add	r2, r2, r3
   13314:	e59f3360 	ldr	r3, [pc, #864]	; 1367c <sha2_process+0x15c0>
   13318:	e0823003 	add	r3, r2, r3
   1331c:	e50b3028 	str	r3, [fp, #-40]	; 0x28
   13320:	e51b3008 	ldr	r3, [fp, #-8]
   13324:	e1a02163 	ror	r2, r3, #2
   13328:	e51b3008 	ldr	r3, [fp, #-8]
   1332c:	e1a036e3 	ror	r3, r3, #13
   13330:	e0222003 	eor	r2, r2, r3
   13334:	e51b3008 	ldr	r3, [fp, #-8]
   13338:	e1a03b63 	ror	r3, r3, #22
   1333c:	e0222003 	eor	r2, r2, r3
   13340:	e51b1008 	ldr	r1, [fp, #-8]
   13344:	e51b300c 	ldr	r3, [fp, #-12]
   13348:	e0011003 	and	r1, r1, r3
   1334c:	e51b0008 	ldr	r0, [fp, #-8]
   13350:	e51b300c 	ldr	r3, [fp, #-12]
   13354:	e1800003 	orr	r0, r0, r3
   13358:	e51b3010 	ldr	r3, [fp, #-16]
   1335c:	e0003003 	and	r3, r0, r3
   13360:	e1813003 	orr	r3, r1, r3
   13364:	e0823003 	add	r3, r2, r3
   13368:	e50b302c 	str	r3, [fp, #-44]	; 0x2c
   1336c:	e51b2014 	ldr	r2, [fp, #-20]
   13370:	e51b3028 	ldr	r3, [fp, #-40]	; 0x28
   13374:	e0823003 	add	r3, r2, r3
   13378:	e50b3014 	str	r3, [fp, #-20]
   1337c:	e51b2028 	ldr	r2, [fp, #-40]	; 0x28
   13380:	e51b302c 	ldr	r3, [fp, #-44]	; 0x2c
   13384:	e0823003 	add	r3, r2, r3
   13388:	e50b3024 	str	r3, [fp, #-36]	; 0x24
   1338c:	e51b3014 	ldr	r3, [fp, #-20]
   13390:	e1a02363 	ror	r2, r3, #6
   13394:	e51b3014 	ldr	r3, [fp, #-20]
   13398:	e1a035e3 	ror	r3, r3, #11
   1339c:	e0222003 	eor	r2, r2, r3
   133a0:	e51b3014 	ldr	r3, [fp, #-20]
   133a4:	e1a03ce3 	ror	r3, r3, #25
   133a8:	e0222003 	eor	r2, r2, r3
   133ac:	e51b3020 	ldr	r3, [fp, #-32]
   133b0:	e0822003 	add	r2, r2, r3
   133b4:	e51b1018 	ldr	r1, [fp, #-24]
   133b8:	e51b301c 	ldr	r3, [fp, #-28]
   133bc:	e0211003 	eor	r1, r1, r3
   133c0:	e51b3014 	ldr	r3, [fp, #-20]
   133c4:	e0011003 	and	r1, r1, r3
   133c8:	e51b301c 	ldr	r3, [fp, #-28]
   133cc:	e0213003 	eor	r3, r1, r3
   133d0:	e0822003 	add	r2, r2, r3
   133d4:	e51b30f0 	ldr	r3, [fp, #-240]	; 0xf0
   133d8:	e1a018e3 	ror	r1, r3, #17
   133dc:	e51b30f0 	ldr	r3, [fp, #-240]	; 0xf0
   133e0:	e1a039e3 	ror	r3, r3, #19
   133e4:	e0211003 	eor	r1, r1, r3
   133e8:	e51b30f0 	ldr	r3, [fp, #-240]	; 0xf0
   133ec:	e1a03523 	lsr	r3, r3, #10
   133f0:	e0211003 	eor	r1, r1, r3
   133f4:	e51b3104 	ldr	r3, [fp, #-260]	; 0x104
   133f8:	e0811003 	add	r1, r1, r3
   133fc:	e51b3124 	ldr	r3, [fp, #-292]	; 0x124
   13400:	e1a003e3 	ror	r0, r3, #7
   13404:	e51b3124 	ldr	r3, [fp, #-292]	; 0x124
   13408:	e1a03963 	ror	r3, r3, #18
   1340c:	e0200003 	eor	r0, r0, r3
   13410:	e51b3124 	ldr	r3, [fp, #-292]	; 0x124
   13414:	e1a031a3 	lsr	r3, r3, #3
   13418:	e0203003 	eor	r3, r0, r3
   1341c:	e0811003 	add	r1, r1, r3
   13420:	e51b3128 	ldr	r3, [fp, #-296]	; 0x128
   13424:	e0813003 	add	r3, r1, r3
   13428:	e50b30e8 	str	r3, [fp, #-232]	; 0xe8
   1342c:	e51b30e8 	ldr	r3, [fp, #-232]	; 0xe8
   13430:	e0822003 	add	r2, r2, r3
   13434:	e59f3244 	ldr	r3, [pc, #580]	; 13680 <sha2_process+0x15c4>
   13438:	e0823003 	add	r3, r2, r3
   1343c:	e50b3028 	str	r3, [fp, #-40]	; 0x28
   13440:	e51b3024 	ldr	r3, [fp, #-36]	; 0x24
   13444:	e1a02163 	ror	r2, r3, #2
   13448:	e51b3024 	ldr	r3, [fp, #-36]	; 0x24
   1344c:	e1a036e3 	ror	r3, r3, #13
   13450:	e0222003 	eor	r2, r2, r3
   13454:	e51b3024 	ldr	r3, [fp, #-36]	; 0x24
   13458:	e1a03b63 	ror	r3, r3, #22
   1345c:	e0222003 	eor	r2, r2, r3
   13460:	e51b1024 	ldr	r1, [fp, #-36]	; 0x24
   13464:	e51b3008 	ldr	r3, [fp, #-8]
   13468:	e0011003 	and	r1, r1, r3
   1346c:	e51b0024 	ldr	r0, [fp, #-36]	; 0x24
   13470:	e51b3008 	ldr	r3, [fp, #-8]
   13474:	e1800003 	orr	r0, r0, r3
   13478:	e51b300c 	ldr	r3, [fp, #-12]
   1347c:	e0003003 	and	r3, r0, r3
   13480:	e1813003 	orr	r3, r1, r3
   13484:	e0823003 	add	r3, r2, r3
   13488:	e50b302c 	str	r3, [fp, #-44]	; 0x2c
   1348c:	e51b2010 	ldr	r2, [fp, #-16]
   13490:	e51b3028 	ldr	r3, [fp, #-40]	; 0x28
   13494:	e0823003 	add	r3, r2, r3
   13498:	e50b3010 	str	r3, [fp, #-16]
   1349c:	e51b2028 	ldr	r2, [fp, #-40]	; 0x28
   134a0:	e51b302c 	ldr	r3, [fp, #-44]	; 0x2c
   134a4:	e0823003 	add	r3, r2, r3
   134a8:	e50b3020 	str	r3, [fp, #-32]
   134ac:	e51b3010 	ldr	r3, [fp, #-16]
   134b0:	e1a02363 	ror	r2, r3, #6
   134b4:	e51b3010 	ldr	r3, [fp, #-16]
   134b8:	e1a035e3 	ror	r3, r3, #11
   134bc:	e0222003 	eor	r2, r2, r3
   134c0:	e51b3010 	ldr	r3, [fp, #-16]
   134c4:	e1a03ce3 	ror	r3, r3, #25
   134c8:	e0222003 	eor	r2, r2, r3
   134cc:	e51b301c 	ldr	r3, [fp, #-28]
   134d0:	e0822003 	add	r2, r2, r3
   134d4:	e51b1014 	ldr	r1, [fp, #-20]
   134d8:	e51b3018 	ldr	r3, [fp, #-24]
   134dc:	e0211003 	eor	r1, r1, r3
   134e0:	e51b3010 	ldr	r3, [fp, #-16]
   134e4:	e0011003 	and	r1, r1, r3
   134e8:	e51b3018 	ldr	r3, [fp, #-24]
   134ec:	e0213003 	eor	r3, r1, r3
   134f0:	e0822003 	add	r2, r2, r3
   134f4:	e51b30ec 	ldr	r3, [fp, #-236]	; 0xec
   134f8:	e1a018e3 	ror	r1, r3, #17
   134fc:	e51b30ec 	ldr	r3, [fp, #-236]	; 0xec
   13500:	e1a039e3 	ror	r3, r3, #19
   13504:	e0211003 	eor	r1, r1, r3
   13508:	e51b30ec 	ldr	r3, [fp, #-236]	; 0xec
   1350c:	e1a03523 	lsr	r3, r3, #10
   13510:	e0211003 	eor	r1, r1, r3
   13514:	e51b3100 	ldr	r3, [fp, #-256]	; 0x100
   13518:	e0811003 	add	r1, r1, r3
   1351c:	e51b3120 	ldr	r3, [fp, #-288]	; 0x120
   13520:	e1a003e3 	ror	r0, r3, #7
   13524:	e51b3120 	ldr	r3, [fp, #-288]	; 0x120
   13528:	e1a03963 	ror	r3, r3, #18
   1352c:	e0200003 	eor	r0, r0, r3
   13530:	e51b3120 	ldr	r3, [fp, #-288]	; 0x120
   13534:	e1a031a3 	lsr	r3, r3, #3
   13538:	e0203003 	eor	r3, r0, r3
   1353c:	e0811003 	add	r1, r1, r3
   13540:	e51b3124 	ldr	r3, [fp, #-292]	; 0x124
   13544:	e0813003 	add	r3, r1, r3
   13548:	e50b30e4 	str	r3, [fp, #-228]	; 0xe4
   1354c:	e51b30e4 	ldr	r3, [fp, #-228]	; 0xe4
   13550:	e0822003 	add	r2, r2, r3
   13554:	e59f3128 	ldr	r3, [pc, #296]	; 13684 <sha2_process+0x15c8>
   13558:	e0823003 	add	r3, r2, r3
   1355c:	e50b3028 	str	r3, [fp, #-40]	; 0x28
   13560:	e51b3020 	ldr	r3, [fp, #-32]
   13564:	e1a02163 	ror	r2, r3, #2
   13568:	e51b3020 	ldr	r3, [fp, #-32]
   1356c:	e1a036e3 	ror	r3, r3, #13
   13570:	e0222003 	eor	r2, r2, r3
   13574:	e51b3020 	ldr	r3, [fp, #-32]
   13578:	e1a03b63 	ror	r3, r3, #22
   1357c:	e0222003 	eor	r2, r2, r3
   13580:	e51b1020 	ldr	r1, [fp, #-32]
   13584:	e51b3024 	ldr	r3, [fp, #-36]	; 0x24
   13588:	e0011003 	and	r1, r1, r3
   1358c:	e51b0020 	ldr	r0, [fp, #-32]
   13590:	e51b3024 	ldr	r3, [fp, #-36]	; 0x24
   13594:	e1800003 	orr	r0, r0, r3
   13598:	e51b3008 	ldr	r3, [fp, #-8]
   1359c:	e0003003 	and	r3, r0, r3
   135a0:	e1813003 	orr	r3, r1, r3
   135a4:	e0823003 	add	r3, r2, r3
   135a8:	e50b302c 	str	r3, [fp, #-44]	; 0x2c
   135ac:	e51b200c 	ldr	r2, [fp, #-12]
   135b0:	e51b3028 	ldr	r3, [fp, #-40]	; 0x28
   135b4:	e0823003 	add	r3, r2, r3
   135b8:	e50b300c 	str	r3, [fp, #-12]
   135bc:	e51b2028 	ldr	r2, [fp, #-40]	; 0x28
   135c0:	e51b302c 	ldr	r3, [fp, #-44]	; 0x2c
   135c4:	e0823003 	add	r3, r2, r3
   135c8:	e50b301c 	str	r3, [fp, #-28]
   135cc:	e51b300c 	ldr	r3, [fp, #-12]
   135d0:	e1a02363 	ror	r2, r3, #6
   135d4:	e51b300c 	ldr	r3, [fp, #-12]
   135d8:	e1a035e3 	ror	r3, r3, #11
   135dc:	e0222003 	eor	r2, r2, r3
   135e0:	e51b300c 	ldr	r3, [fp, #-12]
   135e4:	e1a03ce3 	ror	r3, r3, #25
   135e8:	e0222003 	eor	r2, r2, r3
   135ec:	e51b3018 	ldr	r3, [fp, #-24]
   135f0:	e0822003 	add	r2, r2, r3
   135f4:	e51b1010 	ldr	r1, [fp, #-16]
   135f8:	e51b3014 	ldr	r3, [fp, #-20]
   135fc:	e0211003 	eor	r1, r1, r3
   13600:	e51b300c 	ldr	r3, [fp, #-12]
   13604:	e0011003 	and	r1, r1, r3
   13608:	e51b3014 	ldr	r3, [fp, #-20]
   1360c:	e0213003 	eor	r3, r1, r3
   13610:	e0822003 	add	r2, r2, r3
   13614:	e51b30e8 	ldr	r3, [fp, #-232]	; 0xe8
   13618:	e1a018e3 	ror	r1, r3, #17
   1361c:	e51b30e8 	ldr	r3, [fp, #-232]	; 0xe8
   13620:	e1a039e3 	ror	r3, r3, #19
   13624:	e0211003 	eor	r1, r1, r3
   13628:	e51b30e8 	ldr	r3, [fp, #-232]	; 0xe8
   1362c:	e1a03523 	lsr	r3, r3, #10
   13630:	e0211003 	eor	r1, r1, r3
   13634:	e51b30fc 	ldr	r3, [fp, #-252]	; 0xfc
   13638:	ea000020 	b	136c0 <sha2_process+0x1604>
   1363c:	428a2f98 	.word	0x428a2f98
   13640:	71374491 	.word	0x71374491
   13644:	b5c0fbcf 	.word	0xb5c0fbcf
   13648:	e9b5dba5 	.word	0xe9b5dba5
   1364c:	3956c25b 	.word	0x3956c25b
   13650:	59f111f1 	.word	0x59f111f1
   13654:	923f82a4 	.word	0x923f82a4
   13658:	ab1c5ed5 	.word	0xab1c5ed5
   1365c:	d807aa98 	.word	0xd807aa98
   13660:	12835b01 	.word	0x12835b01
   13664:	243185be 	.word	0x243185be
   13668:	550c7dc3 	.word	0x550c7dc3
   1366c:	72be5d74 	.word	0x72be5d74
   13670:	80deb1fe 	.word	0x80deb1fe
   13674:	9bdc06a7 	.word	0x9bdc06a7
   13678:	c19bf174 	.word	0xc19bf174
   1367c:	e49b69c1 	.word	0xe49b69c1
   13680:	efbe4786 	.word	0xefbe4786
   13684:	0fc19dc6 	.word	0x0fc19dc6
   13688:	240ca1cc 	.word	0x240ca1cc
   1368c:	2de92c6f 	.word	0x2de92c6f
   13690:	4a7484aa 	.word	0x4a7484aa
   13694:	5cb0a9dc 	.word	0x5cb0a9dc
   13698:	76f988da 	.word	0x76f988da
   1369c:	983e5152 	.word	0x983e5152
   136a0:	a831c66d 	.word	0xa831c66d
   136a4:	b00327c8 	.word	0xb00327c8
   136a8:	bf597fc7 	.word	0xbf597fc7
   136ac:	c6e00bf3 	.word	0xc6e00bf3
   136b0:	d5a79147 	.word	0xd5a79147
   136b4:	06ca6351 	.word	0x06ca6351
   136b8:	14292967 	.word	0x14292967
   136bc:	27b70a85 	.word	0x27b70a85
   136c0:	e0811003 	add	r1, r1, r3
   136c4:	e51b311c 	ldr	r3, [fp, #-284]	; 0x11c
   136c8:	e1a003e3 	ror	r0, r3, #7
   136cc:	e51b311c 	ldr	r3, [fp, #-284]	; 0x11c
   136d0:	e1a03963 	ror	r3, r3, #18
   136d4:	e0200003 	eor	r0, r0, r3
   136d8:	e51b311c 	ldr	r3, [fp, #-284]	; 0x11c
   136dc:	e1a031a3 	lsr	r3, r3, #3
   136e0:	e0203003 	eor	r3, r0, r3
   136e4:	e0811003 	add	r1, r1, r3
   136e8:	e51b3120 	ldr	r3, [fp, #-288]	; 0x120
   136ec:	e0813003 	add	r3, r1, r3
   136f0:	e50b30e0 	str	r3, [fp, #-224]	; 0xe0
   136f4:	e51b30e0 	ldr	r3, [fp, #-224]	; 0xe0
   136f8:	e0822003 	add	r2, r2, r3
   136fc:	e51f307c 	ldr	r3, [pc, #-124]	; 13688 <sha2_process+0x15cc>
   13700:	e0823003 	add	r3, r2, r3
   13704:	e50b3028 	str	r3, [fp, #-40]	; 0x28
   13708:	e51b301c 	ldr	r3, [fp, #-28]
   1370c:	e1a02163 	ror	r2, r3, #2
   13710:	e51b301c 	ldr	r3, [fp, #-28]
   13714:	e1a036e3 	ror	r3, r3, #13
   13718:	e0222003 	eor	r2, r2, r3
   1371c:	e51b301c 	ldr	r3, [fp, #-28]
   13720:	e1a03b63 	ror	r3, r3, #22
   13724:	e0222003 	eor	r2, r2, r3
   13728:	e51b101c 	ldr	r1, [fp, #-28]
   1372c:	e51b3020 	ldr	r3, [fp, #-32]
   13730:	e0011003 	and	r1, r1, r3
   13734:	e51b001c 	ldr	r0, [fp, #-28]
   13738:	e51b3020 	ldr	r3, [fp, #-32]
   1373c:	e1800003 	orr	r0, r0, r3
   13740:	e51b3024 	ldr	r3, [fp, #-36]	; 0x24
   13744:	e0003003 	and	r3, r0, r3
   13748:	e1813003 	orr	r3, r1, r3
   1374c:	e0823003 	add	r3, r2, r3
   13750:	e50b302c 	str	r3, [fp, #-44]	; 0x2c
   13754:	e51b2008 	ldr	r2, [fp, #-8]
   13758:	e51b3028 	ldr	r3, [fp, #-40]	; 0x28
   1375c:	e0823003 	add	r3, r2, r3
   13760:	e50b3008 	str	r3, [fp, #-8]
   13764:	e51b2028 	ldr	r2, [fp, #-40]	; 0x28
   13768:	e51b302c 	ldr	r3, [fp, #-44]	; 0x2c
   1376c:	e0823003 	add	r3, r2, r3
   13770:	e50b3018 	str	r3, [fp, #-24]
   13774:	e51b3008 	ldr	r3, [fp, #-8]
   13778:	e1a02363 	ror	r2, r3, #6
   1377c:	e51b3008 	ldr	r3, [fp, #-8]
   13780:	e1a035e3 	ror	r3, r3, #11
   13784:	e0222003 	eor	r2, r2, r3
   13788:	e51b3008 	ldr	r3, [fp, #-8]
   1378c:	e1a03ce3 	ror	r3, r3, #25
   13790:	e0222003 	eor	r2, r2, r3
   13794:	e51b3014 	ldr	r3, [fp, #-20]
   13798:	e0822003 	add	r2, r2, r3
   1379c:	e51b100c 	ldr	r1, [fp, #-12]
   137a0:	e51b3010 	ldr	r3, [fp, #-16]
   137a4:	e0211003 	eor	r1, r1, r3
   137a8:	e51b3008 	ldr	r3, [fp, #-8]
   137ac:	e0011003 	and	r1, r1, r3
   137b0:	e51b3010 	ldr	r3, [fp, #-16]
   137b4:	e0213003 	eor	r3, r1, r3
   137b8:	e0822003 	add	r2, r2, r3
   137bc:	e51b30e4 	ldr	r3, [fp, #-228]	; 0xe4
   137c0:	e1a018e3 	ror	r1, r3, #17
   137c4:	e51b30e4 	ldr	r3, [fp, #-228]	; 0xe4
   137c8:	e1a039e3 	ror	r3, r3, #19
   137cc:	e0211003 	eor	r1, r1, r3
   137d0:	e51b30e4 	ldr	r3, [fp, #-228]	; 0xe4
   137d4:	e1a03523 	lsr	r3, r3, #10
   137d8:	e0211003 	eor	r1, r1, r3
   137dc:	e51b30f8 	ldr	r3, [fp, #-248]	; 0xf8
   137e0:	e0811003 	add	r1, r1, r3
   137e4:	e51b3118 	ldr	r3, [fp, #-280]	; 0x118
   137e8:	e1a003e3 	ror	r0, r3, #7
   137ec:	e51b3118 	ldr	r3, [fp, #-280]	; 0x118
   137f0:	e1a03963 	ror	r3, r3, #18
   137f4:	e0200003 	eor	r0, r0, r3
   137f8:	e51b3118 	ldr	r3, [fp, #-280]	; 0x118
   137fc:	e1a031a3 	lsr	r3, r3, #3
   13800:	e0203003 	eor	r3, r0, r3
   13804:	e0811003 	add	r1, r1, r3
   13808:	e51b311c 	ldr	r3, [fp, #-284]	; 0x11c
   1380c:	e0813003 	add	r3, r1, r3
   13810:	e50b30dc 	str	r3, [fp, #-220]	; 0xdc
   13814:	e51b30dc 	ldr	r3, [fp, #-220]	; 0xdc
   13818:	e0822003 	add	r2, r2, r3
   1381c:	e51f3198 	ldr	r3, [pc, #-408]	; 1368c <sha2_process+0x15d0>
   13820:	e0823003 	add	r3, r2, r3
   13824:	e50b3028 	str	r3, [fp, #-40]	; 0x28
   13828:	e51b3018 	ldr	r3, [fp, #-24]
   1382c:	e1a02163 	ror	r2, r3, #2
   13830:	e51b3018 	ldr	r3, [fp, #-24]
   13834:	e1a036e3 	ror	r3, r3, #13
   13838:	e0222003 	eor	r2, r2, r3
   1383c:	e51b3018 	ldr	r3, [fp, #-24]
   13840:	e1a03b63 	ror	r3, r3, #22
   13844:	e0222003 	eor	r2, r2, r3
   13848:	e51b1018 	ldr	r1, [fp, #-24]
   1384c:	e51b301c 	ldr	r3, [fp, #-28]
   13850:	e0011003 	and	r1, r1, r3
   13854:	e51b0018 	ldr	r0, [fp, #-24]
   13858:	e51b301c 	ldr	r3, [fp, #-28]
   1385c:	e1800003 	orr	r0, r0, r3
   13860:	e51b3020 	ldr	r3, [fp, #-32]
   13864:	e0003003 	and	r3, r0, r3
   13868:	e1813003 	orr	r3, r1, r3
   1386c:	e0823003 	add	r3, r2, r3
   13870:	e50b302c 	str	r3, [fp, #-44]	; 0x2c
   13874:	e51b2024 	ldr	r2, [fp, #-36]	; 0x24
   13878:	e51b3028 	ldr	r3, [fp, #-40]	; 0x28
   1387c:	e0823003 	add	r3, r2, r3
   13880:	e50b3024 	str	r3, [fp, #-36]	; 0x24
   13884:	e51b2028 	ldr	r2, [fp, #-40]	; 0x28
   13888:	e51b302c 	ldr	r3, [fp, #-44]	; 0x2c
   1388c:	e0823003 	add	r3, r2, r3
   13890:	e50b3014 	str	r3, [fp, #-20]
   13894:	e51b3024 	ldr	r3, [fp, #-36]	; 0x24
   13898:	e1a02363 	ror	r2, r3, #6
   1389c:	e51b3024 	ldr	r3, [fp, #-36]	; 0x24
   138a0:	e1a035e3 	ror	r3, r3, #11
   138a4:	e0222003 	eor	r2, r2, r3
   138a8:	e51b3024 	ldr	r3, [fp, #-36]	; 0x24
   138ac:	e1a03ce3 	ror	r3, r3, #25
   138b0:	e0222003 	eor	r2, r2, r3
   138b4:	e51b3010 	ldr	r3, [fp, #-16]
   138b8:	e0822003 	add	r2, r2, r3
   138bc:	e51b1008 	ldr	r1, [fp, #-8]
   138c0:	e51b300c 	ldr	r3, [fp, #-12]
   138c4:	e0211003 	eor	r1, r1, r3
   138c8:	e51b3024 	ldr	r3, [fp, #-36]	; 0x24
   138cc:	e0011003 	and	r1, r1, r3
   138d0:	e51b300c 	ldr	r3, [fp, #-12]
   138d4:	e0213003 	eor	r3, r1, r3
   138d8:	e0822003 	add	r2, r2, r3
   138dc:	e51b30e0 	ldr	r3, [fp, #-224]	; 0xe0
   138e0:	e1a018e3 	ror	r1, r3, #17
   138e4:	e51b30e0 	ldr	r3, [fp, #-224]	; 0xe0
   138e8:	e1a039e3 	ror	r3, r3, #19
   138ec:	e0211003 	eor	r1, r1, r3
   138f0:	e51b30e0 	ldr	r3, [fp, #-224]	; 0xe0
   138f4:	e1a03523 	lsr	r3, r3, #10
   138f8:	e0211003 	eor	r1, r1, r3
   138fc:	e51b30f4 	ldr	r3, [fp, #-244]	; 0xf4
   13900:	e0811003 	add	r1, r1, r3
   13904:	e51b3114 	ldr	r3, [fp, #-276]	; 0x114
   13908:	e1a003e3 	ror	r0, r3, #7
   1390c:	e51b3114 	ldr	r3, [fp, #-276]	; 0x114
   13910:	e1a03963 	ror	r3, r3, #18
   13914:	e0200003 	eor	r0, r0, r3
   13918:	e51b3114 	ldr	r3, [fp, #-276]	; 0x114
   1391c:	e1a031a3 	lsr	r3, r3, #3
   13920:	e0203003 	eor	r3, r0, r3
   13924:	e0811003 	add	r1, r1, r3
   13928:	e51b3118 	ldr	r3, [fp, #-280]	; 0x118
   1392c:	e0813003 	add	r3, r1, r3
   13930:	e50b30d8 	str	r3, [fp, #-216]	; 0xd8
   13934:	e51b30d8 	ldr	r3, [fp, #-216]	; 0xd8
   13938:	e0822003 	add	r2, r2, r3
   1393c:	e51f32b4 	ldr	r3, [pc, #-692]	; 13690 <sha2_process+0x15d4>
   13940:	e0823003 	add	r3, r2, r3
   13944:	e50b3028 	str	r3, [fp, #-40]	; 0x28
   13948:	e51b3014 	ldr	r3, [fp, #-20]
   1394c:	e1a02163 	ror	r2, r3, #2
   13950:	e51b3014 	ldr	r3, [fp, #-20]
   13954:	e1a036e3 	ror	r3, r3, #13
   13958:	e0222003 	eor	r2, r2, r3
   1395c:	e51b3014 	ldr	r3, [fp, #-20]
   13960:	e1a03b63 	ror	r3, r3, #22
   13964:	e0222003 	eor	r2, r2, r3
   13968:	e51b1014 	ldr	r1, [fp, #-20]
   1396c:	e51b3018 	ldr	r3, [fp, #-24]
   13970:	e0011003 	and	r1, r1, r3
   13974:	e51b0014 	ldr	r0, [fp, #-20]
   13978:	e51b3018 	ldr	r3, [fp, #-24]
   1397c:	e1800003 	orr	r0, r0, r3
   13980:	e51b301c 	ldr	r3, [fp, #-28]
   13984:	e0003003 	and	r3, r0, r3
   13988:	e1813003 	orr	r3, r1, r3
   1398c:	e0823003 	add	r3, r2, r3
   13990:	e50b302c 	str	r3, [fp, #-44]	; 0x2c
   13994:	e51b2020 	ldr	r2, [fp, #-32]
   13998:	e51b3028 	ldr	r3, [fp, #-40]	; 0x28
   1399c:	e0823003 	add	r3, r2, r3
   139a0:	e50b3020 	str	r3, [fp, #-32]
   139a4:	e51b2028 	ldr	r2, [fp, #-40]	; 0x28
   139a8:	e51b302c 	ldr	r3, [fp, #-44]	; 0x2c
   139ac:	e0823003 	add	r3, r2, r3
   139b0:	e50b3010 	str	r3, [fp, #-16]
   139b4:	e51b3020 	ldr	r3, [fp, #-32]
   139b8:	e1a02363 	ror	r2, r3, #6
   139bc:	e51b3020 	ldr	r3, [fp, #-32]
   139c0:	e1a035e3 	ror	r3, r3, #11
   139c4:	e0222003 	eor	r2, r2, r3
   139c8:	e51b3020 	ldr	r3, [fp, #-32]
   139cc:	e1a03ce3 	ror	r3, r3, #25
   139d0:	e0222003 	eor	r2, r2, r3
   139d4:	e51b300c 	ldr	r3, [fp, #-12]
   139d8:	e0822003 	add	r2, r2, r3
   139dc:	e51b1024 	ldr	r1, [fp, #-36]	; 0x24
   139e0:	e51b3008 	ldr	r3, [fp, #-8]
   139e4:	e0211003 	eor	r1, r1, r3
   139e8:	e51b3020 	ldr	r3, [fp, #-32]
   139ec:	e0011003 	and	r1, r1, r3
   139f0:	e51b3008 	ldr	r3, [fp, #-8]
   139f4:	e0213003 	eor	r3, r1, r3
   139f8:	e0822003 	add	r2, r2, r3
   139fc:	e51b30dc 	ldr	r3, [fp, #-220]	; 0xdc
   13a00:	e1a018e3 	ror	r1, r3, #17
   13a04:	e51b30dc 	ldr	r3, [fp, #-220]	; 0xdc
   13a08:	e1a039e3 	ror	r3, r3, #19
   13a0c:	e0211003 	eor	r1, r1, r3
   13a10:	e51b30dc 	ldr	r3, [fp, #-220]	; 0xdc
   13a14:	e1a03523 	lsr	r3, r3, #10
   13a18:	e0211003 	eor	r1, r1, r3
   13a1c:	e51b30f0 	ldr	r3, [fp, #-240]	; 0xf0
   13a20:	e0811003 	add	r1, r1, r3
   13a24:	e51b3110 	ldr	r3, [fp, #-272]	; 0x110
   13a28:	e1a003e3 	ror	r0, r3, #7
   13a2c:	e51b3110 	ldr	r3, [fp, #-272]	; 0x110
   13a30:	e1a03963 	ror	r3, r3, #18
   13a34:	e0200003 	eor	r0, r0, r3
   13a38:	e51b3110 	ldr	r3, [fp, #-272]	; 0x110
   13a3c:	e1a031a3 	lsr	r3, r3, #3
   13a40:	e0203003 	eor	r3, r0, r3
   13a44:	e0811003 	add	r1, r1, r3
   13a48:	e51b3114 	ldr	r3, [fp, #-276]	; 0x114
   13a4c:	e0813003 	add	r3, r1, r3
   13a50:	e50b30d4 	str	r3, [fp, #-212]	; 0xd4
   13a54:	e51b30d4 	ldr	r3, [fp, #-212]	; 0xd4
   13a58:	e0822003 	add	r2, r2, r3
   13a5c:	e51f33d0 	ldr	r3, [pc, #-976]	; 13694 <sha2_process+0x15d8>
   13a60:	e0823003 	add	r3, r2, r3
   13a64:	e50b3028 	str	r3, [fp, #-40]	; 0x28
   13a68:	e51b3010 	ldr	r3, [fp, #-16]
   13a6c:	e1a02163 	ror	r2, r3, #2
   13a70:	e51b3010 	ldr	r3, [fp, #-16]
   13a74:	e1a036e3 	ror	r3, r3, #13
   13a78:	e0222003 	eor	r2, r2, r3
   13a7c:	e51b3010 	ldr	r3, [fp, #-16]
   13a80:	e1a03b63 	ror	r3, r3, #22
   13a84:	e0222003 	eor	r2, r2, r3
   13a88:	e51b1010 	ldr	r1, [fp, #-16]
   13a8c:	e51b3014 	ldr	r3, [fp, #-20]
   13a90:	e0011003 	and	r1, r1, r3
   13a94:	e51b0010 	ldr	r0, [fp, #-16]
   13a98:	e51b3014 	ldr	r3, [fp, #-20]
   13a9c:	e1800003 	orr	r0, r0, r3
   13aa0:	e51b3018 	ldr	r3, [fp, #-24]
   13aa4:	e0003003 	and	r3, r0, r3
   13aa8:	e1813003 	orr	r3, r1, r3
   13aac:	e0823003 	add	r3, r2, r3
   13ab0:	e50b302c 	str	r3, [fp, #-44]	; 0x2c
   13ab4:	e51b201c 	ldr	r2, [fp, #-28]
   13ab8:	e51b3028 	ldr	r3, [fp, #-40]	; 0x28
   13abc:	e0823003 	add	r3, r2, r3
   13ac0:	e50b301c 	str	r3, [fp, #-28]
   13ac4:	e51b2028 	ldr	r2, [fp, #-40]	; 0x28
   13ac8:	e51b302c 	ldr	r3, [fp, #-44]	; 0x2c
   13acc:	e0823003 	add	r3, r2, r3
   13ad0:	e50b300c 	str	r3, [fp, #-12]
   13ad4:	e51b301c 	ldr	r3, [fp, #-28]
   13ad8:	e1a02363 	ror	r2, r3, #6
   13adc:	e51b301c 	ldr	r3, [fp, #-28]
   13ae0:	e1a035e3 	ror	r3, r3, #11
   13ae4:	e0222003 	eor	r2, r2, r3
   13ae8:	e51b301c 	ldr	r3, [fp, #-28]
   13aec:	e1a03ce3 	ror	r3, r3, #25
   13af0:	e0222003 	eor	r2, r2, r3
   13af4:	e51b3008 	ldr	r3, [fp, #-8]
   13af8:	e0822003 	add	r2, r2, r3
   13afc:	e51b1020 	ldr	r1, [fp, #-32]
   13b00:	e51b3024 	ldr	r3, [fp, #-36]	; 0x24
   13b04:	e0211003 	eor	r1, r1, r3
   13b08:	e51b301c 	ldr	r3, [fp, #-28]
   13b0c:	e0011003 	and	r1, r1, r3
   13b10:	e51b3024 	ldr	r3, [fp, #-36]	; 0x24
   13b14:	e0213003 	eor	r3, r1, r3
   13b18:	e0822003 	add	r2, r2, r3
   13b1c:	e51b30d8 	ldr	r3, [fp, #-216]	; 0xd8
   13b20:	e1a018e3 	ror	r1, r3, #17
   13b24:	e51b30d8 	ldr	r3, [fp, #-216]	; 0xd8
   13b28:	e1a039e3 	ror	r3, r3, #19
   13b2c:	e0211003 	eor	r1, r1, r3
   13b30:	e51b30d8 	ldr	r3, [fp, #-216]	; 0xd8
   13b34:	e1a03523 	lsr	r3, r3, #10
   13b38:	e0211003 	eor	r1, r1, r3
   13b3c:	e51b30ec 	ldr	r3, [fp, #-236]	; 0xec
   13b40:	e0811003 	add	r1, r1, r3
   13b44:	e51b310c 	ldr	r3, [fp, #-268]	; 0x10c
   13b48:	e1a003e3 	ror	r0, r3, #7
   13b4c:	e51b310c 	ldr	r3, [fp, #-268]	; 0x10c
   13b50:	e1a03963 	ror	r3, r3, #18
   13b54:	e0200003 	eor	r0, r0, r3
   13b58:	e51b310c 	ldr	r3, [fp, #-268]	; 0x10c
   13b5c:	e1a031a3 	lsr	r3, r3, #3
   13b60:	e0203003 	eor	r3, r0, r3
   13b64:	e0811003 	add	r1, r1, r3
   13b68:	e51b3110 	ldr	r3, [fp, #-272]	; 0x110
   13b6c:	e0813003 	add	r3, r1, r3
   13b70:	e50b30d0 	str	r3, [fp, #-208]	; 0xd0
   13b74:	e51b30d0 	ldr	r3, [fp, #-208]	; 0xd0
   13b78:	e0822003 	add	r2, r2, r3
   13b7c:	e51f34ec 	ldr	r3, [pc, #-1260]	; 13698 <sha2_process+0x15dc>
   13b80:	e0823003 	add	r3, r2, r3
   13b84:	e50b3028 	str	r3, [fp, #-40]	; 0x28
   13b88:	e51b300c 	ldr	r3, [fp, #-12]
   13b8c:	e1a02163 	ror	r2, r3, #2
   13b90:	e51b300c 	ldr	r3, [fp, #-12]
   13b94:	e1a036e3 	ror	r3, r3, #13
   13b98:	e0222003 	eor	r2, r2, r3
   13b9c:	e51b300c 	ldr	r3, [fp, #-12]
   13ba0:	e1a03b63 	ror	r3, r3, #22
   13ba4:	e0222003 	eor	r2, r2, r3
   13ba8:	e51b100c 	ldr	r1, [fp, #-12]
   13bac:	e51b3010 	ldr	r3, [fp, #-16]
   13bb0:	e0011003 	and	r1, r1, r3
   13bb4:	e51b000c 	ldr	r0, [fp, #-12]
   13bb8:	e51b3010 	ldr	r3, [fp, #-16]
   13bbc:	e1800003 	orr	r0, r0, r3
   13bc0:	e51b3014 	ldr	r3, [fp, #-20]
   13bc4:	e0003003 	and	r3, r0, r3
   13bc8:	e1813003 	orr	r3, r1, r3
   13bcc:	e0823003 	add	r3, r2, r3
   13bd0:	e50b302c 	str	r3, [fp, #-44]	; 0x2c
   13bd4:	e51b2018 	ldr	r2, [fp, #-24]
   13bd8:	e51b3028 	ldr	r3, [fp, #-40]	; 0x28
   13bdc:	e0823003 	add	r3, r2, r3
   13be0:	e50b3018 	str	r3, [fp, #-24]
   13be4:	e51b2028 	ldr	r2, [fp, #-40]	; 0x28
   13be8:	e51b302c 	ldr	r3, [fp, #-44]	; 0x2c
   13bec:	e0823003 	add	r3, r2, r3
   13bf0:	e50b3008 	str	r3, [fp, #-8]
   13bf4:	e51b3018 	ldr	r3, [fp, #-24]
   13bf8:	e1a02363 	ror	r2, r3, #6
   13bfc:	e51b3018 	ldr	r3, [fp, #-24]
   13c00:	e1a035e3 	ror	r3, r3, #11
   13c04:	e0222003 	eor	r2, r2, r3
   13c08:	e51b3018 	ldr	r3, [fp, #-24]
   13c0c:	e1a03ce3 	ror	r3, r3, #25
   13c10:	e0222003 	eor	r2, r2, r3
   13c14:	e51b3024 	ldr	r3, [fp, #-36]	; 0x24
   13c18:	e0822003 	add	r2, r2, r3
   13c1c:	e51b101c 	ldr	r1, [fp, #-28]
   13c20:	e51b3020 	ldr	r3, [fp, #-32]
   13c24:	e0211003 	eor	r1, r1, r3
   13c28:	e51b3018 	ldr	r3, [fp, #-24]
   13c2c:	e0011003 	and	r1, r1, r3
   13c30:	e51b3020 	ldr	r3, [fp, #-32]
   13c34:	e0213003 	eor	r3, r1, r3
   13c38:	e0822003 	add	r2, r2, r3
   13c3c:	e51b30d4 	ldr	r3, [fp, #-212]	; 0xd4
   13c40:	e1a018e3 	ror	r1, r3, #17
   13c44:	e51b30d4 	ldr	r3, [fp, #-212]	; 0xd4
   13c48:	e1a039e3 	ror	r3, r3, #19
   13c4c:	e0211003 	eor	r1, r1, r3
   13c50:	e51b30d4 	ldr	r3, [fp, #-212]	; 0xd4
   13c54:	e1a03523 	lsr	r3, r3, #10
   13c58:	e0211003 	eor	r1, r1, r3
   13c5c:	e51b30e8 	ldr	r3, [fp, #-232]	; 0xe8
   13c60:	e0811003 	add	r1, r1, r3
   13c64:	e51b3108 	ldr	r3, [fp, #-264]	; 0x108
   13c68:	e1a003e3 	ror	r0, r3, #7
   13c6c:	e51b3108 	ldr	r3, [fp, #-264]	; 0x108
   13c70:	e1a03963 	ror	r3, r3, #18
   13c74:	e0200003 	eor	r0, r0, r3
   13c78:	e51b3108 	ldr	r3, [fp, #-264]	; 0x108
   13c7c:	e1a031a3 	lsr	r3, r3, #3
   13c80:	e0203003 	eor	r3, r0, r3
   13c84:	e0811003 	add	r1, r1, r3
   13c88:	e51b310c 	ldr	r3, [fp, #-268]	; 0x10c
   13c8c:	e0813003 	add	r3, r1, r3
   13c90:	e50b30cc 	str	r3, [fp, #-204]	; 0xcc
   13c94:	e51b30cc 	ldr	r3, [fp, #-204]	; 0xcc
   13c98:	e0822003 	add	r2, r2, r3
   13c9c:	e51f3608 	ldr	r3, [pc, #-1544]	; 1369c <sha2_process+0x15e0>
   13ca0:	e0823003 	add	r3, r2, r3
   13ca4:	e50b3028 	str	r3, [fp, #-40]	; 0x28
   13ca8:	e51b3008 	ldr	r3, [fp, #-8]
   13cac:	e1a02163 	ror	r2, r3, #2
   13cb0:	e51b3008 	ldr	r3, [fp, #-8]
   13cb4:	e1a036e3 	ror	r3, r3, #13
   13cb8:	e0222003 	eor	r2, r2, r3
   13cbc:	e51b3008 	ldr	r3, [fp, #-8]
   13cc0:	e1a03b63 	ror	r3, r3, #22
   13cc4:	e0222003 	eor	r2, r2, r3
   13cc8:	e51b1008 	ldr	r1, [fp, #-8]
   13ccc:	e51b300c 	ldr	r3, [fp, #-12]
   13cd0:	e0011003 	and	r1, r1, r3
   13cd4:	e51b0008 	ldr	r0, [fp, #-8]
   13cd8:	e51b300c 	ldr	r3, [fp, #-12]
   13cdc:	e1800003 	orr	r0, r0, r3
   13ce0:	e51b3010 	ldr	r3, [fp, #-16]
   13ce4:	e0003003 	and	r3, r0, r3
   13ce8:	e1813003 	orr	r3, r1, r3
   13cec:	e0823003 	add	r3, r2, r3
   13cf0:	e50b302c 	str	r3, [fp, #-44]	; 0x2c
   13cf4:	e51b2014 	ldr	r2, [fp, #-20]
   13cf8:	e51b3028 	ldr	r3, [fp, #-40]	; 0x28
   13cfc:	e0823003 	add	r3, r2, r3
   13d00:	e50b3014 	str	r3, [fp, #-20]
   13d04:	e51b2028 	ldr	r2, [fp, #-40]	; 0x28
   13d08:	e51b302c 	ldr	r3, [fp, #-44]	; 0x2c
   13d0c:	e0823003 	add	r3, r2, r3
   13d10:	e50b3024 	str	r3, [fp, #-36]	; 0x24
   13d14:	e51b3014 	ldr	r3, [fp, #-20]
   13d18:	e1a02363 	ror	r2, r3, #6
   13d1c:	e51b3014 	ldr	r3, [fp, #-20]
   13d20:	e1a035e3 	ror	r3, r3, #11
   13d24:	e0222003 	eor	r2, r2, r3
   13d28:	e51b3014 	ldr	r3, [fp, #-20]
   13d2c:	e1a03ce3 	ror	r3, r3, #25
   13d30:	e0222003 	eor	r2, r2, r3
   13d34:	e51b3020 	ldr	r3, [fp, #-32]
   13d38:	e0822003 	add	r2, r2, r3
   13d3c:	e51b1018 	ldr	r1, [fp, #-24]
   13d40:	e51b301c 	ldr	r3, [fp, #-28]
   13d44:	e0211003 	eor	r1, r1, r3
   13d48:	e51b3014 	ldr	r3, [fp, #-20]
   13d4c:	e0011003 	and	r1, r1, r3
   13d50:	e51b301c 	ldr	r3, [fp, #-28]
   13d54:	e0213003 	eor	r3, r1, r3
   13d58:	e0822003 	add	r2, r2, r3
   13d5c:	e51b30d0 	ldr	r3, [fp, #-208]	; 0xd0
   13d60:	e1a018e3 	ror	r1, r3, #17
   13d64:	e51b30d0 	ldr	r3, [fp, #-208]	; 0xd0
   13d68:	e1a039e3 	ror	r3, r3, #19
   13d6c:	e0211003 	eor	r1, r1, r3
   13d70:	e51b30d0 	ldr	r3, [fp, #-208]	; 0xd0
   13d74:	e1a03523 	lsr	r3, r3, #10
   13d78:	e0211003 	eor	r1, r1, r3
   13d7c:	e51b30e4 	ldr	r3, [fp, #-228]	; 0xe4
   13d80:	e0811003 	add	r1, r1, r3
   13d84:	e51b3104 	ldr	r3, [fp, #-260]	; 0x104
   13d88:	e1a003e3 	ror	r0, r3, #7
   13d8c:	e51b3104 	ldr	r3, [fp, #-260]	; 0x104
   13d90:	e1a03963 	ror	r3, r3, #18
   13d94:	e0200003 	eor	r0, r0, r3
   13d98:	e51b3104 	ldr	r3, [fp, #-260]	; 0x104
   13d9c:	e1a031a3 	lsr	r3, r3, #3
   13da0:	e0203003 	eor	r3, r0, r3
   13da4:	e0811003 	add	r1, r1, r3
   13da8:	e51b3108 	ldr	r3, [fp, #-264]	; 0x108
   13dac:	e0813003 	add	r3, r1, r3
   13db0:	e50b30c8 	str	r3, [fp, #-200]	; 0xc8
   13db4:	e51b30c8 	ldr	r3, [fp, #-200]	; 0xc8
   13db8:	e0822003 	add	r2, r2, r3
   13dbc:	e51f3724 	ldr	r3, [pc, #-1828]	; 136a0 <sha2_process+0x15e4>
   13dc0:	e0823003 	add	r3, r2, r3
   13dc4:	e50b3028 	str	r3, [fp, #-40]	; 0x28
   13dc8:	e51b3024 	ldr	r3, [fp, #-36]	; 0x24
   13dcc:	e1a02163 	ror	r2, r3, #2
   13dd0:	e51b3024 	ldr	r3, [fp, #-36]	; 0x24
   13dd4:	e1a036e3 	ror	r3, r3, #13
   13dd8:	e0222003 	eor	r2, r2, r3
   13ddc:	e51b3024 	ldr	r3, [fp, #-36]	; 0x24
   13de0:	e1a03b63 	ror	r3, r3, #22
   13de4:	e0222003 	eor	r2, r2, r3
   13de8:	e51b1024 	ldr	r1, [fp, #-36]	; 0x24
   13dec:	e51b3008 	ldr	r3, [fp, #-8]
   13df0:	e0011003 	and	r1, r1, r3
   13df4:	e51b0024 	ldr	r0, [fp, #-36]	; 0x24
   13df8:	e51b3008 	ldr	r3, [fp, #-8]
   13dfc:	e1800003 	orr	r0, r0, r3
   13e00:	e51b300c 	ldr	r3, [fp, #-12]
   13e04:	e0003003 	and	r3, r0, r3
   13e08:	e1813003 	orr	r3, r1, r3
   13e0c:	e0823003 	add	r3, r2, r3
   13e10:	e50b302c 	str	r3, [fp, #-44]	; 0x2c
   13e14:	e51b2010 	ldr	r2, [fp, #-16]
   13e18:	e51b3028 	ldr	r3, [fp, #-40]	; 0x28
   13e1c:	e0823003 	add	r3, r2, r3
   13e20:	e50b3010 	str	r3, [fp, #-16]
   13e24:	e51b2028 	ldr	r2, [fp, #-40]	; 0x28
   13e28:	e51b302c 	ldr	r3, [fp, #-44]	; 0x2c
   13e2c:	e0823003 	add	r3, r2, r3
   13e30:	e50b3020 	str	r3, [fp, #-32]
   13e34:	e51b3010 	ldr	r3, [fp, #-16]
   13e38:	e1a02363 	ror	r2, r3, #6
   13e3c:	e51b3010 	ldr	r3, [fp, #-16]
   13e40:	e1a035e3 	ror	r3, r3, #11
   13e44:	e0222003 	eor	r2, r2, r3
   13e48:	e51b3010 	ldr	r3, [fp, #-16]
   13e4c:	e1a03ce3 	ror	r3, r3, #25
   13e50:	e0222003 	eor	r2, r2, r3
   13e54:	e51b301c 	ldr	r3, [fp, #-28]
   13e58:	e0822003 	add	r2, r2, r3
   13e5c:	e51b1014 	ldr	r1, [fp, #-20]
   13e60:	e51b3018 	ldr	r3, [fp, #-24]
   13e64:	e0211003 	eor	r1, r1, r3
   13e68:	e51b3010 	ldr	r3, [fp, #-16]
   13e6c:	e0011003 	and	r1, r1, r3
   13e70:	e51b3018 	ldr	r3, [fp, #-24]
   13e74:	e0213003 	eor	r3, r1, r3
   13e78:	e0822003 	add	r2, r2, r3
   13e7c:	e51b30cc 	ldr	r3, [fp, #-204]	; 0xcc
   13e80:	e1a018e3 	ror	r1, r3, #17
   13e84:	e51b30cc 	ldr	r3, [fp, #-204]	; 0xcc
   13e88:	e1a039e3 	ror	r3, r3, #19
   13e8c:	e0211003 	eor	r1, r1, r3
   13e90:	e51b30cc 	ldr	r3, [fp, #-204]	; 0xcc
   13e94:	e1a03523 	lsr	r3, r3, #10
   13e98:	e0211003 	eor	r1, r1, r3
   13e9c:	e51b30e0 	ldr	r3, [fp, #-224]	; 0xe0
   13ea0:	e0811003 	add	r1, r1, r3
   13ea4:	e51b3100 	ldr	r3, [fp, #-256]	; 0x100
   13ea8:	e1a003e3 	ror	r0, r3, #7
   13eac:	e51b3100 	ldr	r3, [fp, #-256]	; 0x100
   13eb0:	e1a03963 	ror	r3, r3, #18
   13eb4:	e0200003 	eor	r0, r0, r3
   13eb8:	e51b3100 	ldr	r3, [fp, #-256]	; 0x100
   13ebc:	e1a031a3 	lsr	r3, r3, #3
   13ec0:	e0203003 	eor	r3, r0, r3
   13ec4:	e0811003 	add	r1, r1, r3
   13ec8:	e51b3104 	ldr	r3, [fp, #-260]	; 0x104
   13ecc:	e0813003 	add	r3, r1, r3
   13ed0:	e50b30c4 	str	r3, [fp, #-196]	; 0xc4
   13ed4:	e51b30c4 	ldr	r3, [fp, #-196]	; 0xc4
   13ed8:	e0822003 	add	r2, r2, r3
   13edc:	e51f3840 	ldr	r3, [pc, #-2112]	; 136a4 <sha2_process+0x15e8>
   13ee0:	e0823003 	add	r3, r2, r3
   13ee4:	e50b3028 	str	r3, [fp, #-40]	; 0x28
   13ee8:	e51b3020 	ldr	r3, [fp, #-32]
   13eec:	e1a02163 	ror	r2, r3, #2
   13ef0:	e51b3020 	ldr	r3, [fp, #-32]
   13ef4:	e1a036e3 	ror	r3, r3, #13
   13ef8:	e0222003 	eor	r2, r2, r3
   13efc:	e51b3020 	ldr	r3, [fp, #-32]
   13f00:	e1a03b63 	ror	r3, r3, #22
   13f04:	e0222003 	eor	r2, r2, r3
   13f08:	e51b1020 	ldr	r1, [fp, #-32]
   13f0c:	e51b3024 	ldr	r3, [fp, #-36]	; 0x24
   13f10:	e0011003 	and	r1, r1, r3
   13f14:	e51b0020 	ldr	r0, [fp, #-32]
   13f18:	e51b3024 	ldr	r3, [fp, #-36]	; 0x24
   13f1c:	e1800003 	orr	r0, r0, r3
   13f20:	e51b3008 	ldr	r3, [fp, #-8]
   13f24:	e0003003 	and	r3, r0, r3
   13f28:	e1813003 	orr	r3, r1, r3
   13f2c:	e0823003 	add	r3, r2, r3
   13f30:	e50b302c 	str	r3, [fp, #-44]	; 0x2c
   13f34:	e51b200c 	ldr	r2, [fp, #-12]
   13f38:	e51b3028 	ldr	r3, [fp, #-40]	; 0x28
   13f3c:	e0823003 	add	r3, r2, r3
   13f40:	e50b300c 	str	r3, [fp, #-12]
   13f44:	e51b2028 	ldr	r2, [fp, #-40]	; 0x28
   13f48:	e51b302c 	ldr	r3, [fp, #-44]	; 0x2c
   13f4c:	e0823003 	add	r3, r2, r3
   13f50:	e50b301c 	str	r3, [fp, #-28]
   13f54:	e51b300c 	ldr	r3, [fp, #-12]
   13f58:	e1a02363 	ror	r2, r3, #6
   13f5c:	e51b300c 	ldr	r3, [fp, #-12]
   13f60:	e1a035e3 	ror	r3, r3, #11
   13f64:	e0222003 	eor	r2, r2, r3
   13f68:	e51b300c 	ldr	r3, [fp, #-12]
   13f6c:	e1a03ce3 	ror	r3, r3, #25
   13f70:	e0222003 	eor	r2, r2, r3
   13f74:	e51b3018 	ldr	r3, [fp, #-24]
   13f78:	e0822003 	add	r2, r2, r3
   13f7c:	e51b1010 	ldr	r1, [fp, #-16]
   13f80:	e51b3014 	ldr	r3, [fp, #-20]
   13f84:	e0211003 	eor	r1, r1, r3
   13f88:	e51b300c 	ldr	r3, [fp, #-12]
   13f8c:	e0011003 	and	r1, r1, r3
   13f90:	e51b3014 	ldr	r3, [fp, #-20]
   13f94:	e0213003 	eor	r3, r1, r3
   13f98:	e0822003 	add	r2, r2, r3
   13f9c:	e51b30c8 	ldr	r3, [fp, #-200]	; 0xc8
   13fa0:	e1a018e3 	ror	r1, r3, #17
   13fa4:	e51b30c8 	ldr	r3, [fp, #-200]	; 0xc8
   13fa8:	e1a039e3 	ror	r3, r3, #19
   13fac:	e0211003 	eor	r1, r1, r3
   13fb0:	e51b30c8 	ldr	r3, [fp, #-200]	; 0xc8
   13fb4:	e1a03523 	lsr	r3, r3, #10
   13fb8:	e0211003 	eor	r1, r1, r3
   13fbc:	e51b30dc 	ldr	r3, [fp, #-220]	; 0xdc
   13fc0:	e0811003 	add	r1, r1, r3
   13fc4:	e51b30fc 	ldr	r3, [fp, #-252]	; 0xfc
   13fc8:	e1a003e3 	ror	r0, r3, #7
   13fcc:	e51b30fc 	ldr	r3, [fp, #-252]	; 0xfc
   13fd0:	e1a03963 	ror	r3, r3, #18
   13fd4:	e0200003 	eor	r0, r0, r3
   13fd8:	e51b30fc 	ldr	r3, [fp, #-252]	; 0xfc
   13fdc:	e1a031a3 	lsr	r3, r3, #3
   13fe0:	e0203003 	eor	r3, r0, r3
   13fe4:	e0811003 	add	r1, r1, r3
   13fe8:	e51b3100 	ldr	r3, [fp, #-256]	; 0x100
   13fec:	e0813003 	add	r3, r1, r3
   13ff0:	e50b30c0 	str	r3, [fp, #-192]	; 0xc0
   13ff4:	e51b30c0 	ldr	r3, [fp, #-192]	; 0xc0
   13ff8:	e0822003 	add	r2, r2, r3
   13ffc:	e51f395c 	ldr	r3, [pc, #-2396]	; 136a8 <sha2_process+0x15ec>
   14000:	e0823003 	add	r3, r2, r3
   14004:	e50b3028 	str	r3, [fp, #-40]	; 0x28
   14008:	e51b301c 	ldr	r3, [fp, #-28]
   1400c:	e1a02163 	ror	r2, r3, #2
   14010:	e51b301c 	ldr	r3, [fp, #-28]
   14014:	e1a036e3 	ror	r3, r3, #13
   14018:	e0222003 	eor	r2, r2, r3
   1401c:	e51b301c 	ldr	r3, [fp, #-28]
   14020:	e1a03b63 	ror	r3, r3, #22
   14024:	e0222003 	eor	r2, r2, r3
   14028:	e51b101c 	ldr	r1, [fp, #-28]
   1402c:	e51b3020 	ldr	r3, [fp, #-32]
   14030:	e0011003 	and	r1, r1, r3
   14034:	e51b001c 	ldr	r0, [fp, #-28]
   14038:	e51b3020 	ldr	r3, [fp, #-32]
   1403c:	e1800003 	orr	r0, r0, r3
   14040:	e51b3024 	ldr	r3, [fp, #-36]	; 0x24
   14044:	e0003003 	and	r3, r0, r3
   14048:	e1813003 	orr	r3, r1, r3
   1404c:	e0823003 	add	r3, r2, r3
   14050:	e50b302c 	str	r3, [fp, #-44]	; 0x2c
   14054:	e51b2008 	ldr	r2, [fp, #-8]
   14058:	e51b3028 	ldr	r3, [fp, #-40]	; 0x28
   1405c:	e0823003 	add	r3, r2, r3
   14060:	e50b3008 	str	r3, [fp, #-8]
   14064:	e51b2028 	ldr	r2, [fp, #-40]	; 0x28
   14068:	e51b302c 	ldr	r3, [fp, #-44]	; 0x2c
   1406c:	e0823003 	add	r3, r2, r3
   14070:	e50b3018 	str	r3, [fp, #-24]
   14074:	e51b3008 	ldr	r3, [fp, #-8]
   14078:	e1a02363 	ror	r2, r3, #6
   1407c:	e51b3008 	ldr	r3, [fp, #-8]
   14080:	e1a035e3 	ror	r3, r3, #11
   14084:	e0222003 	eor	r2, r2, r3
   14088:	e51b3008 	ldr	r3, [fp, #-8]
   1408c:	e1a03ce3 	ror	r3, r3, #25
   14090:	e0222003 	eor	r2, r2, r3
   14094:	e51b3014 	ldr	r3, [fp, #-20]
   14098:	e0822003 	add	r2, r2, r3
   1409c:	e51b100c 	ldr	r1, [fp, #-12]
   140a0:	e51b3010 	ldr	r3, [fp, #-16]
   140a4:	e0211003 	eor	r1, r1, r3
   140a8:	e51b3008 	ldr	r3, [fp, #-8]
   140ac:	e0011003 	and	r1, r1, r3
   140b0:	e51b3010 	ldr	r3, [fp, #-16]
   140b4:	e0213003 	eor	r3, r1, r3
   140b8:	e0822003 	add	r2, r2, r3
   140bc:	e51b30c4 	ldr	r3, [fp, #-196]	; 0xc4
   140c0:	e1a018e3 	ror	r1, r3, #17
   140c4:	e51b30c4 	ldr	r3, [fp, #-196]	; 0xc4
   140c8:	e1a039e3 	ror	r3, r3, #19
   140cc:	e0211003 	eor	r1, r1, r3
   140d0:	e51b30c4 	ldr	r3, [fp, #-196]	; 0xc4
   140d4:	e1a03523 	lsr	r3, r3, #10
   140d8:	e0211003 	eor	r1, r1, r3
   140dc:	e51b30d8 	ldr	r3, [fp, #-216]	; 0xd8
   140e0:	e0811003 	add	r1, r1, r3
   140e4:	e51b30f8 	ldr	r3, [fp, #-248]	; 0xf8
   140e8:	e1a003e3 	ror	r0, r3, #7
   140ec:	e51b30f8 	ldr	r3, [fp, #-248]	; 0xf8
   140f0:	e1a03963 	ror	r3, r3, #18
   140f4:	e0200003 	eor	r0, r0, r3
   140f8:	e51b30f8 	ldr	r3, [fp, #-248]	; 0xf8
   140fc:	e1a031a3 	lsr	r3, r3, #3
   14100:	e0203003 	eor	r3, r0, r3
   14104:	e0811003 	add	r1, r1, r3
   14108:	e51b30fc 	ldr	r3, [fp, #-252]	; 0xfc
   1410c:	e0813003 	add	r3, r1, r3
   14110:	e50b30bc 	str	r3, [fp, #-188]	; 0xbc
   14114:	e51b30bc 	ldr	r3, [fp, #-188]	; 0xbc
   14118:	e0822003 	add	r2, r2, r3
   1411c:	e51f3a78 	ldr	r3, [pc, #-2680]	; 136ac <sha2_process+0x15f0>
   14120:	e0823003 	add	r3, r2, r3
   14124:	e50b3028 	str	r3, [fp, #-40]	; 0x28
   14128:	e51b3018 	ldr	r3, [fp, #-24]
   1412c:	e1a02163 	ror	r2, r3, #2
   14130:	e51b3018 	ldr	r3, [fp, #-24]
   14134:	e1a036e3 	ror	r3, r3, #13
   14138:	e0222003 	eor	r2, r2, r3
   1413c:	e51b3018 	ldr	r3, [fp, #-24]
   14140:	e1a03b63 	ror	r3, r3, #22
   14144:	e0222003 	eor	r2, r2, r3
   14148:	e51b1018 	ldr	r1, [fp, #-24]
   1414c:	e51b301c 	ldr	r3, [fp, #-28]
   14150:	e0011003 	and	r1, r1, r3
   14154:	e51b0018 	ldr	r0, [fp, #-24]
   14158:	e51b301c 	ldr	r3, [fp, #-28]
   1415c:	e1800003 	orr	r0, r0, r3
   14160:	e51b3020 	ldr	r3, [fp, #-32]
   14164:	e0003003 	and	r3, r0, r3
   14168:	e1813003 	orr	r3, r1, r3
   1416c:	e0823003 	add	r3, r2, r3
   14170:	e50b302c 	str	r3, [fp, #-44]	; 0x2c
   14174:	e51b2024 	ldr	r2, [fp, #-36]	; 0x24
   14178:	e51b3028 	ldr	r3, [fp, #-40]	; 0x28
   1417c:	e0823003 	add	r3, r2, r3
   14180:	e50b3024 	str	r3, [fp, #-36]	; 0x24
   14184:	e51b2028 	ldr	r2, [fp, #-40]	; 0x28
   14188:	e51b302c 	ldr	r3, [fp, #-44]	; 0x2c
   1418c:	e0823003 	add	r3, r2, r3
   14190:	e50b3014 	str	r3, [fp, #-20]
   14194:	e51b3024 	ldr	r3, [fp, #-36]	; 0x24
   14198:	e1a02363 	ror	r2, r3, #6
   1419c:	e51b3024 	ldr	r3, [fp, #-36]	; 0x24
   141a0:	e1a035e3 	ror	r3, r3, #11
   141a4:	e0222003 	eor	r2, r2, r3
   141a8:	e51b3024 	ldr	r3, [fp, #-36]	; 0x24
   141ac:	e1a03ce3 	ror	r3, r3, #25
   141b0:	e0222003 	eor	r2, r2, r3
   141b4:	e51b3010 	ldr	r3, [fp, #-16]
   141b8:	e0822003 	add	r2, r2, r3
   141bc:	e51b1008 	ldr	r1, [fp, #-8]
   141c0:	e51b300c 	ldr	r3, [fp, #-12]
   141c4:	e0211003 	eor	r1, r1, r3
   141c8:	e51b3024 	ldr	r3, [fp, #-36]	; 0x24
   141cc:	e0011003 	and	r1, r1, r3
   141d0:	e51b300c 	ldr	r3, [fp, #-12]
   141d4:	e0213003 	eor	r3, r1, r3
   141d8:	e0822003 	add	r2, r2, r3
   141dc:	e51b30c0 	ldr	r3, [fp, #-192]	; 0xc0
   141e0:	e1a018e3 	ror	r1, r3, #17
   141e4:	e51b30c0 	ldr	r3, [fp, #-192]	; 0xc0
   141e8:	e1a039e3 	ror	r3, r3, #19
   141ec:	e0211003 	eor	r1, r1, r3
   141f0:	e51b30c0 	ldr	r3, [fp, #-192]	; 0xc0
   141f4:	e1a03523 	lsr	r3, r3, #10
   141f8:	e0211003 	eor	r1, r1, r3
   141fc:	e51b30d4 	ldr	r3, [fp, #-212]	; 0xd4
   14200:	e0811003 	add	r1, r1, r3
   14204:	e51b30f4 	ldr	r3, [fp, #-244]	; 0xf4
   14208:	e1a003e3 	ror	r0, r3, #7
   1420c:	e51b30f4 	ldr	r3, [fp, #-244]	; 0xf4
   14210:	e1a03963 	ror	r3, r3, #18
   14214:	e0200003 	eor	r0, r0, r3
   14218:	e51b30f4 	ldr	r3, [fp, #-244]	; 0xf4
   1421c:	e1a031a3 	lsr	r3, r3, #3
   14220:	e0203003 	eor	r3, r0, r3
   14224:	e0811003 	add	r1, r1, r3
   14228:	e51b30f8 	ldr	r3, [fp, #-248]	; 0xf8
   1422c:	e0813003 	add	r3, r1, r3
   14230:	e50b30b8 	str	r3, [fp, #-184]	; 0xb8
   14234:	e51b30b8 	ldr	r3, [fp, #-184]	; 0xb8
   14238:	e0822003 	add	r2, r2, r3
   1423c:	e51f3b94 	ldr	r3, [pc, #-2964]	; 136b0 <sha2_process+0x15f4>
   14240:	e0823003 	add	r3, r2, r3
   14244:	e50b3028 	str	r3, [fp, #-40]	; 0x28
   14248:	e51b3014 	ldr	r3, [fp, #-20]
   1424c:	e1a02163 	ror	r2, r3, #2
   14250:	e51b3014 	ldr	r3, [fp, #-20]
   14254:	e1a036e3 	ror	r3, r3, #13
   14258:	e0222003 	eor	r2, r2, r3
   1425c:	e51b3014 	ldr	r3, [fp, #-20]
   14260:	e1a03b63 	ror	r3, r3, #22
   14264:	e0222003 	eor	r2, r2, r3
   14268:	e51b1014 	ldr	r1, [fp, #-20]
   1426c:	e51b3018 	ldr	r3, [fp, #-24]
   14270:	e0011003 	and	r1, r1, r3
   14274:	e51b0014 	ldr	r0, [fp, #-20]
   14278:	e51b3018 	ldr	r3, [fp, #-24]
   1427c:	e1800003 	orr	r0, r0, r3
   14280:	e51b301c 	ldr	r3, [fp, #-28]
   14284:	e0003003 	and	r3, r0, r3
   14288:	e1813003 	orr	r3, r1, r3
   1428c:	e0823003 	add	r3, r2, r3
   14290:	e50b302c 	str	r3, [fp, #-44]	; 0x2c
   14294:	e51b2020 	ldr	r2, [fp, #-32]
   14298:	e51b3028 	ldr	r3, [fp, #-40]	; 0x28
   1429c:	e0823003 	add	r3, r2, r3
   142a0:	e50b3020 	str	r3, [fp, #-32]
   142a4:	e51b2028 	ldr	r2, [fp, #-40]	; 0x28
   142a8:	e51b302c 	ldr	r3, [fp, #-44]	; 0x2c
   142ac:	e0823003 	add	r3, r2, r3
   142b0:	e50b3010 	str	r3, [fp, #-16]
   142b4:	e51b3020 	ldr	r3, [fp, #-32]
   142b8:	e1a02363 	ror	r2, r3, #6
   142bc:	e51b3020 	ldr	r3, [fp, #-32]
   142c0:	e1a035e3 	ror	r3, r3, #11
   142c4:	e0222003 	eor	r2, r2, r3
   142c8:	e51b3020 	ldr	r3, [fp, #-32]
   142cc:	e1a03ce3 	ror	r3, r3, #25
   142d0:	e0222003 	eor	r2, r2, r3
   142d4:	e51b300c 	ldr	r3, [fp, #-12]
   142d8:	e0822003 	add	r2, r2, r3
   142dc:	e51b1024 	ldr	r1, [fp, #-36]	; 0x24
   142e0:	e51b3008 	ldr	r3, [fp, #-8]
   142e4:	e0211003 	eor	r1, r1, r3
   142e8:	e51b3020 	ldr	r3, [fp, #-32]
   142ec:	e0011003 	and	r1, r1, r3
   142f0:	e51b3008 	ldr	r3, [fp, #-8]
   142f4:	e0213003 	eor	r3, r1, r3
   142f8:	e0822003 	add	r2, r2, r3
   142fc:	e51b30bc 	ldr	r3, [fp, #-188]	; 0xbc
   14300:	e1a018e3 	ror	r1, r3, #17
   14304:	e51b30bc 	ldr	r3, [fp, #-188]	; 0xbc
   14308:	e1a039e3 	ror	r3, r3, #19
   1430c:	e0211003 	eor	r1, r1, r3
   14310:	e51b30bc 	ldr	r3, [fp, #-188]	; 0xbc
   14314:	e1a03523 	lsr	r3, r3, #10
   14318:	e0211003 	eor	r1, r1, r3
   1431c:	e51b30d0 	ldr	r3, [fp, #-208]	; 0xd0
   14320:	e0811003 	add	r1, r1, r3
   14324:	e51b30f0 	ldr	r3, [fp, #-240]	; 0xf0
   14328:	e1a003e3 	ror	r0, r3, #7
   1432c:	e51b30f0 	ldr	r3, [fp, #-240]	; 0xf0
   14330:	e1a03963 	ror	r3, r3, #18
   14334:	e0200003 	eor	r0, r0, r3
   14338:	e51b30f0 	ldr	r3, [fp, #-240]	; 0xf0
   1433c:	e1a031a3 	lsr	r3, r3, #3
   14340:	e0203003 	eor	r3, r0, r3
   14344:	e0811003 	add	r1, r1, r3
   14348:	e51b30f4 	ldr	r3, [fp, #-244]	; 0xf4
   1434c:	e0813003 	add	r3, r1, r3
   14350:	e50b30b4 	str	r3, [fp, #-180]	; 0xb4
   14354:	e51b30b4 	ldr	r3, [fp, #-180]	; 0xb4
   14358:	e0822003 	add	r2, r2, r3
   1435c:	e51f3cb0 	ldr	r3, [pc, #-3248]	; 136b4 <sha2_process+0x15f8>
   14360:	e0823003 	add	r3, r2, r3
   14364:	e50b3028 	str	r3, [fp, #-40]	; 0x28
   14368:	e51b3010 	ldr	r3, [fp, #-16]
   1436c:	e1a02163 	ror	r2, r3, #2
   14370:	e51b3010 	ldr	r3, [fp, #-16]
   14374:	e1a036e3 	ror	r3, r3, #13
   14378:	e0222003 	eor	r2, r2, r3
   1437c:	e51b3010 	ldr	r3, [fp, #-16]
   14380:	e1a03b63 	ror	r3, r3, #22
   14384:	e0222003 	eor	r2, r2, r3
   14388:	e51b1010 	ldr	r1, [fp, #-16]
   1438c:	e51b3014 	ldr	r3, [fp, #-20]
   14390:	e0011003 	and	r1, r1, r3
   14394:	e51b0010 	ldr	r0, [fp, #-16]
   14398:	e51b3014 	ldr	r3, [fp, #-20]
   1439c:	e1800003 	orr	r0, r0, r3
   143a0:	e51b3018 	ldr	r3, [fp, #-24]
   143a4:	e0003003 	and	r3, r0, r3
   143a8:	e1813003 	orr	r3, r1, r3
   143ac:	e0823003 	add	r3, r2, r3
   143b0:	e50b302c 	str	r3, [fp, #-44]	; 0x2c
   143b4:	e51b201c 	ldr	r2, [fp, #-28]
   143b8:	e51b3028 	ldr	r3, [fp, #-40]	; 0x28
   143bc:	e0823003 	add	r3, r2, r3
   143c0:	e50b301c 	str	r3, [fp, #-28]
   143c4:	e51b2028 	ldr	r2, [fp, #-40]	; 0x28
   143c8:	e51b302c 	ldr	r3, [fp, #-44]	; 0x2c
   143cc:	e0823003 	add	r3, r2, r3
   143d0:	e50b300c 	str	r3, [fp, #-12]
   143d4:	e51b301c 	ldr	r3, [fp, #-28]
   143d8:	e1a02363 	ror	r2, r3, #6
   143dc:	e51b301c 	ldr	r3, [fp, #-28]
   143e0:	e1a035e3 	ror	r3, r3, #11
   143e4:	e0222003 	eor	r2, r2, r3
   143e8:	e51b301c 	ldr	r3, [fp, #-28]
   143ec:	e1a03ce3 	ror	r3, r3, #25
   143f0:	e0222003 	eor	r2, r2, r3
   143f4:	e51b3008 	ldr	r3, [fp, #-8]
   143f8:	e0822003 	add	r2, r2, r3
   143fc:	e51b1020 	ldr	r1, [fp, #-32]
   14400:	e51b3024 	ldr	r3, [fp, #-36]	; 0x24
   14404:	e0211003 	eor	r1, r1, r3
   14408:	e51b301c 	ldr	r3, [fp, #-28]
   1440c:	e0011003 	and	r1, r1, r3
   14410:	e51b3024 	ldr	r3, [fp, #-36]	; 0x24
   14414:	e0213003 	eor	r3, r1, r3
   14418:	e0822003 	add	r2, r2, r3
   1441c:	e51b30b8 	ldr	r3, [fp, #-184]	; 0xb8
   14420:	e1a018e3 	ror	r1, r3, #17
   14424:	e51b30b8 	ldr	r3, [fp, #-184]	; 0xb8
   14428:	e1a039e3 	ror	r3, r3, #19
   1442c:	e0211003 	eor	r1, r1, r3
   14430:	e51b30b8 	ldr	r3, [fp, #-184]	; 0xb8
   14434:	e1a03523 	lsr	r3, r3, #10
   14438:	e0211003 	eor	r1, r1, r3
   1443c:	e51b30cc 	ldr	r3, [fp, #-204]	; 0xcc
   14440:	e0811003 	add	r1, r1, r3
   14444:	e51b30ec 	ldr	r3, [fp, #-236]	; 0xec
   14448:	e1a003e3 	ror	r0, r3, #7
   1444c:	e51b30ec 	ldr	r3, [fp, #-236]	; 0xec
   14450:	e1a03963 	ror	r3, r3, #18
   14454:	e0200003 	eor	r0, r0, r3
   14458:	e51b30ec 	ldr	r3, [fp, #-236]	; 0xec
   1445c:	e1a031a3 	lsr	r3, r3, #3
   14460:	e0203003 	eor	r3, r0, r3
   14464:	e0811003 	add	r1, r1, r3
   14468:	e51b30f0 	ldr	r3, [fp, #-240]	; 0xf0
   1446c:	e0813003 	add	r3, r1, r3
   14470:	e50b30b0 	str	r3, [fp, #-176]	; 0xb0
   14474:	e51b30b0 	ldr	r3, [fp, #-176]	; 0xb0
   14478:	e0822003 	add	r2, r2, r3
   1447c:	e51f3dcc 	ldr	r3, [pc, #-3532]	; 136b8 <sha2_process+0x15fc>
   14480:	e0823003 	add	r3, r2, r3
   14484:	e50b3028 	str	r3, [fp, #-40]	; 0x28
   14488:	e51b300c 	ldr	r3, [fp, #-12]
   1448c:	e1a02163 	ror	r2, r3, #2
   14490:	e51b300c 	ldr	r3, [fp, #-12]
   14494:	e1a036e3 	ror	r3, r3, #13
   14498:	e0222003 	eor	r2, r2, r3
   1449c:	e51b300c 	ldr	r3, [fp, #-12]
   144a0:	e1a03b63 	ror	r3, r3, #22
   144a4:	e0222003 	eor	r2, r2, r3
   144a8:	e51b100c 	ldr	r1, [fp, #-12]
   144ac:	e51b3010 	ldr	r3, [fp, #-16]
   144b0:	e0011003 	and	r1, r1, r3
   144b4:	e51b000c 	ldr	r0, [fp, #-12]
   144b8:	e51b3010 	ldr	r3, [fp, #-16]
   144bc:	e1800003 	orr	r0, r0, r3
   144c0:	e51b3014 	ldr	r3, [fp, #-20]
   144c4:	e0003003 	and	r3, r0, r3
   144c8:	e1813003 	orr	r3, r1, r3
   144cc:	e0823003 	add	r3, r2, r3
   144d0:	e50b302c 	str	r3, [fp, #-44]	; 0x2c
   144d4:	e51b2018 	ldr	r2, [fp, #-24]
   144d8:	e51b3028 	ldr	r3, [fp, #-40]	; 0x28
   144dc:	e0823003 	add	r3, r2, r3
   144e0:	e50b3018 	str	r3, [fp, #-24]
   144e4:	e51b2028 	ldr	r2, [fp, #-40]	; 0x28
   144e8:	e51b302c 	ldr	r3, [fp, #-44]	; 0x2c
   144ec:	e0823003 	add	r3, r2, r3
   144f0:	e50b3008 	str	r3, [fp, #-8]
   144f4:	e51b3018 	ldr	r3, [fp, #-24]
   144f8:	e1a02363 	ror	r2, r3, #6
   144fc:	e51b3018 	ldr	r3, [fp, #-24]
   14500:	e1a035e3 	ror	r3, r3, #11
   14504:	e0222003 	eor	r2, r2, r3
   14508:	e51b3018 	ldr	r3, [fp, #-24]
   1450c:	e1a03ce3 	ror	r3, r3, #25
   14510:	e0222003 	eor	r2, r2, r3
   14514:	e51b3024 	ldr	r3, [fp, #-36]	; 0x24
   14518:	e0822003 	add	r2, r2, r3
   1451c:	e51b101c 	ldr	r1, [fp, #-28]
   14520:	e51b3020 	ldr	r3, [fp, #-32]
   14524:	e0211003 	eor	r1, r1, r3
   14528:	e51b3018 	ldr	r3, [fp, #-24]
   1452c:	e0011003 	and	r1, r1, r3
   14530:	e51b3020 	ldr	r3, [fp, #-32]
   14534:	e0213003 	eor	r3, r1, r3
   14538:	e0822003 	add	r2, r2, r3
   1453c:	e51b30b4 	ldr	r3, [fp, #-180]	; 0xb4
   14540:	e1a018e3 	ror	r1, r3, #17
   14544:	e51b30b4 	ldr	r3, [fp, #-180]	; 0xb4
   14548:	e1a039e3 	ror	r3, r3, #19
   1454c:	e0211003 	eor	r1, r1, r3
   14550:	e51b30b4 	ldr	r3, [fp, #-180]	; 0xb4
   14554:	e1a03523 	lsr	r3, r3, #10
   14558:	e0211003 	eor	r1, r1, r3
   1455c:	e51b30c8 	ldr	r3, [fp, #-200]	; 0xc8
   14560:	e0811003 	add	r1, r1, r3
   14564:	e51b30e8 	ldr	r3, [fp, #-232]	; 0xe8
   14568:	e1a003e3 	ror	r0, r3, #7
   1456c:	e51b30e8 	ldr	r3, [fp, #-232]	; 0xe8
   14570:	e1a03963 	ror	r3, r3, #18
   14574:	e0200003 	eor	r0, r0, r3
   14578:	e51b30e8 	ldr	r3, [fp, #-232]	; 0xe8
   1457c:	e1a031a3 	lsr	r3, r3, #3
   14580:	e0203003 	eor	r3, r0, r3
   14584:	e0811003 	add	r1, r1, r3
   14588:	e51b30ec 	ldr	r3, [fp, #-236]	; 0xec
   1458c:	e0813003 	add	r3, r1, r3
   14590:	e50b30ac 	str	r3, [fp, #-172]	; 0xac
   14594:	e51b30ac 	ldr	r3, [fp, #-172]	; 0xac
   14598:	e0822003 	add	r2, r2, r3
   1459c:	e51f3ee8 	ldr	r3, [pc, #-3816]	; 136bc <sha2_process+0x1600>
   145a0:	e0823003 	add	r3, r2, r3
   145a4:	e50b3028 	str	r3, [fp, #-40]	; 0x28
   145a8:	e51b3008 	ldr	r3, [fp, #-8]
   145ac:	e1a02163 	ror	r2, r3, #2
   145b0:	e51b3008 	ldr	r3, [fp, #-8]
   145b4:	e1a036e3 	ror	r3, r3, #13
   145b8:	e0222003 	eor	r2, r2, r3
   145bc:	e51b3008 	ldr	r3, [fp, #-8]
   145c0:	e1a03b63 	ror	r3, r3, #22
   145c4:	e0222003 	eor	r2, r2, r3
   145c8:	e51b1008 	ldr	r1, [fp, #-8]
   145cc:	e51b300c 	ldr	r3, [fp, #-12]
   145d0:	e0011003 	and	r1, r1, r3
   145d4:	e51b0008 	ldr	r0, [fp, #-8]
   145d8:	e51b300c 	ldr	r3, [fp, #-12]
   145dc:	e1800003 	orr	r0, r0, r3
   145e0:	e51b3010 	ldr	r3, [fp, #-16]
   145e4:	e0003003 	and	r3, r0, r3
   145e8:	e1813003 	orr	r3, r1, r3
   145ec:	e0823003 	add	r3, r2, r3
   145f0:	e50b302c 	str	r3, [fp, #-44]	; 0x2c
   145f4:	e51b2014 	ldr	r2, [fp, #-20]
   145f8:	e51b3028 	ldr	r3, [fp, #-40]	; 0x28
   145fc:	e0823003 	add	r3, r2, r3
   14600:	e50b3014 	str	r3, [fp, #-20]
   14604:	e51b2028 	ldr	r2, [fp, #-40]	; 0x28
   14608:	e51b302c 	ldr	r3, [fp, #-44]	; 0x2c
   1460c:	e0823003 	add	r3, r2, r3
   14610:	e50b3024 	str	r3, [fp, #-36]	; 0x24
   14614:	e51b3014 	ldr	r3, [fp, #-20]
   14618:	e1a02363 	ror	r2, r3, #6
   1461c:	e51b3014 	ldr	r3, [fp, #-20]
   14620:	e1a035e3 	ror	r3, r3, #11
   14624:	e0222003 	eor	r2, r2, r3
   14628:	e51b3014 	ldr	r3, [fp, #-20]
   1462c:	e1a03ce3 	ror	r3, r3, #25
   14630:	e0222003 	eor	r2, r2, r3
   14634:	e51b3020 	ldr	r3, [fp, #-32]
   14638:	e0822003 	add	r2, r2, r3
   1463c:	e51b1018 	ldr	r1, [fp, #-24]
   14640:	e51b301c 	ldr	r3, [fp, #-28]
   14644:	e0211003 	eor	r1, r1, r3
   14648:	e51b3014 	ldr	r3, [fp, #-20]
   1464c:	e0011003 	and	r1, r1, r3
   14650:	e51b301c 	ldr	r3, [fp, #-28]
   14654:	e0213003 	eor	r3, r1, r3
   14658:	e0822003 	add	r2, r2, r3
   1465c:	e51b30b0 	ldr	r3, [fp, #-176]	; 0xb0
   14660:	e1a018e3 	ror	r1, r3, #17
   14664:	e51b30b0 	ldr	r3, [fp, #-176]	; 0xb0
   14668:	e1a039e3 	ror	r3, r3, #19
   1466c:	e0211003 	eor	r1, r1, r3
   14670:	e51b30b0 	ldr	r3, [fp, #-176]	; 0xb0
   14674:	e1a03523 	lsr	r3, r3, #10
   14678:	e0211003 	eor	r1, r1, r3
   1467c:	e51b30c4 	ldr	r3, [fp, #-196]	; 0xc4
   14680:	e0811003 	add	r1, r1, r3
   14684:	e51b30e4 	ldr	r3, [fp, #-228]	; 0xe4
   14688:	e1a003e3 	ror	r0, r3, #7
   1468c:	e51b30e4 	ldr	r3, [fp, #-228]	; 0xe4
   14690:	e1a03963 	ror	r3, r3, #18
   14694:	e0200003 	eor	r0, r0, r3
   14698:	e51b30e4 	ldr	r3, [fp, #-228]	; 0xe4
   1469c:	e1a031a3 	lsr	r3, r3, #3
   146a0:	e0203003 	eor	r3, r0, r3
   146a4:	e0811003 	add	r1, r1, r3
   146a8:	e51b30e8 	ldr	r3, [fp, #-232]	; 0xe8
   146ac:	e0813003 	add	r3, r1, r3
   146b0:	e50b30a8 	str	r3, [fp, #-168]	; 0xa8
   146b4:	e51b30a8 	ldr	r3, [fp, #-168]	; 0xa8
   146b8:	e0822003 	add	r2, r2, r3
   146bc:	e59f3ff8 	ldr	r3, [pc, #4088]	; 156bc <sha2_process+0x3600>
   146c0:	e0823003 	add	r3, r2, r3
   146c4:	e50b3028 	str	r3, [fp, #-40]	; 0x28
   146c8:	e51b3024 	ldr	r3, [fp, #-36]	; 0x24
   146cc:	e1a02163 	ror	r2, r3, #2
   146d0:	e51b3024 	ldr	r3, [fp, #-36]	; 0x24
   146d4:	e1a036e3 	ror	r3, r3, #13
   146d8:	e0222003 	eor	r2, r2, r3
   146dc:	e51b3024 	ldr	r3, [fp, #-36]	; 0x24
   146e0:	e1a03b63 	ror	r3, r3, #22
   146e4:	e0222003 	eor	r2, r2, r3
   146e8:	e51b1024 	ldr	r1, [fp, #-36]	; 0x24
   146ec:	e51b3008 	ldr	r3, [fp, #-8]
   146f0:	e0011003 	and	r1, r1, r3
   146f4:	e51b0024 	ldr	r0, [fp, #-36]	; 0x24
   146f8:	e51b3008 	ldr	r3, [fp, #-8]
   146fc:	e1800003 	orr	r0, r0, r3
   14700:	e51b300c 	ldr	r3, [fp, #-12]
   14704:	e0003003 	and	r3, r0, r3
   14708:	e1813003 	orr	r3, r1, r3
   1470c:	e0823003 	add	r3, r2, r3
   14710:	e50b302c 	str	r3, [fp, #-44]	; 0x2c
   14714:	e51b2010 	ldr	r2, [fp, #-16]
   14718:	e51b3028 	ldr	r3, [fp, #-40]	; 0x28
   1471c:	e0823003 	add	r3, r2, r3
   14720:	e50b3010 	str	r3, [fp, #-16]
   14724:	e51b2028 	ldr	r2, [fp, #-40]	; 0x28
   14728:	e51b302c 	ldr	r3, [fp, #-44]	; 0x2c
   1472c:	e0823003 	add	r3, r2, r3
   14730:	e50b3020 	str	r3, [fp, #-32]
   14734:	e51b3010 	ldr	r3, [fp, #-16]
   14738:	e1a02363 	ror	r2, r3, #6
   1473c:	e51b3010 	ldr	r3, [fp, #-16]
   14740:	e1a035e3 	ror	r3, r3, #11
   14744:	e0222003 	eor	r2, r2, r3
   14748:	e51b3010 	ldr	r3, [fp, #-16]
   1474c:	e1a03ce3 	ror	r3, r3, #25
   14750:	e0222003 	eor	r2, r2, r3
   14754:	e51b301c 	ldr	r3, [fp, #-28]
   14758:	e0822003 	add	r2, r2, r3
   1475c:	e51b1014 	ldr	r1, [fp, #-20]
   14760:	e51b3018 	ldr	r3, [fp, #-24]
   14764:	e0211003 	eor	r1, r1, r3
   14768:	e51b3010 	ldr	r3, [fp, #-16]
   1476c:	e0011003 	and	r1, r1, r3
   14770:	e51b3018 	ldr	r3, [fp, #-24]
   14774:	e0213003 	eor	r3, r1, r3
   14778:	e0822003 	add	r2, r2, r3
   1477c:	e51b30ac 	ldr	r3, [fp, #-172]	; 0xac
   14780:	e1a018e3 	ror	r1, r3, #17
   14784:	e51b30ac 	ldr	r3, [fp, #-172]	; 0xac
   14788:	e1a039e3 	ror	r3, r3, #19
   1478c:	e0211003 	eor	r1, r1, r3
   14790:	e51b30ac 	ldr	r3, [fp, #-172]	; 0xac
   14794:	e1a03523 	lsr	r3, r3, #10
   14798:	e0211003 	eor	r1, r1, r3
   1479c:	e51b30c0 	ldr	r3, [fp, #-192]	; 0xc0
   147a0:	e0811003 	add	r1, r1, r3
   147a4:	e51b30e0 	ldr	r3, [fp, #-224]	; 0xe0
   147a8:	e1a003e3 	ror	r0, r3, #7
   147ac:	e51b30e0 	ldr	r3, [fp, #-224]	; 0xe0
   147b0:	e1a03963 	ror	r3, r3, #18
   147b4:	e0200003 	eor	r0, r0, r3
   147b8:	e51b30e0 	ldr	r3, [fp, #-224]	; 0xe0
   147bc:	e1a031a3 	lsr	r3, r3, #3
   147c0:	e0203003 	eor	r3, r0, r3
   147c4:	e0811003 	add	r1, r1, r3
   147c8:	e51b30e4 	ldr	r3, [fp, #-228]	; 0xe4
   147cc:	e0813003 	add	r3, r1, r3
   147d0:	e50b30a4 	str	r3, [fp, #-164]	; 0xa4
   147d4:	e51b30a4 	ldr	r3, [fp, #-164]	; 0xa4
   147d8:	e0822003 	add	r2, r2, r3
   147dc:	e59f3edc 	ldr	r3, [pc, #3804]	; 156c0 <sha2_process+0x3604>
   147e0:	e0823003 	add	r3, r2, r3
   147e4:	e50b3028 	str	r3, [fp, #-40]	; 0x28
   147e8:	e51b3020 	ldr	r3, [fp, #-32]
   147ec:	e1a02163 	ror	r2, r3, #2
   147f0:	e51b3020 	ldr	r3, [fp, #-32]
   147f4:	e1a036e3 	ror	r3, r3, #13
   147f8:	e0222003 	eor	r2, r2, r3
   147fc:	e51b3020 	ldr	r3, [fp, #-32]
   14800:	e1a03b63 	ror	r3, r3, #22
   14804:	e0222003 	eor	r2, r2, r3
   14808:	e51b1020 	ldr	r1, [fp, #-32]
   1480c:	e51b3024 	ldr	r3, [fp, #-36]	; 0x24
   14810:	e0011003 	and	r1, r1, r3
   14814:	e51b0020 	ldr	r0, [fp, #-32]
   14818:	e51b3024 	ldr	r3, [fp, #-36]	; 0x24
   1481c:	e1800003 	orr	r0, r0, r3
   14820:	e51b3008 	ldr	r3, [fp, #-8]
   14824:	e0003003 	and	r3, r0, r3
   14828:	e1813003 	orr	r3, r1, r3
   1482c:	e0823003 	add	r3, r2, r3
   14830:	e50b302c 	str	r3, [fp, #-44]	; 0x2c
   14834:	e51b200c 	ldr	r2, [fp, #-12]
   14838:	e51b3028 	ldr	r3, [fp, #-40]	; 0x28
   1483c:	e0823003 	add	r3, r2, r3
   14840:	e50b300c 	str	r3, [fp, #-12]
   14844:	e51b2028 	ldr	r2, [fp, #-40]	; 0x28
   14848:	e51b302c 	ldr	r3, [fp, #-44]	; 0x2c
   1484c:	e0823003 	add	r3, r2, r3
   14850:	e50b301c 	str	r3, [fp, #-28]
   14854:	e51b300c 	ldr	r3, [fp, #-12]
   14858:	e1a02363 	ror	r2, r3, #6
   1485c:	e51b300c 	ldr	r3, [fp, #-12]
   14860:	e1a035e3 	ror	r3, r3, #11
   14864:	e0222003 	eor	r2, r2, r3
   14868:	e51b300c 	ldr	r3, [fp, #-12]
   1486c:	e1a03ce3 	ror	r3, r3, #25
   14870:	e0222003 	eor	r2, r2, r3
   14874:	e51b3018 	ldr	r3, [fp, #-24]
   14878:	e0822003 	add	r2, r2, r3
   1487c:	e51b1010 	ldr	r1, [fp, #-16]
   14880:	e51b3014 	ldr	r3, [fp, #-20]
   14884:	e0211003 	eor	r1, r1, r3
   14888:	e51b300c 	ldr	r3, [fp, #-12]
   1488c:	e0011003 	and	r1, r1, r3
   14890:	e51b3014 	ldr	r3, [fp, #-20]
   14894:	e0213003 	eor	r3, r1, r3
   14898:	e0822003 	add	r2, r2, r3
   1489c:	e51b30a8 	ldr	r3, [fp, #-168]	; 0xa8
   148a0:	e1a018e3 	ror	r1, r3, #17
   148a4:	e51b30a8 	ldr	r3, [fp, #-168]	; 0xa8
   148a8:	e1a039e3 	ror	r3, r3, #19
   148ac:	e0211003 	eor	r1, r1, r3
   148b0:	e51b30a8 	ldr	r3, [fp, #-168]	; 0xa8
   148b4:	e1a03523 	lsr	r3, r3, #10
   148b8:	e0211003 	eor	r1, r1, r3
   148bc:	e51b30bc 	ldr	r3, [fp, #-188]	; 0xbc
   148c0:	e0811003 	add	r1, r1, r3
   148c4:	e51b30dc 	ldr	r3, [fp, #-220]	; 0xdc
   148c8:	e1a003e3 	ror	r0, r3, #7
   148cc:	e51b30dc 	ldr	r3, [fp, #-220]	; 0xdc
   148d0:	e1a03963 	ror	r3, r3, #18
   148d4:	e0200003 	eor	r0, r0, r3
   148d8:	e51b30dc 	ldr	r3, [fp, #-220]	; 0xdc
   148dc:	e1a031a3 	lsr	r3, r3, #3
   148e0:	e0203003 	eor	r3, r0, r3
   148e4:	e0811003 	add	r1, r1, r3
   148e8:	e51b30e0 	ldr	r3, [fp, #-224]	; 0xe0
   148ec:	e0813003 	add	r3, r1, r3
   148f0:	e50b30a0 	str	r3, [fp, #-160]	; 0xa0
   148f4:	e51b30a0 	ldr	r3, [fp, #-160]	; 0xa0
   148f8:	e0822003 	add	r2, r2, r3
   148fc:	e59f3dc0 	ldr	r3, [pc, #3520]	; 156c4 <sha2_process+0x3608>
   14900:	e0823003 	add	r3, r2, r3
   14904:	e50b3028 	str	r3, [fp, #-40]	; 0x28
   14908:	e51b301c 	ldr	r3, [fp, #-28]
   1490c:	e1a02163 	ror	r2, r3, #2
   14910:	e51b301c 	ldr	r3, [fp, #-28]
   14914:	e1a036e3 	ror	r3, r3, #13
   14918:	e0222003 	eor	r2, r2, r3
   1491c:	e51b301c 	ldr	r3, [fp, #-28]
   14920:	e1a03b63 	ror	r3, r3, #22
   14924:	e0222003 	eor	r2, r2, r3
   14928:	e51b101c 	ldr	r1, [fp, #-28]
   1492c:	e51b3020 	ldr	r3, [fp, #-32]
   14930:	e0011003 	and	r1, r1, r3
   14934:	e51b001c 	ldr	r0, [fp, #-28]
   14938:	e51b3020 	ldr	r3, [fp, #-32]
   1493c:	e1800003 	orr	r0, r0, r3
   14940:	e51b3024 	ldr	r3, [fp, #-36]	; 0x24
   14944:	e0003003 	and	r3, r0, r3
   14948:	e1813003 	orr	r3, r1, r3
   1494c:	e0823003 	add	r3, r2, r3
   14950:	e50b302c 	str	r3, [fp, #-44]	; 0x2c
   14954:	e51b2008 	ldr	r2, [fp, #-8]
   14958:	e51b3028 	ldr	r3, [fp, #-40]	; 0x28
   1495c:	e0823003 	add	r3, r2, r3
   14960:	e50b3008 	str	r3, [fp, #-8]
   14964:	e51b2028 	ldr	r2, [fp, #-40]	; 0x28
   14968:	e51b302c 	ldr	r3, [fp, #-44]	; 0x2c
   1496c:	e0823003 	add	r3, r2, r3
   14970:	e50b3018 	str	r3, [fp, #-24]
   14974:	e51b3008 	ldr	r3, [fp, #-8]
   14978:	e1a02363 	ror	r2, r3, #6
   1497c:	e51b3008 	ldr	r3, [fp, #-8]
   14980:	e1a035e3 	ror	r3, r3, #11
   14984:	e0222003 	eor	r2, r2, r3
   14988:	e51b3008 	ldr	r3, [fp, #-8]
   1498c:	e1a03ce3 	ror	r3, r3, #25
   14990:	e0222003 	eor	r2, r2, r3
   14994:	e51b3014 	ldr	r3, [fp, #-20]
   14998:	e0822003 	add	r2, r2, r3
   1499c:	e51b100c 	ldr	r1, [fp, #-12]
   149a0:	e51b3010 	ldr	r3, [fp, #-16]
   149a4:	e0211003 	eor	r1, r1, r3
   149a8:	e51b3008 	ldr	r3, [fp, #-8]
   149ac:	e0011003 	and	r1, r1, r3
   149b0:	e51b3010 	ldr	r3, [fp, #-16]
   149b4:	e0213003 	eor	r3, r1, r3
   149b8:	e0822003 	add	r2, r2, r3
   149bc:	e51b30a4 	ldr	r3, [fp, #-164]	; 0xa4
   149c0:	e1a018e3 	ror	r1, r3, #17
   149c4:	e51b30a4 	ldr	r3, [fp, #-164]	; 0xa4
   149c8:	e1a039e3 	ror	r3, r3, #19
   149cc:	e0211003 	eor	r1, r1, r3
   149d0:	e51b30a4 	ldr	r3, [fp, #-164]	; 0xa4
   149d4:	e1a03523 	lsr	r3, r3, #10
   149d8:	e0211003 	eor	r1, r1, r3
   149dc:	e51b30b8 	ldr	r3, [fp, #-184]	; 0xb8
   149e0:	e0811003 	add	r1, r1, r3
   149e4:	e51b30d8 	ldr	r3, [fp, #-216]	; 0xd8
   149e8:	e1a003e3 	ror	r0, r3, #7
   149ec:	e51b30d8 	ldr	r3, [fp, #-216]	; 0xd8
   149f0:	e1a03963 	ror	r3, r3, #18
   149f4:	e0200003 	eor	r0, r0, r3
   149f8:	e51b30d8 	ldr	r3, [fp, #-216]	; 0xd8
   149fc:	e1a031a3 	lsr	r3, r3, #3
   14a00:	e0203003 	eor	r3, r0, r3
   14a04:	e0811003 	add	r1, r1, r3
   14a08:	e51b30dc 	ldr	r3, [fp, #-220]	; 0xdc
   14a0c:	e0813003 	add	r3, r1, r3
   14a10:	e50b309c 	str	r3, [fp, #-156]	; 0x9c
   14a14:	e51b309c 	ldr	r3, [fp, #-156]	; 0x9c
   14a18:	e0822003 	add	r2, r2, r3
   14a1c:	e59f3ca4 	ldr	r3, [pc, #3236]	; 156c8 <sha2_process+0x360c>
   14a20:	e0823003 	add	r3, r2, r3
   14a24:	e50b3028 	str	r3, [fp, #-40]	; 0x28
   14a28:	e51b3018 	ldr	r3, [fp, #-24]
   14a2c:	e1a02163 	ror	r2, r3, #2
   14a30:	e51b3018 	ldr	r3, [fp, #-24]
   14a34:	e1a036e3 	ror	r3, r3, #13
   14a38:	e0222003 	eor	r2, r2, r3
   14a3c:	e51b3018 	ldr	r3, [fp, #-24]
   14a40:	e1a03b63 	ror	r3, r3, #22
   14a44:	e0222003 	eor	r2, r2, r3
   14a48:	e51b1018 	ldr	r1, [fp, #-24]
   14a4c:	e51b301c 	ldr	r3, [fp, #-28]
   14a50:	e0011003 	and	r1, r1, r3
   14a54:	e51b0018 	ldr	r0, [fp, #-24]
   14a58:	e51b301c 	ldr	r3, [fp, #-28]
   14a5c:	e1800003 	orr	r0, r0, r3
   14a60:	e51b3020 	ldr	r3, [fp, #-32]
   14a64:	e0003003 	and	r3, r0, r3
   14a68:	e1813003 	orr	r3, r1, r3
   14a6c:	e0823003 	add	r3, r2, r3
   14a70:	e50b302c 	str	r3, [fp, #-44]	; 0x2c
   14a74:	e51b2024 	ldr	r2, [fp, #-36]	; 0x24
   14a78:	e51b3028 	ldr	r3, [fp, #-40]	; 0x28
   14a7c:	e0823003 	add	r3, r2, r3
   14a80:	e50b3024 	str	r3, [fp, #-36]	; 0x24
   14a84:	e51b2028 	ldr	r2, [fp, #-40]	; 0x28
   14a88:	e51b302c 	ldr	r3, [fp, #-44]	; 0x2c
   14a8c:	e0823003 	add	r3, r2, r3
   14a90:	e50b3014 	str	r3, [fp, #-20]
   14a94:	e51b3024 	ldr	r3, [fp, #-36]	; 0x24
   14a98:	e1a02363 	ror	r2, r3, #6
   14a9c:	e51b3024 	ldr	r3, [fp, #-36]	; 0x24
   14aa0:	e1a035e3 	ror	r3, r3, #11
   14aa4:	e0222003 	eor	r2, r2, r3
   14aa8:	e51b3024 	ldr	r3, [fp, #-36]	; 0x24
   14aac:	e1a03ce3 	ror	r3, r3, #25
   14ab0:	e0222003 	eor	r2, r2, r3
   14ab4:	e51b3010 	ldr	r3, [fp, #-16]
   14ab8:	e0822003 	add	r2, r2, r3
   14abc:	e51b1008 	ldr	r1, [fp, #-8]
   14ac0:	e51b300c 	ldr	r3, [fp, #-12]
   14ac4:	e0211003 	eor	r1, r1, r3
   14ac8:	e51b3024 	ldr	r3, [fp, #-36]	; 0x24
   14acc:	e0011003 	and	r1, r1, r3
   14ad0:	e51b300c 	ldr	r3, [fp, #-12]
   14ad4:	e0213003 	eor	r3, r1, r3
   14ad8:	e0822003 	add	r2, r2, r3
   14adc:	e51b30a0 	ldr	r3, [fp, #-160]	; 0xa0
   14ae0:	e1a018e3 	ror	r1, r3, #17
   14ae4:	e51b30a0 	ldr	r3, [fp, #-160]	; 0xa0
   14ae8:	e1a039e3 	ror	r3, r3, #19
   14aec:	e0211003 	eor	r1, r1, r3
   14af0:	e51b30a0 	ldr	r3, [fp, #-160]	; 0xa0
   14af4:	e1a03523 	lsr	r3, r3, #10
   14af8:	e0211003 	eor	r1, r1, r3
   14afc:	e51b30b4 	ldr	r3, [fp, #-180]	; 0xb4
   14b00:	e0811003 	add	r1, r1, r3
   14b04:	e51b30d4 	ldr	r3, [fp, #-212]	; 0xd4
   14b08:	e1a003e3 	ror	r0, r3, #7
   14b0c:	e51b30d4 	ldr	r3, [fp, #-212]	; 0xd4
   14b10:	e1a03963 	ror	r3, r3, #18
   14b14:	e0200003 	eor	r0, r0, r3
   14b18:	e51b30d4 	ldr	r3, [fp, #-212]	; 0xd4
   14b1c:	e1a031a3 	lsr	r3, r3, #3
   14b20:	e0203003 	eor	r3, r0, r3
   14b24:	e0811003 	add	r1, r1, r3
   14b28:	e51b30d8 	ldr	r3, [fp, #-216]	; 0xd8
   14b2c:	e0813003 	add	r3, r1, r3
   14b30:	e50b3098 	str	r3, [fp, #-152]	; 0x98
   14b34:	e51b3098 	ldr	r3, [fp, #-152]	; 0x98
   14b38:	e0822003 	add	r2, r2, r3
   14b3c:	e59f3b88 	ldr	r3, [pc, #2952]	; 156cc <sha2_process+0x3610>
   14b40:	e0823003 	add	r3, r2, r3
   14b44:	e50b3028 	str	r3, [fp, #-40]	; 0x28
   14b48:	e51b3014 	ldr	r3, [fp, #-20]
   14b4c:	e1a02163 	ror	r2, r3, #2
   14b50:	e51b3014 	ldr	r3, [fp, #-20]
   14b54:	e1a036e3 	ror	r3, r3, #13
   14b58:	e0222003 	eor	r2, r2, r3
   14b5c:	e51b3014 	ldr	r3, [fp, #-20]
   14b60:	e1a03b63 	ror	r3, r3, #22
   14b64:	e0222003 	eor	r2, r2, r3
   14b68:	e51b1014 	ldr	r1, [fp, #-20]
   14b6c:	e51b3018 	ldr	r3, [fp, #-24]
   14b70:	e0011003 	and	r1, r1, r3
   14b74:	e51b0014 	ldr	r0, [fp, #-20]
   14b78:	e51b3018 	ldr	r3, [fp, #-24]
   14b7c:	e1800003 	orr	r0, r0, r3
   14b80:	e51b301c 	ldr	r3, [fp, #-28]
   14b84:	e0003003 	and	r3, r0, r3
   14b88:	e1813003 	orr	r3, r1, r3
   14b8c:	e0823003 	add	r3, r2, r3
   14b90:	e50b302c 	str	r3, [fp, #-44]	; 0x2c
   14b94:	e51b2020 	ldr	r2, [fp, #-32]
   14b98:	e51b3028 	ldr	r3, [fp, #-40]	; 0x28
   14b9c:	e0823003 	add	r3, r2, r3
   14ba0:	e50b3020 	str	r3, [fp, #-32]
   14ba4:	e51b2028 	ldr	r2, [fp, #-40]	; 0x28
   14ba8:	e51b302c 	ldr	r3, [fp, #-44]	; 0x2c
   14bac:	e0823003 	add	r3, r2, r3
   14bb0:	e50b3010 	str	r3, [fp, #-16]
   14bb4:	e51b3020 	ldr	r3, [fp, #-32]
   14bb8:	e1a02363 	ror	r2, r3, #6
   14bbc:	e51b3020 	ldr	r3, [fp, #-32]
   14bc0:	e1a035e3 	ror	r3, r3, #11
   14bc4:	e0222003 	eor	r2, r2, r3
   14bc8:	e51b3020 	ldr	r3, [fp, #-32]
   14bcc:	e1a03ce3 	ror	r3, r3, #25
   14bd0:	e0222003 	eor	r2, r2, r3
   14bd4:	e51b300c 	ldr	r3, [fp, #-12]
   14bd8:	e0822003 	add	r2, r2, r3
   14bdc:	e51b1024 	ldr	r1, [fp, #-36]	; 0x24
   14be0:	e51b3008 	ldr	r3, [fp, #-8]
   14be4:	e0211003 	eor	r1, r1, r3
   14be8:	e51b3020 	ldr	r3, [fp, #-32]
   14bec:	e0011003 	and	r1, r1, r3
   14bf0:	e51b3008 	ldr	r3, [fp, #-8]
   14bf4:	e0213003 	eor	r3, r1, r3
   14bf8:	e0822003 	add	r2, r2, r3
   14bfc:	e51b309c 	ldr	r3, [fp, #-156]	; 0x9c
   14c00:	e1a018e3 	ror	r1, r3, #17
   14c04:	e51b309c 	ldr	r3, [fp, #-156]	; 0x9c
   14c08:	e1a039e3 	ror	r3, r3, #19
   14c0c:	e0211003 	eor	r1, r1, r3
   14c10:	e51b309c 	ldr	r3, [fp, #-156]	; 0x9c
   14c14:	e1a03523 	lsr	r3, r3, #10
   14c18:	e0211003 	eor	r1, r1, r3
   14c1c:	e51b30b0 	ldr	r3, [fp, #-176]	; 0xb0
   14c20:	e0811003 	add	r1, r1, r3
   14c24:	e51b30d0 	ldr	r3, [fp, #-208]	; 0xd0
   14c28:	e1a003e3 	ror	r0, r3, #7
   14c2c:	e51b30d0 	ldr	r3, [fp, #-208]	; 0xd0
   14c30:	e1a03963 	ror	r3, r3, #18
   14c34:	e0200003 	eor	r0, r0, r3
   14c38:	e51b30d0 	ldr	r3, [fp, #-208]	; 0xd0
   14c3c:	e1a031a3 	lsr	r3, r3, #3
   14c40:	e0203003 	eor	r3, r0, r3
   14c44:	e0811003 	add	r1, r1, r3
   14c48:	e51b30d4 	ldr	r3, [fp, #-212]	; 0xd4
   14c4c:	e0813003 	add	r3, r1, r3
   14c50:	e50b3094 	str	r3, [fp, #-148]	; 0x94
   14c54:	e51b3094 	ldr	r3, [fp, #-148]	; 0x94
   14c58:	e0822003 	add	r2, r2, r3
   14c5c:	e59f3a6c 	ldr	r3, [pc, #2668]	; 156d0 <sha2_process+0x3614>
   14c60:	e0823003 	add	r3, r2, r3
   14c64:	e50b3028 	str	r3, [fp, #-40]	; 0x28
   14c68:	e51b3010 	ldr	r3, [fp, #-16]
   14c6c:	e1a02163 	ror	r2, r3, #2
   14c70:	e51b3010 	ldr	r3, [fp, #-16]
   14c74:	e1a036e3 	ror	r3, r3, #13
   14c78:	e0222003 	eor	r2, r2, r3
   14c7c:	e51b3010 	ldr	r3, [fp, #-16]
   14c80:	e1a03b63 	ror	r3, r3, #22
   14c84:	e0222003 	eor	r2, r2, r3
   14c88:	e51b1010 	ldr	r1, [fp, #-16]
   14c8c:	e51b3014 	ldr	r3, [fp, #-20]
   14c90:	e0011003 	and	r1, r1, r3
   14c94:	e51b0010 	ldr	r0, [fp, #-16]
   14c98:	e51b3014 	ldr	r3, [fp, #-20]
   14c9c:	e1800003 	orr	r0, r0, r3
   14ca0:	e51b3018 	ldr	r3, [fp, #-24]
   14ca4:	e0003003 	and	r3, r0, r3
   14ca8:	e1813003 	orr	r3, r1, r3
   14cac:	e0823003 	add	r3, r2, r3
   14cb0:	e50b302c 	str	r3, [fp, #-44]	; 0x2c
   14cb4:	e51b201c 	ldr	r2, [fp, #-28]
   14cb8:	e51b3028 	ldr	r3, [fp, #-40]	; 0x28
   14cbc:	e0823003 	add	r3, r2, r3
   14cc0:	e50b301c 	str	r3, [fp, #-28]
   14cc4:	e51b2028 	ldr	r2, [fp, #-40]	; 0x28
   14cc8:	e51b302c 	ldr	r3, [fp, #-44]	; 0x2c
   14ccc:	e0823003 	add	r3, r2, r3
   14cd0:	e50b300c 	str	r3, [fp, #-12]
   14cd4:	e51b301c 	ldr	r3, [fp, #-28]
   14cd8:	e1a02363 	ror	r2, r3, #6
   14cdc:	e51b301c 	ldr	r3, [fp, #-28]
   14ce0:	e1a035e3 	ror	r3, r3, #11
   14ce4:	e0222003 	eor	r2, r2, r3
   14ce8:	e51b301c 	ldr	r3, [fp, #-28]
   14cec:	e1a03ce3 	ror	r3, r3, #25
   14cf0:	e0222003 	eor	r2, r2, r3
   14cf4:	e51b3008 	ldr	r3, [fp, #-8]
   14cf8:	e0822003 	add	r2, r2, r3
   14cfc:	e51b1020 	ldr	r1, [fp, #-32]
   14d00:	e51b3024 	ldr	r3, [fp, #-36]	; 0x24
   14d04:	e0211003 	eor	r1, r1, r3
   14d08:	e51b301c 	ldr	r3, [fp, #-28]
   14d0c:	e0011003 	and	r1, r1, r3
   14d10:	e51b3024 	ldr	r3, [fp, #-36]	; 0x24
   14d14:	e0213003 	eor	r3, r1, r3
   14d18:	e0822003 	add	r2, r2, r3
   14d1c:	e51b3098 	ldr	r3, [fp, #-152]	; 0x98
   14d20:	e1a018e3 	ror	r1, r3, #17
   14d24:	e51b3098 	ldr	r3, [fp, #-152]	; 0x98
   14d28:	e1a039e3 	ror	r3, r3, #19
   14d2c:	e0211003 	eor	r1, r1, r3
   14d30:	e51b3098 	ldr	r3, [fp, #-152]	; 0x98
   14d34:	e1a03523 	lsr	r3, r3, #10
   14d38:	e0211003 	eor	r1, r1, r3
   14d3c:	e51b30ac 	ldr	r3, [fp, #-172]	; 0xac
   14d40:	e0811003 	add	r1, r1, r3
   14d44:	e51b30cc 	ldr	r3, [fp, #-204]	; 0xcc
   14d48:	e1a003e3 	ror	r0, r3, #7
   14d4c:	e51b30cc 	ldr	r3, [fp, #-204]	; 0xcc
   14d50:	e1a03963 	ror	r3, r3, #18
   14d54:	e0200003 	eor	r0, r0, r3
   14d58:	e51b30cc 	ldr	r3, [fp, #-204]	; 0xcc
   14d5c:	e1a031a3 	lsr	r3, r3, #3
   14d60:	e0203003 	eor	r3, r0, r3
   14d64:	e0811003 	add	r1, r1, r3
   14d68:	e51b30d0 	ldr	r3, [fp, #-208]	; 0xd0
   14d6c:	e0813003 	add	r3, r1, r3
   14d70:	e50b3090 	str	r3, [fp, #-144]	; 0x90
   14d74:	e51b3090 	ldr	r3, [fp, #-144]	; 0x90
   14d78:	e0822003 	add	r2, r2, r3
   14d7c:	e59f3950 	ldr	r3, [pc, #2384]	; 156d4 <sha2_process+0x3618>
   14d80:	e0823003 	add	r3, r2, r3
   14d84:	e50b3028 	str	r3, [fp, #-40]	; 0x28
   14d88:	e51b300c 	ldr	r3, [fp, #-12]
   14d8c:	e1a02163 	ror	r2, r3, #2
   14d90:	e51b300c 	ldr	r3, [fp, #-12]
   14d94:	e1a036e3 	ror	r3, r3, #13
   14d98:	e0222003 	eor	r2, r2, r3
   14d9c:	e51b300c 	ldr	r3, [fp, #-12]
   14da0:	e1a03b63 	ror	r3, r3, #22
   14da4:	e0222003 	eor	r2, r2, r3
   14da8:	e51b100c 	ldr	r1, [fp, #-12]
   14dac:	e51b3010 	ldr	r3, [fp, #-16]
   14db0:	e0011003 	and	r1, r1, r3
   14db4:	e51b000c 	ldr	r0, [fp, #-12]
   14db8:	e51b3010 	ldr	r3, [fp, #-16]
   14dbc:	e1800003 	orr	r0, r0, r3
   14dc0:	e51b3014 	ldr	r3, [fp, #-20]
   14dc4:	e0003003 	and	r3, r0, r3
   14dc8:	e1813003 	orr	r3, r1, r3
   14dcc:	e0823003 	add	r3, r2, r3
   14dd0:	e50b302c 	str	r3, [fp, #-44]	; 0x2c
   14dd4:	e51b2018 	ldr	r2, [fp, #-24]
   14dd8:	e51b3028 	ldr	r3, [fp, #-40]	; 0x28
   14ddc:	e0823003 	add	r3, r2, r3
   14de0:	e50b3018 	str	r3, [fp, #-24]
   14de4:	e51b2028 	ldr	r2, [fp, #-40]	; 0x28
   14de8:	e51b302c 	ldr	r3, [fp, #-44]	; 0x2c
   14dec:	e0823003 	add	r3, r2, r3
   14df0:	e50b3008 	str	r3, [fp, #-8]
   14df4:	e51b3018 	ldr	r3, [fp, #-24]
   14df8:	e1a02363 	ror	r2, r3, #6
   14dfc:	e51b3018 	ldr	r3, [fp, #-24]
   14e00:	e1a035e3 	ror	r3, r3, #11
   14e04:	e0222003 	eor	r2, r2, r3
   14e08:	e51b3018 	ldr	r3, [fp, #-24]
   14e0c:	e1a03ce3 	ror	r3, r3, #25
   14e10:	e0222003 	eor	r2, r2, r3
   14e14:	e51b3024 	ldr	r3, [fp, #-36]	; 0x24
   14e18:	e0822003 	add	r2, r2, r3
   14e1c:	e51b101c 	ldr	r1, [fp, #-28]
   14e20:	e51b3020 	ldr	r3, [fp, #-32]
   14e24:	e0211003 	eor	r1, r1, r3
   14e28:	e51b3018 	ldr	r3, [fp, #-24]
   14e2c:	e0011003 	and	r1, r1, r3
   14e30:	e51b3020 	ldr	r3, [fp, #-32]
   14e34:	e0213003 	eor	r3, r1, r3
   14e38:	e0822003 	add	r2, r2, r3
   14e3c:	e51b3094 	ldr	r3, [fp, #-148]	; 0x94
   14e40:	e1a018e3 	ror	r1, r3, #17
   14e44:	e51b3094 	ldr	r3, [fp, #-148]	; 0x94
   14e48:	e1a039e3 	ror	r3, r3, #19
   14e4c:	e0211003 	eor	r1, r1, r3
   14e50:	e51b3094 	ldr	r3, [fp, #-148]	; 0x94
   14e54:	e1a03523 	lsr	r3, r3, #10
   14e58:	e0211003 	eor	r1, r1, r3
   14e5c:	e51b30a8 	ldr	r3, [fp, #-168]	; 0xa8
   14e60:	e0811003 	add	r1, r1, r3
   14e64:	e51b30c8 	ldr	r3, [fp, #-200]	; 0xc8
   14e68:	e1a003e3 	ror	r0, r3, #7
   14e6c:	e51b30c8 	ldr	r3, [fp, #-200]	; 0xc8
   14e70:	e1a03963 	ror	r3, r3, #18
   14e74:	e0200003 	eor	r0, r0, r3
   14e78:	e51b30c8 	ldr	r3, [fp, #-200]	; 0xc8
   14e7c:	e1a031a3 	lsr	r3, r3, #3
   14e80:	e0203003 	eor	r3, r0, r3
   14e84:	e0811003 	add	r1, r1, r3
   14e88:	e51b30cc 	ldr	r3, [fp, #-204]	; 0xcc
   14e8c:	e0813003 	add	r3, r1, r3
   14e90:	e50b308c 	str	r3, [fp, #-140]	; 0x8c
   14e94:	e51b308c 	ldr	r3, [fp, #-140]	; 0x8c
   14e98:	e0822003 	add	r2, r2, r3
   14e9c:	e59f3834 	ldr	r3, [pc, #2100]	; 156d8 <sha2_process+0x361c>
   14ea0:	e0823003 	add	r3, r2, r3
   14ea4:	e50b3028 	str	r3, [fp, #-40]	; 0x28
   14ea8:	e51b3008 	ldr	r3, [fp, #-8]
   14eac:	e1a02163 	ror	r2, r3, #2
   14eb0:	e51b3008 	ldr	r3, [fp, #-8]
   14eb4:	e1a036e3 	ror	r3, r3, #13
   14eb8:	e0222003 	eor	r2, r2, r3
   14ebc:	e51b3008 	ldr	r3, [fp, #-8]
   14ec0:	e1a03b63 	ror	r3, r3, #22
   14ec4:	e0222003 	eor	r2, r2, r3
   14ec8:	e51b1008 	ldr	r1, [fp, #-8]
   14ecc:	e51b300c 	ldr	r3, [fp, #-12]
   14ed0:	e0011003 	and	r1, r1, r3
   14ed4:	e51b0008 	ldr	r0, [fp, #-8]
   14ed8:	e51b300c 	ldr	r3, [fp, #-12]
   14edc:	e1800003 	orr	r0, r0, r3
   14ee0:	e51b3010 	ldr	r3, [fp, #-16]
   14ee4:	e0003003 	and	r3, r0, r3
   14ee8:	e1813003 	orr	r3, r1, r3
   14eec:	e0823003 	add	r3, r2, r3
   14ef0:	e50b302c 	str	r3, [fp, #-44]	; 0x2c
   14ef4:	e51b2014 	ldr	r2, [fp, #-20]
   14ef8:	e51b3028 	ldr	r3, [fp, #-40]	; 0x28
   14efc:	e0823003 	add	r3, r2, r3
   14f00:	e50b3014 	str	r3, [fp, #-20]
   14f04:	e51b2028 	ldr	r2, [fp, #-40]	; 0x28
   14f08:	e51b302c 	ldr	r3, [fp, #-44]	; 0x2c
   14f0c:	e0823003 	add	r3, r2, r3
   14f10:	e50b3024 	str	r3, [fp, #-36]	; 0x24
   14f14:	e51b3014 	ldr	r3, [fp, #-20]
   14f18:	e1a02363 	ror	r2, r3, #6
   14f1c:	e51b3014 	ldr	r3, [fp, #-20]
   14f20:	e1a035e3 	ror	r3, r3, #11
   14f24:	e0222003 	eor	r2, r2, r3
   14f28:	e51b3014 	ldr	r3, [fp, #-20]
   14f2c:	e1a03ce3 	ror	r3, r3, #25
   14f30:	e0222003 	eor	r2, r2, r3
   14f34:	e51b3020 	ldr	r3, [fp, #-32]
   14f38:	e0822003 	add	r2, r2, r3
   14f3c:	e51b1018 	ldr	r1, [fp, #-24]
   14f40:	e51b301c 	ldr	r3, [fp, #-28]
   14f44:	e0211003 	eor	r1, r1, r3
   14f48:	e51b3014 	ldr	r3, [fp, #-20]
   14f4c:	e0011003 	and	r1, r1, r3
   14f50:	e51b301c 	ldr	r3, [fp, #-28]
   14f54:	e0213003 	eor	r3, r1, r3
   14f58:	e0822003 	add	r2, r2, r3
   14f5c:	e51b3090 	ldr	r3, [fp, #-144]	; 0x90
   14f60:	e1a018e3 	ror	r1, r3, #17
   14f64:	e51b3090 	ldr	r3, [fp, #-144]	; 0x90
   14f68:	e1a039e3 	ror	r3, r3, #19
   14f6c:	e0211003 	eor	r1, r1, r3
   14f70:	e51b3090 	ldr	r3, [fp, #-144]	; 0x90
   14f74:	e1a03523 	lsr	r3, r3, #10
   14f78:	e0211003 	eor	r1, r1, r3
   14f7c:	e51b30a4 	ldr	r3, [fp, #-164]	; 0xa4
   14f80:	e0811003 	add	r1, r1, r3
   14f84:	e51b30c4 	ldr	r3, [fp, #-196]	; 0xc4
   14f88:	e1a003e3 	ror	r0, r3, #7
   14f8c:	e51b30c4 	ldr	r3, [fp, #-196]	; 0xc4
   14f90:	e1a03963 	ror	r3, r3, #18
   14f94:	e0200003 	eor	r0, r0, r3
   14f98:	e51b30c4 	ldr	r3, [fp, #-196]	; 0xc4
   14f9c:	e1a031a3 	lsr	r3, r3, #3
   14fa0:	e0203003 	eor	r3, r0, r3
   14fa4:	e0811003 	add	r1, r1, r3
   14fa8:	e51b30c8 	ldr	r3, [fp, #-200]	; 0xc8
   14fac:	e0813003 	add	r3, r1, r3
   14fb0:	e50b3088 	str	r3, [fp, #-136]	; 0x88
   14fb4:	e51b3088 	ldr	r3, [fp, #-136]	; 0x88
   14fb8:	e0822003 	add	r2, r2, r3
   14fbc:	e59f3718 	ldr	r3, [pc, #1816]	; 156dc <sha2_process+0x3620>
   14fc0:	e0823003 	add	r3, r2, r3
   14fc4:	e50b3028 	str	r3, [fp, #-40]	; 0x28
   14fc8:	e51b3024 	ldr	r3, [fp, #-36]	; 0x24
   14fcc:	e1a02163 	ror	r2, r3, #2
   14fd0:	e51b3024 	ldr	r3, [fp, #-36]	; 0x24
   14fd4:	e1a036e3 	ror	r3, r3, #13
   14fd8:	e0222003 	eor	r2, r2, r3
   14fdc:	e51b3024 	ldr	r3, [fp, #-36]	; 0x24
   14fe0:	e1a03b63 	ror	r3, r3, #22
   14fe4:	e0222003 	eor	r2, r2, r3
   14fe8:	e51b1024 	ldr	r1, [fp, #-36]	; 0x24
   14fec:	e51b3008 	ldr	r3, [fp, #-8]
   14ff0:	e0011003 	and	r1, r1, r3
   14ff4:	e51b0024 	ldr	r0, [fp, #-36]	; 0x24
   14ff8:	e51b3008 	ldr	r3, [fp, #-8]
   14ffc:	e1800003 	orr	r0, r0, r3
   15000:	e51b300c 	ldr	r3, [fp, #-12]
   15004:	e0003003 	and	r3, r0, r3
   15008:	e1813003 	orr	r3, r1, r3
   1500c:	e0823003 	add	r3, r2, r3
   15010:	e50b302c 	str	r3, [fp, #-44]	; 0x2c
   15014:	e51b2010 	ldr	r2, [fp, #-16]
   15018:	e51b3028 	ldr	r3, [fp, #-40]	; 0x28
   1501c:	e0823003 	add	r3, r2, r3
   15020:	e50b3010 	str	r3, [fp, #-16]
   15024:	e51b2028 	ldr	r2, [fp, #-40]	; 0x28
   15028:	e51b302c 	ldr	r3, [fp, #-44]	; 0x2c
   1502c:	e0823003 	add	r3, r2, r3
   15030:	e50b3020 	str	r3, [fp, #-32]
   15034:	e51b3010 	ldr	r3, [fp, #-16]
   15038:	e1a02363 	ror	r2, r3, #6
   1503c:	e51b3010 	ldr	r3, [fp, #-16]
   15040:	e1a035e3 	ror	r3, r3, #11
   15044:	e0222003 	eor	r2, r2, r3
   15048:	e51b3010 	ldr	r3, [fp, #-16]
   1504c:	e1a03ce3 	ror	r3, r3, #25
   15050:	e0222003 	eor	r2, r2, r3
   15054:	e51b301c 	ldr	r3, [fp, #-28]
   15058:	e0822003 	add	r2, r2, r3
   1505c:	e51b1014 	ldr	r1, [fp, #-20]
   15060:	e51b3018 	ldr	r3, [fp, #-24]
   15064:	e0211003 	eor	r1, r1, r3
   15068:	e51b3010 	ldr	r3, [fp, #-16]
   1506c:	e0011003 	and	r1, r1, r3
   15070:	e51b3018 	ldr	r3, [fp, #-24]
   15074:	e0213003 	eor	r3, r1, r3
   15078:	e0822003 	add	r2, r2, r3
   1507c:	e51b308c 	ldr	r3, [fp, #-140]	; 0x8c
   15080:	e1a018e3 	ror	r1, r3, #17
   15084:	e51b308c 	ldr	r3, [fp, #-140]	; 0x8c
   15088:	e1a039e3 	ror	r3, r3, #19
   1508c:	e0211003 	eor	r1, r1, r3
   15090:	e51b308c 	ldr	r3, [fp, #-140]	; 0x8c
   15094:	e1a03523 	lsr	r3, r3, #10
   15098:	e0211003 	eor	r1, r1, r3
   1509c:	e51b30a0 	ldr	r3, [fp, #-160]	; 0xa0
   150a0:	e0811003 	add	r1, r1, r3
   150a4:	e51b30c0 	ldr	r3, [fp, #-192]	; 0xc0
   150a8:	e1a003e3 	ror	r0, r3, #7
   150ac:	e51b30c0 	ldr	r3, [fp, #-192]	; 0xc0
   150b0:	e1a03963 	ror	r3, r3, #18
   150b4:	e0200003 	eor	r0, r0, r3
   150b8:	e51b30c0 	ldr	r3, [fp, #-192]	; 0xc0
   150bc:	e1a031a3 	lsr	r3, r3, #3
   150c0:	e0203003 	eor	r3, r0, r3
   150c4:	e0811003 	add	r1, r1, r3
   150c8:	e51b30c4 	ldr	r3, [fp, #-196]	; 0xc4
   150cc:	e0813003 	add	r3, r1, r3
   150d0:	e50b3084 	str	r3, [fp, #-132]	; 0x84
   150d4:	e51b3084 	ldr	r3, [fp, #-132]	; 0x84
   150d8:	e0822003 	add	r2, r2, r3
   150dc:	e59f35fc 	ldr	r3, [pc, #1532]	; 156e0 <sha2_process+0x3624>
   150e0:	e0823003 	add	r3, r2, r3
   150e4:	e50b3028 	str	r3, [fp, #-40]	; 0x28
   150e8:	e51b3020 	ldr	r3, [fp, #-32]
   150ec:	e1a02163 	ror	r2, r3, #2
   150f0:	e51b3020 	ldr	r3, [fp, #-32]
   150f4:	e1a036e3 	ror	r3, r3, #13
   150f8:	e0222003 	eor	r2, r2, r3
   150fc:	e51b3020 	ldr	r3, [fp, #-32]
   15100:	e1a03b63 	ror	r3, r3, #22
   15104:	e0222003 	eor	r2, r2, r3
   15108:	e51b1020 	ldr	r1, [fp, #-32]
   1510c:	e51b3024 	ldr	r3, [fp, #-36]	; 0x24
   15110:	e0011003 	and	r1, r1, r3
   15114:	e51b0020 	ldr	r0, [fp, #-32]
   15118:	e51b3024 	ldr	r3, [fp, #-36]	; 0x24
   1511c:	e1800003 	orr	r0, r0, r3
   15120:	e51b3008 	ldr	r3, [fp, #-8]
   15124:	e0003003 	and	r3, r0, r3
   15128:	e1813003 	orr	r3, r1, r3
   1512c:	e0823003 	add	r3, r2, r3
   15130:	e50b302c 	str	r3, [fp, #-44]	; 0x2c
   15134:	e51b200c 	ldr	r2, [fp, #-12]
   15138:	e51b3028 	ldr	r3, [fp, #-40]	; 0x28
   1513c:	e0823003 	add	r3, r2, r3
   15140:	e50b300c 	str	r3, [fp, #-12]
   15144:	e51b2028 	ldr	r2, [fp, #-40]	; 0x28
   15148:	e51b302c 	ldr	r3, [fp, #-44]	; 0x2c
   1514c:	e0823003 	add	r3, r2, r3
   15150:	e50b301c 	str	r3, [fp, #-28]
   15154:	e51b300c 	ldr	r3, [fp, #-12]
   15158:	e1a02363 	ror	r2, r3, #6
   1515c:	e51b300c 	ldr	r3, [fp, #-12]
   15160:	e1a035e3 	ror	r3, r3, #11
   15164:	e0222003 	eor	r2, r2, r3
   15168:	e51b300c 	ldr	r3, [fp, #-12]
   1516c:	e1a03ce3 	ror	r3, r3, #25
   15170:	e0222003 	eor	r2, r2, r3
   15174:	e51b3018 	ldr	r3, [fp, #-24]
   15178:	e0822003 	add	r2, r2, r3
   1517c:	e51b1010 	ldr	r1, [fp, #-16]
   15180:	e51b3014 	ldr	r3, [fp, #-20]
   15184:	e0211003 	eor	r1, r1, r3
   15188:	e51b300c 	ldr	r3, [fp, #-12]
   1518c:	e0011003 	and	r1, r1, r3
   15190:	e51b3014 	ldr	r3, [fp, #-20]
   15194:	e0213003 	eor	r3, r1, r3
   15198:	e0822003 	add	r2, r2, r3
   1519c:	e51b3088 	ldr	r3, [fp, #-136]	; 0x88
   151a0:	e1a018e3 	ror	r1, r3, #17
   151a4:	e51b3088 	ldr	r3, [fp, #-136]	; 0x88
   151a8:	e1a039e3 	ror	r3, r3, #19
   151ac:	e0211003 	eor	r1, r1, r3
   151b0:	e51b3088 	ldr	r3, [fp, #-136]	; 0x88
   151b4:	e1a03523 	lsr	r3, r3, #10
   151b8:	e0211003 	eor	r1, r1, r3
   151bc:	e51b309c 	ldr	r3, [fp, #-156]	; 0x9c
   151c0:	e0811003 	add	r1, r1, r3
   151c4:	e51b30bc 	ldr	r3, [fp, #-188]	; 0xbc
   151c8:	e1a003e3 	ror	r0, r3, #7
   151cc:	e51b30bc 	ldr	r3, [fp, #-188]	; 0xbc
   151d0:	e1a03963 	ror	r3, r3, #18
   151d4:	e0200003 	eor	r0, r0, r3
   151d8:	e51b30bc 	ldr	r3, [fp, #-188]	; 0xbc
   151dc:	e1a031a3 	lsr	r3, r3, #3
   151e0:	e0203003 	eor	r3, r0, r3
   151e4:	e0811003 	add	r1, r1, r3
   151e8:	e51b30c0 	ldr	r3, [fp, #-192]	; 0xc0
   151ec:	e0813003 	add	r3, r1, r3
   151f0:	e50b3080 	str	r3, [fp, #-128]	; 0x80
   151f4:	e51b3080 	ldr	r3, [fp, #-128]	; 0x80
   151f8:	e0822003 	add	r2, r2, r3
   151fc:	e59f34e0 	ldr	r3, [pc, #1248]	; 156e4 <sha2_process+0x3628>
   15200:	e0823003 	add	r3, r2, r3
   15204:	e50b3028 	str	r3, [fp, #-40]	; 0x28
   15208:	e51b301c 	ldr	r3, [fp, #-28]
   1520c:	e1a02163 	ror	r2, r3, #2
   15210:	e51b301c 	ldr	r3, [fp, #-28]
   15214:	e1a036e3 	ror	r3, r3, #13
   15218:	e0222003 	eor	r2, r2, r3
   1521c:	e51b301c 	ldr	r3, [fp, #-28]
   15220:	e1a03b63 	ror	r3, r3, #22
   15224:	e0222003 	eor	r2, r2, r3
   15228:	e51b101c 	ldr	r1, [fp, #-28]
   1522c:	e51b3020 	ldr	r3, [fp, #-32]
   15230:	e0011003 	and	r1, r1, r3
   15234:	e51b001c 	ldr	r0, [fp, #-28]
   15238:	e51b3020 	ldr	r3, [fp, #-32]
   1523c:	e1800003 	orr	r0, r0, r3
   15240:	e51b3024 	ldr	r3, [fp, #-36]	; 0x24
   15244:	e0003003 	and	r3, r0, r3
   15248:	e1813003 	orr	r3, r1, r3
   1524c:	e0823003 	add	r3, r2, r3
   15250:	e50b302c 	str	r3, [fp, #-44]	; 0x2c
   15254:	e51b2008 	ldr	r2, [fp, #-8]
   15258:	e51b3028 	ldr	r3, [fp, #-40]	; 0x28
   1525c:	e0823003 	add	r3, r2, r3
   15260:	e50b3008 	str	r3, [fp, #-8]
   15264:	e51b2028 	ldr	r2, [fp, #-40]	; 0x28
   15268:	e51b302c 	ldr	r3, [fp, #-44]	; 0x2c
   1526c:	e0823003 	add	r3, r2, r3
   15270:	e50b3018 	str	r3, [fp, #-24]
   15274:	e51b3008 	ldr	r3, [fp, #-8]
   15278:	e1a02363 	ror	r2, r3, #6
   1527c:	e51b3008 	ldr	r3, [fp, #-8]
   15280:	e1a035e3 	ror	r3, r3, #11
   15284:	e0222003 	eor	r2, r2, r3
   15288:	e51b3008 	ldr	r3, [fp, #-8]
   1528c:	e1a03ce3 	ror	r3, r3, #25
   15290:	e0222003 	eor	r2, r2, r3
   15294:	e51b3014 	ldr	r3, [fp, #-20]
   15298:	e0822003 	add	r2, r2, r3
   1529c:	e51b100c 	ldr	r1, [fp, #-12]
   152a0:	e51b3010 	ldr	r3, [fp, #-16]
   152a4:	e0211003 	eor	r1, r1, r3
   152a8:	e51b3008 	ldr	r3, [fp, #-8]
   152ac:	e0011003 	and	r1, r1, r3
   152b0:	e51b3010 	ldr	r3, [fp, #-16]
   152b4:	e0213003 	eor	r3, r1, r3
   152b8:	e0822003 	add	r2, r2, r3
   152bc:	e51b3084 	ldr	r3, [fp, #-132]	; 0x84
   152c0:	e1a018e3 	ror	r1, r3, #17
   152c4:	e51b3084 	ldr	r3, [fp, #-132]	; 0x84
   152c8:	e1a039e3 	ror	r3, r3, #19
   152cc:	e0211003 	eor	r1, r1, r3
   152d0:	e51b3084 	ldr	r3, [fp, #-132]	; 0x84
   152d4:	e1a03523 	lsr	r3, r3, #10
   152d8:	e0211003 	eor	r1, r1, r3
   152dc:	e51b3098 	ldr	r3, [fp, #-152]	; 0x98
   152e0:	e0811003 	add	r1, r1, r3
   152e4:	e51b30b8 	ldr	r3, [fp, #-184]	; 0xb8
   152e8:	e1a003e3 	ror	r0, r3, #7
   152ec:	e51b30b8 	ldr	r3, [fp, #-184]	; 0xb8
   152f0:	e1a03963 	ror	r3, r3, #18
   152f4:	e0200003 	eor	r0, r0, r3
   152f8:	e51b30b8 	ldr	r3, [fp, #-184]	; 0xb8
   152fc:	e1a031a3 	lsr	r3, r3, #3
   15300:	e0203003 	eor	r3, r0, r3
   15304:	e0811003 	add	r1, r1, r3
   15308:	e51b30bc 	ldr	r3, [fp, #-188]	; 0xbc
   1530c:	e0813003 	add	r3, r1, r3
   15310:	e50b307c 	str	r3, [fp, #-124]	; 0x7c
   15314:	e51b307c 	ldr	r3, [fp, #-124]	; 0x7c
   15318:	e0822003 	add	r2, r2, r3
   1531c:	e59f33c4 	ldr	r3, [pc, #964]	; 156e8 <sha2_process+0x362c>
   15320:	e0823003 	add	r3, r2, r3
   15324:	e50b3028 	str	r3, [fp, #-40]	; 0x28
   15328:	e51b3018 	ldr	r3, [fp, #-24]
   1532c:	e1a02163 	ror	r2, r3, #2
   15330:	e51b3018 	ldr	r3, [fp, #-24]
   15334:	e1a036e3 	ror	r3, r3, #13
   15338:	e0222003 	eor	r2, r2, r3
   1533c:	e51b3018 	ldr	r3, [fp, #-24]
   15340:	e1a03b63 	ror	r3, r3, #22
   15344:	e0222003 	eor	r2, r2, r3
   15348:	e51b1018 	ldr	r1, [fp, #-24]
   1534c:	e51b301c 	ldr	r3, [fp, #-28]
   15350:	e0011003 	and	r1, r1, r3
   15354:	e51b0018 	ldr	r0, [fp, #-24]
   15358:	e51b301c 	ldr	r3, [fp, #-28]
   1535c:	e1800003 	orr	r0, r0, r3
   15360:	e51b3020 	ldr	r3, [fp, #-32]
   15364:	e0003003 	and	r3, r0, r3
   15368:	e1813003 	orr	r3, r1, r3
   1536c:	e0823003 	add	r3, r2, r3
   15370:	e50b302c 	str	r3, [fp, #-44]	; 0x2c
   15374:	e51b2024 	ldr	r2, [fp, #-36]	; 0x24
   15378:	e51b3028 	ldr	r3, [fp, #-40]	; 0x28
   1537c:	e0823003 	add	r3, r2, r3
   15380:	e50b3024 	str	r3, [fp, #-36]	; 0x24
   15384:	e51b2028 	ldr	r2, [fp, #-40]	; 0x28
   15388:	e51b302c 	ldr	r3, [fp, #-44]	; 0x2c
   1538c:	e0823003 	add	r3, r2, r3
   15390:	e50b3014 	str	r3, [fp, #-20]
   15394:	e51b3024 	ldr	r3, [fp, #-36]	; 0x24
   15398:	e1a02363 	ror	r2, r3, #6
   1539c:	e51b3024 	ldr	r3, [fp, #-36]	; 0x24
   153a0:	e1a035e3 	ror	r3, r3, #11
   153a4:	e0222003 	eor	r2, r2, r3
   153a8:	e51b3024 	ldr	r3, [fp, #-36]	; 0x24
   153ac:	e1a03ce3 	ror	r3, r3, #25
   153b0:	e0222003 	eor	r2, r2, r3
   153b4:	e51b3010 	ldr	r3, [fp, #-16]
   153b8:	e0822003 	add	r2, r2, r3
   153bc:	e51b1008 	ldr	r1, [fp, #-8]
   153c0:	e51b300c 	ldr	r3, [fp, #-12]
   153c4:	e0211003 	eor	r1, r1, r3
   153c8:	e51b3024 	ldr	r3, [fp, #-36]	; 0x24
   153cc:	e0011003 	and	r1, r1, r3
   153d0:	e51b300c 	ldr	r3, [fp, #-12]
   153d4:	e0213003 	eor	r3, r1, r3
   153d8:	e0822003 	add	r2, r2, r3
   153dc:	e51b3080 	ldr	r3, [fp, #-128]	; 0x80
   153e0:	e1a018e3 	ror	r1, r3, #17
   153e4:	e51b3080 	ldr	r3, [fp, #-128]	; 0x80
   153e8:	e1a039e3 	ror	r3, r3, #19
   153ec:	e0211003 	eor	r1, r1, r3
   153f0:	e51b3080 	ldr	r3, [fp, #-128]	; 0x80
   153f4:	e1a03523 	lsr	r3, r3, #10
   153f8:	e0211003 	eor	r1, r1, r3
   153fc:	e51b3094 	ldr	r3, [fp, #-148]	; 0x94
   15400:	e0811003 	add	r1, r1, r3
   15404:	e51b30b4 	ldr	r3, [fp, #-180]	; 0xb4
   15408:	e1a003e3 	ror	r0, r3, #7
   1540c:	e51b30b4 	ldr	r3, [fp, #-180]	; 0xb4
   15410:	e1a03963 	ror	r3, r3, #18
   15414:	e0200003 	eor	r0, r0, r3
   15418:	e51b30b4 	ldr	r3, [fp, #-180]	; 0xb4
   1541c:	e1a031a3 	lsr	r3, r3, #3
   15420:	e0203003 	eor	r3, r0, r3
   15424:	e0811003 	add	r1, r1, r3
   15428:	e51b30b8 	ldr	r3, [fp, #-184]	; 0xb8
   1542c:	e0813003 	add	r3, r1, r3
   15430:	e50b3078 	str	r3, [fp, #-120]	; 0x78
   15434:	e51b3078 	ldr	r3, [fp, #-120]	; 0x78
   15438:	e0822003 	add	r2, r2, r3
   1543c:	e59f32a8 	ldr	r3, [pc, #680]	; 156ec <sha2_process+0x3630>
   15440:	e0823003 	add	r3, r2, r3
   15444:	e50b3028 	str	r3, [fp, #-40]	; 0x28
   15448:	e51b3014 	ldr	r3, [fp, #-20]
   1544c:	e1a02163 	ror	r2, r3, #2
   15450:	e51b3014 	ldr	r3, [fp, #-20]
   15454:	e1a036e3 	ror	r3, r3, #13
   15458:	e0222003 	eor	r2, r2, r3
   1545c:	e51b3014 	ldr	r3, [fp, #-20]
   15460:	e1a03b63 	ror	r3, r3, #22
   15464:	e0222003 	eor	r2, r2, r3
   15468:	e51b1014 	ldr	r1, [fp, #-20]
   1546c:	e51b3018 	ldr	r3, [fp, #-24]
   15470:	e0011003 	and	r1, r1, r3
   15474:	e51b0014 	ldr	r0, [fp, #-20]
   15478:	e51b3018 	ldr	r3, [fp, #-24]
   1547c:	e1800003 	orr	r0, r0, r3
   15480:	e51b301c 	ldr	r3, [fp, #-28]
   15484:	e0003003 	and	r3, r0, r3
   15488:	e1813003 	orr	r3, r1, r3
   1548c:	e0823003 	add	r3, r2, r3
   15490:	e50b302c 	str	r3, [fp, #-44]	; 0x2c
   15494:	e51b2020 	ldr	r2, [fp, #-32]
   15498:	e51b3028 	ldr	r3, [fp, #-40]	; 0x28
   1549c:	e0823003 	add	r3, r2, r3
   154a0:	e50b3020 	str	r3, [fp, #-32]
   154a4:	e51b2028 	ldr	r2, [fp, #-40]	; 0x28
   154a8:	e51b302c 	ldr	r3, [fp, #-44]	; 0x2c
   154ac:	e0823003 	add	r3, r2, r3
   154b0:	e50b3010 	str	r3, [fp, #-16]
   154b4:	e51b3020 	ldr	r3, [fp, #-32]
   154b8:	e1a02363 	ror	r2, r3, #6
   154bc:	e51b3020 	ldr	r3, [fp, #-32]
   154c0:	e1a035e3 	ror	r3, r3, #11
   154c4:	e0222003 	eor	r2, r2, r3
   154c8:	e51b3020 	ldr	r3, [fp, #-32]
   154cc:	e1a03ce3 	ror	r3, r3, #25
   154d0:	e0222003 	eor	r2, r2, r3
   154d4:	e51b300c 	ldr	r3, [fp, #-12]
   154d8:	e0822003 	add	r2, r2, r3
   154dc:	e51b1024 	ldr	r1, [fp, #-36]	; 0x24
   154e0:	e51b3008 	ldr	r3, [fp, #-8]
   154e4:	e0211003 	eor	r1, r1, r3
   154e8:	e51b3020 	ldr	r3, [fp, #-32]
   154ec:	e0011003 	and	r1, r1, r3
   154f0:	e51b3008 	ldr	r3, [fp, #-8]
   154f4:	e0213003 	eor	r3, r1, r3
   154f8:	e0822003 	add	r2, r2, r3
   154fc:	e51b307c 	ldr	r3, [fp, #-124]	; 0x7c
   15500:	e1a018e3 	ror	r1, r3, #17
   15504:	e51b307c 	ldr	r3, [fp, #-124]	; 0x7c
   15508:	e1a039e3 	ror	r3, r3, #19
   1550c:	e0211003 	eor	r1, r1, r3
   15510:	e51b307c 	ldr	r3, [fp, #-124]	; 0x7c
   15514:	e1a03523 	lsr	r3, r3, #10
   15518:	e0211003 	eor	r1, r1, r3
   1551c:	e51b3090 	ldr	r3, [fp, #-144]	; 0x90
   15520:	e0811003 	add	r1, r1, r3
   15524:	e51b30b0 	ldr	r3, [fp, #-176]	; 0xb0
   15528:	e1a003e3 	ror	r0, r3, #7
   1552c:	e51b30b0 	ldr	r3, [fp, #-176]	; 0xb0
   15530:	e1a03963 	ror	r3, r3, #18
   15534:	e0200003 	eor	r0, r0, r3
   15538:	e51b30b0 	ldr	r3, [fp, #-176]	; 0xb0
   1553c:	e1a031a3 	lsr	r3, r3, #3
   15540:	e0203003 	eor	r3, r0, r3
   15544:	e0811003 	add	r1, r1, r3
   15548:	e51b30b4 	ldr	r3, [fp, #-180]	; 0xb4
   1554c:	e0813003 	add	r3, r1, r3
   15550:	e50b3074 	str	r3, [fp, #-116]	; 0x74
   15554:	e51b3074 	ldr	r3, [fp, #-116]	; 0x74
   15558:	e0822003 	add	r2, r2, r3
   1555c:	e59f318c 	ldr	r3, [pc, #396]	; 156f0 <sha2_process+0x3634>
   15560:	e0823003 	add	r3, r2, r3
   15564:	e50b3028 	str	r3, [fp, #-40]	; 0x28
   15568:	e51b3010 	ldr	r3, [fp, #-16]
   1556c:	e1a02163 	ror	r2, r3, #2
   15570:	e51b3010 	ldr	r3, [fp, #-16]
   15574:	e1a036e3 	ror	r3, r3, #13
   15578:	e0222003 	eor	r2, r2, r3
   1557c:	e51b3010 	ldr	r3, [fp, #-16]
   15580:	e1a03b63 	ror	r3, r3, #22
   15584:	e0222003 	eor	r2, r2, r3
   15588:	e51b1010 	ldr	r1, [fp, #-16]
   1558c:	e51b3014 	ldr	r3, [fp, #-20]
   15590:	e0011003 	and	r1, r1, r3
   15594:	e51b0010 	ldr	r0, [fp, #-16]
   15598:	e51b3014 	ldr	r3, [fp, #-20]
   1559c:	e1800003 	orr	r0, r0, r3
   155a0:	e51b3018 	ldr	r3, [fp, #-24]
   155a4:	e0003003 	and	r3, r0, r3
   155a8:	e1813003 	orr	r3, r1, r3
   155ac:	e0823003 	add	r3, r2, r3
   155b0:	e50b302c 	str	r3, [fp, #-44]	; 0x2c
   155b4:	e51b201c 	ldr	r2, [fp, #-28]
   155b8:	e51b3028 	ldr	r3, [fp, #-40]	; 0x28
   155bc:	e0823003 	add	r3, r2, r3
   155c0:	e50b301c 	str	r3, [fp, #-28]
   155c4:	e51b2028 	ldr	r2, [fp, #-40]	; 0x28
   155c8:	e51b302c 	ldr	r3, [fp, #-44]	; 0x2c
   155cc:	e0823003 	add	r3, r2, r3
   155d0:	e50b300c 	str	r3, [fp, #-12]
   155d4:	e51b301c 	ldr	r3, [fp, #-28]
   155d8:	e1a02363 	ror	r2, r3, #6
   155dc:	e51b301c 	ldr	r3, [fp, #-28]
   155e0:	e1a035e3 	ror	r3, r3, #11
   155e4:	e0222003 	eor	r2, r2, r3
   155e8:	e51b301c 	ldr	r3, [fp, #-28]
   155ec:	e1a03ce3 	ror	r3, r3, #25
   155f0:	e0222003 	eor	r2, r2, r3
   155f4:	e51b3008 	ldr	r3, [fp, #-8]
   155f8:	e0822003 	add	r2, r2, r3
   155fc:	e51b1020 	ldr	r1, [fp, #-32]
   15600:	e51b3024 	ldr	r3, [fp, #-36]	; 0x24
   15604:	e0211003 	eor	r1, r1, r3
   15608:	e51b301c 	ldr	r3, [fp, #-28]
   1560c:	e0011003 	and	r1, r1, r3
   15610:	e51b3024 	ldr	r3, [fp, #-36]	; 0x24
   15614:	e0213003 	eor	r3, r1, r3
   15618:	e0822003 	add	r2, r2, r3
   1561c:	e51b3078 	ldr	r3, [fp, #-120]	; 0x78
   15620:	e1a018e3 	ror	r1, r3, #17
   15624:	e51b3078 	ldr	r3, [fp, #-120]	; 0x78
   15628:	e1a039e3 	ror	r3, r3, #19
   1562c:	e0211003 	eor	r1, r1, r3
   15630:	e51b3078 	ldr	r3, [fp, #-120]	; 0x78
   15634:	e1a03523 	lsr	r3, r3, #10
   15638:	e0211003 	eor	r1, r1, r3
   1563c:	e51b308c 	ldr	r3, [fp, #-140]	; 0x8c
   15640:	e0811003 	add	r1, r1, r3
   15644:	e51b30ac 	ldr	r3, [fp, #-172]	; 0xac
   15648:	e1a003e3 	ror	r0, r3, #7
   1564c:	e51b30ac 	ldr	r3, [fp, #-172]	; 0xac
   15650:	e1a03963 	ror	r3, r3, #18
   15654:	e0200003 	eor	r0, r0, r3
   15658:	e51b30ac 	ldr	r3, [fp, #-172]	; 0xac
   1565c:	e1a031a3 	lsr	r3, r3, #3
   15660:	e0203003 	eor	r3, r0, r3
   15664:	e0811003 	add	r1, r1, r3
   15668:	e51b30b0 	ldr	r3, [fp, #-176]	; 0xb0
   1566c:	e0813003 	add	r3, r1, r3
   15670:	e50b3070 	str	r3, [fp, #-112]	; 0x70
   15674:	e51b3070 	ldr	r3, [fp, #-112]	; 0x70
   15678:	e0822003 	add	r2, r2, r3
   1567c:	e59f3070 	ldr	r3, [pc, #112]	; 156f4 <sha2_process+0x3638>
   15680:	e0823003 	add	r3, r2, r3
   15684:	e50b3028 	str	r3, [fp, #-40]	; 0x28
   15688:	e51b300c 	ldr	r3, [fp, #-12]
   1568c:	e1a02163 	ror	r2, r3, #2
   15690:	e51b300c 	ldr	r3, [fp, #-12]
   15694:	e1a036e3 	ror	r3, r3, #13
   15698:	e0222003 	eor	r2, r2, r3
   1569c:	e51b300c 	ldr	r3, [fp, #-12]
   156a0:	e1a03b63 	ror	r3, r3, #22
   156a4:	e0222003 	eor	r2, r2, r3
   156a8:	e51b100c 	ldr	r1, [fp, #-12]
   156ac:	e51b3010 	ldr	r3, [fp, #-16]
   156b0:	e0011003 	and	r1, r1, r3
   156b4:	e51b000c 	ldr	r0, [fp, #-12]
   156b8:	ea00001c 	b	15730 <sha2_process+0x3674>
   156bc:	2e1b2138 	.word	0x2e1b2138
   156c0:	4d2c6dfc 	.word	0x4d2c6dfc
   156c4:	53380d13 	.word	0x53380d13
   156c8:	650a7354 	.word	0x650a7354
   156cc:	766a0abb 	.word	0x766a0abb
   156d0:	81c2c92e 	.word	0x81c2c92e
   156d4:	92722c85 	.word	0x92722c85
   156d8:	a2bfe8a1 	.word	0xa2bfe8a1
   156dc:	a81a664b 	.word	0xa81a664b
   156e0:	c24b8b70 	.word	0xc24b8b70
   156e4:	c76c51a3 	.word	0xc76c51a3
   156e8:	d192e819 	.word	0xd192e819
   156ec:	d6990624 	.word	0xd6990624
   156f0:	f40e3585 	.word	0xf40e3585
   156f4:	106aa070 	.word	0x106aa070
   156f8:	19a4c116 	.word	0x19a4c116
   156fc:	1e376c08 	.word	0x1e376c08
   15700:	2748774c 	.word	0x2748774c
   15704:	34b0bcb5 	.word	0x34b0bcb5
   15708:	391c0cb3 	.word	0x391c0cb3
   1570c:	4ed8aa4a 	.word	0x4ed8aa4a
   15710:	5b9cca4f 	.word	0x5b9cca4f
   15714:	682e6ff3 	.word	0x682e6ff3
   15718:	748f82ee 	.word	0x748f82ee
   1571c:	78a5636f 	.word	0x78a5636f
   15720:	84c87814 	.word	0x84c87814
   15724:	8cc70208 	.word	0x8cc70208
   15728:	90befffa 	.word	0x90befffa
   1572c:	a4506ceb 	.word	0xa4506ceb
   15730:	e51b3010 	ldr	r3, [fp, #-16]
   15734:	e1800003 	orr	r0, r0, r3
   15738:	e51b3014 	ldr	r3, [fp, #-20]
   1573c:	e0003003 	and	r3, r0, r3
   15740:	e1813003 	orr	r3, r1, r3
   15744:	e0823003 	add	r3, r2, r3
   15748:	e50b302c 	str	r3, [fp, #-44]	; 0x2c
   1574c:	e51b2018 	ldr	r2, [fp, #-24]
   15750:	e51b3028 	ldr	r3, [fp, #-40]	; 0x28
   15754:	e0823003 	add	r3, r2, r3
   15758:	e50b3018 	str	r3, [fp, #-24]
   1575c:	e51b2028 	ldr	r2, [fp, #-40]	; 0x28
   15760:	e51b302c 	ldr	r3, [fp, #-44]	; 0x2c
   15764:	e0823003 	add	r3, r2, r3
   15768:	e50b3008 	str	r3, [fp, #-8]
   1576c:	e51b3018 	ldr	r3, [fp, #-24]
   15770:	e1a02363 	ror	r2, r3, #6
   15774:	e51b3018 	ldr	r3, [fp, #-24]
   15778:	e1a035e3 	ror	r3, r3, #11
   1577c:	e0222003 	eor	r2, r2, r3
   15780:	e51b3018 	ldr	r3, [fp, #-24]
   15784:	e1a03ce3 	ror	r3, r3, #25
   15788:	e0222003 	eor	r2, r2, r3
   1578c:	e51b3024 	ldr	r3, [fp, #-36]	; 0x24
   15790:	e0822003 	add	r2, r2, r3
   15794:	e51b101c 	ldr	r1, [fp, #-28]
   15798:	e51b3020 	ldr	r3, [fp, #-32]
   1579c:	e0211003 	eor	r1, r1, r3
   157a0:	e51b3018 	ldr	r3, [fp, #-24]
   157a4:	e0011003 	and	r1, r1, r3
   157a8:	e51b3020 	ldr	r3, [fp, #-32]
   157ac:	e0213003 	eor	r3, r1, r3
   157b0:	e0822003 	add	r2, r2, r3
   157b4:	e51b3074 	ldr	r3, [fp, #-116]	; 0x74
   157b8:	e1a018e3 	ror	r1, r3, #17
   157bc:	e51b3074 	ldr	r3, [fp, #-116]	; 0x74
   157c0:	e1a039e3 	ror	r3, r3, #19
   157c4:	e0211003 	eor	r1, r1, r3
   157c8:	e51b3074 	ldr	r3, [fp, #-116]	; 0x74
   157cc:	e1a03523 	lsr	r3, r3, #10
   157d0:	e0211003 	eor	r1, r1, r3
   157d4:	e51b3088 	ldr	r3, [fp, #-136]	; 0x88
   157d8:	e0811003 	add	r1, r1, r3
   157dc:	e51b30a8 	ldr	r3, [fp, #-168]	; 0xa8
   157e0:	e1a003e3 	ror	r0, r3, #7
   157e4:	e51b30a8 	ldr	r3, [fp, #-168]	; 0xa8
   157e8:	e1a03963 	ror	r3, r3, #18
   157ec:	e0200003 	eor	r0, r0, r3
   157f0:	e51b30a8 	ldr	r3, [fp, #-168]	; 0xa8
   157f4:	e1a031a3 	lsr	r3, r3, #3
   157f8:	e0203003 	eor	r3, r0, r3
   157fc:	e0811003 	add	r1, r1, r3
   15800:	e51b30ac 	ldr	r3, [fp, #-172]	; 0xac
   15804:	e0813003 	add	r3, r1, r3
   15808:	e50b306c 	str	r3, [fp, #-108]	; 0x6c
   1580c:	e51b306c 	ldr	r3, [fp, #-108]	; 0x6c
   15810:	e0822003 	add	r2, r2, r3
   15814:	e51f3124 	ldr	r3, [pc, #-292]	; 156f8 <sha2_process+0x363c>
   15818:	e0823003 	add	r3, r2, r3
   1581c:	e50b3028 	str	r3, [fp, #-40]	; 0x28
   15820:	e51b3008 	ldr	r3, [fp, #-8]
   15824:	e1a02163 	ror	r2, r3, #2
   15828:	e51b3008 	ldr	r3, [fp, #-8]
   1582c:	e1a036e3 	ror	r3, r3, #13
   15830:	e0222003 	eor	r2, r2, r3
   15834:	e51b3008 	ldr	r3, [fp, #-8]
   15838:	e1a03b63 	ror	r3, r3, #22
   1583c:	e0222003 	eor	r2, r2, r3
   15840:	e51b1008 	ldr	r1, [fp, #-8]
   15844:	e51b300c 	ldr	r3, [fp, #-12]
   15848:	e0011003 	and	r1, r1, r3
   1584c:	e51b0008 	ldr	r0, [fp, #-8]
   15850:	e51b300c 	ldr	r3, [fp, #-12]
   15854:	e1800003 	orr	r0, r0, r3
   15858:	e51b3010 	ldr	r3, [fp, #-16]
   1585c:	e0003003 	and	r3, r0, r3
   15860:	e1813003 	orr	r3, r1, r3
   15864:	e0823003 	add	r3, r2, r3
   15868:	e50b302c 	str	r3, [fp, #-44]	; 0x2c
   1586c:	e51b2014 	ldr	r2, [fp, #-20]
   15870:	e51b3028 	ldr	r3, [fp, #-40]	; 0x28
   15874:	e0823003 	add	r3, r2, r3
   15878:	e50b3014 	str	r3, [fp, #-20]
   1587c:	e51b2028 	ldr	r2, [fp, #-40]	; 0x28
   15880:	e51b302c 	ldr	r3, [fp, #-44]	; 0x2c
   15884:	e0823003 	add	r3, r2, r3
   15888:	e50b3024 	str	r3, [fp, #-36]	; 0x24
   1588c:	e51b3014 	ldr	r3, [fp, #-20]
   15890:	e1a02363 	ror	r2, r3, #6
   15894:	e51b3014 	ldr	r3, [fp, #-20]
   15898:	e1a035e3 	ror	r3, r3, #11
   1589c:	e0222003 	eor	r2, r2, r3
   158a0:	e51b3014 	ldr	r3, [fp, #-20]
   158a4:	e1a03ce3 	ror	r3, r3, #25
   158a8:	e0222003 	eor	r2, r2, r3
   158ac:	e51b3020 	ldr	r3, [fp, #-32]
   158b0:	e0822003 	add	r2, r2, r3
   158b4:	e51b1018 	ldr	r1, [fp, #-24]
   158b8:	e51b301c 	ldr	r3, [fp, #-28]
   158bc:	e0211003 	eor	r1, r1, r3
   158c0:	e51b3014 	ldr	r3, [fp, #-20]
   158c4:	e0011003 	and	r1, r1, r3
   158c8:	e51b301c 	ldr	r3, [fp, #-28]
   158cc:	e0213003 	eor	r3, r1, r3
   158d0:	e0822003 	add	r2, r2, r3
   158d4:	e51b3070 	ldr	r3, [fp, #-112]	; 0x70
   158d8:	e1a018e3 	ror	r1, r3, #17
   158dc:	e51b3070 	ldr	r3, [fp, #-112]	; 0x70
   158e0:	e1a039e3 	ror	r3, r3, #19
   158e4:	e0211003 	eor	r1, r1, r3
   158e8:	e51b3070 	ldr	r3, [fp, #-112]	; 0x70
   158ec:	e1a03523 	lsr	r3, r3, #10
   158f0:	e0211003 	eor	r1, r1, r3
   158f4:	e51b3084 	ldr	r3, [fp, #-132]	; 0x84
   158f8:	e0811003 	add	r1, r1, r3
   158fc:	e51b30a4 	ldr	r3, [fp, #-164]	; 0xa4
   15900:	e1a003e3 	ror	r0, r3, #7
   15904:	e51b30a4 	ldr	r3, [fp, #-164]	; 0xa4
   15908:	e1a03963 	ror	r3, r3, #18
   1590c:	e0200003 	eor	r0, r0, r3
   15910:	e51b30a4 	ldr	r3, [fp, #-164]	; 0xa4
   15914:	e1a031a3 	lsr	r3, r3, #3
   15918:	e0203003 	eor	r3, r0, r3
   1591c:	e0811003 	add	r1, r1, r3
   15920:	e51b30a8 	ldr	r3, [fp, #-168]	; 0xa8
   15924:	e0813003 	add	r3, r1, r3
   15928:	e50b3068 	str	r3, [fp, #-104]	; 0x68
   1592c:	e51b3068 	ldr	r3, [fp, #-104]	; 0x68
   15930:	e0822003 	add	r2, r2, r3
   15934:	e51f3240 	ldr	r3, [pc, #-576]	; 156fc <sha2_process+0x3640>
   15938:	e0823003 	add	r3, r2, r3
   1593c:	e50b3028 	str	r3, [fp, #-40]	; 0x28
   15940:	e51b3024 	ldr	r3, [fp, #-36]	; 0x24
   15944:	e1a02163 	ror	r2, r3, #2
   15948:	e51b3024 	ldr	r3, [fp, #-36]	; 0x24
   1594c:	e1a036e3 	ror	r3, r3, #13
   15950:	e0222003 	eor	r2, r2, r3
   15954:	e51b3024 	ldr	r3, [fp, #-36]	; 0x24
   15958:	e1a03b63 	ror	r3, r3, #22
   1595c:	e0222003 	eor	r2, r2, r3
   15960:	e51b1024 	ldr	r1, [fp, #-36]	; 0x24
   15964:	e51b3008 	ldr	r3, [fp, #-8]
   15968:	e0011003 	and	r1, r1, r3
   1596c:	e51b0024 	ldr	r0, [fp, #-36]	; 0x24
   15970:	e51b3008 	ldr	r3, [fp, #-8]
   15974:	e1800003 	orr	r0, r0, r3
   15978:	e51b300c 	ldr	r3, [fp, #-12]
   1597c:	e0003003 	and	r3, r0, r3
   15980:	e1813003 	orr	r3, r1, r3
   15984:	e0823003 	add	r3, r2, r3
   15988:	e50b302c 	str	r3, [fp, #-44]	; 0x2c
   1598c:	e51b2010 	ldr	r2, [fp, #-16]
   15990:	e51b3028 	ldr	r3, [fp, #-40]	; 0x28
   15994:	e0823003 	add	r3, r2, r3
   15998:	e50b3010 	str	r3, [fp, #-16]
   1599c:	e51b2028 	ldr	r2, [fp, #-40]	; 0x28
   159a0:	e51b302c 	ldr	r3, [fp, #-44]	; 0x2c
   159a4:	e0823003 	add	r3, r2, r3
   159a8:	e50b3020 	str	r3, [fp, #-32]
   159ac:	e51b3010 	ldr	r3, [fp, #-16]
   159b0:	e1a02363 	ror	r2, r3, #6
   159b4:	e51b3010 	ldr	r3, [fp, #-16]
   159b8:	e1a035e3 	ror	r3, r3, #11
   159bc:	e0222003 	eor	r2, r2, r3
   159c0:	e51b3010 	ldr	r3, [fp, #-16]
   159c4:	e1a03ce3 	ror	r3, r3, #25
   159c8:	e0222003 	eor	r2, r2, r3
   159cc:	e51b301c 	ldr	r3, [fp, #-28]
   159d0:	e0822003 	add	r2, r2, r3
   159d4:	e51b1014 	ldr	r1, [fp, #-20]
   159d8:	e51b3018 	ldr	r3, [fp, #-24]
   159dc:	e0211003 	eor	r1, r1, r3
   159e0:	e51b3010 	ldr	r3, [fp, #-16]
   159e4:	e0011003 	and	r1, r1, r3
   159e8:	e51b3018 	ldr	r3, [fp, #-24]
   159ec:	e0213003 	eor	r3, r1, r3
   159f0:	e0822003 	add	r2, r2, r3
   159f4:	e51b306c 	ldr	r3, [fp, #-108]	; 0x6c
   159f8:	e1a018e3 	ror	r1, r3, #17
   159fc:	e51b306c 	ldr	r3, [fp, #-108]	; 0x6c
   15a00:	e1a039e3 	ror	r3, r3, #19
   15a04:	e0211003 	eor	r1, r1, r3
   15a08:	e51b306c 	ldr	r3, [fp, #-108]	; 0x6c
   15a0c:	e1a03523 	lsr	r3, r3, #10
   15a10:	e0211003 	eor	r1, r1, r3
   15a14:	e51b3080 	ldr	r3, [fp, #-128]	; 0x80
   15a18:	e0811003 	add	r1, r1, r3
   15a1c:	e51b30a0 	ldr	r3, [fp, #-160]	; 0xa0
   15a20:	e1a003e3 	ror	r0, r3, #7
   15a24:	e51b30a0 	ldr	r3, [fp, #-160]	; 0xa0
   15a28:	e1a03963 	ror	r3, r3, #18
   15a2c:	e0200003 	eor	r0, r0, r3
   15a30:	e51b30a0 	ldr	r3, [fp, #-160]	; 0xa0
   15a34:	e1a031a3 	lsr	r3, r3, #3
   15a38:	e0203003 	eor	r3, r0, r3
   15a3c:	e0811003 	add	r1, r1, r3
   15a40:	e51b30a4 	ldr	r3, [fp, #-164]	; 0xa4
   15a44:	e0813003 	add	r3, r1, r3
   15a48:	e50b3064 	str	r3, [fp, #-100]	; 0x64
   15a4c:	e51b3064 	ldr	r3, [fp, #-100]	; 0x64
   15a50:	e0822003 	add	r2, r2, r3
   15a54:	e51f335c 	ldr	r3, [pc, #-860]	; 15700 <sha2_process+0x3644>
   15a58:	e0823003 	add	r3, r2, r3
   15a5c:	e50b3028 	str	r3, [fp, #-40]	; 0x28
   15a60:	e51b3020 	ldr	r3, [fp, #-32]
   15a64:	e1a02163 	ror	r2, r3, #2
   15a68:	e51b3020 	ldr	r3, [fp, #-32]
   15a6c:	e1a036e3 	ror	r3, r3, #13
   15a70:	e0222003 	eor	r2, r2, r3
   15a74:	e51b3020 	ldr	r3, [fp, #-32]
   15a78:	e1a03b63 	ror	r3, r3, #22
   15a7c:	e0222003 	eor	r2, r2, r3
   15a80:	e51b1020 	ldr	r1, [fp, #-32]
   15a84:	e51b3024 	ldr	r3, [fp, #-36]	; 0x24
   15a88:	e0011003 	and	r1, r1, r3
   15a8c:	e51b0020 	ldr	r0, [fp, #-32]
   15a90:	e51b3024 	ldr	r3, [fp, #-36]	; 0x24
   15a94:	e1800003 	orr	r0, r0, r3
   15a98:	e51b3008 	ldr	r3, [fp, #-8]
   15a9c:	e0003003 	and	r3, r0, r3
   15aa0:	e1813003 	orr	r3, r1, r3
   15aa4:	e0823003 	add	r3, r2, r3
   15aa8:	e50b302c 	str	r3, [fp, #-44]	; 0x2c
   15aac:	e51b200c 	ldr	r2, [fp, #-12]
   15ab0:	e51b3028 	ldr	r3, [fp, #-40]	; 0x28
   15ab4:	e0823003 	add	r3, r2, r3
   15ab8:	e50b300c 	str	r3, [fp, #-12]
   15abc:	e51b2028 	ldr	r2, [fp, #-40]	; 0x28
   15ac0:	e51b302c 	ldr	r3, [fp, #-44]	; 0x2c
   15ac4:	e0823003 	add	r3, r2, r3
   15ac8:	e50b301c 	str	r3, [fp, #-28]
   15acc:	e51b300c 	ldr	r3, [fp, #-12]
   15ad0:	e1a02363 	ror	r2, r3, #6
   15ad4:	e51b300c 	ldr	r3, [fp, #-12]
   15ad8:	e1a035e3 	ror	r3, r3, #11
   15adc:	e0222003 	eor	r2, r2, r3
   15ae0:	e51b300c 	ldr	r3, [fp, #-12]
   15ae4:	e1a03ce3 	ror	r3, r3, #25
   15ae8:	e0222003 	eor	r2, r2, r3
   15aec:	e51b3018 	ldr	r3, [fp, #-24]
   15af0:	e0822003 	add	r2, r2, r3
   15af4:	e51b1010 	ldr	r1, [fp, #-16]
   15af8:	e51b3014 	ldr	r3, [fp, #-20]
   15afc:	e0211003 	eor	r1, r1, r3
   15b00:	e51b300c 	ldr	r3, [fp, #-12]
   15b04:	e0011003 	and	r1, r1, r3
   15b08:	e51b3014 	ldr	r3, [fp, #-20]
   15b0c:	e0213003 	eor	r3, r1, r3
   15b10:	e0822003 	add	r2, r2, r3
   15b14:	e51b3068 	ldr	r3, [fp, #-104]	; 0x68
   15b18:	e1a018e3 	ror	r1, r3, #17
   15b1c:	e51b3068 	ldr	r3, [fp, #-104]	; 0x68
   15b20:	e1a039e3 	ror	r3, r3, #19
   15b24:	e0211003 	eor	r1, r1, r3
   15b28:	e51b3068 	ldr	r3, [fp, #-104]	; 0x68
   15b2c:	e1a03523 	lsr	r3, r3, #10
   15b30:	e0211003 	eor	r1, r1, r3
   15b34:	e51b307c 	ldr	r3, [fp, #-124]	; 0x7c
   15b38:	e0811003 	add	r1, r1, r3
   15b3c:	e51b309c 	ldr	r3, [fp, #-156]	; 0x9c
   15b40:	e1a003e3 	ror	r0, r3, #7
   15b44:	e51b309c 	ldr	r3, [fp, #-156]	; 0x9c
   15b48:	e1a03963 	ror	r3, r3, #18
   15b4c:	e0200003 	eor	r0, r0, r3
   15b50:	e51b309c 	ldr	r3, [fp, #-156]	; 0x9c
   15b54:	e1a031a3 	lsr	r3, r3, #3
   15b58:	e0203003 	eor	r3, r0, r3
   15b5c:	e0811003 	add	r1, r1, r3
   15b60:	e51b30a0 	ldr	r3, [fp, #-160]	; 0xa0
   15b64:	e0813003 	add	r3, r1, r3
   15b68:	e50b3060 	str	r3, [fp, #-96]	; 0x60
   15b6c:	e51b3060 	ldr	r3, [fp, #-96]	; 0x60
   15b70:	e0822003 	add	r2, r2, r3
   15b74:	e51f3478 	ldr	r3, [pc, #-1144]	; 15704 <sha2_process+0x3648>
   15b78:	e0823003 	add	r3, r2, r3
   15b7c:	e50b3028 	str	r3, [fp, #-40]	; 0x28
   15b80:	e51b301c 	ldr	r3, [fp, #-28]
   15b84:	e1a02163 	ror	r2, r3, #2
   15b88:	e51b301c 	ldr	r3, [fp, #-28]
   15b8c:	e1a036e3 	ror	r3, r3, #13
   15b90:	e0222003 	eor	r2, r2, r3
   15b94:	e51b301c 	ldr	r3, [fp, #-28]
   15b98:	e1a03b63 	ror	r3, r3, #22
   15b9c:	e0222003 	eor	r2, r2, r3
   15ba0:	e51b101c 	ldr	r1, [fp, #-28]
   15ba4:	e51b3020 	ldr	r3, [fp, #-32]
   15ba8:	e0011003 	and	r1, r1, r3
   15bac:	e51b001c 	ldr	r0, [fp, #-28]
   15bb0:	e51b3020 	ldr	r3, [fp, #-32]
   15bb4:	e1800003 	orr	r0, r0, r3
   15bb8:	e51b3024 	ldr	r3, [fp, #-36]	; 0x24
   15bbc:	e0003003 	and	r3, r0, r3
   15bc0:	e1813003 	orr	r3, r1, r3
   15bc4:	e0823003 	add	r3, r2, r3
   15bc8:	e50b302c 	str	r3, [fp, #-44]	; 0x2c
   15bcc:	e51b2008 	ldr	r2, [fp, #-8]
   15bd0:	e51b3028 	ldr	r3, [fp, #-40]	; 0x28
   15bd4:	e0823003 	add	r3, r2, r3
   15bd8:	e50b3008 	str	r3, [fp, #-8]
   15bdc:	e51b2028 	ldr	r2, [fp, #-40]	; 0x28
   15be0:	e51b302c 	ldr	r3, [fp, #-44]	; 0x2c
   15be4:	e0823003 	add	r3, r2, r3
   15be8:	e50b3018 	str	r3, [fp, #-24]
   15bec:	e51b3008 	ldr	r3, [fp, #-8]
   15bf0:	e1a02363 	ror	r2, r3, #6
   15bf4:	e51b3008 	ldr	r3, [fp, #-8]
   15bf8:	e1a035e3 	ror	r3, r3, #11
   15bfc:	e0222003 	eor	r2, r2, r3
   15c00:	e51b3008 	ldr	r3, [fp, #-8]
   15c04:	e1a03ce3 	ror	r3, r3, #25
   15c08:	e0222003 	eor	r2, r2, r3
   15c0c:	e51b3014 	ldr	r3, [fp, #-20]
   15c10:	e0822003 	add	r2, r2, r3
   15c14:	e51b100c 	ldr	r1, [fp, #-12]
   15c18:	e51b3010 	ldr	r3, [fp, #-16]
   15c1c:	e0211003 	eor	r1, r1, r3
   15c20:	e51b3008 	ldr	r3, [fp, #-8]
   15c24:	e0011003 	and	r1, r1, r3
   15c28:	e51b3010 	ldr	r3, [fp, #-16]
   15c2c:	e0213003 	eor	r3, r1, r3
   15c30:	e0822003 	add	r2, r2, r3
   15c34:	e51b3064 	ldr	r3, [fp, #-100]	; 0x64
   15c38:	e1a018e3 	ror	r1, r3, #17
   15c3c:	e51b3064 	ldr	r3, [fp, #-100]	; 0x64
   15c40:	e1a039e3 	ror	r3, r3, #19
   15c44:	e0211003 	eor	r1, r1, r3
   15c48:	e51b3064 	ldr	r3, [fp, #-100]	; 0x64
   15c4c:	e1a03523 	lsr	r3, r3, #10
   15c50:	e0211003 	eor	r1, r1, r3
   15c54:	e51b3078 	ldr	r3, [fp, #-120]	; 0x78
   15c58:	e0811003 	add	r1, r1, r3
   15c5c:	e51b3098 	ldr	r3, [fp, #-152]	; 0x98
   15c60:	e1a003e3 	ror	r0, r3, #7
   15c64:	e51b3098 	ldr	r3, [fp, #-152]	; 0x98
   15c68:	e1a03963 	ror	r3, r3, #18
   15c6c:	e0200003 	eor	r0, r0, r3
   15c70:	e51b3098 	ldr	r3, [fp, #-152]	; 0x98
   15c74:	e1a031a3 	lsr	r3, r3, #3
   15c78:	e0203003 	eor	r3, r0, r3
   15c7c:	e0811003 	add	r1, r1, r3
   15c80:	e51b309c 	ldr	r3, [fp, #-156]	; 0x9c
   15c84:	e0813003 	add	r3, r1, r3
   15c88:	e50b305c 	str	r3, [fp, #-92]	; 0x5c
   15c8c:	e51b305c 	ldr	r3, [fp, #-92]	; 0x5c
   15c90:	e0822003 	add	r2, r2, r3
   15c94:	e51f3594 	ldr	r3, [pc, #-1428]	; 15708 <sha2_process+0x364c>
   15c98:	e0823003 	add	r3, r2, r3
   15c9c:	e50b3028 	str	r3, [fp, #-40]	; 0x28
   15ca0:	e51b3018 	ldr	r3, [fp, #-24]
   15ca4:	e1a02163 	ror	r2, r3, #2
   15ca8:	e51b3018 	ldr	r3, [fp, #-24]
   15cac:	e1a036e3 	ror	r3, r3, #13
   15cb0:	e0222003 	eor	r2, r2, r3
   15cb4:	e51b3018 	ldr	r3, [fp, #-24]
   15cb8:	e1a03b63 	ror	r3, r3, #22
   15cbc:	e0222003 	eor	r2, r2, r3
   15cc0:	e51b1018 	ldr	r1, [fp, #-24]
   15cc4:	e51b301c 	ldr	r3, [fp, #-28]
   15cc8:	e0011003 	and	r1, r1, r3
   15ccc:	e51b0018 	ldr	r0, [fp, #-24]
   15cd0:	e51b301c 	ldr	r3, [fp, #-28]
   15cd4:	e1800003 	orr	r0, r0, r3
   15cd8:	e51b3020 	ldr	r3, [fp, #-32]
   15cdc:	e0003003 	and	r3, r0, r3
   15ce0:	e1813003 	orr	r3, r1, r3
   15ce4:	e0823003 	add	r3, r2, r3
   15ce8:	e50b302c 	str	r3, [fp, #-44]	; 0x2c
   15cec:	e51b2024 	ldr	r2, [fp, #-36]	; 0x24
   15cf0:	e51b3028 	ldr	r3, [fp, #-40]	; 0x28
   15cf4:	e0823003 	add	r3, r2, r3
   15cf8:	e50b3024 	str	r3, [fp, #-36]	; 0x24
   15cfc:	e51b2028 	ldr	r2, [fp, #-40]	; 0x28
   15d00:	e51b302c 	ldr	r3, [fp, #-44]	; 0x2c
   15d04:	e0823003 	add	r3, r2, r3
   15d08:	e50b3014 	str	r3, [fp, #-20]
   15d0c:	e51b3024 	ldr	r3, [fp, #-36]	; 0x24
   15d10:	e1a02363 	ror	r2, r3, #6
   15d14:	e51b3024 	ldr	r3, [fp, #-36]	; 0x24
   15d18:	e1a035e3 	ror	r3, r3, #11
   15d1c:	e0222003 	eor	r2, r2, r3
   15d20:	e51b3024 	ldr	r3, [fp, #-36]	; 0x24
   15d24:	e1a03ce3 	ror	r3, r3, #25
   15d28:	e0222003 	eor	r2, r2, r3
   15d2c:	e51b3010 	ldr	r3, [fp, #-16]
   15d30:	e0822003 	add	r2, r2, r3
   15d34:	e51b1008 	ldr	r1, [fp, #-8]
   15d38:	e51b300c 	ldr	r3, [fp, #-12]
   15d3c:	e0211003 	eor	r1, r1, r3
   15d40:	e51b3024 	ldr	r3, [fp, #-36]	; 0x24
   15d44:	e0011003 	and	r1, r1, r3
   15d48:	e51b300c 	ldr	r3, [fp, #-12]
   15d4c:	e0213003 	eor	r3, r1, r3
   15d50:	e0822003 	add	r2, r2, r3
   15d54:	e51b3060 	ldr	r3, [fp, #-96]	; 0x60
   15d58:	e1a018e3 	ror	r1, r3, #17
   15d5c:	e51b3060 	ldr	r3, [fp, #-96]	; 0x60
   15d60:	e1a039e3 	ror	r3, r3, #19
   15d64:	e0211003 	eor	r1, r1, r3
   15d68:	e51b3060 	ldr	r3, [fp, #-96]	; 0x60
   15d6c:	e1a03523 	lsr	r3, r3, #10
   15d70:	e0211003 	eor	r1, r1, r3
   15d74:	e51b3074 	ldr	r3, [fp, #-116]	; 0x74
   15d78:	e0811003 	add	r1, r1, r3
   15d7c:	e51b3094 	ldr	r3, [fp, #-148]	; 0x94
   15d80:	e1a003e3 	ror	r0, r3, #7
   15d84:	e51b3094 	ldr	r3, [fp, #-148]	; 0x94
   15d88:	e1a03963 	ror	r3, r3, #18
   15d8c:	e0200003 	eor	r0, r0, r3
   15d90:	e51b3094 	ldr	r3, [fp, #-148]	; 0x94
   15d94:	e1a031a3 	lsr	r3, r3, #3
   15d98:	e0203003 	eor	r3, r0, r3
   15d9c:	e0811003 	add	r1, r1, r3
   15da0:	e51b3098 	ldr	r3, [fp, #-152]	; 0x98
   15da4:	e0813003 	add	r3, r1, r3
   15da8:	e50b3058 	str	r3, [fp, #-88]	; 0x58
   15dac:	e51b3058 	ldr	r3, [fp, #-88]	; 0x58
   15db0:	e0822003 	add	r2, r2, r3
   15db4:	e51f36b0 	ldr	r3, [pc, #-1712]	; 1570c <sha2_process+0x3650>
   15db8:	e0823003 	add	r3, r2, r3
   15dbc:	e50b3028 	str	r3, [fp, #-40]	; 0x28
   15dc0:	e51b3014 	ldr	r3, [fp, #-20]
   15dc4:	e1a02163 	ror	r2, r3, #2
   15dc8:	e51b3014 	ldr	r3, [fp, #-20]
   15dcc:	e1a036e3 	ror	r3, r3, #13
   15dd0:	e0222003 	eor	r2, r2, r3
   15dd4:	e51b3014 	ldr	r3, [fp, #-20]
   15dd8:	e1a03b63 	ror	r3, r3, #22
   15ddc:	e0222003 	eor	r2, r2, r3
   15de0:	e51b1014 	ldr	r1, [fp, #-20]
   15de4:	e51b3018 	ldr	r3, [fp, #-24]
   15de8:	e0011003 	and	r1, r1, r3
   15dec:	e51b0014 	ldr	r0, [fp, #-20]
   15df0:	e51b3018 	ldr	r3, [fp, #-24]
   15df4:	e1800003 	orr	r0, r0, r3
   15df8:	e51b301c 	ldr	r3, [fp, #-28]
   15dfc:	e0003003 	and	r3, r0, r3
   15e00:	e1813003 	orr	r3, r1, r3
   15e04:	e0823003 	add	r3, r2, r3
   15e08:	e50b302c 	str	r3, [fp, #-44]	; 0x2c
   15e0c:	e51b2020 	ldr	r2, [fp, #-32]
   15e10:	e51b3028 	ldr	r3, [fp, #-40]	; 0x28
   15e14:	e0823003 	add	r3, r2, r3
   15e18:	e50b3020 	str	r3, [fp, #-32]
   15e1c:	e51b2028 	ldr	r2, [fp, #-40]	; 0x28
   15e20:	e51b302c 	ldr	r3, [fp, #-44]	; 0x2c
   15e24:	e0823003 	add	r3, r2, r3
   15e28:	e50b3010 	str	r3, [fp, #-16]
   15e2c:	e51b3020 	ldr	r3, [fp, #-32]
   15e30:	e1a02363 	ror	r2, r3, #6
   15e34:	e51b3020 	ldr	r3, [fp, #-32]
   15e38:	e1a035e3 	ror	r3, r3, #11
   15e3c:	e0222003 	eor	r2, r2, r3
   15e40:	e51b3020 	ldr	r3, [fp, #-32]
   15e44:	e1a03ce3 	ror	r3, r3, #25
   15e48:	e0222003 	eor	r2, r2, r3
   15e4c:	e51b300c 	ldr	r3, [fp, #-12]
   15e50:	e0822003 	add	r2, r2, r3
   15e54:	e51b1024 	ldr	r1, [fp, #-36]	; 0x24
   15e58:	e51b3008 	ldr	r3, [fp, #-8]
   15e5c:	e0211003 	eor	r1, r1, r3
   15e60:	e51b3020 	ldr	r3, [fp, #-32]
   15e64:	e0011003 	and	r1, r1, r3
   15e68:	e51b3008 	ldr	r3, [fp, #-8]
   15e6c:	e0213003 	eor	r3, r1, r3
   15e70:	e0822003 	add	r2, r2, r3
   15e74:	e51b305c 	ldr	r3, [fp, #-92]	; 0x5c
   15e78:	e1a018e3 	ror	r1, r3, #17
   15e7c:	e51b305c 	ldr	r3, [fp, #-92]	; 0x5c
   15e80:	e1a039e3 	ror	r3, r3, #19
   15e84:	e0211003 	eor	r1, r1, r3
   15e88:	e51b305c 	ldr	r3, [fp, #-92]	; 0x5c
   15e8c:	e1a03523 	lsr	r3, r3, #10
   15e90:	e0211003 	eor	r1, r1, r3
   15e94:	e51b3070 	ldr	r3, [fp, #-112]	; 0x70
   15e98:	e0811003 	add	r1, r1, r3
   15e9c:	e51b3090 	ldr	r3, [fp, #-144]	; 0x90
   15ea0:	e1a003e3 	ror	r0, r3, #7
   15ea4:	e51b3090 	ldr	r3, [fp, #-144]	; 0x90
   15ea8:	e1a03963 	ror	r3, r3, #18
   15eac:	e0200003 	eor	r0, r0, r3
   15eb0:	e51b3090 	ldr	r3, [fp, #-144]	; 0x90
   15eb4:	e1a031a3 	lsr	r3, r3, #3
   15eb8:	e0203003 	eor	r3, r0, r3
   15ebc:	e0811003 	add	r1, r1, r3
   15ec0:	e51b3094 	ldr	r3, [fp, #-148]	; 0x94
   15ec4:	e0813003 	add	r3, r1, r3
   15ec8:	e50b3054 	str	r3, [fp, #-84]	; 0x54
   15ecc:	e51b3054 	ldr	r3, [fp, #-84]	; 0x54
   15ed0:	e0822003 	add	r2, r2, r3
   15ed4:	e51f37cc 	ldr	r3, [pc, #-1996]	; 15710 <sha2_process+0x3654>
   15ed8:	e0823003 	add	r3, r2, r3
   15edc:	e50b3028 	str	r3, [fp, #-40]	; 0x28
   15ee0:	e51b3010 	ldr	r3, [fp, #-16]
   15ee4:	e1a02163 	ror	r2, r3, #2
   15ee8:	e51b3010 	ldr	r3, [fp, #-16]
   15eec:	e1a036e3 	ror	r3, r3, #13
   15ef0:	e0222003 	eor	r2, r2, r3
   15ef4:	e51b3010 	ldr	r3, [fp, #-16]
   15ef8:	e1a03b63 	ror	r3, r3, #22
   15efc:	e0222003 	eor	r2, r2, r3
   15f00:	e51b1010 	ldr	r1, [fp, #-16]
   15f04:	e51b3014 	ldr	r3, [fp, #-20]
   15f08:	e0011003 	and	r1, r1, r3
   15f0c:	e51b0010 	ldr	r0, [fp, #-16]
   15f10:	e51b3014 	ldr	r3, [fp, #-20]
   15f14:	e1800003 	orr	r0, r0, r3
   15f18:	e51b3018 	ldr	r3, [fp, #-24]
   15f1c:	e0003003 	and	r3, r0, r3
   15f20:	e1813003 	orr	r3, r1, r3
   15f24:	e0823003 	add	r3, r2, r3
   15f28:	e50b302c 	str	r3, [fp, #-44]	; 0x2c
   15f2c:	e51b201c 	ldr	r2, [fp, #-28]
   15f30:	e51b3028 	ldr	r3, [fp, #-40]	; 0x28
   15f34:	e0823003 	add	r3, r2, r3
   15f38:	e50b301c 	str	r3, [fp, #-28]
   15f3c:	e51b2028 	ldr	r2, [fp, #-40]	; 0x28
   15f40:	e51b302c 	ldr	r3, [fp, #-44]	; 0x2c
   15f44:	e0823003 	add	r3, r2, r3
   15f48:	e50b300c 	str	r3, [fp, #-12]
   15f4c:	e51b301c 	ldr	r3, [fp, #-28]
   15f50:	e1a02363 	ror	r2, r3, #6
   15f54:	e51b301c 	ldr	r3, [fp, #-28]
   15f58:	e1a035e3 	ror	r3, r3, #11
   15f5c:	e0222003 	eor	r2, r2, r3
   15f60:	e51b301c 	ldr	r3, [fp, #-28]
   15f64:	e1a03ce3 	ror	r3, r3, #25
   15f68:	e0222003 	eor	r2, r2, r3
   15f6c:	e51b3008 	ldr	r3, [fp, #-8]
   15f70:	e0822003 	add	r2, r2, r3
   15f74:	e51b1020 	ldr	r1, [fp, #-32]
   15f78:	e51b3024 	ldr	r3, [fp, #-36]	; 0x24
   15f7c:	e0211003 	eor	r1, r1, r3
   15f80:	e51b301c 	ldr	r3, [fp, #-28]
   15f84:	e0011003 	and	r1, r1, r3
   15f88:	e51b3024 	ldr	r3, [fp, #-36]	; 0x24
   15f8c:	e0213003 	eor	r3, r1, r3
   15f90:	e0822003 	add	r2, r2, r3
   15f94:	e51b3058 	ldr	r3, [fp, #-88]	; 0x58
   15f98:	e1a018e3 	ror	r1, r3, #17
   15f9c:	e51b3058 	ldr	r3, [fp, #-88]	; 0x58
   15fa0:	e1a039e3 	ror	r3, r3, #19
   15fa4:	e0211003 	eor	r1, r1, r3
   15fa8:	e51b3058 	ldr	r3, [fp, #-88]	; 0x58
   15fac:	e1a03523 	lsr	r3, r3, #10
   15fb0:	e0211003 	eor	r1, r1, r3
   15fb4:	e51b306c 	ldr	r3, [fp, #-108]	; 0x6c
   15fb8:	e0811003 	add	r1, r1, r3
   15fbc:	e51b308c 	ldr	r3, [fp, #-140]	; 0x8c
   15fc0:	e1a003e3 	ror	r0, r3, #7
   15fc4:	e51b308c 	ldr	r3, [fp, #-140]	; 0x8c
   15fc8:	e1a03963 	ror	r3, r3, #18
   15fcc:	e0200003 	eor	r0, r0, r3
   15fd0:	e51b308c 	ldr	r3, [fp, #-140]	; 0x8c
   15fd4:	e1a031a3 	lsr	r3, r3, #3
   15fd8:	e0203003 	eor	r3, r0, r3
   15fdc:	e0811003 	add	r1, r1, r3
   15fe0:	e51b3090 	ldr	r3, [fp, #-144]	; 0x90
   15fe4:	e0813003 	add	r3, r1, r3
   15fe8:	e50b3050 	str	r3, [fp, #-80]	; 0x50
   15fec:	e51b3050 	ldr	r3, [fp, #-80]	; 0x50
   15ff0:	e0822003 	add	r2, r2, r3
   15ff4:	e51f38e8 	ldr	r3, [pc, #-2280]	; 15714 <sha2_process+0x3658>
   15ff8:	e0823003 	add	r3, r2, r3
   15ffc:	e50b3028 	str	r3, [fp, #-40]	; 0x28
   16000:	e51b300c 	ldr	r3, [fp, #-12]
   16004:	e1a02163 	ror	r2, r3, #2
   16008:	e51b300c 	ldr	r3, [fp, #-12]
   1600c:	e1a036e3 	ror	r3, r3, #13
   16010:	e0222003 	eor	r2, r2, r3
   16014:	e51b300c 	ldr	r3, [fp, #-12]
   16018:	e1a03b63 	ror	r3, r3, #22
   1601c:	e0222003 	eor	r2, r2, r3
   16020:	e51b100c 	ldr	r1, [fp, #-12]
   16024:	e51b3010 	ldr	r3, [fp, #-16]
   16028:	e0011003 	and	r1, r1, r3
   1602c:	e51b000c 	ldr	r0, [fp, #-12]
   16030:	e51b3010 	ldr	r3, [fp, #-16]
   16034:	e1800003 	orr	r0, r0, r3
   16038:	e51b3014 	ldr	r3, [fp, #-20]
   1603c:	e0003003 	and	r3, r0, r3
   16040:	e1813003 	orr	r3, r1, r3
   16044:	e0823003 	add	r3, r2, r3
   16048:	e50b302c 	str	r3, [fp, #-44]	; 0x2c
   1604c:	e51b2018 	ldr	r2, [fp, #-24]
   16050:	e51b3028 	ldr	r3, [fp, #-40]	; 0x28
   16054:	e0823003 	add	r3, r2, r3
   16058:	e50b3018 	str	r3, [fp, #-24]
   1605c:	e51b2028 	ldr	r2, [fp, #-40]	; 0x28
   16060:	e51b302c 	ldr	r3, [fp, #-44]	; 0x2c
   16064:	e0823003 	add	r3, r2, r3
   16068:	e50b3008 	str	r3, [fp, #-8]
   1606c:	e51b3018 	ldr	r3, [fp, #-24]
   16070:	e1a02363 	ror	r2, r3, #6
   16074:	e51b3018 	ldr	r3, [fp, #-24]
   16078:	e1a035e3 	ror	r3, r3, #11
   1607c:	e0222003 	eor	r2, r2, r3
   16080:	e51b3018 	ldr	r3, [fp, #-24]
   16084:	e1a03ce3 	ror	r3, r3, #25
   16088:	e0222003 	eor	r2, r2, r3
   1608c:	e51b3024 	ldr	r3, [fp, #-36]	; 0x24
   16090:	e0822003 	add	r2, r2, r3
   16094:	e51b101c 	ldr	r1, [fp, #-28]
   16098:	e51b3020 	ldr	r3, [fp, #-32]
   1609c:	e0211003 	eor	r1, r1, r3
   160a0:	e51b3018 	ldr	r3, [fp, #-24]
   160a4:	e0011003 	and	r1, r1, r3
   160a8:	e51b3020 	ldr	r3, [fp, #-32]
   160ac:	e0213003 	eor	r3, r1, r3
   160b0:	e0822003 	add	r2, r2, r3
   160b4:	e51b3054 	ldr	r3, [fp, #-84]	; 0x54
   160b8:	e1a018e3 	ror	r1, r3, #17
   160bc:	e51b3054 	ldr	r3, [fp, #-84]	; 0x54
   160c0:	e1a039e3 	ror	r3, r3, #19
   160c4:	e0211003 	eor	r1, r1, r3
   160c8:	e51b3054 	ldr	r3, [fp, #-84]	; 0x54
   160cc:	e1a03523 	lsr	r3, r3, #10
   160d0:	e0211003 	eor	r1, r1, r3
   160d4:	e51b3068 	ldr	r3, [fp, #-104]	; 0x68
   160d8:	e0811003 	add	r1, r1, r3
   160dc:	e51b3088 	ldr	r3, [fp, #-136]	; 0x88
   160e0:	e1a003e3 	ror	r0, r3, #7
   160e4:	e51b3088 	ldr	r3, [fp, #-136]	; 0x88
   160e8:	e1a03963 	ror	r3, r3, #18
   160ec:	e0200003 	eor	r0, r0, r3
   160f0:	e51b3088 	ldr	r3, [fp, #-136]	; 0x88
   160f4:	e1a031a3 	lsr	r3, r3, #3
   160f8:	e0203003 	eor	r3, r0, r3
   160fc:	e0811003 	add	r1, r1, r3
   16100:	e51b308c 	ldr	r3, [fp, #-140]	; 0x8c
   16104:	e0813003 	add	r3, r1, r3
   16108:	e50b304c 	str	r3, [fp, #-76]	; 0x4c
   1610c:	e51b304c 	ldr	r3, [fp, #-76]	; 0x4c
   16110:	e0822003 	add	r2, r2, r3
   16114:	e51f3a04 	ldr	r3, [pc, #-2564]	; 15718 <sha2_process+0x365c>
   16118:	e0823003 	add	r3, r2, r3
   1611c:	e50b3028 	str	r3, [fp, #-40]	; 0x28
   16120:	e51b3008 	ldr	r3, [fp, #-8]
   16124:	e1a02163 	ror	r2, r3, #2
   16128:	e51b3008 	ldr	r3, [fp, #-8]
   1612c:	e1a036e3 	ror	r3, r3, #13
   16130:	e0222003 	eor	r2, r2, r3
   16134:	e51b3008 	ldr	r3, [fp, #-8]
   16138:	e1a03b63 	ror	r3, r3, #22
   1613c:	e0222003 	eor	r2, r2, r3
   16140:	e51b1008 	ldr	r1, [fp, #-8]
   16144:	e51b300c 	ldr	r3, [fp, #-12]
   16148:	e0011003 	and	r1, r1, r3
   1614c:	e51b0008 	ldr	r0, [fp, #-8]
   16150:	e51b300c 	ldr	r3, [fp, #-12]
   16154:	e1800003 	orr	r0, r0, r3
   16158:	e51b3010 	ldr	r3, [fp, #-16]
   1615c:	e0003003 	and	r3, r0, r3
   16160:	e1813003 	orr	r3, r1, r3
   16164:	e0823003 	add	r3, r2, r3
   16168:	e50b302c 	str	r3, [fp, #-44]	; 0x2c
   1616c:	e51b2014 	ldr	r2, [fp, #-20]
   16170:	e51b3028 	ldr	r3, [fp, #-40]	; 0x28
   16174:	e0823003 	add	r3, r2, r3
   16178:	e50b3014 	str	r3, [fp, #-20]
   1617c:	e51b2028 	ldr	r2, [fp, #-40]	; 0x28
   16180:	e51b302c 	ldr	r3, [fp, #-44]	; 0x2c
   16184:	e0823003 	add	r3, r2, r3
   16188:	e50b3024 	str	r3, [fp, #-36]	; 0x24
   1618c:	e51b3014 	ldr	r3, [fp, #-20]
   16190:	e1a02363 	ror	r2, r3, #6
   16194:	e51b3014 	ldr	r3, [fp, #-20]
   16198:	e1a035e3 	ror	r3, r3, #11
   1619c:	e0222003 	eor	r2, r2, r3
   161a0:	e51b3014 	ldr	r3, [fp, #-20]
   161a4:	e1a03ce3 	ror	r3, r3, #25
   161a8:	e0222003 	eor	r2, r2, r3
   161ac:	e51b3020 	ldr	r3, [fp, #-32]
   161b0:	e0822003 	add	r2, r2, r3
   161b4:	e51b1018 	ldr	r1, [fp, #-24]
   161b8:	e51b301c 	ldr	r3, [fp, #-28]
   161bc:	e0211003 	eor	r1, r1, r3
   161c0:	e51b3014 	ldr	r3, [fp, #-20]
   161c4:	e0011003 	and	r1, r1, r3
   161c8:	e51b301c 	ldr	r3, [fp, #-28]
   161cc:	e0213003 	eor	r3, r1, r3
   161d0:	e0822003 	add	r2, r2, r3
   161d4:	e51b3050 	ldr	r3, [fp, #-80]	; 0x50
   161d8:	e1a018e3 	ror	r1, r3, #17
   161dc:	e51b3050 	ldr	r3, [fp, #-80]	; 0x50
   161e0:	e1a039e3 	ror	r3, r3, #19
   161e4:	e0211003 	eor	r1, r1, r3
   161e8:	e51b3050 	ldr	r3, [fp, #-80]	; 0x50
   161ec:	e1a03523 	lsr	r3, r3, #10
   161f0:	e0211003 	eor	r1, r1, r3
   161f4:	e51b3064 	ldr	r3, [fp, #-100]	; 0x64
   161f8:	e0811003 	add	r1, r1, r3
   161fc:	e51b3084 	ldr	r3, [fp, #-132]	; 0x84
   16200:	e1a003e3 	ror	r0, r3, #7
   16204:	e51b3084 	ldr	r3, [fp, #-132]	; 0x84
   16208:	e1a03963 	ror	r3, r3, #18
   1620c:	e0200003 	eor	r0, r0, r3
   16210:	e51b3084 	ldr	r3, [fp, #-132]	; 0x84
   16214:	e1a031a3 	lsr	r3, r3, #3
   16218:	e0203003 	eor	r3, r0, r3
   1621c:	e0811003 	add	r1, r1, r3
   16220:	e51b3088 	ldr	r3, [fp, #-136]	; 0x88
   16224:	e0813003 	add	r3, r1, r3
   16228:	e50b3048 	str	r3, [fp, #-72]	; 0x48
   1622c:	e51b3048 	ldr	r3, [fp, #-72]	; 0x48
   16230:	e0822003 	add	r2, r2, r3
   16234:	e51f3b20 	ldr	r3, [pc, #-2848]	; 1571c <sha2_process+0x3660>
   16238:	e0823003 	add	r3, r2, r3
   1623c:	e50b3028 	str	r3, [fp, #-40]	; 0x28
   16240:	e51b3024 	ldr	r3, [fp, #-36]	; 0x24
   16244:	e1a02163 	ror	r2, r3, #2
   16248:	e51b3024 	ldr	r3, [fp, #-36]	; 0x24
   1624c:	e1a036e3 	ror	r3, r3, #13
   16250:	e0222003 	eor	r2, r2, r3
   16254:	e51b3024 	ldr	r3, [fp, #-36]	; 0x24
   16258:	e1a03b63 	ror	r3, r3, #22
   1625c:	e0222003 	eor	r2, r2, r3
   16260:	e51b1024 	ldr	r1, [fp, #-36]	; 0x24
   16264:	e51b3008 	ldr	r3, [fp, #-8]
   16268:	e0011003 	and	r1, r1, r3
   1626c:	e51b0024 	ldr	r0, [fp, #-36]	; 0x24
   16270:	e51b3008 	ldr	r3, [fp, #-8]
   16274:	e1800003 	orr	r0, r0, r3
   16278:	e51b300c 	ldr	r3, [fp, #-12]
   1627c:	e0003003 	and	r3, r0, r3
   16280:	e1813003 	orr	r3, r1, r3
   16284:	e0823003 	add	r3, r2, r3
   16288:	e50b302c 	str	r3, [fp, #-44]	; 0x2c
   1628c:	e51b2010 	ldr	r2, [fp, #-16]
   16290:	e51b3028 	ldr	r3, [fp, #-40]	; 0x28
   16294:	e0823003 	add	r3, r2, r3
   16298:	e50b3010 	str	r3, [fp, #-16]
   1629c:	e51b2028 	ldr	r2, [fp, #-40]	; 0x28
   162a0:	e51b302c 	ldr	r3, [fp, #-44]	; 0x2c
   162a4:	e0823003 	add	r3, r2, r3
   162a8:	e50b3020 	str	r3, [fp, #-32]
   162ac:	e51b3010 	ldr	r3, [fp, #-16]
   162b0:	e1a02363 	ror	r2, r3, #6
   162b4:	e51b3010 	ldr	r3, [fp, #-16]
   162b8:	e1a035e3 	ror	r3, r3, #11
   162bc:	e0222003 	eor	r2, r2, r3
   162c0:	e51b3010 	ldr	r3, [fp, #-16]
   162c4:	e1a03ce3 	ror	r3, r3, #25
   162c8:	e0222003 	eor	r2, r2, r3
   162cc:	e51b301c 	ldr	r3, [fp, #-28]
   162d0:	e0822003 	add	r2, r2, r3
   162d4:	e51b1014 	ldr	r1, [fp, #-20]
   162d8:	e51b3018 	ldr	r3, [fp, #-24]
   162dc:	e0211003 	eor	r1, r1, r3
   162e0:	e51b3010 	ldr	r3, [fp, #-16]
   162e4:	e0011003 	and	r1, r1, r3
   162e8:	e51b3018 	ldr	r3, [fp, #-24]
   162ec:	e0213003 	eor	r3, r1, r3
   162f0:	e0822003 	add	r2, r2, r3
   162f4:	e51b304c 	ldr	r3, [fp, #-76]	; 0x4c
   162f8:	e1a018e3 	ror	r1, r3, #17
   162fc:	e51b304c 	ldr	r3, [fp, #-76]	; 0x4c
   16300:	e1a039e3 	ror	r3, r3, #19
   16304:	e0211003 	eor	r1, r1, r3
   16308:	e51b304c 	ldr	r3, [fp, #-76]	; 0x4c
   1630c:	e1a03523 	lsr	r3, r3, #10
   16310:	e0211003 	eor	r1, r1, r3
   16314:	e51b3060 	ldr	r3, [fp, #-96]	; 0x60
   16318:	e0811003 	add	r1, r1, r3
   1631c:	e51b3080 	ldr	r3, [fp, #-128]	; 0x80
   16320:	e1a003e3 	ror	r0, r3, #7
   16324:	e51b3080 	ldr	r3, [fp, #-128]	; 0x80
   16328:	e1a03963 	ror	r3, r3, #18
   1632c:	e0200003 	eor	r0, r0, r3
   16330:	e51b3080 	ldr	r3, [fp, #-128]	; 0x80
   16334:	e1a031a3 	lsr	r3, r3, #3
   16338:	e0203003 	eor	r3, r0, r3
   1633c:	e0811003 	add	r1, r1, r3
   16340:	e51b3084 	ldr	r3, [fp, #-132]	; 0x84
   16344:	e0813003 	add	r3, r1, r3
   16348:	e50b3044 	str	r3, [fp, #-68]	; 0x44
   1634c:	e51b3044 	ldr	r3, [fp, #-68]	; 0x44
   16350:	e0822003 	add	r2, r2, r3
   16354:	e51f3c3c 	ldr	r3, [pc, #-3132]	; 15720 <sha2_process+0x3664>
   16358:	e0823003 	add	r3, r2, r3
   1635c:	e50b3028 	str	r3, [fp, #-40]	; 0x28
   16360:	e51b3020 	ldr	r3, [fp, #-32]
   16364:	e1a02163 	ror	r2, r3, #2
   16368:	e51b3020 	ldr	r3, [fp, #-32]
   1636c:	e1a036e3 	ror	r3, r3, #13
   16370:	e0222003 	eor	r2, r2, r3
   16374:	e51b3020 	ldr	r3, [fp, #-32]
   16378:	e1a03b63 	ror	r3, r3, #22
   1637c:	e0222003 	eor	r2, r2, r3
   16380:	e51b1020 	ldr	r1, [fp, #-32]
   16384:	e51b3024 	ldr	r3, [fp, #-36]	; 0x24
   16388:	e0011003 	and	r1, r1, r3
   1638c:	e51b0020 	ldr	r0, [fp, #-32]
   16390:	e51b3024 	ldr	r3, [fp, #-36]	; 0x24
   16394:	e1800003 	orr	r0, r0, r3
   16398:	e51b3008 	ldr	r3, [fp, #-8]
   1639c:	e0003003 	and	r3, r0, r3
   163a0:	e1813003 	orr	r3, r1, r3
   163a4:	e0823003 	add	r3, r2, r3
   163a8:	e50b302c 	str	r3, [fp, #-44]	; 0x2c
   163ac:	e51b200c 	ldr	r2, [fp, #-12]
   163b0:	e51b3028 	ldr	r3, [fp, #-40]	; 0x28
   163b4:	e0823003 	add	r3, r2, r3
   163b8:	e50b300c 	str	r3, [fp, #-12]
   163bc:	e51b2028 	ldr	r2, [fp, #-40]	; 0x28
   163c0:	e51b302c 	ldr	r3, [fp, #-44]	; 0x2c
   163c4:	e0823003 	add	r3, r2, r3
   163c8:	e50b301c 	str	r3, [fp, #-28]
   163cc:	e51b300c 	ldr	r3, [fp, #-12]
   163d0:	e1a02363 	ror	r2, r3, #6
   163d4:	e51b300c 	ldr	r3, [fp, #-12]
   163d8:	e1a035e3 	ror	r3, r3, #11
   163dc:	e0222003 	eor	r2, r2, r3
   163e0:	e51b300c 	ldr	r3, [fp, #-12]
   163e4:	e1a03ce3 	ror	r3, r3, #25
   163e8:	e0222003 	eor	r2, r2, r3
   163ec:	e51b3018 	ldr	r3, [fp, #-24]
   163f0:	e0822003 	add	r2, r2, r3
   163f4:	e51b1010 	ldr	r1, [fp, #-16]
   163f8:	e51b3014 	ldr	r3, [fp, #-20]
   163fc:	e0211003 	eor	r1, r1, r3
   16400:	e51b300c 	ldr	r3, [fp, #-12]
   16404:	e0011003 	and	r1, r1, r3
   16408:	e51b3014 	ldr	r3, [fp, #-20]
   1640c:	e0213003 	eor	r3, r1, r3
   16410:	e0822003 	add	r2, r2, r3
   16414:	e51b3048 	ldr	r3, [fp, #-72]	; 0x48
   16418:	e1a018e3 	ror	r1, r3, #17
   1641c:	e51b3048 	ldr	r3, [fp, #-72]	; 0x48
   16420:	e1a039e3 	ror	r3, r3, #19
   16424:	e0211003 	eor	r1, r1, r3
   16428:	e51b3048 	ldr	r3, [fp, #-72]	; 0x48
   1642c:	e1a03523 	lsr	r3, r3, #10
   16430:	e0211003 	eor	r1, r1, r3
   16434:	e51b305c 	ldr	r3, [fp, #-92]	; 0x5c
   16438:	e0811003 	add	r1, r1, r3
   1643c:	e51b307c 	ldr	r3, [fp, #-124]	; 0x7c
   16440:	e1a003e3 	ror	r0, r3, #7
   16444:	e51b307c 	ldr	r3, [fp, #-124]	; 0x7c
   16448:	e1a03963 	ror	r3, r3, #18
   1644c:	e0200003 	eor	r0, r0, r3
   16450:	e51b307c 	ldr	r3, [fp, #-124]	; 0x7c
   16454:	e1a031a3 	lsr	r3, r3, #3
   16458:	e0203003 	eor	r3, r0, r3
   1645c:	e0811003 	add	r1, r1, r3
   16460:	e51b3080 	ldr	r3, [fp, #-128]	; 0x80
   16464:	e0813003 	add	r3, r1, r3
   16468:	e50b3040 	str	r3, [fp, #-64]	; 0x40
   1646c:	e51b3040 	ldr	r3, [fp, #-64]	; 0x40
   16470:	e0822003 	add	r2, r2, r3
   16474:	e51f3d58 	ldr	r3, [pc, #-3416]	; 15724 <sha2_process+0x3668>
   16478:	e0823003 	add	r3, r2, r3
   1647c:	e50b3028 	str	r3, [fp, #-40]	; 0x28
   16480:	e51b301c 	ldr	r3, [fp, #-28]
   16484:	e1a02163 	ror	r2, r3, #2
   16488:	e51b301c 	ldr	r3, [fp, #-28]
   1648c:	e1a036e3 	ror	r3, r3, #13
   16490:	e0222003 	eor	r2, r2, r3
   16494:	e51b301c 	ldr	r3, [fp, #-28]
   16498:	e1a03b63 	ror	r3, r3, #22
   1649c:	e0222003 	eor	r2, r2, r3
   164a0:	e51b101c 	ldr	r1, [fp, #-28]
   164a4:	e51b3020 	ldr	r3, [fp, #-32]
   164a8:	e0011003 	and	r1, r1, r3
   164ac:	e51b001c 	ldr	r0, [fp, #-28]
   164b0:	e51b3020 	ldr	r3, [fp, #-32]
   164b4:	e1800003 	orr	r0, r0, r3
   164b8:	e51b3024 	ldr	r3, [fp, #-36]	; 0x24
   164bc:	e0003003 	and	r3, r0, r3
   164c0:	e1813003 	orr	r3, r1, r3
   164c4:	e0823003 	add	r3, r2, r3
   164c8:	e50b302c 	str	r3, [fp, #-44]	; 0x2c
   164cc:	e51b2008 	ldr	r2, [fp, #-8]
   164d0:	e51b3028 	ldr	r3, [fp, #-40]	; 0x28
   164d4:	e0823003 	add	r3, r2, r3
   164d8:	e50b3008 	str	r3, [fp, #-8]
   164dc:	e51b2028 	ldr	r2, [fp, #-40]	; 0x28
   164e0:	e51b302c 	ldr	r3, [fp, #-44]	; 0x2c
   164e4:	e0823003 	add	r3, r2, r3
   164e8:	e50b3018 	str	r3, [fp, #-24]
   164ec:	e51b3008 	ldr	r3, [fp, #-8]
   164f0:	e1a02363 	ror	r2, r3, #6
   164f4:	e51b3008 	ldr	r3, [fp, #-8]
   164f8:	e1a035e3 	ror	r3, r3, #11
   164fc:	e0222003 	eor	r2, r2, r3
   16500:	e51b3008 	ldr	r3, [fp, #-8]
   16504:	e1a03ce3 	ror	r3, r3, #25
   16508:	e0222003 	eor	r2, r2, r3
   1650c:	e51b3014 	ldr	r3, [fp, #-20]
   16510:	e0822003 	add	r2, r2, r3
   16514:	e51b100c 	ldr	r1, [fp, #-12]
   16518:	e51b3010 	ldr	r3, [fp, #-16]
   1651c:	e0211003 	eor	r1, r1, r3
   16520:	e51b3008 	ldr	r3, [fp, #-8]
   16524:	e0011003 	and	r1, r1, r3
   16528:	e51b3010 	ldr	r3, [fp, #-16]
   1652c:	e0213003 	eor	r3, r1, r3
   16530:	e0822003 	add	r2, r2, r3
   16534:	e51b3044 	ldr	r3, [fp, #-68]	; 0x44
   16538:	e1a018e3 	ror	r1, r3, #17
   1653c:	e51b3044 	ldr	r3, [fp, #-68]	; 0x44
   16540:	e1a039e3 	ror	r3, r3, #19
   16544:	e0211003 	eor	r1, r1, r3
   16548:	e51b3044 	ldr	r3, [fp, #-68]	; 0x44
   1654c:	e1a03523 	lsr	r3, r3, #10
   16550:	e0211003 	eor	r1, r1, r3
   16554:	e51b3058 	ldr	r3, [fp, #-88]	; 0x58
   16558:	e0811003 	add	r1, r1, r3
   1655c:	e51b3078 	ldr	r3, [fp, #-120]	; 0x78
   16560:	e1a003e3 	ror	r0, r3, #7
   16564:	e51b3078 	ldr	r3, [fp, #-120]	; 0x78
   16568:	e1a03963 	ror	r3, r3, #18
   1656c:	e0200003 	eor	r0, r0, r3
   16570:	e51b3078 	ldr	r3, [fp, #-120]	; 0x78
   16574:	e1a031a3 	lsr	r3, r3, #3
   16578:	e0203003 	eor	r3, r0, r3
   1657c:	e0811003 	add	r1, r1, r3
   16580:	e51b307c 	ldr	r3, [fp, #-124]	; 0x7c
   16584:	e0813003 	add	r3, r1, r3
   16588:	e50b303c 	str	r3, [fp, #-60]	; 0x3c
   1658c:	e51b303c 	ldr	r3, [fp, #-60]	; 0x3c
   16590:	e0822003 	add	r2, r2, r3
   16594:	e51f3e74 	ldr	r3, [pc, #-3700]	; 15728 <sha2_process+0x366c>
   16598:	e0823003 	add	r3, r2, r3
   1659c:	e50b3028 	str	r3, [fp, #-40]	; 0x28
   165a0:	e51b3018 	ldr	r3, [fp, #-24]
   165a4:	e1a02163 	ror	r2, r3, #2
   165a8:	e51b3018 	ldr	r3, [fp, #-24]
   165ac:	e1a036e3 	ror	r3, r3, #13
   165b0:	e0222003 	eor	r2, r2, r3
   165b4:	e51b3018 	ldr	r3, [fp, #-24]
   165b8:	e1a03b63 	ror	r3, r3, #22
   165bc:	e0222003 	eor	r2, r2, r3
   165c0:	e51b1018 	ldr	r1, [fp, #-24]
   165c4:	e51b301c 	ldr	r3, [fp, #-28]
   165c8:	e0011003 	and	r1, r1, r3
   165cc:	e51b0018 	ldr	r0, [fp, #-24]
   165d0:	e51b301c 	ldr	r3, [fp, #-28]
   165d4:	e1800003 	orr	r0, r0, r3
   165d8:	e51b3020 	ldr	r3, [fp, #-32]
   165dc:	e0003003 	and	r3, r0, r3
   165e0:	e1813003 	orr	r3, r1, r3
   165e4:	e0823003 	add	r3, r2, r3
   165e8:	e50b302c 	str	r3, [fp, #-44]	; 0x2c
   165ec:	e51b2024 	ldr	r2, [fp, #-36]	; 0x24
   165f0:	e51b3028 	ldr	r3, [fp, #-40]	; 0x28
   165f4:	e0823003 	add	r3, r2, r3
   165f8:	e50b3024 	str	r3, [fp, #-36]	; 0x24
   165fc:	e51b2028 	ldr	r2, [fp, #-40]	; 0x28
   16600:	e51b302c 	ldr	r3, [fp, #-44]	; 0x2c
   16604:	e0823003 	add	r3, r2, r3
   16608:	e50b3014 	str	r3, [fp, #-20]
   1660c:	e51b3024 	ldr	r3, [fp, #-36]	; 0x24
   16610:	e1a02363 	ror	r2, r3, #6
   16614:	e51b3024 	ldr	r3, [fp, #-36]	; 0x24
   16618:	e1a035e3 	ror	r3, r3, #11
   1661c:	e0222003 	eor	r2, r2, r3
   16620:	e51b3024 	ldr	r3, [fp, #-36]	; 0x24
   16624:	e1a03ce3 	ror	r3, r3, #25
   16628:	e0222003 	eor	r2, r2, r3
   1662c:	e51b3010 	ldr	r3, [fp, #-16]
   16630:	e0822003 	add	r2, r2, r3
   16634:	e51b1008 	ldr	r1, [fp, #-8]
   16638:	e51b300c 	ldr	r3, [fp, #-12]
   1663c:	e0211003 	eor	r1, r1, r3
   16640:	e51b3024 	ldr	r3, [fp, #-36]	; 0x24
   16644:	e0011003 	and	r1, r1, r3
   16648:	e51b300c 	ldr	r3, [fp, #-12]
   1664c:	e0213003 	eor	r3, r1, r3
   16650:	e0822003 	add	r2, r2, r3
   16654:	e51b3040 	ldr	r3, [fp, #-64]	; 0x40
   16658:	e1a018e3 	ror	r1, r3, #17
   1665c:	e51b3040 	ldr	r3, [fp, #-64]	; 0x40
   16660:	e1a039e3 	ror	r3, r3, #19
   16664:	e0211003 	eor	r1, r1, r3
   16668:	e51b3040 	ldr	r3, [fp, #-64]	; 0x40
   1666c:	e1a03523 	lsr	r3, r3, #10
   16670:	e0211003 	eor	r1, r1, r3
   16674:	e51b3054 	ldr	r3, [fp, #-84]	; 0x54
   16678:	e0811003 	add	r1, r1, r3
   1667c:	e51b3074 	ldr	r3, [fp, #-116]	; 0x74
   16680:	e1a003e3 	ror	r0, r3, #7
   16684:	e51b3074 	ldr	r3, [fp, #-116]	; 0x74
   16688:	e1a03963 	ror	r3, r3, #18
   1668c:	e0200003 	eor	r0, r0, r3
   16690:	e51b3074 	ldr	r3, [fp, #-116]	; 0x74
   16694:	e1a031a3 	lsr	r3, r3, #3
   16698:	e0203003 	eor	r3, r0, r3
   1669c:	e0811003 	add	r1, r1, r3
   166a0:	e51b3078 	ldr	r3, [fp, #-120]	; 0x78
   166a4:	e0813003 	add	r3, r1, r3
   166a8:	e50b3038 	str	r3, [fp, #-56]	; 0x38
   166ac:	e51b3038 	ldr	r3, [fp, #-56]	; 0x38
   166b0:	e0822003 	add	r2, r2, r3
   166b4:	e51f3f90 	ldr	r3, [pc, #-3984]	; 1572c <sha2_process+0x3670>
   166b8:	e0823003 	add	r3, r2, r3
   166bc:	e50b3028 	str	r3, [fp, #-40]	; 0x28
   166c0:	e51b3014 	ldr	r3, [fp, #-20]
   166c4:	e1a02163 	ror	r2, r3, #2
   166c8:	e51b3014 	ldr	r3, [fp, #-20]
   166cc:	e1a036e3 	ror	r3, r3, #13
   166d0:	e0222003 	eor	r2, r2, r3
   166d4:	e51b3014 	ldr	r3, [fp, #-20]
   166d8:	e1a03b63 	ror	r3, r3, #22
   166dc:	e0222003 	eor	r2, r2, r3
   166e0:	e51b1014 	ldr	r1, [fp, #-20]
   166e4:	e51b3018 	ldr	r3, [fp, #-24]
   166e8:	e0011003 	and	r1, r1, r3
   166ec:	e51b0014 	ldr	r0, [fp, #-20]
   166f0:	e51b3018 	ldr	r3, [fp, #-24]
   166f4:	e1800003 	orr	r0, r0, r3
   166f8:	e51b301c 	ldr	r3, [fp, #-28]
   166fc:	e0003003 	and	r3, r0, r3
   16700:	e1813003 	orr	r3, r1, r3
   16704:	e0823003 	add	r3, r2, r3
   16708:	e50b302c 	str	r3, [fp, #-44]	; 0x2c
   1670c:	e51b2020 	ldr	r2, [fp, #-32]
   16710:	e51b3028 	ldr	r3, [fp, #-40]	; 0x28
   16714:	e0823003 	add	r3, r2, r3
   16718:	e50b3020 	str	r3, [fp, #-32]
   1671c:	e51b2028 	ldr	r2, [fp, #-40]	; 0x28
   16720:	e51b302c 	ldr	r3, [fp, #-44]	; 0x2c
   16724:	e0823003 	add	r3, r2, r3
   16728:	e50b3010 	str	r3, [fp, #-16]
   1672c:	e51b3020 	ldr	r3, [fp, #-32]
   16730:	e1a02363 	ror	r2, r3, #6
   16734:	e51b3020 	ldr	r3, [fp, #-32]
   16738:	e1a035e3 	ror	r3, r3, #11
   1673c:	e0222003 	eor	r2, r2, r3
   16740:	e51b3020 	ldr	r3, [fp, #-32]
   16744:	e1a03ce3 	ror	r3, r3, #25
   16748:	e0222003 	eor	r2, r2, r3
   1674c:	e51b300c 	ldr	r3, [fp, #-12]
   16750:	e0822003 	add	r2, r2, r3
   16754:	e51b1024 	ldr	r1, [fp, #-36]	; 0x24
   16758:	e51b3008 	ldr	r3, [fp, #-8]
   1675c:	e0211003 	eor	r1, r1, r3
   16760:	e51b3020 	ldr	r3, [fp, #-32]
   16764:	e0011003 	and	r1, r1, r3
   16768:	e51b3008 	ldr	r3, [fp, #-8]
   1676c:	e0213003 	eor	r3, r1, r3
   16770:	e0822003 	add	r2, r2, r3
   16774:	e51b303c 	ldr	r3, [fp, #-60]	; 0x3c
   16778:	e1a018e3 	ror	r1, r3, #17
   1677c:	e51b303c 	ldr	r3, [fp, #-60]	; 0x3c
   16780:	e1a039e3 	ror	r3, r3, #19
   16784:	e0211003 	eor	r1, r1, r3
   16788:	e51b303c 	ldr	r3, [fp, #-60]	; 0x3c
   1678c:	e1a03523 	lsr	r3, r3, #10
   16790:	e0211003 	eor	r1, r1, r3
   16794:	e51b3050 	ldr	r3, [fp, #-80]	; 0x50
   16798:	e0811003 	add	r1, r1, r3
   1679c:	e51b3070 	ldr	r3, [fp, #-112]	; 0x70
   167a0:	e1a003e3 	ror	r0, r3, #7
   167a4:	e51b3070 	ldr	r3, [fp, #-112]	; 0x70
   167a8:	e1a03963 	ror	r3, r3, #18
   167ac:	e0200003 	eor	r0, r0, r3
   167b0:	e51b3070 	ldr	r3, [fp, #-112]	; 0x70
   167b4:	e1a031a3 	lsr	r3, r3, #3
   167b8:	e0203003 	eor	r3, r0, r3
   167bc:	e0811003 	add	r1, r1, r3
   167c0:	e51b3074 	ldr	r3, [fp, #-116]	; 0x74
   167c4:	e0813003 	add	r3, r1, r3
   167c8:	e50b3034 	str	r3, [fp, #-52]	; 0x34
   167cc:	e51b3034 	ldr	r3, [fp, #-52]	; 0x34
   167d0:	e0822003 	add	r2, r2, r3
   167d4:	e59f325c 	ldr	r3, [pc, #604]	; 16a38 <sha2_process+0x497c>
   167d8:	e0823003 	add	r3, r2, r3
   167dc:	e50b3028 	str	r3, [fp, #-40]	; 0x28
   167e0:	e51b3010 	ldr	r3, [fp, #-16]
   167e4:	e1a02163 	ror	r2, r3, #2
   167e8:	e51b3010 	ldr	r3, [fp, #-16]
   167ec:	e1a036e3 	ror	r3, r3, #13
   167f0:	e0222003 	eor	r2, r2, r3
   167f4:	e51b3010 	ldr	r3, [fp, #-16]
   167f8:	e1a03b63 	ror	r3, r3, #22
   167fc:	e0222003 	eor	r2, r2, r3
   16800:	e51b1010 	ldr	r1, [fp, #-16]
   16804:	e51b3014 	ldr	r3, [fp, #-20]
   16808:	e0011003 	and	r1, r1, r3
   1680c:	e51b0010 	ldr	r0, [fp, #-16]
   16810:	e51b3014 	ldr	r3, [fp, #-20]
   16814:	e1800003 	orr	r0, r0, r3
   16818:	e51b3018 	ldr	r3, [fp, #-24]
   1681c:	e0003003 	and	r3, r0, r3
   16820:	e1813003 	orr	r3, r1, r3
   16824:	e0823003 	add	r3, r2, r3
   16828:	e50b302c 	str	r3, [fp, #-44]	; 0x2c
   1682c:	e51b201c 	ldr	r2, [fp, #-28]
   16830:	e51b3028 	ldr	r3, [fp, #-40]	; 0x28
   16834:	e0823003 	add	r3, r2, r3
   16838:	e50b301c 	str	r3, [fp, #-28]
   1683c:	e51b2028 	ldr	r2, [fp, #-40]	; 0x28
   16840:	e51b302c 	ldr	r3, [fp, #-44]	; 0x2c
   16844:	e0823003 	add	r3, r2, r3
   16848:	e50b300c 	str	r3, [fp, #-12]
   1684c:	e51b301c 	ldr	r3, [fp, #-28]
   16850:	e1a02363 	ror	r2, r3, #6
   16854:	e51b301c 	ldr	r3, [fp, #-28]
   16858:	e1a035e3 	ror	r3, r3, #11
   1685c:	e0222003 	eor	r2, r2, r3
   16860:	e51b301c 	ldr	r3, [fp, #-28]
   16864:	e1a03ce3 	ror	r3, r3, #25
   16868:	e0222003 	eor	r2, r2, r3
   1686c:	e51b3008 	ldr	r3, [fp, #-8]
   16870:	e0822003 	add	r2, r2, r3
   16874:	e51b1020 	ldr	r1, [fp, #-32]
   16878:	e51b3024 	ldr	r3, [fp, #-36]	; 0x24
   1687c:	e0211003 	eor	r1, r1, r3
   16880:	e51b301c 	ldr	r3, [fp, #-28]
   16884:	e0011003 	and	r1, r1, r3
   16888:	e51b3024 	ldr	r3, [fp, #-36]	; 0x24
   1688c:	e0213003 	eor	r3, r1, r3
   16890:	e0822003 	add	r2, r2, r3
   16894:	e51b3038 	ldr	r3, [fp, #-56]	; 0x38
   16898:	e1a018e3 	ror	r1, r3, #17
   1689c:	e51b3038 	ldr	r3, [fp, #-56]	; 0x38
   168a0:	e1a039e3 	ror	r3, r3, #19
   168a4:	e0211003 	eor	r1, r1, r3
   168a8:	e51b3038 	ldr	r3, [fp, #-56]	; 0x38
   168ac:	e1a03523 	lsr	r3, r3, #10
   168b0:	e0211003 	eor	r1, r1, r3
   168b4:	e51b304c 	ldr	r3, [fp, #-76]	; 0x4c
   168b8:	e0811003 	add	r1, r1, r3
   168bc:	e51b306c 	ldr	r3, [fp, #-108]	; 0x6c
   168c0:	e1a003e3 	ror	r0, r3, #7
   168c4:	e51b306c 	ldr	r3, [fp, #-108]	; 0x6c
   168c8:	e1a03963 	ror	r3, r3, #18
   168cc:	e0200003 	eor	r0, r0, r3
   168d0:	e51b306c 	ldr	r3, [fp, #-108]	; 0x6c
   168d4:	e1a031a3 	lsr	r3, r3, #3
   168d8:	e0203003 	eor	r3, r0, r3
   168dc:	e0811003 	add	r1, r1, r3
   168e0:	e51b3070 	ldr	r3, [fp, #-112]	; 0x70
   168e4:	e0813003 	add	r3, r1, r3
   168e8:	e50b3030 	str	r3, [fp, #-48]	; 0x30
   168ec:	e51b3030 	ldr	r3, [fp, #-48]	; 0x30
   168f0:	e0822003 	add	r2, r2, r3
   168f4:	e59f3140 	ldr	r3, [pc, #320]	; 16a3c <sha2_process+0x4980>
   168f8:	e0823003 	add	r3, r2, r3
   168fc:	e50b3028 	str	r3, [fp, #-40]	; 0x28
   16900:	e51b300c 	ldr	r3, [fp, #-12]
   16904:	e1a02163 	ror	r2, r3, #2
   16908:	e51b300c 	ldr	r3, [fp, #-12]
   1690c:	e1a036e3 	ror	r3, r3, #13
   16910:	e0222003 	eor	r2, r2, r3
   16914:	e51b300c 	ldr	r3, [fp, #-12]
   16918:	e1a03b63 	ror	r3, r3, #22
   1691c:	e0222003 	eor	r2, r2, r3
   16920:	e51b100c 	ldr	r1, [fp, #-12]
   16924:	e51b3010 	ldr	r3, [fp, #-16]
   16928:	e0011003 	and	r1, r1, r3
   1692c:	e51b000c 	ldr	r0, [fp, #-12]
   16930:	e51b3010 	ldr	r3, [fp, #-16]
   16934:	e1800003 	orr	r0, r0, r3
   16938:	e51b3014 	ldr	r3, [fp, #-20]
   1693c:	e0003003 	and	r3, r0, r3
   16940:	e1813003 	orr	r3, r1, r3
   16944:	e0823003 	add	r3, r2, r3
   16948:	e50b302c 	str	r3, [fp, #-44]	; 0x2c
   1694c:	e51b2018 	ldr	r2, [fp, #-24]
   16950:	e51b3028 	ldr	r3, [fp, #-40]	; 0x28
   16954:	e0823003 	add	r3, r2, r3
   16958:	e50b3018 	str	r3, [fp, #-24]
   1695c:	e51b2028 	ldr	r2, [fp, #-40]	; 0x28
   16960:	e51b302c 	ldr	r3, [fp, #-44]	; 0x2c
   16964:	e0823003 	add	r3, r2, r3
   16968:	e50b3008 	str	r3, [fp, #-8]
   1696c:	e51b3130 	ldr	r3, [fp, #-304]	; 0x130
   16970:	e5932008 	ldr	r2, [r3, #8]
   16974:	e51b3008 	ldr	r3, [fp, #-8]
   16978:	e0822003 	add	r2, r2, r3
   1697c:	e51b3130 	ldr	r3, [fp, #-304]	; 0x130
   16980:	e5832008 	str	r2, [r3, #8]
   16984:	e51b3130 	ldr	r3, [fp, #-304]	; 0x130
   16988:	e593200c 	ldr	r2, [r3, #12]
   1698c:	e51b300c 	ldr	r3, [fp, #-12]
   16990:	e0822003 	add	r2, r2, r3
   16994:	e51b3130 	ldr	r3, [fp, #-304]	; 0x130
   16998:	e583200c 	str	r2, [r3, #12]
   1699c:	e51b3130 	ldr	r3, [fp, #-304]	; 0x130
   169a0:	e5932010 	ldr	r2, [r3, #16]
   169a4:	e51b3010 	ldr	r3, [fp, #-16]
   169a8:	e0822003 	add	r2, r2, r3
   169ac:	e51b3130 	ldr	r3, [fp, #-304]	; 0x130
   169b0:	e5832010 	str	r2, [r3, #16]
   169b4:	e51b3130 	ldr	r3, [fp, #-304]	; 0x130
   169b8:	e5932014 	ldr	r2, [r3, #20]
   169bc:	e51b3014 	ldr	r3, [fp, #-20]
   169c0:	e0822003 	add	r2, r2, r3
   169c4:	e51b3130 	ldr	r3, [fp, #-304]	; 0x130
   169c8:	e5832014 	str	r2, [r3, #20]
   169cc:	e51b3130 	ldr	r3, [fp, #-304]	; 0x130
   169d0:	e5932018 	ldr	r2, [r3, #24]
   169d4:	e51b3018 	ldr	r3, [fp, #-24]
   169d8:	e0822003 	add	r2, r2, r3
   169dc:	e51b3130 	ldr	r3, [fp, #-304]	; 0x130
   169e0:	e5832018 	str	r2, [r3, #24]
   169e4:	e51b3130 	ldr	r3, [fp, #-304]	; 0x130
   169e8:	e593201c 	ldr	r2, [r3, #28]
   169ec:	e51b301c 	ldr	r3, [fp, #-28]
   169f0:	e0822003 	add	r2, r2, r3
   169f4:	e51b3130 	ldr	r3, [fp, #-304]	; 0x130
   169f8:	e583201c 	str	r2, [r3, #28]
   169fc:	e51b3130 	ldr	r3, [fp, #-304]	; 0x130
   16a00:	e5932020 	ldr	r2, [r3, #32]
   16a04:	e51b3020 	ldr	r3, [fp, #-32]
   16a08:	e0822003 	add	r2, r2, r3
   16a0c:	e51b3130 	ldr	r3, [fp, #-304]	; 0x130
   16a10:	e5832020 	str	r2, [r3, #32]
   16a14:	e51b3130 	ldr	r3, [fp, #-304]	; 0x130
   16a18:	e5932024 	ldr	r2, [r3, #36]	; 0x24
   16a1c:	e51b3024 	ldr	r3, [fp, #-36]	; 0x24
   16a20:	e0822003 	add	r2, r2, r3
   16a24:	e51b3130 	ldr	r3, [fp, #-304]	; 0x130
   16a28:	e5832024 	str	r2, [r3, #36]	; 0x24
   16a2c:	e28bd000 	add	sp, fp, #0
   16a30:	e8bd0800 	pop	{fp}
   16a34:	e12fff1e 	bx	lr
   16a38:	bef9a3f7 	.word	0xbef9a3f7
   16a3c:	c67178f2 	.word	0xc67178f2

00016a40 <sha2_update>:
   16a40:	e92d4800 	push	{fp, lr}
   16a44:	e28db004 	add	fp, sp, #4
   16a48:	e24dd018 	sub	sp, sp, #24
   16a4c:	e50b0010 	str	r0, [fp, #-16]
   16a50:	e50b1014 	str	r1, [fp, #-20]
   16a54:	e50b2018 	str	r2, [fp, #-24]
   16a58:	e51b3018 	ldr	r3, [fp, #-24]
   16a5c:	e3530000 	cmp	r3, #0
   16a60:	0a000059 	beq	16bcc <sha2_update+0x18c>
   16a64:	e51b3010 	ldr	r3, [fp, #-16]
   16a68:	e5933000 	ldr	r3, [r3]
   16a6c:	e203303f 	and	r3, r3, #63	; 0x3f
   16a70:	e50b3008 	str	r3, [fp, #-8]
   16a74:	e51b3008 	ldr	r3, [fp, #-8]
   16a78:	e2633040 	rsb	r3, r3, #64	; 0x40
   16a7c:	e50b300c 	str	r3, [fp, #-12]
   16a80:	e51b3010 	ldr	r3, [fp, #-16]
   16a84:	e5932000 	ldr	r2, [r3]
   16a88:	e51b3018 	ldr	r3, [fp, #-24]
   16a8c:	e0822003 	add	r2, r2, r3
   16a90:	e51b3010 	ldr	r3, [fp, #-16]
   16a94:	e5832000 	str	r2, [r3]
   16a98:	e51b3010 	ldr	r3, [fp, #-16]
   16a9c:	e5932000 	ldr	r2, [r3]
   16aa0:	e51b3010 	ldr	r3, [fp, #-16]
   16aa4:	e5832000 	str	r2, [r3]
   16aa8:	e51b3010 	ldr	r3, [fp, #-16]
   16aac:	e5932000 	ldr	r2, [r3]
   16ab0:	e51b3018 	ldr	r3, [fp, #-24]
   16ab4:	e1520003 	cmp	r2, r3
   16ab8:	2a000004 	bcs	16ad0 <sha2_update+0x90>
   16abc:	e51b3010 	ldr	r3, [fp, #-16]
   16ac0:	e5933004 	ldr	r3, [r3, #4]
   16ac4:	e2832001 	add	r2, r3, #1
   16ac8:	e51b3010 	ldr	r3, [fp, #-16]
   16acc:	e5832004 	str	r2, [r3, #4]
   16ad0:	e51b3008 	ldr	r3, [fp, #-8]
   16ad4:	e3530000 	cmp	r3, #0
   16ad8:	0a000028 	beq	16b80 <sha2_update+0x140>
   16adc:	e51b2018 	ldr	r2, [fp, #-24]
   16ae0:	e51b300c 	ldr	r3, [fp, #-12]
   16ae4:	e1520003 	cmp	r2, r3
   16ae8:	3a000024 	bcc	16b80 <sha2_update+0x140>
   16aec:	e51b3010 	ldr	r3, [fp, #-16]
   16af0:	e2832028 	add	r2, r3, #40	; 0x28
   16af4:	e51b3008 	ldr	r3, [fp, #-8]
   16af8:	e0822003 	add	r2, r2, r3
   16afc:	e51b3014 	ldr	r3, [fp, #-20]
   16b00:	e1a01002 	mov	r1, r2
   16b04:	e1a02003 	mov	r2, r3
   16b08:	e51b300c 	ldr	r3, [fp, #-12]
   16b0c:	e1a00001 	mov	r0, r1
   16b10:	e1a01002 	mov	r1, r2
   16b14:	e1a02003 	mov	r2, r3
   16b18:	ebffc816 	bl	8b78 <_init+0x74>
   16b1c:	e51b3010 	ldr	r3, [fp, #-16]
   16b20:	e2833028 	add	r3, r3, #40	; 0x28
   16b24:	e51b0010 	ldr	r0, [fp, #-16]
   16b28:	e1a01003 	mov	r1, r3
   16b2c:	ebffed62 	bl	120bc <sha2_process>
   16b30:	e51b2014 	ldr	r2, [fp, #-20]
   16b34:	e51b300c 	ldr	r3, [fp, #-12]
   16b38:	e0823003 	add	r3, r2, r3
   16b3c:	e50b3014 	str	r3, [fp, #-20]
   16b40:	e51b2018 	ldr	r2, [fp, #-24]
   16b44:	e51b300c 	ldr	r3, [fp, #-12]
   16b48:	e0633002 	rsb	r3, r3, r2
   16b4c:	e50b3018 	str	r3, [fp, #-24]
   16b50:	e3a03000 	mov	r3, #0
   16b54:	e50b3008 	str	r3, [fp, #-8]
   16b58:	ea000008 	b	16b80 <sha2_update+0x140>
   16b5c:	e51b0010 	ldr	r0, [fp, #-16]
   16b60:	e51b1014 	ldr	r1, [fp, #-20]
   16b64:	ebffed54 	bl	120bc <sha2_process>
   16b68:	e51b3014 	ldr	r3, [fp, #-20]
   16b6c:	e2833040 	add	r3, r3, #64	; 0x40
   16b70:	e50b3014 	str	r3, [fp, #-20]
   16b74:	e51b3018 	ldr	r3, [fp, #-24]
   16b78:	e2433040 	sub	r3, r3, #64	; 0x40
   16b7c:	e50b3018 	str	r3, [fp, #-24]
   16b80:	e51b3018 	ldr	r3, [fp, #-24]
   16b84:	e353003f 	cmp	r3, #63	; 0x3f
   16b88:	8afffff3 	bhi	16b5c <sha2_update+0x11c>
   16b8c:	e51b3018 	ldr	r3, [fp, #-24]
   16b90:	e3530000 	cmp	r3, #0
   16b94:	0a00000d 	beq	16bd0 <sha2_update+0x190>
   16b98:	e51b3010 	ldr	r3, [fp, #-16]
   16b9c:	e2832028 	add	r2, r3, #40	; 0x28
   16ba0:	e51b3008 	ldr	r3, [fp, #-8]
   16ba4:	e0822003 	add	r2, r2, r3
   16ba8:	e51b3014 	ldr	r3, [fp, #-20]
   16bac:	e1a01002 	mov	r1, r2
   16bb0:	e1a02003 	mov	r2, r3
   16bb4:	e51b3018 	ldr	r3, [fp, #-24]
   16bb8:	e1a00001 	mov	r0, r1
   16bbc:	e1a01002 	mov	r1, r2
   16bc0:	e1a02003 	mov	r2, r3
   16bc4:	ebffc7eb 	bl	8b78 <_init+0x74>
   16bc8:	ea000000 	b	16bd0 <sha2_update+0x190>
   16bcc:	e1a00000 	nop			; (mov r0, r0)
   16bd0:	e24bd004 	sub	sp, fp, #4
   16bd4:	e8bd8800 	pop	{fp, pc}

00016bd8 <sha2_finish>:
   16bd8:	e92d4800 	push	{fp, lr}
   16bdc:	e28db004 	add	fp, sp, #4
   16be0:	e24dd020 	sub	sp, sp, #32
   16be4:	e50b0020 	str	r0, [fp, #-32]
   16be8:	e50b1024 	str	r1, [fp, #-36]	; 0x24
   16bec:	e51b3020 	ldr	r3, [fp, #-32]
   16bf0:	e5933000 	ldr	r3, [r3]
   16bf4:	e1a02ea3 	lsr	r2, r3, #29
   16bf8:	e51b3020 	ldr	r3, [fp, #-32]
   16bfc:	e5933004 	ldr	r3, [r3, #4]
   16c00:	e1a03183 	lsl	r3, r3, #3
   16c04:	e1823003 	orr	r3, r2, r3
   16c08:	e50b3008 	str	r3, [fp, #-8]
   16c0c:	e51b3020 	ldr	r3, [fp, #-32]
   16c10:	e5933000 	ldr	r3, [r3]
   16c14:	e1a03183 	lsl	r3, r3, #3
   16c18:	e50b300c 	str	r3, [fp, #-12]
   16c1c:	e51b3008 	ldr	r3, [fp, #-8]
   16c20:	e1a03c23 	lsr	r3, r3, #24
   16c24:	e6ef3073 	uxtb	r3, r3
   16c28:	e54b301c 	strb	r3, [fp, #-28]
   16c2c:	e51b3008 	ldr	r3, [fp, #-8]
   16c30:	e1a03823 	lsr	r3, r3, #16
   16c34:	e6ef3073 	uxtb	r3, r3
   16c38:	e54b301b 	strb	r3, [fp, #-27]
   16c3c:	e51b3008 	ldr	r3, [fp, #-8]
   16c40:	e1a03423 	lsr	r3, r3, #8
   16c44:	e6ef3073 	uxtb	r3, r3
   16c48:	e54b301a 	strb	r3, [fp, #-26]
   16c4c:	e51b3008 	ldr	r3, [fp, #-8]
   16c50:	e6ef3073 	uxtb	r3, r3
   16c54:	e54b3019 	strb	r3, [fp, #-25]
   16c58:	e51b300c 	ldr	r3, [fp, #-12]
   16c5c:	e1a03c23 	lsr	r3, r3, #24
   16c60:	e6ef3073 	uxtb	r3, r3
   16c64:	e54b3018 	strb	r3, [fp, #-24]
   16c68:	e51b300c 	ldr	r3, [fp, #-12]
   16c6c:	e1a03823 	lsr	r3, r3, #16
   16c70:	e6ef3073 	uxtb	r3, r3
   16c74:	e54b3017 	strb	r3, [fp, #-23]
   16c78:	e51b300c 	ldr	r3, [fp, #-12]
   16c7c:	e1a03423 	lsr	r3, r3, #8
   16c80:	e6ef3073 	uxtb	r3, r3
   16c84:	e54b3016 	strb	r3, [fp, #-22]
   16c88:	e51b300c 	ldr	r3, [fp, #-12]
   16c8c:	e6ef3073 	uxtb	r3, r3
   16c90:	e54b3015 	strb	r3, [fp, #-21]
   16c94:	e51b3020 	ldr	r3, [fp, #-32]
   16c98:	e5933000 	ldr	r3, [r3]
   16c9c:	e203303f 	and	r3, r3, #63	; 0x3f
   16ca0:	e50b3010 	str	r3, [fp, #-16]
   16ca4:	e51b3010 	ldr	r3, [fp, #-16]
   16ca8:	e3530037 	cmp	r3, #55	; 0x37
   16cac:	8a000002 	bhi	16cbc <sha2_finish+0xe4>
   16cb0:	e51b3010 	ldr	r3, [fp, #-16]
   16cb4:	e2633038 	rsb	r3, r3, #56	; 0x38
   16cb8:	ea000001 	b	16cc4 <sha2_finish+0xec>
   16cbc:	e51b3010 	ldr	r3, [fp, #-16]
   16cc0:	e2633078 	rsb	r3, r3, #120	; 0x78
   16cc4:	e50b3014 	str	r3, [fp, #-20]
   16cc8:	e51b0020 	ldr	r0, [fp, #-32]
   16ccc:	e59f138c 	ldr	r1, [pc, #908]	; 17060 <sha2_finish+0x488>
   16cd0:	e51b2014 	ldr	r2, [fp, #-20]
   16cd4:	ebffff59 	bl	16a40 <sha2_update>
   16cd8:	e24b301c 	sub	r3, fp, #28
   16cdc:	e51b0020 	ldr	r0, [fp, #-32]
   16ce0:	e1a01003 	mov	r1, r3
   16ce4:	e3a02008 	mov	r2, #8
   16ce8:	ebffff54 	bl	16a40 <sha2_update>
   16cec:	e51b3020 	ldr	r3, [fp, #-32]
   16cf0:	e5933008 	ldr	r3, [r3, #8]
   16cf4:	e1a03c23 	lsr	r3, r3, #24
   16cf8:	e6ef2073 	uxtb	r2, r3
   16cfc:	e51b3024 	ldr	r3, [fp, #-36]	; 0x24
   16d00:	e5c32000 	strb	r2, [r3]
   16d04:	e51b3024 	ldr	r3, [fp, #-36]	; 0x24
   16d08:	e2833001 	add	r3, r3, #1
   16d0c:	e51b2020 	ldr	r2, [fp, #-32]
   16d10:	e5922008 	ldr	r2, [r2, #8]
   16d14:	e1a02822 	lsr	r2, r2, #16
   16d18:	e6ef2072 	uxtb	r2, r2
   16d1c:	e5c32000 	strb	r2, [r3]
   16d20:	e51b3024 	ldr	r3, [fp, #-36]	; 0x24
   16d24:	e2833002 	add	r3, r3, #2
   16d28:	e51b2020 	ldr	r2, [fp, #-32]
   16d2c:	e5922008 	ldr	r2, [r2, #8]
   16d30:	e1a02422 	lsr	r2, r2, #8
   16d34:	e6ef2072 	uxtb	r2, r2
   16d38:	e5c32000 	strb	r2, [r3]
   16d3c:	e51b3024 	ldr	r3, [fp, #-36]	; 0x24
   16d40:	e2833003 	add	r3, r3, #3
   16d44:	e51b2020 	ldr	r2, [fp, #-32]
   16d48:	e5922008 	ldr	r2, [r2, #8]
   16d4c:	e6ef2072 	uxtb	r2, r2
   16d50:	e5c32000 	strb	r2, [r3]
   16d54:	e51b3024 	ldr	r3, [fp, #-36]	; 0x24
   16d58:	e2833004 	add	r3, r3, #4
   16d5c:	e51b2020 	ldr	r2, [fp, #-32]
   16d60:	e592200c 	ldr	r2, [r2, #12]
   16d64:	e1a02c22 	lsr	r2, r2, #24
   16d68:	e6ef2072 	uxtb	r2, r2
   16d6c:	e5c32000 	strb	r2, [r3]
   16d70:	e51b3024 	ldr	r3, [fp, #-36]	; 0x24
   16d74:	e2833005 	add	r3, r3, #5
   16d78:	e51b2020 	ldr	r2, [fp, #-32]
   16d7c:	e592200c 	ldr	r2, [r2, #12]
   16d80:	e1a02822 	lsr	r2, r2, #16
   16d84:	e6ef2072 	uxtb	r2, r2
   16d88:	e5c32000 	strb	r2, [r3]
   16d8c:	e51b3024 	ldr	r3, [fp, #-36]	; 0x24
   16d90:	e2833006 	add	r3, r3, #6
   16d94:	e51b2020 	ldr	r2, [fp, #-32]
   16d98:	e592200c 	ldr	r2, [r2, #12]
   16d9c:	e1a02422 	lsr	r2, r2, #8
   16da0:	e6ef2072 	uxtb	r2, r2
   16da4:	e5c32000 	strb	r2, [r3]
   16da8:	e51b3024 	ldr	r3, [fp, #-36]	; 0x24
   16dac:	e2833007 	add	r3, r3, #7
   16db0:	e51b2020 	ldr	r2, [fp, #-32]
   16db4:	e592200c 	ldr	r2, [r2, #12]
   16db8:	e6ef2072 	uxtb	r2, r2
   16dbc:	e5c32000 	strb	r2, [r3]
   16dc0:	e51b3024 	ldr	r3, [fp, #-36]	; 0x24
   16dc4:	e2833008 	add	r3, r3, #8
   16dc8:	e51b2020 	ldr	r2, [fp, #-32]
   16dcc:	e5922010 	ldr	r2, [r2, #16]
   16dd0:	e1a02c22 	lsr	r2, r2, #24
   16dd4:	e6ef2072 	uxtb	r2, r2
   16dd8:	e5c32000 	strb	r2, [r3]
   16ddc:	e51b3024 	ldr	r3, [fp, #-36]	; 0x24
   16de0:	e2833009 	add	r3, r3, #9
   16de4:	e51b2020 	ldr	r2, [fp, #-32]
   16de8:	e5922010 	ldr	r2, [r2, #16]
   16dec:	e1a02822 	lsr	r2, r2, #16
   16df0:	e6ef2072 	uxtb	r2, r2
   16df4:	e5c32000 	strb	r2, [r3]
   16df8:	e51b3024 	ldr	r3, [fp, #-36]	; 0x24
   16dfc:	e283300a 	add	r3, r3, #10
   16e00:	e51b2020 	ldr	r2, [fp, #-32]
   16e04:	e5922010 	ldr	r2, [r2, #16]
   16e08:	e1a02422 	lsr	r2, r2, #8
   16e0c:	e6ef2072 	uxtb	r2, r2
   16e10:	e5c32000 	strb	r2, [r3]
   16e14:	e51b3024 	ldr	r3, [fp, #-36]	; 0x24
   16e18:	e283300b 	add	r3, r3, #11
   16e1c:	e51b2020 	ldr	r2, [fp, #-32]
   16e20:	e5922010 	ldr	r2, [r2, #16]
   16e24:	e6ef2072 	uxtb	r2, r2
   16e28:	e5c32000 	strb	r2, [r3]
   16e2c:	e51b3024 	ldr	r3, [fp, #-36]	; 0x24
   16e30:	e283300c 	add	r3, r3, #12
   16e34:	e51b2020 	ldr	r2, [fp, #-32]
   16e38:	e5922014 	ldr	r2, [r2, #20]
   16e3c:	e1a02c22 	lsr	r2, r2, #24
   16e40:	e6ef2072 	uxtb	r2, r2
   16e44:	e5c32000 	strb	r2, [r3]
   16e48:	e51b3024 	ldr	r3, [fp, #-36]	; 0x24
   16e4c:	e283300d 	add	r3, r3, #13
   16e50:	e51b2020 	ldr	r2, [fp, #-32]
   16e54:	e5922014 	ldr	r2, [r2, #20]
   16e58:	e1a02822 	lsr	r2, r2, #16
   16e5c:	e6ef2072 	uxtb	r2, r2
   16e60:	e5c32000 	strb	r2, [r3]
   16e64:	e51b3024 	ldr	r3, [fp, #-36]	; 0x24
   16e68:	e283300e 	add	r3, r3, #14
   16e6c:	e51b2020 	ldr	r2, [fp, #-32]
   16e70:	e5922014 	ldr	r2, [r2, #20]
   16e74:	e1a02422 	lsr	r2, r2, #8
   16e78:	e6ef2072 	uxtb	r2, r2
   16e7c:	e5c32000 	strb	r2, [r3]
   16e80:	e51b3024 	ldr	r3, [fp, #-36]	; 0x24
   16e84:	e283300f 	add	r3, r3, #15
   16e88:	e51b2020 	ldr	r2, [fp, #-32]
   16e8c:	e5922014 	ldr	r2, [r2, #20]
   16e90:	e6ef2072 	uxtb	r2, r2
   16e94:	e5c32000 	strb	r2, [r3]
   16e98:	e51b3024 	ldr	r3, [fp, #-36]	; 0x24
   16e9c:	e2833010 	add	r3, r3, #16
   16ea0:	e51b2020 	ldr	r2, [fp, #-32]
   16ea4:	e5922018 	ldr	r2, [r2, #24]
   16ea8:	e1a02c22 	lsr	r2, r2, #24
   16eac:	e6ef2072 	uxtb	r2, r2
   16eb0:	e5c32000 	strb	r2, [r3]
   16eb4:	e51b3024 	ldr	r3, [fp, #-36]	; 0x24
   16eb8:	e2833011 	add	r3, r3, #17
   16ebc:	e51b2020 	ldr	r2, [fp, #-32]
   16ec0:	e5922018 	ldr	r2, [r2, #24]
   16ec4:	e1a02822 	lsr	r2, r2, #16
   16ec8:	e6ef2072 	uxtb	r2, r2
   16ecc:	e5c32000 	strb	r2, [r3]
   16ed0:	e51b3024 	ldr	r3, [fp, #-36]	; 0x24
   16ed4:	e2833012 	add	r3, r3, #18
   16ed8:	e51b2020 	ldr	r2, [fp, #-32]
   16edc:	e5922018 	ldr	r2, [r2, #24]
   16ee0:	e1a02422 	lsr	r2, r2, #8
   16ee4:	e6ef2072 	uxtb	r2, r2
   16ee8:	e5c32000 	strb	r2, [r3]
   16eec:	e51b3024 	ldr	r3, [fp, #-36]	; 0x24
   16ef0:	e2833013 	add	r3, r3, #19
   16ef4:	e51b2020 	ldr	r2, [fp, #-32]
   16ef8:	e5922018 	ldr	r2, [r2, #24]
   16efc:	e6ef2072 	uxtb	r2, r2
   16f00:	e5c32000 	strb	r2, [r3]
   16f04:	e51b3024 	ldr	r3, [fp, #-36]	; 0x24
   16f08:	e2833014 	add	r3, r3, #20
   16f0c:	e51b2020 	ldr	r2, [fp, #-32]
   16f10:	e592201c 	ldr	r2, [r2, #28]
   16f14:	e1a02c22 	lsr	r2, r2, #24
   16f18:	e6ef2072 	uxtb	r2, r2
   16f1c:	e5c32000 	strb	r2, [r3]
   16f20:	e51b3024 	ldr	r3, [fp, #-36]	; 0x24
   16f24:	e2833015 	add	r3, r3, #21
   16f28:	e51b2020 	ldr	r2, [fp, #-32]
   16f2c:	e592201c 	ldr	r2, [r2, #28]
   16f30:	e1a02822 	lsr	r2, r2, #16
   16f34:	e6ef2072 	uxtb	r2, r2
   16f38:	e5c32000 	strb	r2, [r3]
   16f3c:	e51b3024 	ldr	r3, [fp, #-36]	; 0x24
   16f40:	e2833016 	add	r3, r3, #22
   16f44:	e51b2020 	ldr	r2, [fp, #-32]
   16f48:	e592201c 	ldr	r2, [r2, #28]
   16f4c:	e1a02422 	lsr	r2, r2, #8
   16f50:	e6ef2072 	uxtb	r2, r2
   16f54:	e5c32000 	strb	r2, [r3]
   16f58:	e51b3024 	ldr	r3, [fp, #-36]	; 0x24
   16f5c:	e2833017 	add	r3, r3, #23
   16f60:	e51b2020 	ldr	r2, [fp, #-32]
   16f64:	e592201c 	ldr	r2, [r2, #28]
   16f68:	e6ef2072 	uxtb	r2, r2
   16f6c:	e5c32000 	strb	r2, [r3]
   16f70:	e51b3024 	ldr	r3, [fp, #-36]	; 0x24
   16f74:	e2833018 	add	r3, r3, #24
   16f78:	e51b2020 	ldr	r2, [fp, #-32]
   16f7c:	e5922020 	ldr	r2, [r2, #32]
   16f80:	e1a02c22 	lsr	r2, r2, #24
   16f84:	e6ef2072 	uxtb	r2, r2
   16f88:	e5c32000 	strb	r2, [r3]
   16f8c:	e51b3024 	ldr	r3, [fp, #-36]	; 0x24
   16f90:	e2833019 	add	r3, r3, #25
   16f94:	e51b2020 	ldr	r2, [fp, #-32]
   16f98:	e5922020 	ldr	r2, [r2, #32]
   16f9c:	e1a02822 	lsr	r2, r2, #16
   16fa0:	e6ef2072 	uxtb	r2, r2
   16fa4:	e5c32000 	strb	r2, [r3]
   16fa8:	e51b3024 	ldr	r3, [fp, #-36]	; 0x24
   16fac:	e283301a 	add	r3, r3, #26
   16fb0:	e51b2020 	ldr	r2, [fp, #-32]
   16fb4:	e5922020 	ldr	r2, [r2, #32]
   16fb8:	e1a02422 	lsr	r2, r2, #8
   16fbc:	e6ef2072 	uxtb	r2, r2
   16fc0:	e5c32000 	strb	r2, [r3]
   16fc4:	e51b3024 	ldr	r3, [fp, #-36]	; 0x24
   16fc8:	e283301b 	add	r3, r3, #27
   16fcc:	e51b2020 	ldr	r2, [fp, #-32]
   16fd0:	e5922020 	ldr	r2, [r2, #32]
   16fd4:	e6ef2072 	uxtb	r2, r2
   16fd8:	e5c32000 	strb	r2, [r3]
   16fdc:	e51b3020 	ldr	r3, [fp, #-32]
   16fe0:	e59330e8 	ldr	r3, [r3, #232]	; 0xe8
   16fe4:	e3530000 	cmp	r3, #0
   16fe8:	1a00001a 	bne	17058 <sha2_finish+0x480>
   16fec:	e51b3024 	ldr	r3, [fp, #-36]	; 0x24
   16ff0:	e283301c 	add	r3, r3, #28
   16ff4:	e51b2020 	ldr	r2, [fp, #-32]
   16ff8:	e5922024 	ldr	r2, [r2, #36]	; 0x24
   16ffc:	e1a02c22 	lsr	r2, r2, #24
   17000:	e6ef2072 	uxtb	r2, r2
   17004:	e5c32000 	strb	r2, [r3]
   17008:	e51b3024 	ldr	r3, [fp, #-36]	; 0x24
   1700c:	e283301d 	add	r3, r3, #29
   17010:	e51b2020 	ldr	r2, [fp, #-32]
   17014:	e5922024 	ldr	r2, [r2, #36]	; 0x24
   17018:	e1a02822 	lsr	r2, r2, #16
   1701c:	e6ef2072 	uxtb	r2, r2
   17020:	e5c32000 	strb	r2, [r3]
   17024:	e51b3024 	ldr	r3, [fp, #-36]	; 0x24
   17028:	e283301e 	add	r3, r3, #30
   1702c:	e51b2020 	ldr	r2, [fp, #-32]
   17030:	e5922024 	ldr	r2, [r2, #36]	; 0x24
   17034:	e1a02422 	lsr	r2, r2, #8
   17038:	e6ef2072 	uxtb	r2, r2
   1703c:	e5c32000 	strb	r2, [r3]
   17040:	e51b3024 	ldr	r3, [fp, #-36]	; 0x24
   17044:	e283301f 	add	r3, r3, #31
   17048:	e51b2020 	ldr	r2, [fp, #-32]
   1704c:	e5922024 	ldr	r2, [r2, #36]	; 0x24
   17050:	e6ef2072 	uxtb	r2, r2
   17054:	e5c32000 	strb	r2, [r3]
   17058:	e24bd004 	sub	sp, fp, #4
   1705c:	e8bd8800 	pop	{fp, pc}
   17060:	0001ea14 	.word	0x0001ea14

00017064 <sha2>:
   17064:	e92d4800 	push	{fp, lr}
   17068:	e28db004 	add	fp, sp, #4
   1706c:	e24ddc01 	sub	sp, sp, #256	; 0x100
   17070:	e50b00f8 	str	r0, [fp, #-248]	; 0xf8
   17074:	e50b10fc 	str	r1, [fp, #-252]	; 0xfc
   17078:	e50b2100 	str	r2, [fp, #-256]	; 0x100
   1707c:	e50b3104 	str	r3, [fp, #-260]	; 0x104
   17080:	e24b30f0 	sub	r3, fp, #240	; 0xf0
   17084:	e1a00003 	mov	r0, r3
   17088:	e51b1104 	ldr	r1, [fp, #-260]	; 0x104
   1708c:	ebffebb5 	bl	11f68 <sha2_starts>
   17090:	e24b30f0 	sub	r3, fp, #240	; 0xf0
   17094:	e1a00003 	mov	r0, r3
   17098:	e51b10f8 	ldr	r1, [fp, #-248]	; 0xf8
   1709c:	e51b20fc 	ldr	r2, [fp, #-252]	; 0xfc
   170a0:	ebfffe66 	bl	16a40 <sha2_update>
   170a4:	e24b30f0 	sub	r3, fp, #240	; 0xf0
   170a8:	e1a00003 	mov	r0, r3
   170ac:	e51b1100 	ldr	r1, [fp, #-256]	; 0x100
   170b0:	ebfffec8 	bl	16bd8 <sha2_finish>
   170b4:	e24b30f0 	sub	r3, fp, #240	; 0xf0
   170b8:	e1a02003 	mov	r2, r3
   170bc:	e3a030ec 	mov	r3, #236	; 0xec
   170c0:	e1a00002 	mov	r0, r2
   170c4:	e3a01000 	mov	r1, #0
   170c8:	e1a02003 	mov	r2, r3
   170cc:	ebffc6f1 	bl	8c98 <_init+0x194>
   170d0:	e24bd004 	sub	sp, fp, #4
   170d4:	e8bd8800 	pop	{fp, pc}

000170d8 <sha224>:
   170d8:	e92d4800 	push	{fp, lr}
   170dc:	e28db004 	add	fp, sp, #4
   170e0:	e24dd010 	sub	sp, sp, #16
   170e4:	e50b0008 	str	r0, [fp, #-8]
   170e8:	e50b100c 	str	r1, [fp, #-12]
   170ec:	e50b2010 	str	r2, [fp, #-16]
   170f0:	e51b0008 	ldr	r0, [fp, #-8]
   170f4:	e51b100c 	ldr	r1, [fp, #-12]
   170f8:	e51b2010 	ldr	r2, [fp, #-16]
   170fc:	e3a03001 	mov	r3, #1
   17100:	ebffffd7 	bl	17064 <sha2>
   17104:	e24bd004 	sub	sp, fp, #4
   17108:	e8bd8800 	pop	{fp, pc}

0001710c <sha256>:
   1710c:	e92d4800 	push	{fp, lr}
   17110:	e28db004 	add	fp, sp, #4
   17114:	e24dd010 	sub	sp, sp, #16
   17118:	e50b0008 	str	r0, [fp, #-8]
   1711c:	e50b100c 	str	r1, [fp, #-12]
   17120:	e50b2010 	str	r2, [fp, #-16]
   17124:	e51b0008 	ldr	r0, [fp, #-8]
   17128:	e51b100c 	ldr	r1, [fp, #-12]
   1712c:	e51b2010 	ldr	r2, [fp, #-16]
   17130:	e3a03000 	mov	r3, #0
   17134:	ebffffca 	bl	17064 <sha2>
   17138:	e24bd004 	sub	sp, fp, #4
   1713c:	e8bd8800 	pop	{fp, pc}

00017140 <sha4_starts>:
   17140:	e52db004 	push	{fp}		; (str fp, [sp, #-4]!)
   17144:	e28db000 	add	fp, sp, #0
   17148:	e24dd00c 	sub	sp, sp, #12
   1714c:	e50b0008 	str	r0, [fp, #-8]
   17150:	e50b100c 	str	r1, [fp, #-12]
   17154:	e51b1008 	ldr	r1, [fp, #-8]
   17158:	e3a02000 	mov	r2, #0
   1715c:	e3a03000 	mov	r3, #0
   17160:	e1c120f0 	strd	r2, [r1]
   17164:	e51b1008 	ldr	r1, [fp, #-8]
   17168:	e3a02000 	mov	r2, #0
   1716c:	e3a03000 	mov	r3, #0
   17170:	e1c120f8 	strd	r2, [r1, #8]
   17174:	e51b300c 	ldr	r3, [fp, #-12]
   17178:	e3530000 	cmp	r3, #0
   1717c:	1a000020 	bne	17204 <sha4_starts+0xc4>
   17180:	e51b1008 	ldr	r1, [fp, #-8]
   17184:	e28f3f45 	add	r3, pc, #276	; 0x114
   17188:	e1c320d0 	ldrd	r2, [r3]
   1718c:	e1c121f0 	strd	r2, [r1, #16]
   17190:	e51b1008 	ldr	r1, [fp, #-8]
   17194:	e28f3f43 	add	r3, pc, #268	; 0x10c
   17198:	e1c320d0 	ldrd	r2, [r3]
   1719c:	e1c121f8 	strd	r2, [r1, #24]
   171a0:	e51b1008 	ldr	r1, [fp, #-8]
   171a4:	e28f3f41 	add	r3, pc, #260	; 0x104
   171a8:	e1c320d0 	ldrd	r2, [r3]
   171ac:	e1c122f0 	strd	r2, [r1, #32]
   171b0:	e51b1008 	ldr	r1, [fp, #-8]
   171b4:	e28f30fc 	add	r3, pc, #252	; 0xfc
   171b8:	e1c320d0 	ldrd	r2, [r3]
   171bc:	e1c122f8 	strd	r2, [r1, #40]	; 0x28
   171c0:	e51b1008 	ldr	r1, [fp, #-8]
   171c4:	e28f30f4 	add	r3, pc, #244	; 0xf4
   171c8:	e1c320d0 	ldrd	r2, [r3]
   171cc:	e1c123f0 	strd	r2, [r1, #48]	; 0x30
   171d0:	e51b1008 	ldr	r1, [fp, #-8]
   171d4:	e28f30ec 	add	r3, pc, #236	; 0xec
   171d8:	e1c320d0 	ldrd	r2, [r3]
   171dc:	e1c123f8 	strd	r2, [r1, #56]	; 0x38
   171e0:	e51b1008 	ldr	r1, [fp, #-8]
   171e4:	e28f30e4 	add	r3, pc, #228	; 0xe4
   171e8:	e1c320d0 	ldrd	r2, [r3]
   171ec:	e1c124f0 	strd	r2, [r1, #64]	; 0x40
   171f0:	e51b1008 	ldr	r1, [fp, #-8]
   171f4:	e28f30dc 	add	r3, pc, #220	; 0xdc
   171f8:	e1c320d0 	ldrd	r2, [r3]
   171fc:	e1c124f8 	strd	r2, [r1, #72]	; 0x48
   17200:	ea00001f 	b	17284 <sha4_starts+0x144>
   17204:	e51b1008 	ldr	r1, [fp, #-8]
   17208:	e28f30d0 	add	r3, pc, #208	; 0xd0
   1720c:	e1c320d0 	ldrd	r2, [r3]
   17210:	e1c121f0 	strd	r2, [r1, #16]
   17214:	e51b1008 	ldr	r1, [fp, #-8]
   17218:	e28f30c8 	add	r3, pc, #200	; 0xc8
   1721c:	e1c320d0 	ldrd	r2, [r3]
   17220:	e1c121f8 	strd	r2, [r1, #24]
   17224:	e51b1008 	ldr	r1, [fp, #-8]
   17228:	e28f30c0 	add	r3, pc, #192	; 0xc0
   1722c:	e1c320d0 	ldrd	r2, [r3]
   17230:	e1c122f0 	strd	r2, [r1, #32]
   17234:	e51b1008 	ldr	r1, [fp, #-8]
   17238:	e28f30b8 	add	r3, pc, #184	; 0xb8
   1723c:	e1c320d0 	ldrd	r2, [r3]
   17240:	e1c122f8 	strd	r2, [r1, #40]	; 0x28
   17244:	e51b1008 	ldr	r1, [fp, #-8]
   17248:	e28f30b0 	add	r3, pc, #176	; 0xb0
   1724c:	e1c320d0 	ldrd	r2, [r3]
   17250:	e1c123f0 	strd	r2, [r1, #48]	; 0x30
   17254:	e51b1008 	ldr	r1, [fp, #-8]
   17258:	e28f30a8 	add	r3, pc, #168	; 0xa8
   1725c:	e1c320d0 	ldrd	r2, [r3]
   17260:	e1c123f8 	strd	r2, [r1, #56]	; 0x38
   17264:	e51b1008 	ldr	r1, [fp, #-8]
   17268:	e28f30a0 	add	r3, pc, #160	; 0xa0
   1726c:	e1c320d0 	ldrd	r2, [r3]
   17270:	e1c124f0 	strd	r2, [r1, #64]	; 0x40
   17274:	e51b1008 	ldr	r1, [fp, #-8]
   17278:	e28f3098 	add	r3, pc, #152	; 0x98
   1727c:	e1c320d0 	ldrd	r2, [r3]
   17280:	e1c124f8 	strd	r2, [r1, #72]	; 0x48
   17284:	e51b3008 	ldr	r3, [fp, #-8]
   17288:	e51b200c 	ldr	r2, [fp, #-12]
   1728c:	e58321d0 	str	r2, [r3, #464]	; 0x1d0
   17290:	e28bd000 	add	sp, fp, #0
   17294:	e8bd0800 	pop	{fp}
   17298:	e12fff1e 	bx	lr
   1729c:	e1a00000 	nop			; (mov r0, r0)
   172a0:	f3bcc908 	.word	0xf3bcc908
   172a4:	6a09e667 	.word	0x6a09e667
   172a8:	84caa73b 	.word	0x84caa73b
   172ac:	bb67ae85 	.word	0xbb67ae85
   172b0:	fe94f82b 	.word	0xfe94f82b
   172b4:	3c6ef372 	.word	0x3c6ef372
   172b8:	5f1d36f1 	.word	0x5f1d36f1
   172bc:	a54ff53a 	.word	0xa54ff53a
   172c0:	ade682d1 	.word	0xade682d1
   172c4:	510e527f 	.word	0x510e527f
   172c8:	2b3e6c1f 	.word	0x2b3e6c1f
   172cc:	9b05688c 	.word	0x9b05688c
   172d0:	fb41bd6b 	.word	0xfb41bd6b
   172d4:	1f83d9ab 	.word	0x1f83d9ab
   172d8:	137e2179 	.word	0x137e2179
   172dc:	5be0cd19 	.word	0x5be0cd19
   172e0:	c1059ed8 	.word	0xc1059ed8
   172e4:	cbbb9d5d 	.word	0xcbbb9d5d
   172e8:	367cd507 	.word	0x367cd507
   172ec:	629a292a 	.word	0x629a292a
   172f0:	3070dd17 	.word	0x3070dd17
   172f4:	9159015a 	.word	0x9159015a
   172f8:	f70e5939 	.word	0xf70e5939
   172fc:	152fecd8 	.word	0x152fecd8
   17300:	ffc00b31 	.word	0xffc00b31
   17304:	67332667 	.word	0x67332667
   17308:	68581511 	.word	0x68581511
   1730c:	8eb44a87 	.word	0x8eb44a87
   17310:	64f98fa7 	.word	0x64f98fa7
   17314:	db0c2e0d 	.word	0xdb0c2e0d
   17318:	befa4fa4 	.word	0xbefa4fa4
   1731c:	47b5481d 	.word	0x47b5481d

00017320 <sha4_process>:
   17320:	e92d0bf0 	push	{r4, r5, r6, r7, r8, r9, fp}
   17324:	e28db018 	add	fp, sp, #24
   17328:	e24dde4b 	sub	sp, sp, #1200	; 0x4b0
   1732c:	e24dd00c 	sub	sp, sp, #12
   17330:	e50b02f8 	str	r0, [fp, #-760]	; 0x2f8
   17334:	e50b12fc 	str	r1, [fp, #-764]	; 0x2fc
   17338:	e3a03000 	mov	r3, #0
   1733c:	e50b3020 	str	r3, [fp, #-32]
   17340:	ea000081 	b	1754c <sha4_process+0x22c>
   17344:	e51b3020 	ldr	r3, [fp, #-32]
   17348:	e1a03183 	lsl	r3, r3, #3
   1734c:	e1a02003 	mov	r2, r3
   17350:	e51b32fc 	ldr	r3, [fp, #-764]	; 0x2fc
   17354:	e0833002 	add	r3, r3, r2
   17358:	e5d31000 	ldrb	r1, [r3]
   1735c:	e6ef2071 	uxtb	r2, r1
   17360:	e3a03000 	mov	r3, #0
   17364:	e1a00c02 	lsl	r0, r2, #24
   17368:	e50b0300 	str	r0, [fp, #-768]	; 0x300
   1736c:	e3a01000 	mov	r1, #0
   17370:	e50b1304 	str	r1, [fp, #-772]	; 0x304
   17374:	e51b3020 	ldr	r3, [fp, #-32]
   17378:	e1a03183 	lsl	r3, r3, #3
   1737c:	e2832001 	add	r2, r3, #1
   17380:	e51b32fc 	ldr	r3, [fp, #-764]	; 0x2fc
   17384:	e0833002 	add	r3, r3, r2
   17388:	e5d31000 	ldrb	r1, [r3]
   1738c:	e6ef2071 	uxtb	r2, r1
   17390:	e3a03000 	mov	r3, #0
   17394:	e1a0c802 	lsl	ip, r2, #16
   17398:	e50bc308 	str	ip, [fp, #-776]	; 0x308
   1739c:	e3a00000 	mov	r0, #0
   173a0:	e50b030c 	str	r0, [fp, #-780]	; 0x30c
   173a4:	e24b3c03 	sub	r3, fp, #768	; 0x300
   173a8:	e14340d4 	ldrd	r4, [r3, #-4]
   173ac:	e24b2e31 	sub	r2, fp, #784	; 0x310
   173b0:	e1c220d4 	ldrd	r2, [r2, #4]
   173b4:	e1844002 	orr	r4, r4, r2
   173b8:	e1855003 	orr	r5, r5, r3
   173bc:	e51b3020 	ldr	r3, [fp, #-32]
   173c0:	e1a03183 	lsl	r3, r3, #3
   173c4:	e2832002 	add	r2, r3, #2
   173c8:	e51b32fc 	ldr	r3, [fp, #-764]	; 0x2fc
   173cc:	e0833002 	add	r3, r3, r2
   173d0:	e5d31000 	ldrb	r1, [r3]
   173d4:	e6ef2071 	uxtb	r2, r1
   173d8:	e3a03000 	mov	r3, #0
   173dc:	e1a0c402 	lsl	ip, r2, #8
   173e0:	e50bc310 	str	ip, [fp, #-784]	; 0x310
   173e4:	e3a00000 	mov	r0, #0
   173e8:	e50b0314 	str	r0, [fp, #-788]	; 0x314
   173ec:	e24b3e31 	sub	r3, fp, #784	; 0x310
   173f0:	e14320d4 	ldrd	r2, [r3, #-4]
   173f4:	e1844002 	orr	r4, r4, r2
   173f8:	e1855003 	orr	r5, r5, r3
   173fc:	e51b3020 	ldr	r3, [fp, #-32]
   17400:	e1a03183 	lsl	r3, r3, #3
   17404:	e2832003 	add	r2, r3, #3
   17408:	e51b32fc 	ldr	r3, [fp, #-764]	; 0x2fc
   1740c:	e0833002 	add	r3, r3, r2
   17410:	e5d31000 	ldrb	r1, [r3]
   17414:	e6ef2071 	uxtb	r2, r1
   17418:	e3a03000 	mov	r3, #0
   1741c:	e1a0c002 	mov	ip, r2
   17420:	e50bc318 	str	ip, [fp, #-792]	; 0x318
   17424:	e3a00000 	mov	r0, #0
   17428:	e50b031c 	str	r0, [fp, #-796]	; 0x31c
   1742c:	e24b3e32 	sub	r3, fp, #800	; 0x320
   17430:	e1c320d4 	ldrd	r2, [r3, #4]
   17434:	e1844002 	orr	r4, r4, r2
   17438:	e1855003 	orr	r5, r5, r3
   1743c:	e51b3020 	ldr	r3, [fp, #-32]
   17440:	e1a03183 	lsl	r3, r3, #3
   17444:	e2832004 	add	r2, r3, #4
   17448:	e51b32fc 	ldr	r3, [fp, #-764]	; 0x2fc
   1744c:	e0833002 	add	r3, r3, r2
   17450:	e5d31000 	ldrb	r1, [r3]
   17454:	e6ef2071 	uxtb	r2, r1
   17458:	e3a03000 	mov	r3, #0
   1745c:	e1a01422 	lsr	r1, r2, #8
   17460:	e1a0cc03 	lsl	ip, r3, #24
   17464:	e50bc320 	str	ip, [fp, #-800]	; 0x320
   17468:	e51b0320 	ldr	r0, [fp, #-800]	; 0x320
   1746c:	e1811000 	orr	r1, r1, r0
   17470:	e50b1320 	str	r1, [fp, #-800]	; 0x320
   17474:	e1a01c02 	lsl	r1, r2, #24
   17478:	e50b1324 	str	r1, [fp, #-804]	; 0x324
   1747c:	e24b3e32 	sub	r3, fp, #800	; 0x320
   17480:	e14320d4 	ldrd	r2, [r3, #-4]
   17484:	e1844002 	orr	r4, r4, r2
   17488:	e1855003 	orr	r5, r5, r3
   1748c:	e51b3020 	ldr	r3, [fp, #-32]
   17490:	e1a03183 	lsl	r3, r3, #3
   17494:	e2832005 	add	r2, r3, #5
   17498:	e51b32fc 	ldr	r3, [fp, #-764]	; 0x2fc
   1749c:	e0833002 	add	r3, r3, r2
   174a0:	e5d31000 	ldrb	r1, [r3]
   174a4:	e6ef2071 	uxtb	r2, r1
   174a8:	e3a03000 	mov	r3, #0
   174ac:	e1a01822 	lsr	r1, r2, #16
   174b0:	e1a09803 	lsl	r9, r3, #16
   174b4:	e1819009 	orr	r9, r1, r9
   174b8:	e1a08802 	lsl	r8, r2, #16
   174bc:	e1844008 	orr	r4, r4, r8
   174c0:	e1855009 	orr	r5, r5, r9
   174c4:	e51b3020 	ldr	r3, [fp, #-32]
   174c8:	e1a03183 	lsl	r3, r3, #3
   174cc:	e2832006 	add	r2, r3, #6
   174d0:	e51b32fc 	ldr	r3, [fp, #-764]	; 0x2fc
   174d4:	e0833002 	add	r3, r3, r2
   174d8:	e5d31000 	ldrb	r1, [r3]
   174dc:	e6ef2071 	uxtb	r2, r1
   174e0:	e3a03000 	mov	r3, #0
   174e4:	e1a01c22 	lsr	r1, r2, #24
   174e8:	e1a07403 	lsl	r7, r3, #8
   174ec:	e1817007 	orr	r7, r1, r7
   174f0:	e1a06402 	lsl	r6, r2, #8
   174f4:	e1844006 	orr	r4, r4, r6
   174f8:	e1855007 	orr	r5, r5, r7
   174fc:	e51b3020 	ldr	r3, [fp, #-32]
   17500:	e1a03183 	lsl	r3, r3, #3
   17504:	e2832007 	add	r2, r3, #7
   17508:	e51b32fc 	ldr	r3, [fp, #-764]	; 0x2fc
   1750c:	e0833002 	add	r3, r3, r2
   17510:	e5d31000 	ldrb	r1, [r3]
   17514:	e6ef2071 	uxtb	r2, r1
   17518:	e3a03000 	mov	r3, #0
   1751c:	e1840002 	orr	r0, r4, r2
   17520:	e1851003 	orr	r1, r5, r3
   17524:	e51b3020 	ldr	r3, [fp, #-32]
   17528:	e59f202c 	ldr	r2, [pc, #44]	; 1755c <sha4_process+0x23c>
   1752c:	e1a03183 	lsl	r3, r3, #3
   17530:	e24bc01c 	sub	ip, fp, #28
   17534:	e08c3003 	add	r3, ip, r3
   17538:	e0833002 	add	r3, r3, r2
   1753c:	e1c300f0 	strd	r0, [r3]
   17540:	e51b3020 	ldr	r3, [fp, #-32]
   17544:	e2833001 	add	r3, r3, #1
   17548:	e50b3020 	str	r3, [fp, #-32]
   1754c:	e51b3020 	ldr	r3, [fp, #-32]
   17550:	e353000f 	cmp	r3, #15
   17554:	daffff7a 	ble	17344 <sha4_process+0x24>
   17558:	ea000099 	b	177c4 <sha4_process+0x4a4>
   1755c:	fffffd28 	.word	0xfffffd28
   17560:	0001ea58 	.word	0x0001ea58
   17564:	e51b3020 	ldr	r3, [fp, #-32]
   17568:	e2433002 	sub	r3, r3, #2
   1756c:	e51f2018 	ldr	r2, [pc, #-24]	; 1755c <sha4_process+0x23c>
   17570:	e1a03183 	lsl	r3, r3, #3
   17574:	e24b001c 	sub	r0, fp, #28
   17578:	e0803003 	add	r3, r0, r3
   1757c:	e0833002 	add	r3, r3, r2
   17580:	e1c320d0 	ldrd	r2, [r3]
   17584:	e1a00682 	lsl	r0, r2, #13
   17588:	e1a019a3 	lsr	r1, r3, #19
   1758c:	e1801001 	orr	r1, r0, r1
   17590:	e50b1328 	str	r1, [fp, #-808]	; 0x328
   17594:	e1a01683 	lsl	r1, r3, #13
   17598:	e1a039a2 	lsr	r3, r2, #19
   1759c:	e1813003 	orr	r3, r1, r3
   175a0:	e50b332c 	str	r3, [fp, #-812]	; 0x32c
   175a4:	e51b3020 	ldr	r3, [fp, #-32]
   175a8:	e2433002 	sub	r3, r3, #2
   175ac:	e51f2058 	ldr	r2, [pc, #-88]	; 1755c <sha4_process+0x23c>
   175b0:	e1a03183 	lsl	r3, r3, #3
   175b4:	e24b101c 	sub	r1, fp, #28
   175b8:	e0813003 	add	r3, r1, r3
   175bc:	e0833002 	add	r3, r3, r2
   175c0:	e1c320d0 	ldrd	r2, [r3]
   175c4:	e1a00ea2 	lsr	r0, r2, #29
   175c8:	e1a01183 	lsl	r1, r3, #3
   175cc:	e1801001 	orr	r1, r0, r1
   175d0:	e50b1330 	str	r1, [fp, #-816]	; 0x330
   175d4:	e1a01ea3 	lsr	r1, r3, #29
   175d8:	e1a03182 	lsl	r3, r2, #3
   175dc:	e1813003 	orr	r3, r1, r3
   175e0:	e50b3334 	str	r3, [fp, #-820]	; 0x334
   175e4:	e24b3e33 	sub	r3, fp, #816	; 0x330
   175e8:	e1c340d4 	ldrd	r4, [r3, #4]
   175ec:	e24b2e33 	sub	r2, fp, #816	; 0x330
   175f0:	e14220d4 	ldrd	r2, [r2, #-4]
   175f4:	e0244002 	eor	r4, r4, r2
   175f8:	e0255003 	eor	r5, r5, r3
   175fc:	e51b3020 	ldr	r3, [fp, #-32]
   17600:	e2433002 	sub	r3, r3, #2
   17604:	e51f20b0 	ldr	r2, [pc, #-176]	; 1755c <sha4_process+0x23c>
   17608:	e1a03183 	lsl	r3, r3, #3
   1760c:	e24bc01c 	sub	ip, fp, #28
   17610:	e08c3003 	add	r3, ip, r3
   17614:	e0833002 	add	r3, r3, r2
   17618:	e1c320d0 	ldrd	r2, [r3]
   1761c:	e1a01d03 	lsl	r1, r3, #26
   17620:	e1a00322 	lsr	r0, r2, #6
   17624:	e50b033c 	str	r0, [fp, #-828]	; 0x33c
   17628:	e51bc33c 	ldr	ip, [fp, #-828]	; 0x33c
   1762c:	e181100c 	orr	r1, r1, ip
   17630:	e50b133c 	str	r1, [fp, #-828]	; 0x33c
   17634:	e1a00323 	lsr	r0, r3, #6
   17638:	e50b0338 	str	r0, [fp, #-824]	; 0x338
   1763c:	e24b3d0d 	sub	r3, fp, #832	; 0x340
   17640:	e1c320d4 	ldrd	r2, [r3, #4]
   17644:	e0240002 	eor	r0, r4, r2
   17648:	e0251003 	eor	r1, r5, r3
   1764c:	e51b3020 	ldr	r3, [fp, #-32]
   17650:	e2433007 	sub	r3, r3, #7
   17654:	e51f2100 	ldr	r2, [pc, #-256]	; 1755c <sha4_process+0x23c>
   17658:	e1a03183 	lsl	r3, r3, #3
   1765c:	e24bc01c 	sub	ip, fp, #28
   17660:	e08c3003 	add	r3, ip, r3
   17664:	e0833002 	add	r3, r3, r2
   17668:	e1c320d0 	ldrd	r2, [r3]
   1766c:	e1a06000 	mov	r6, r0
   17670:	e1a07001 	mov	r7, r1
   17674:	e0966002 	adds	r6, r6, r2
   17678:	e0a77003 	adc	r7, r7, r3
   1767c:	e51b3020 	ldr	r3, [fp, #-32]
   17680:	e243300f 	sub	r3, r3, #15
   17684:	e51f2130 	ldr	r2, [pc, #-304]	; 1755c <sha4_process+0x23c>
   17688:	e1a03183 	lsl	r3, r3, #3
   1768c:	e24b001c 	sub	r0, fp, #28
   17690:	e0803003 	add	r3, r0, r3
   17694:	e0833002 	add	r3, r3, r2
   17698:	e1c320d0 	ldrd	r2, [r3]
   1769c:	e1a00f82 	lsl	r0, r2, #31
   176a0:	e1a010a3 	lsr	r1, r3, #1
   176a4:	e1801001 	orr	r1, r0, r1
   176a8:	e50b1340 	str	r1, [fp, #-832]	; 0x340
   176ac:	e1a01f83 	lsl	r1, r3, #31
   176b0:	e1a030a2 	lsr	r3, r2, #1
   176b4:	e1813003 	orr	r3, r1, r3
   176b8:	e50b3344 	str	r3, [fp, #-836]	; 0x344
   176bc:	e51b3020 	ldr	r3, [fp, #-32]
   176c0:	e243300f 	sub	r3, r3, #15
   176c4:	e51f2170 	ldr	r2, [pc, #-368]	; 1755c <sha4_process+0x23c>
   176c8:	e1a03183 	lsl	r3, r3, #3
   176cc:	e24b101c 	sub	r1, fp, #28
   176d0:	e0813003 	add	r3, r1, r3
   176d4:	e0833002 	add	r3, r3, r2
   176d8:	e1c320d0 	ldrd	r2, [r3]
   176dc:	e1a00c02 	lsl	r0, r2, #24
   176e0:	e1a01423 	lsr	r1, r3, #8
   176e4:	e1801001 	orr	r1, r0, r1
   176e8:	e50b1348 	str	r1, [fp, #-840]	; 0x348
   176ec:	e1a01c03 	lsl	r1, r3, #24
   176f0:	e1a03422 	lsr	r3, r2, #8
   176f4:	e1813003 	orr	r3, r1, r3
   176f8:	e50b334c 	str	r3, [fp, #-844]	; 0x34c
   176fc:	e24b3d0d 	sub	r3, fp, #832	; 0x340
   17700:	e14340d4 	ldrd	r4, [r3, #-4]
   17704:	e24b2e35 	sub	r2, fp, #848	; 0x350
   17708:	e1c220d4 	ldrd	r2, [r2, #4]
   1770c:	e0244002 	eor	r4, r4, r2
   17710:	e0255003 	eor	r5, r5, r3
   17714:	e51b3020 	ldr	r3, [fp, #-32]
   17718:	e243300f 	sub	r3, r3, #15
   1771c:	e51f21c8 	ldr	r2, [pc, #-456]	; 1755c <sha4_process+0x23c>
   17720:	e1a03183 	lsl	r3, r3, #3
   17724:	e24bc01c 	sub	ip, fp, #28
   17728:	e08c3003 	add	r3, ip, r3
   1772c:	e0833002 	add	r3, r3, r2
   17730:	e1c320d0 	ldrd	r2, [r3]
   17734:	e1a01c83 	lsl	r1, r3, #25
   17738:	e1a003a2 	lsr	r0, r2, #7
   1773c:	e50b0354 	str	r0, [fp, #-852]	; 0x354
   17740:	e51bc354 	ldr	ip, [fp, #-852]	; 0x354
   17744:	e181100c 	orr	r1, r1, ip
   17748:	e50b1354 	str	r1, [fp, #-852]	; 0x354
   1774c:	e1a003a3 	lsr	r0, r3, #7
   17750:	e50b0350 	str	r0, [fp, #-848]	; 0x350
   17754:	e24b1e35 	sub	r1, fp, #848	; 0x350
   17758:	e14100d4 	ldrd	r0, [r1, #-4]
   1775c:	e0242000 	eor	r2, r4, r0
   17760:	e0253001 	eor	r3, r5, r1
   17764:	e1a00006 	mov	r0, r6
   17768:	e1a01007 	mov	r1, r7
   1776c:	e0900002 	adds	r0, r0, r2
   17770:	e0a11003 	adc	r1, r1, r3
   17774:	e51b3020 	ldr	r3, [fp, #-32]
   17778:	e2433010 	sub	r3, r3, #16
   1777c:	e51f2228 	ldr	r2, [pc, #-552]	; 1755c <sha4_process+0x23c>
   17780:	e1a03183 	lsl	r3, r3, #3
   17784:	e24bc01c 	sub	ip, fp, #28
   17788:	e08c3003 	add	r3, ip, r3
   1778c:	e0833002 	add	r3, r3, r2
   17790:	e1c320d0 	ldrd	r2, [r3]
   17794:	e0900002 	adds	r0, r0, r2
   17798:	e0a11003 	adc	r1, r1, r3
   1779c:	e51b3020 	ldr	r3, [fp, #-32]
   177a0:	e51f224c 	ldr	r2, [pc, #-588]	; 1755c <sha4_process+0x23c>
   177a4:	e1a03183 	lsl	r3, r3, #3
   177a8:	e24bc01c 	sub	ip, fp, #28
   177ac:	e08c3003 	add	r3, ip, r3
   177b0:	e0833002 	add	r3, r3, r2
   177b4:	e1c300f0 	strd	r0, [r3]
   177b8:	e51b3020 	ldr	r3, [fp, #-32]
   177bc:	e2833001 	add	r3, r3, #1
   177c0:	e50b3020 	str	r3, [fp, #-32]
   177c4:	e51b3020 	ldr	r3, [fp, #-32]
   177c8:	e353004f 	cmp	r3, #79	; 0x4f
   177cc:	daffff64 	ble	17564 <sha4_process+0x244>
   177d0:	e51b32f8 	ldr	r3, [fp, #-760]	; 0x2f8
   177d4:	e1c321d0 	ldrd	r2, [r3, #16]
   177d8:	e14b22fc 	strd	r2, [fp, #-44]	; 0xffffffd4
   177dc:	e51b32f8 	ldr	r3, [fp, #-760]	; 0x2f8
   177e0:	e1c321d8 	ldrd	r2, [r3, #24]
   177e4:	e14b23f4 	strd	r2, [fp, #-52]	; 0xffffffcc
   177e8:	e51b32f8 	ldr	r3, [fp, #-760]	; 0x2f8
   177ec:	e1c322d0 	ldrd	r2, [r3, #32]
   177f0:	e14b23fc 	strd	r2, [fp, #-60]	; 0xffffffc4
   177f4:	e51b32f8 	ldr	r3, [fp, #-760]	; 0x2f8
   177f8:	e1c322d8 	ldrd	r2, [r3, #40]	; 0x28
   177fc:	e14b24f4 	strd	r2, [fp, #-68]	; 0xffffffbc
   17800:	e51b32f8 	ldr	r3, [fp, #-760]	; 0x2f8
   17804:	e1c323d0 	ldrd	r2, [r3, #48]	; 0x30
   17808:	e14b24fc 	strd	r2, [fp, #-76]	; 0xffffffb4
   1780c:	e51b32f8 	ldr	r3, [fp, #-760]	; 0x2f8
   17810:	e1c323d8 	ldrd	r2, [r3, #56]	; 0x38
   17814:	e14b25f4 	strd	r2, [fp, #-84]	; 0xffffffac
   17818:	e51b32f8 	ldr	r3, [fp, #-760]	; 0x2f8
   1781c:	e1c324d0 	ldrd	r2, [r3, #64]	; 0x40
   17820:	e14b25fc 	strd	r2, [fp, #-92]	; 0xffffffa4
   17824:	e51b32f8 	ldr	r3, [fp, #-760]	; 0x2f8
   17828:	e1c324d8 	ldrd	r2, [r3, #72]	; 0x48
   1782c:	e14b26f4 	strd	r2, [fp, #-100]	; 0xffffff9c
   17830:	e3a03000 	mov	r3, #0
   17834:	e50b3020 	str	r3, [fp, #-32]
   17838:	e51b304c 	ldr	r3, [fp, #-76]	; 0x4c
   1783c:	e1a02903 	lsl	r2, r3, #18
   17840:	e51b3048 	ldr	r3, [fp, #-72]	; 0x48
   17844:	e1a03723 	lsr	r3, r3, #14
   17848:	e1823003 	orr	r3, r2, r3
   1784c:	e50b3358 	str	r3, [fp, #-856]	; 0x358
   17850:	e51b3048 	ldr	r3, [fp, #-72]	; 0x48
   17854:	e1a02903 	lsl	r2, r3, #18
   17858:	e51b304c 	ldr	r3, [fp, #-76]	; 0x4c
   1785c:	e1a03723 	lsr	r3, r3, #14
   17860:	e1823003 	orr	r3, r2, r3
   17864:	e50b335c 	str	r3, [fp, #-860]	; 0x35c
   17868:	e51b304c 	ldr	r3, [fp, #-76]	; 0x4c
   1786c:	e1a02703 	lsl	r2, r3, #14
   17870:	e51b3048 	ldr	r3, [fp, #-72]	; 0x48
   17874:	e1a03923 	lsr	r3, r3, #18
   17878:	e1823003 	orr	r3, r2, r3
   1787c:	e50b3360 	str	r3, [fp, #-864]	; 0x360
   17880:	e51b3048 	ldr	r3, [fp, #-72]	; 0x48
   17884:	e1a02703 	lsl	r2, r3, #14
   17888:	e51b304c 	ldr	r3, [fp, #-76]	; 0x4c
   1788c:	e1a03923 	lsr	r3, r3, #18
   17890:	e1823003 	orr	r3, r2, r3
   17894:	e50b3364 	str	r3, [fp, #-868]	; 0x364
   17898:	e24b3e36 	sub	r3, fp, #864	; 0x360
   1789c:	e1c300d4 	ldrd	r0, [r3, #4]
   178a0:	e24b2e36 	sub	r2, fp, #864	; 0x360
   178a4:	e14220d4 	ldrd	r2, [r2, #-4]
   178a8:	e0200002 	eor	r0, r0, r2
   178ac:	e0211003 	eor	r1, r1, r3
   178b0:	e51b304c 	ldr	r3, [fp, #-76]	; 0x4c
   178b4:	e1a024a3 	lsr	r2, r3, #9
   178b8:	e51b3048 	ldr	r3, [fp, #-72]	; 0x48
   178bc:	e1a03b83 	lsl	r3, r3, #23
   178c0:	e1823003 	orr	r3, r2, r3
   178c4:	e50b3368 	str	r3, [fp, #-872]	; 0x368
   178c8:	e51b3048 	ldr	r3, [fp, #-72]	; 0x48
   178cc:	e1a024a3 	lsr	r2, r3, #9
   178d0:	e51b304c 	ldr	r3, [fp, #-76]	; 0x4c
   178d4:	e1a03b83 	lsl	r3, r3, #23
   178d8:	e1823003 	orr	r3, r2, r3
   178dc:	e50b336c 	str	r3, [fp, #-876]	; 0x36c
   178e0:	e24b3e37 	sub	r3, fp, #880	; 0x370
   178e4:	e1c320d4 	ldrd	r2, [r3, #4]
   178e8:	e0200002 	eor	r0, r0, r2
   178ec:	e0211003 	eor	r1, r1, r3
   178f0:	e14b26d4 	ldrd	r2, [fp, #-100]	; 0xffffff9c
   178f4:	e1a04000 	mov	r4, r0
   178f8:	e1a05001 	mov	r5, r1
   178fc:	e0944002 	adds	r4, r4, r2
   17900:	e0a55003 	adc	r5, r5, r3
   17904:	e14b05d4 	ldrd	r0, [fp, #-84]	; 0xffffffac
   17908:	e14b25dc 	ldrd	r2, [fp, #-92]	; 0xffffffa4
   1790c:	e0200002 	eor	r0, r0, r2
   17910:	e0211003 	eor	r1, r1, r3
   17914:	e14b24dc 	ldrd	r2, [fp, #-76]	; 0xffffffb4
   17918:	e0000002 	and	r0, r0, r2
   1791c:	e0011003 	and	r1, r1, r3
   17920:	e14b25dc 	ldrd	r2, [fp, #-92]	; 0xffffffa4
   17924:	e0222000 	eor	r2, r2, r0
   17928:	e0233001 	eor	r3, r3, r1
   1792c:	e1a00004 	mov	r0, r4
   17930:	e1a01005 	mov	r1, r5
   17934:	e0900002 	adds	r0, r0, r2
   17938:	e0a11003 	adc	r1, r1, r3
   1793c:	e51f23e4 	ldr	r2, [pc, #-996]	; 17560 <sha4_process+0x240>
   17940:	e51b3020 	ldr	r3, [fp, #-32]
   17944:	e1a03183 	lsl	r3, r3, #3
   17948:	e0823003 	add	r3, r2, r3
   1794c:	e1c320d0 	ldrd	r2, [r3]
   17950:	e0900002 	adds	r0, r0, r2
   17954:	e0a11003 	adc	r1, r1, r3
   17958:	e51b3020 	ldr	r3, [fp, #-32]
   1795c:	e51f2408 	ldr	r2, [pc, #-1032]	; 1755c <sha4_process+0x23c>
   17960:	e1a03183 	lsl	r3, r3, #3
   17964:	e24bc01c 	sub	ip, fp, #28
   17968:	e08c3003 	add	r3, ip, r3
   1796c:	e0833002 	add	r3, r3, r2
   17970:	e1c320d0 	ldrd	r2, [r3]
   17974:	e0922000 	adds	r2, r2, r0
   17978:	e0a33001 	adc	r3, r3, r1
   1797c:	e14b26fc 	strd	r2, [fp, #-108]	; 0xffffff94
   17980:	e51b302c 	ldr	r3, [fp, #-44]	; 0x2c
   17984:	e1a02203 	lsl	r2, r3, #4
   17988:	e51b3028 	ldr	r3, [fp, #-40]	; 0x28
   1798c:	e1a03e23 	lsr	r3, r3, #28
   17990:	e1823003 	orr	r3, r2, r3
   17994:	e50b3370 	str	r3, [fp, #-880]	; 0x370
   17998:	e51b3028 	ldr	r3, [fp, #-40]	; 0x28
   1799c:	e1a02203 	lsl	r2, r3, #4
   179a0:	e51b302c 	ldr	r3, [fp, #-44]	; 0x2c
   179a4:	e1a03e23 	lsr	r3, r3, #28
   179a8:	e1823003 	orr	r3, r2, r3
   179ac:	e50b3374 	str	r3, [fp, #-884]	; 0x374
   179b0:	e51b302c 	ldr	r3, [fp, #-44]	; 0x2c
   179b4:	e1a02123 	lsr	r2, r3, #2
   179b8:	e51b3028 	ldr	r3, [fp, #-40]	; 0x28
   179bc:	e1a03f03 	lsl	r3, r3, #30
   179c0:	e1823003 	orr	r3, r2, r3
   179c4:	e50b3378 	str	r3, [fp, #-888]	; 0x378
   179c8:	e51b3028 	ldr	r3, [fp, #-40]	; 0x28
   179cc:	e1a02123 	lsr	r2, r3, #2
   179d0:	e51b302c 	ldr	r3, [fp, #-44]	; 0x2c
   179d4:	e1a03f03 	lsl	r3, r3, #30
   179d8:	e1823003 	orr	r3, r2, r3
   179dc:	e50b337c 	str	r3, [fp, #-892]	; 0x37c
   179e0:	e24b3e37 	sub	r3, fp, #880	; 0x370
   179e4:	e14300d4 	ldrd	r0, [r3, #-4]
   179e8:	e24b2d0e 	sub	r2, fp, #896	; 0x380
   179ec:	e1c220d4 	ldrd	r2, [r2, #4]
   179f0:	e0200002 	eor	r0, r0, r2
   179f4:	e0211003 	eor	r1, r1, r3
   179f8:	e51b302c 	ldr	r3, [fp, #-44]	; 0x2c
   179fc:	e1a023a3 	lsr	r2, r3, #7
   17a00:	e51b3028 	ldr	r3, [fp, #-40]	; 0x28
   17a04:	e1a03c83 	lsl	r3, r3, #25
   17a08:	e1823003 	orr	r3, r2, r3
   17a0c:	e50b3380 	str	r3, [fp, #-896]	; 0x380
   17a10:	e51b3028 	ldr	r3, [fp, #-40]	; 0x28
   17a14:	e1a023a3 	lsr	r2, r3, #7
   17a18:	e51b302c 	ldr	r3, [fp, #-44]	; 0x2c
   17a1c:	e1a03c83 	lsl	r3, r3, #25
   17a20:	e1823003 	orr	r3, r2, r3
   17a24:	e50b3384 	str	r3, [fp, #-900]	; 0x384
   17a28:	e24b3d0e 	sub	r3, fp, #896	; 0x380
   17a2c:	e14320d4 	ldrd	r2, [r3, #-4]
   17a30:	e0206002 	eor	r6, r0, r2
   17a34:	e0217003 	eor	r7, r1, r3
   17a38:	e14b02dc 	ldrd	r0, [fp, #-44]	; 0xffffffd4
   17a3c:	e14b23d4 	ldrd	r2, [fp, #-52]	; 0xffffffcc
   17a40:	e0004002 	and	r4, r0, r2
   17a44:	e0015003 	and	r5, r1, r3
   17a48:	e14b02dc 	ldrd	r0, [fp, #-44]	; 0xffffffd4
   17a4c:	e14b23d4 	ldrd	r2, [fp, #-52]	; 0xffffffcc
   17a50:	e1800002 	orr	r0, r0, r2
   17a54:	e1811003 	orr	r1, r1, r3
   17a58:	e14b23dc 	ldrd	r2, [fp, #-60]	; 0xffffffc4
   17a5c:	e0022000 	and	r2, r2, r0
   17a60:	e0033001 	and	r3, r3, r1
   17a64:	e1822004 	orr	r2, r2, r4
   17a68:	e1833005 	orr	r3, r3, r5
   17a6c:	e0922006 	adds	r2, r2, r6
   17a70:	e0a33007 	adc	r3, r3, r7
   17a74:	e14b27f4 	strd	r2, [fp, #-116]	; 0xffffff8c
   17a78:	e14b04d4 	ldrd	r0, [fp, #-68]	; 0xffffffbc
   17a7c:	e14b26dc 	ldrd	r2, [fp, #-108]	; 0xffffff94
   17a80:	e0922000 	adds	r2, r2, r0
   17a84:	e0a33001 	adc	r3, r3, r1
   17a88:	e14b24f4 	strd	r2, [fp, #-68]	; 0xffffffbc
   17a8c:	e14b06dc 	ldrd	r0, [fp, #-108]	; 0xffffff94
   17a90:	e14b27d4 	ldrd	r2, [fp, #-116]	; 0xffffff8c
   17a94:	e0922000 	adds	r2, r2, r0
   17a98:	e0a33001 	adc	r3, r3, r1
   17a9c:	e14b26f4 	strd	r2, [fp, #-100]	; 0xffffff9c
   17aa0:	e51b3020 	ldr	r3, [fp, #-32]
   17aa4:	e2833001 	add	r3, r3, #1
   17aa8:	e50b3020 	str	r3, [fp, #-32]
   17aac:	e51b3044 	ldr	r3, [fp, #-68]	; 0x44
   17ab0:	e1a02903 	lsl	r2, r3, #18
   17ab4:	e51b3040 	ldr	r3, [fp, #-64]	; 0x40
   17ab8:	e1a03723 	lsr	r3, r3, #14
   17abc:	e1823003 	orr	r3, r2, r3
   17ac0:	e50b3388 	str	r3, [fp, #-904]	; 0x388
   17ac4:	e51b3040 	ldr	r3, [fp, #-64]	; 0x40
   17ac8:	e1a02903 	lsl	r2, r3, #18
   17acc:	e51b3044 	ldr	r3, [fp, #-68]	; 0x44
   17ad0:	e1a03723 	lsr	r3, r3, #14
   17ad4:	e1823003 	orr	r3, r2, r3
   17ad8:	e50b338c 	str	r3, [fp, #-908]	; 0x38c
   17adc:	e51b3044 	ldr	r3, [fp, #-68]	; 0x44
   17ae0:	e1a02703 	lsl	r2, r3, #14
   17ae4:	e51b3040 	ldr	r3, [fp, #-64]	; 0x40
   17ae8:	e1a03923 	lsr	r3, r3, #18
   17aec:	e1823003 	orr	r3, r2, r3
   17af0:	e50b3390 	str	r3, [fp, #-912]	; 0x390
   17af4:	e51b3040 	ldr	r3, [fp, #-64]	; 0x40
   17af8:	e1a02703 	lsl	r2, r3, #14
   17afc:	e51b3044 	ldr	r3, [fp, #-68]	; 0x44
   17b00:	e1a03923 	lsr	r3, r3, #18
   17b04:	e1823003 	orr	r3, r2, r3
   17b08:	e50b3394 	str	r3, [fp, #-916]	; 0x394
   17b0c:	e24b3e39 	sub	r3, fp, #912	; 0x390
   17b10:	e1c300d4 	ldrd	r0, [r3, #4]
   17b14:	e24b2e39 	sub	r2, fp, #912	; 0x390
   17b18:	e14220d4 	ldrd	r2, [r2, #-4]
   17b1c:	e0200002 	eor	r0, r0, r2
   17b20:	e0211003 	eor	r1, r1, r3
   17b24:	e51b3044 	ldr	r3, [fp, #-68]	; 0x44
   17b28:	e1a024a3 	lsr	r2, r3, #9
   17b2c:	e51b3040 	ldr	r3, [fp, #-64]	; 0x40
   17b30:	e1a03b83 	lsl	r3, r3, #23
   17b34:	e1823003 	orr	r3, r2, r3
   17b38:	e50b3398 	str	r3, [fp, #-920]	; 0x398
   17b3c:	e51b3040 	ldr	r3, [fp, #-64]	; 0x40
   17b40:	e1a024a3 	lsr	r2, r3, #9
   17b44:	e51b3044 	ldr	r3, [fp, #-68]	; 0x44
   17b48:	e1a03b83 	lsl	r3, r3, #23
   17b4c:	e1823003 	orr	r3, r2, r3
   17b50:	e50b339c 	str	r3, [fp, #-924]	; 0x39c
   17b54:	e24b3e3a 	sub	r3, fp, #928	; 0x3a0
   17b58:	e1c320d4 	ldrd	r2, [r3, #4]
   17b5c:	e0200002 	eor	r0, r0, r2
   17b60:	e0211003 	eor	r1, r1, r3
   17b64:	e14b25dc 	ldrd	r2, [fp, #-92]	; 0xffffffa4
   17b68:	e1a04000 	mov	r4, r0
   17b6c:	e1a05001 	mov	r5, r1
   17b70:	e0944002 	adds	r4, r4, r2
   17b74:	e0a55003 	adc	r5, r5, r3
   17b78:	e14b04dc 	ldrd	r0, [fp, #-76]	; 0xffffffb4
   17b7c:	e14b25d4 	ldrd	r2, [fp, #-84]	; 0xffffffac
   17b80:	e0200002 	eor	r0, r0, r2
   17b84:	e0211003 	eor	r1, r1, r3
   17b88:	e14b24d4 	ldrd	r2, [fp, #-68]	; 0xffffffbc
   17b8c:	e0000002 	and	r0, r0, r2
   17b90:	e0011003 	and	r1, r1, r3
   17b94:	e14b25d4 	ldrd	r2, [fp, #-84]	; 0xffffffac
   17b98:	e0222000 	eor	r2, r2, r0
   17b9c:	e0233001 	eor	r3, r3, r1
   17ba0:	e1a00004 	mov	r0, r4
   17ba4:	e1a01005 	mov	r1, r5
   17ba8:	e0900002 	adds	r0, r0, r2
   17bac:	e0a11003 	adc	r1, r1, r3
   17bb0:	e51f2658 	ldr	r2, [pc, #-1624]	; 17560 <sha4_process+0x240>
   17bb4:	e51b3020 	ldr	r3, [fp, #-32]
   17bb8:	e1a03183 	lsl	r3, r3, #3
   17bbc:	e0823003 	add	r3, r2, r3
   17bc0:	e1c320d0 	ldrd	r2, [r3]
   17bc4:	e0900002 	adds	r0, r0, r2
   17bc8:	e0a11003 	adc	r1, r1, r3
   17bcc:	e51b3020 	ldr	r3, [fp, #-32]
   17bd0:	e51f267c 	ldr	r2, [pc, #-1660]	; 1755c <sha4_process+0x23c>
   17bd4:	e1a03183 	lsl	r3, r3, #3
   17bd8:	e24bc01c 	sub	ip, fp, #28
   17bdc:	e08c3003 	add	r3, ip, r3
   17be0:	e0833002 	add	r3, r3, r2
   17be4:	e1c320d0 	ldrd	r2, [r3]
   17be8:	e0922000 	adds	r2, r2, r0
   17bec:	e0a33001 	adc	r3, r3, r1
   17bf0:	e14b26fc 	strd	r2, [fp, #-108]	; 0xffffff94
   17bf4:	e51b3064 	ldr	r3, [fp, #-100]	; 0x64
   17bf8:	e1a02203 	lsl	r2, r3, #4
   17bfc:	e51b3060 	ldr	r3, [fp, #-96]	; 0x60
   17c00:	e1a03e23 	lsr	r3, r3, #28
   17c04:	e1823003 	orr	r3, r2, r3
   17c08:	e50b33a0 	str	r3, [fp, #-928]	; 0x3a0
   17c0c:	e51b3060 	ldr	r3, [fp, #-96]	; 0x60
   17c10:	e1a02203 	lsl	r2, r3, #4
   17c14:	e51b3064 	ldr	r3, [fp, #-100]	; 0x64
   17c18:	e1a03e23 	lsr	r3, r3, #28
   17c1c:	e1823003 	orr	r3, r2, r3
   17c20:	e50b33a4 	str	r3, [fp, #-932]	; 0x3a4
   17c24:	e51b3064 	ldr	r3, [fp, #-100]	; 0x64
   17c28:	e1a02123 	lsr	r2, r3, #2
   17c2c:	e51b3060 	ldr	r3, [fp, #-96]	; 0x60
   17c30:	e1a03f03 	lsl	r3, r3, #30
   17c34:	e1823003 	orr	r3, r2, r3
   17c38:	e50b33a8 	str	r3, [fp, #-936]	; 0x3a8
   17c3c:	e51b3060 	ldr	r3, [fp, #-96]	; 0x60
   17c40:	e1a02123 	lsr	r2, r3, #2
   17c44:	e51b3064 	ldr	r3, [fp, #-100]	; 0x64
   17c48:	e1a03f03 	lsl	r3, r3, #30
   17c4c:	e1823003 	orr	r3, r2, r3
   17c50:	e50b33ac 	str	r3, [fp, #-940]	; 0x3ac
   17c54:	e24b3e3a 	sub	r3, fp, #928	; 0x3a0
   17c58:	e14300d4 	ldrd	r0, [r3, #-4]
   17c5c:	e24b2e3b 	sub	r2, fp, #944	; 0x3b0
   17c60:	e1c220d4 	ldrd	r2, [r2, #4]
   17c64:	e0200002 	eor	r0, r0, r2
   17c68:	e0211003 	eor	r1, r1, r3
   17c6c:	e51b3064 	ldr	r3, [fp, #-100]	; 0x64
   17c70:	e1a023a3 	lsr	r2, r3, #7
   17c74:	e51b3060 	ldr	r3, [fp, #-96]	; 0x60
   17c78:	e1a03c83 	lsl	r3, r3, #25
   17c7c:	e1823003 	orr	r3, r2, r3
   17c80:	e50b33b0 	str	r3, [fp, #-944]	; 0x3b0
   17c84:	e51b3060 	ldr	r3, [fp, #-96]	; 0x60
   17c88:	e1a023a3 	lsr	r2, r3, #7
   17c8c:	e51b3064 	ldr	r3, [fp, #-100]	; 0x64
   17c90:	e1a03c83 	lsl	r3, r3, #25
   17c94:	e1823003 	orr	r3, r2, r3
   17c98:	e50b33b4 	str	r3, [fp, #-948]	; 0x3b4
   17c9c:	e24b3e3b 	sub	r3, fp, #944	; 0x3b0
   17ca0:	e14320d4 	ldrd	r2, [r3, #-4]
   17ca4:	e0206002 	eor	r6, r0, r2
   17ca8:	e0217003 	eor	r7, r1, r3
   17cac:	e14b06d4 	ldrd	r0, [fp, #-100]	; 0xffffff9c
   17cb0:	e14b22dc 	ldrd	r2, [fp, #-44]	; 0xffffffd4
   17cb4:	e0004002 	and	r4, r0, r2
   17cb8:	e0015003 	and	r5, r1, r3
   17cbc:	e14b06d4 	ldrd	r0, [fp, #-100]	; 0xffffff9c
   17cc0:	e14b22dc 	ldrd	r2, [fp, #-44]	; 0xffffffd4
   17cc4:	e1800002 	orr	r0, r0, r2
   17cc8:	e1811003 	orr	r1, r1, r3
   17ccc:	e14b23d4 	ldrd	r2, [fp, #-52]	; 0xffffffcc
   17cd0:	e0022000 	and	r2, r2, r0
   17cd4:	e0033001 	and	r3, r3, r1
   17cd8:	e1822004 	orr	r2, r2, r4
   17cdc:	e1833005 	orr	r3, r3, r5
   17ce0:	e0922006 	adds	r2, r2, r6
   17ce4:	e0a33007 	adc	r3, r3, r7
   17ce8:	e14b27f4 	strd	r2, [fp, #-116]	; 0xffffff8c
   17cec:	e14b03dc 	ldrd	r0, [fp, #-60]	; 0xffffffc4
   17cf0:	e14b26dc 	ldrd	r2, [fp, #-108]	; 0xffffff94
   17cf4:	e0922000 	adds	r2, r2, r0
   17cf8:	e0a33001 	adc	r3, r3, r1
   17cfc:	e14b23fc 	strd	r2, [fp, #-60]	; 0xffffffc4
   17d00:	e14b06dc 	ldrd	r0, [fp, #-108]	; 0xffffff94
   17d04:	e14b27d4 	ldrd	r2, [fp, #-116]	; 0xffffff8c
   17d08:	e0922000 	adds	r2, r2, r0
   17d0c:	e0a33001 	adc	r3, r3, r1
   17d10:	e14b25fc 	strd	r2, [fp, #-92]	; 0xffffffa4
   17d14:	e51b3020 	ldr	r3, [fp, #-32]
   17d18:	e2833001 	add	r3, r3, #1
   17d1c:	e50b3020 	str	r3, [fp, #-32]
   17d20:	e51b303c 	ldr	r3, [fp, #-60]	; 0x3c
   17d24:	e1a02903 	lsl	r2, r3, #18
   17d28:	e51b3038 	ldr	r3, [fp, #-56]	; 0x38
   17d2c:	e1a03723 	lsr	r3, r3, #14
   17d30:	e1823003 	orr	r3, r2, r3
   17d34:	e50b33b8 	str	r3, [fp, #-952]	; 0x3b8
   17d38:	e51b3038 	ldr	r3, [fp, #-56]	; 0x38
   17d3c:	e1a02903 	lsl	r2, r3, #18
   17d40:	e51b303c 	ldr	r3, [fp, #-60]	; 0x3c
   17d44:	e1a03723 	lsr	r3, r3, #14
   17d48:	e1823003 	orr	r3, r2, r3
   17d4c:	e50b33bc 	str	r3, [fp, #-956]	; 0x3bc
   17d50:	e51b303c 	ldr	r3, [fp, #-60]	; 0x3c
   17d54:	e1a02703 	lsl	r2, r3, #14
   17d58:	e51b3038 	ldr	r3, [fp, #-56]	; 0x38
   17d5c:	e1a03923 	lsr	r3, r3, #18
   17d60:	e1823003 	orr	r3, r2, r3
   17d64:	e50b33c0 	str	r3, [fp, #-960]	; 0x3c0
   17d68:	e51b3038 	ldr	r3, [fp, #-56]	; 0x38
   17d6c:	e1a02703 	lsl	r2, r3, #14
   17d70:	e51b303c 	ldr	r3, [fp, #-60]	; 0x3c
   17d74:	e1a03923 	lsr	r3, r3, #18
   17d78:	e1823003 	orr	r3, r2, r3
   17d7c:	e50b33c4 	str	r3, [fp, #-964]	; 0x3c4
   17d80:	e24b3d0f 	sub	r3, fp, #960	; 0x3c0
   17d84:	e1c300d4 	ldrd	r0, [r3, #4]
   17d88:	e24b2d0f 	sub	r2, fp, #960	; 0x3c0
   17d8c:	e14220d4 	ldrd	r2, [r2, #-4]
   17d90:	e0200002 	eor	r0, r0, r2
   17d94:	e0211003 	eor	r1, r1, r3
   17d98:	e51b303c 	ldr	r3, [fp, #-60]	; 0x3c
   17d9c:	e1a024a3 	lsr	r2, r3, #9
   17da0:	e51b3038 	ldr	r3, [fp, #-56]	; 0x38
   17da4:	e1a03b83 	lsl	r3, r3, #23
   17da8:	e1823003 	orr	r3, r2, r3
   17dac:	e50b33c8 	str	r3, [fp, #-968]	; 0x3c8
   17db0:	e51b3038 	ldr	r3, [fp, #-56]	; 0x38
   17db4:	e1a024a3 	lsr	r2, r3, #9
   17db8:	e51b303c 	ldr	r3, [fp, #-60]	; 0x3c
   17dbc:	e1a03b83 	lsl	r3, r3, #23
   17dc0:	e1823003 	orr	r3, r2, r3
   17dc4:	e50b33cc 	str	r3, [fp, #-972]	; 0x3cc
   17dc8:	e24b3e3d 	sub	r3, fp, #976	; 0x3d0
   17dcc:	e1c320d4 	ldrd	r2, [r3, #4]
   17dd0:	e0200002 	eor	r0, r0, r2
   17dd4:	e0211003 	eor	r1, r1, r3
   17dd8:	e14b25d4 	ldrd	r2, [fp, #-84]	; 0xffffffac
   17ddc:	e1a04000 	mov	r4, r0
   17de0:	e1a05001 	mov	r5, r1
   17de4:	e0944002 	adds	r4, r4, r2
   17de8:	e0a55003 	adc	r5, r5, r3
   17dec:	e14b04d4 	ldrd	r0, [fp, #-68]	; 0xffffffbc
   17df0:	e14b24dc 	ldrd	r2, [fp, #-76]	; 0xffffffb4
   17df4:	e0200002 	eor	r0, r0, r2
   17df8:	e0211003 	eor	r1, r1, r3
   17dfc:	e14b23dc 	ldrd	r2, [fp, #-60]	; 0xffffffc4
   17e00:	e0000002 	and	r0, r0, r2
   17e04:	e0011003 	and	r1, r1, r3
   17e08:	e14b24dc 	ldrd	r2, [fp, #-76]	; 0xffffffb4
   17e0c:	e0222000 	eor	r2, r2, r0
   17e10:	e0233001 	eor	r3, r3, r1
   17e14:	e1a00004 	mov	r0, r4
   17e18:	e1a01005 	mov	r1, r5
   17e1c:	e0900002 	adds	r0, r0, r2
   17e20:	e0a11003 	adc	r1, r1, r3
   17e24:	e51f28cc 	ldr	r2, [pc, #-2252]	; 17560 <sha4_process+0x240>
   17e28:	e51b3020 	ldr	r3, [fp, #-32]
   17e2c:	e1a03183 	lsl	r3, r3, #3
   17e30:	e0823003 	add	r3, r2, r3
   17e34:	e1c320d0 	ldrd	r2, [r3]
   17e38:	e0900002 	adds	r0, r0, r2
   17e3c:	e0a11003 	adc	r1, r1, r3
   17e40:	e51b3020 	ldr	r3, [fp, #-32]
   17e44:	e51f28f0 	ldr	r2, [pc, #-2288]	; 1755c <sha4_process+0x23c>
   17e48:	e1a03183 	lsl	r3, r3, #3
   17e4c:	e24bc01c 	sub	ip, fp, #28
   17e50:	e08c3003 	add	r3, ip, r3
   17e54:	e0833002 	add	r3, r3, r2
   17e58:	e1c320d0 	ldrd	r2, [r3]
   17e5c:	e0922000 	adds	r2, r2, r0
   17e60:	e0a33001 	adc	r3, r3, r1
   17e64:	e14b26fc 	strd	r2, [fp, #-108]	; 0xffffff94
   17e68:	e51b305c 	ldr	r3, [fp, #-92]	; 0x5c
   17e6c:	e1a02203 	lsl	r2, r3, #4
   17e70:	e51b3058 	ldr	r3, [fp, #-88]	; 0x58
   17e74:	e1a03e23 	lsr	r3, r3, #28
   17e78:	e1823003 	orr	r3, r2, r3
   17e7c:	e50b33d0 	str	r3, [fp, #-976]	; 0x3d0
   17e80:	e51b3058 	ldr	r3, [fp, #-88]	; 0x58
   17e84:	e1a02203 	lsl	r2, r3, #4
   17e88:	e51b305c 	ldr	r3, [fp, #-92]	; 0x5c
   17e8c:	e1a03e23 	lsr	r3, r3, #28
   17e90:	e1823003 	orr	r3, r2, r3
   17e94:	e50b33d4 	str	r3, [fp, #-980]	; 0x3d4
   17e98:	e51b305c 	ldr	r3, [fp, #-92]	; 0x5c
   17e9c:	e1a02123 	lsr	r2, r3, #2
   17ea0:	e51b3058 	ldr	r3, [fp, #-88]	; 0x58
   17ea4:	e1a03f03 	lsl	r3, r3, #30
   17ea8:	e1823003 	orr	r3, r2, r3
   17eac:	e50b33d8 	str	r3, [fp, #-984]	; 0x3d8
   17eb0:	e51b3058 	ldr	r3, [fp, #-88]	; 0x58
   17eb4:	e1a02123 	lsr	r2, r3, #2
   17eb8:	e51b305c 	ldr	r3, [fp, #-92]	; 0x5c
   17ebc:	e1a03f03 	lsl	r3, r3, #30
   17ec0:	e1823003 	orr	r3, r2, r3
   17ec4:	e50b33dc 	str	r3, [fp, #-988]	; 0x3dc
   17ec8:	e24b3e3d 	sub	r3, fp, #976	; 0x3d0
   17ecc:	e14300d4 	ldrd	r0, [r3, #-4]
   17ed0:	e24b2e3e 	sub	r2, fp, #992	; 0x3e0
   17ed4:	e1c220d4 	ldrd	r2, [r2, #4]
   17ed8:	e0200002 	eor	r0, r0, r2
   17edc:	e0211003 	eor	r1, r1, r3
   17ee0:	e51b305c 	ldr	r3, [fp, #-92]	; 0x5c
   17ee4:	e1a023a3 	lsr	r2, r3, #7
   17ee8:	e51b3058 	ldr	r3, [fp, #-88]	; 0x58
   17eec:	e1a03c83 	lsl	r3, r3, #25
   17ef0:	e1823003 	orr	r3, r2, r3
   17ef4:	e50b33e0 	str	r3, [fp, #-992]	; 0x3e0
   17ef8:	e51b3058 	ldr	r3, [fp, #-88]	; 0x58
   17efc:	e1a023a3 	lsr	r2, r3, #7
   17f00:	e51b305c 	ldr	r3, [fp, #-92]	; 0x5c
   17f04:	e1a03c83 	lsl	r3, r3, #25
   17f08:	e1823003 	orr	r3, r2, r3
   17f0c:	e50b33e4 	str	r3, [fp, #-996]	; 0x3e4
   17f10:	e24b3e3e 	sub	r3, fp, #992	; 0x3e0
   17f14:	e14320d4 	ldrd	r2, [r3, #-4]
   17f18:	e0206002 	eor	r6, r0, r2
   17f1c:	e0217003 	eor	r7, r1, r3
   17f20:	e14b05dc 	ldrd	r0, [fp, #-92]	; 0xffffffa4
   17f24:	e14b26d4 	ldrd	r2, [fp, #-100]	; 0xffffff9c
   17f28:	e0004002 	and	r4, r0, r2
   17f2c:	e0015003 	and	r5, r1, r3
   17f30:	e14b05dc 	ldrd	r0, [fp, #-92]	; 0xffffffa4
   17f34:	e14b26d4 	ldrd	r2, [fp, #-100]	; 0xffffff9c
   17f38:	e1800002 	orr	r0, r0, r2
   17f3c:	e1811003 	orr	r1, r1, r3
   17f40:	e14b22dc 	ldrd	r2, [fp, #-44]	; 0xffffffd4
   17f44:	e0022000 	and	r2, r2, r0
   17f48:	e0033001 	and	r3, r3, r1
   17f4c:	e1822004 	orr	r2, r2, r4
   17f50:	e1833005 	orr	r3, r3, r5
   17f54:	e0922006 	adds	r2, r2, r6
   17f58:	e0a33007 	adc	r3, r3, r7
   17f5c:	e14b27f4 	strd	r2, [fp, #-116]	; 0xffffff8c
   17f60:	e14b03d4 	ldrd	r0, [fp, #-52]	; 0xffffffcc
   17f64:	e14b26dc 	ldrd	r2, [fp, #-108]	; 0xffffff94
   17f68:	e0922000 	adds	r2, r2, r0
   17f6c:	e0a33001 	adc	r3, r3, r1
   17f70:	e14b23f4 	strd	r2, [fp, #-52]	; 0xffffffcc
   17f74:	e14b06dc 	ldrd	r0, [fp, #-108]	; 0xffffff94
   17f78:	e14b27d4 	ldrd	r2, [fp, #-116]	; 0xffffff8c
   17f7c:	e0922000 	adds	r2, r2, r0
   17f80:	e0a33001 	adc	r3, r3, r1
   17f84:	e14b25f4 	strd	r2, [fp, #-84]	; 0xffffffac
   17f88:	e51b3020 	ldr	r3, [fp, #-32]
   17f8c:	e2833001 	add	r3, r3, #1
   17f90:	e50b3020 	str	r3, [fp, #-32]
   17f94:	e51b3034 	ldr	r3, [fp, #-52]	; 0x34
   17f98:	e1a02903 	lsl	r2, r3, #18
   17f9c:	e51b3030 	ldr	r3, [fp, #-48]	; 0x30
   17fa0:	e1a03723 	lsr	r3, r3, #14
   17fa4:	e1823003 	orr	r3, r2, r3
   17fa8:	e50b33e8 	str	r3, [fp, #-1000]	; 0x3e8
   17fac:	e51b3030 	ldr	r3, [fp, #-48]	; 0x30
   17fb0:	e1a02903 	lsl	r2, r3, #18
   17fb4:	e51b3034 	ldr	r3, [fp, #-52]	; 0x34
   17fb8:	e1a03723 	lsr	r3, r3, #14
   17fbc:	e1823003 	orr	r3, r2, r3
   17fc0:	e50b33ec 	str	r3, [fp, #-1004]	; 0x3ec
   17fc4:	e51b3034 	ldr	r3, [fp, #-52]	; 0x34
   17fc8:	e1a02703 	lsl	r2, r3, #14
   17fcc:	e51b3030 	ldr	r3, [fp, #-48]	; 0x30
   17fd0:	e1a03923 	lsr	r3, r3, #18
   17fd4:	e1823003 	orr	r3, r2, r3
   17fd8:	e50b33f0 	str	r3, [fp, #-1008]	; 0x3f0
   17fdc:	e51b3030 	ldr	r3, [fp, #-48]	; 0x30
   17fe0:	e1a02703 	lsl	r2, r3, #14
   17fe4:	e51b3034 	ldr	r3, [fp, #-52]	; 0x34
   17fe8:	e1a03923 	lsr	r3, r3, #18
   17fec:	e1823003 	orr	r3, r2, r3
   17ff0:	e50b33f4 	str	r3, [fp, #-1012]	; 0x3f4
   17ff4:	e24b3e3f 	sub	r3, fp, #1008	; 0x3f0
   17ff8:	e1c300d4 	ldrd	r0, [r3, #4]
   17ffc:	e24b2e3f 	sub	r2, fp, #1008	; 0x3f0
   18000:	e14220d4 	ldrd	r2, [r2, #-4]
   18004:	e0200002 	eor	r0, r0, r2
   18008:	e0211003 	eor	r1, r1, r3
   1800c:	e51b3034 	ldr	r3, [fp, #-52]	; 0x34
   18010:	e1a024a3 	lsr	r2, r3, #9
   18014:	e51b3030 	ldr	r3, [fp, #-48]	; 0x30
   18018:	e1a03b83 	lsl	r3, r3, #23
   1801c:	e1823003 	orr	r3, r2, r3
   18020:	e50b33f8 	str	r3, [fp, #-1016]	; 0x3f8
   18024:	e51b3030 	ldr	r3, [fp, #-48]	; 0x30
   18028:	e1a024a3 	lsr	r2, r3, #9
   1802c:	e51b3034 	ldr	r3, [fp, #-52]	; 0x34
   18030:	e1a03b83 	lsl	r3, r3, #23
   18034:	e1823003 	orr	r3, r2, r3
   18038:	e50b33fc 	str	r3, [fp, #-1020]	; 0x3fc
   1803c:	e24b3b01 	sub	r3, fp, #1024	; 0x400
   18040:	e1c320d4 	ldrd	r2, [r3, #4]
   18044:	e0200002 	eor	r0, r0, r2
   18048:	e0211003 	eor	r1, r1, r3
   1804c:	e14b24dc 	ldrd	r2, [fp, #-76]	; 0xffffffb4
   18050:	e1a04000 	mov	r4, r0
   18054:	e1a05001 	mov	r5, r1
   18058:	e0944002 	adds	r4, r4, r2
   1805c:	e0a55003 	adc	r5, r5, r3
   18060:	e14b03dc 	ldrd	r0, [fp, #-60]	; 0xffffffc4
   18064:	e14b24d4 	ldrd	r2, [fp, #-68]	; 0xffffffbc
   18068:	e0200002 	eor	r0, r0, r2
   1806c:	e0211003 	eor	r1, r1, r3
   18070:	e14b23d4 	ldrd	r2, [fp, #-52]	; 0xffffffcc
   18074:	e0000002 	and	r0, r0, r2
   18078:	e0011003 	and	r1, r1, r3
   1807c:	e14b24d4 	ldrd	r2, [fp, #-68]	; 0xffffffbc
   18080:	e0222000 	eor	r2, r2, r0
   18084:	e0233001 	eor	r3, r3, r1
   18088:	e1a00004 	mov	r0, r4
   1808c:	e1a01005 	mov	r1, r5
   18090:	e0900002 	adds	r0, r0, r2
   18094:	e0a11003 	adc	r1, r1, r3
   18098:	e51f2b40 	ldr	r2, [pc, #-2880]	; 17560 <sha4_process+0x240>
   1809c:	e51b3020 	ldr	r3, [fp, #-32]
   180a0:	e1a03183 	lsl	r3, r3, #3
   180a4:	e0823003 	add	r3, r2, r3
   180a8:	e1c320d0 	ldrd	r2, [r3]
   180ac:	e0900002 	adds	r0, r0, r2
   180b0:	e0a11003 	adc	r1, r1, r3
   180b4:	e51b3020 	ldr	r3, [fp, #-32]
   180b8:	e51f2b64 	ldr	r2, [pc, #-2916]	; 1755c <sha4_process+0x23c>
   180bc:	e1a03183 	lsl	r3, r3, #3
   180c0:	e24bc01c 	sub	ip, fp, #28
   180c4:	e08c3003 	add	r3, ip, r3
   180c8:	e0833002 	add	r3, r3, r2
   180cc:	e1c320d0 	ldrd	r2, [r3]
   180d0:	e0922000 	adds	r2, r2, r0
   180d4:	e0a33001 	adc	r3, r3, r1
   180d8:	e14b26fc 	strd	r2, [fp, #-108]	; 0xffffff94
   180dc:	e51b3054 	ldr	r3, [fp, #-84]	; 0x54
   180e0:	e1a02203 	lsl	r2, r3, #4
   180e4:	e51b3050 	ldr	r3, [fp, #-80]	; 0x50
   180e8:	e1a03e23 	lsr	r3, r3, #28
   180ec:	e1823003 	orr	r3, r2, r3
   180f0:	e50b3400 	str	r3, [fp, #-1024]	; 0x400
   180f4:	e51b3050 	ldr	r3, [fp, #-80]	; 0x50
   180f8:	e1a02203 	lsl	r2, r3, #4
   180fc:	e51b3054 	ldr	r3, [fp, #-84]	; 0x54
   18100:	e1a03e23 	lsr	r3, r3, #28
   18104:	e1823003 	orr	r3, r2, r3
   18108:	e50b3404 	str	r3, [fp, #-1028]	; 0x404
   1810c:	e51b3054 	ldr	r3, [fp, #-84]	; 0x54
   18110:	e1a02123 	lsr	r2, r3, #2
   18114:	e51b3050 	ldr	r3, [fp, #-80]	; 0x50
   18118:	e1a03f03 	lsl	r3, r3, #30
   1811c:	e1823003 	orr	r3, r2, r3
   18120:	e50b3408 	str	r3, [fp, #-1032]	; 0x408
   18124:	e51b3050 	ldr	r3, [fp, #-80]	; 0x50
   18128:	e1a02123 	lsr	r2, r3, #2
   1812c:	e51b3054 	ldr	r3, [fp, #-84]	; 0x54
   18130:	e1a03f03 	lsl	r3, r3, #30
   18134:	e1823003 	orr	r3, r2, r3
   18138:	e50b340c 	str	r3, [fp, #-1036]	; 0x40c
   1813c:	e24b3b01 	sub	r3, fp, #1024	; 0x400
   18140:	e14300d4 	ldrd	r0, [r3, #-4]
   18144:	e24b2e41 	sub	r2, fp, #1040	; 0x410
   18148:	e1c220d4 	ldrd	r2, [r2, #4]
   1814c:	e0200002 	eor	r0, r0, r2
   18150:	e0211003 	eor	r1, r1, r3
   18154:	e51b3054 	ldr	r3, [fp, #-84]	; 0x54
   18158:	e1a023a3 	lsr	r2, r3, #7
   1815c:	e51b3050 	ldr	r3, [fp, #-80]	; 0x50
   18160:	e1a03c83 	lsl	r3, r3, #25
   18164:	e1823003 	orr	r3, r2, r3
   18168:	e50b3410 	str	r3, [fp, #-1040]	; 0x410
   1816c:	e51b3050 	ldr	r3, [fp, #-80]	; 0x50
   18170:	e1a023a3 	lsr	r2, r3, #7
   18174:	e51b3054 	ldr	r3, [fp, #-84]	; 0x54
   18178:	e1a03c83 	lsl	r3, r3, #25
   1817c:	e1823003 	orr	r3, r2, r3
   18180:	e50b3414 	str	r3, [fp, #-1044]	; 0x414
   18184:	e24b3e41 	sub	r3, fp, #1040	; 0x410
   18188:	e14320d4 	ldrd	r2, [r3, #-4]
   1818c:	e0206002 	eor	r6, r0, r2
   18190:	e0217003 	eor	r7, r1, r3
   18194:	e14b05d4 	ldrd	r0, [fp, #-84]	; 0xffffffac
   18198:	e14b25dc 	ldrd	r2, [fp, #-92]	; 0xffffffa4
   1819c:	e0004002 	and	r4, r0, r2
   181a0:	e0015003 	and	r5, r1, r3
   181a4:	e14b05d4 	ldrd	r0, [fp, #-84]	; 0xffffffac
   181a8:	e14b25dc 	ldrd	r2, [fp, #-92]	; 0xffffffa4
   181ac:	e1800002 	orr	r0, r0, r2
   181b0:	e1811003 	orr	r1, r1, r3
   181b4:	e14b26d4 	ldrd	r2, [fp, #-100]	; 0xffffff9c
   181b8:	e0022000 	and	r2, r2, r0
   181bc:	e0033001 	and	r3, r3, r1
   181c0:	e1822004 	orr	r2, r2, r4
   181c4:	e1833005 	orr	r3, r3, r5
   181c8:	e0922006 	adds	r2, r2, r6
   181cc:	e0a33007 	adc	r3, r3, r7
   181d0:	e14b27f4 	strd	r2, [fp, #-116]	; 0xffffff8c
   181d4:	e14b02dc 	ldrd	r0, [fp, #-44]	; 0xffffffd4
   181d8:	e14b26dc 	ldrd	r2, [fp, #-108]	; 0xffffff94
   181dc:	e0922000 	adds	r2, r2, r0
   181e0:	e0a33001 	adc	r3, r3, r1
   181e4:	e14b22fc 	strd	r2, [fp, #-44]	; 0xffffffd4
   181e8:	e14b06dc 	ldrd	r0, [fp, #-108]	; 0xffffff94
   181ec:	e14b27d4 	ldrd	r2, [fp, #-116]	; 0xffffff8c
   181f0:	e0922000 	adds	r2, r2, r0
   181f4:	e0a33001 	adc	r3, r3, r1
   181f8:	e14b24fc 	strd	r2, [fp, #-76]	; 0xffffffb4
   181fc:	e51b3020 	ldr	r3, [fp, #-32]
   18200:	e2833001 	add	r3, r3, #1
   18204:	e50b3020 	str	r3, [fp, #-32]
   18208:	e51b302c 	ldr	r3, [fp, #-44]	; 0x2c
   1820c:	e1a02903 	lsl	r2, r3, #18
   18210:	e51b3028 	ldr	r3, [fp, #-40]	; 0x28
   18214:	e1a03723 	lsr	r3, r3, #14
   18218:	e1823003 	orr	r3, r2, r3
   1821c:	e50b3418 	str	r3, [fp, #-1048]	; 0x418
   18220:	e51b3028 	ldr	r3, [fp, #-40]	; 0x28
   18224:	e1a02903 	lsl	r2, r3, #18
   18228:	e51b302c 	ldr	r3, [fp, #-44]	; 0x2c
   1822c:	e1a03723 	lsr	r3, r3, #14
   18230:	e1823003 	orr	r3, r2, r3
   18234:	e50b341c 	str	r3, [fp, #-1052]	; 0x41c
   18238:	e51b302c 	ldr	r3, [fp, #-44]	; 0x2c
   1823c:	e1a02703 	lsl	r2, r3, #14
   18240:	e51b3028 	ldr	r3, [fp, #-40]	; 0x28
   18244:	e1a03923 	lsr	r3, r3, #18
   18248:	e1823003 	orr	r3, r2, r3
   1824c:	e50b3420 	str	r3, [fp, #-1056]	; 0x420
   18250:	e51b3028 	ldr	r3, [fp, #-40]	; 0x28
   18254:	e1a02703 	lsl	r2, r3, #14
   18258:	e51b302c 	ldr	r3, [fp, #-44]	; 0x2c
   1825c:	e1a03923 	lsr	r3, r3, #18
   18260:	e1823003 	orr	r3, r2, r3
   18264:	e50b3424 	str	r3, [fp, #-1060]	; 0x424
   18268:	e24b3e42 	sub	r3, fp, #1056	; 0x420
   1826c:	e1c300d4 	ldrd	r0, [r3, #4]
   18270:	e24b2e42 	sub	r2, fp, #1056	; 0x420
   18274:	e14220d4 	ldrd	r2, [r2, #-4]
   18278:	e0200002 	eor	r0, r0, r2
   1827c:	e0211003 	eor	r1, r1, r3
   18280:	e51b302c 	ldr	r3, [fp, #-44]	; 0x2c
   18284:	e1a024a3 	lsr	r2, r3, #9
   18288:	e51b3028 	ldr	r3, [fp, #-40]	; 0x28
   1828c:	e1a03b83 	lsl	r3, r3, #23
   18290:	e1823003 	orr	r3, r2, r3
   18294:	e50b3428 	str	r3, [fp, #-1064]	; 0x428
   18298:	e51b3028 	ldr	r3, [fp, #-40]	; 0x28
   1829c:	e1a024a3 	lsr	r2, r3, #9
   182a0:	e51b302c 	ldr	r3, [fp, #-44]	; 0x2c
   182a4:	e1a03b83 	lsl	r3, r3, #23
   182a8:	e1823003 	orr	r3, r2, r3
   182ac:	e50b342c 	str	r3, [fp, #-1068]	; 0x42c
   182b0:	e24b3e43 	sub	r3, fp, #1072	; 0x430
   182b4:	e1c320d4 	ldrd	r2, [r3, #4]
   182b8:	e0200002 	eor	r0, r0, r2
   182bc:	e0211003 	eor	r1, r1, r3
   182c0:	e14b24d4 	ldrd	r2, [fp, #-68]	; 0xffffffbc
   182c4:	e1a04000 	mov	r4, r0
   182c8:	e1a05001 	mov	r5, r1
   182cc:	e0944002 	adds	r4, r4, r2
   182d0:	e0a55003 	adc	r5, r5, r3
   182d4:	e14b03d4 	ldrd	r0, [fp, #-52]	; 0xffffffcc
   182d8:	e14b23dc 	ldrd	r2, [fp, #-60]	; 0xffffffc4
   182dc:	e0200002 	eor	r0, r0, r2
   182e0:	e0211003 	eor	r1, r1, r3
   182e4:	e14b22dc 	ldrd	r2, [fp, #-44]	; 0xffffffd4
   182e8:	e0000002 	and	r0, r0, r2
   182ec:	e0011003 	and	r1, r1, r3
   182f0:	e14b23dc 	ldrd	r2, [fp, #-60]	; 0xffffffc4
   182f4:	e0222000 	eor	r2, r2, r0
   182f8:	e0233001 	eor	r3, r3, r1
   182fc:	e1a00004 	mov	r0, r4
   18300:	e1a01005 	mov	r1, r5
   18304:	e0900002 	adds	r0, r0, r2
   18308:	e0a11003 	adc	r1, r1, r3
   1830c:	e51f2db4 	ldr	r2, [pc, #-3508]	; 17560 <sha4_process+0x240>
   18310:	e51b3020 	ldr	r3, [fp, #-32]
   18314:	e1a03183 	lsl	r3, r3, #3
   18318:	e0823003 	add	r3, r2, r3
   1831c:	e1c320d0 	ldrd	r2, [r3]
   18320:	e0900002 	adds	r0, r0, r2
   18324:	e0a11003 	adc	r1, r1, r3
   18328:	e51b3020 	ldr	r3, [fp, #-32]
   1832c:	e59f299c 	ldr	r2, [pc, #2460]	; 18cd0 <sha4_process+0x19b0>
   18330:	e1a03183 	lsl	r3, r3, #3
   18334:	e24bc01c 	sub	ip, fp, #28
   18338:	e08c3003 	add	r3, ip, r3
   1833c:	e0833002 	add	r3, r3, r2
   18340:	e1c320d0 	ldrd	r2, [r3]
   18344:	e0922000 	adds	r2, r2, r0
   18348:	e0a33001 	adc	r3, r3, r1
   1834c:	e14b26fc 	strd	r2, [fp, #-108]	; 0xffffff94
   18350:	e51b304c 	ldr	r3, [fp, #-76]	; 0x4c
   18354:	e1a02203 	lsl	r2, r3, #4
   18358:	e51b3048 	ldr	r3, [fp, #-72]	; 0x48
   1835c:	e1a03e23 	lsr	r3, r3, #28
   18360:	e1823003 	orr	r3, r2, r3
   18364:	e50b3430 	str	r3, [fp, #-1072]	; 0x430
   18368:	e51b3048 	ldr	r3, [fp, #-72]	; 0x48
   1836c:	e1a02203 	lsl	r2, r3, #4
   18370:	e51b304c 	ldr	r3, [fp, #-76]	; 0x4c
   18374:	e1a03e23 	lsr	r3, r3, #28
   18378:	e1823003 	orr	r3, r2, r3
   1837c:	e50b3434 	str	r3, [fp, #-1076]	; 0x434
   18380:	e51b304c 	ldr	r3, [fp, #-76]	; 0x4c
   18384:	e1a02123 	lsr	r2, r3, #2
   18388:	e51b3048 	ldr	r3, [fp, #-72]	; 0x48
   1838c:	e1a03f03 	lsl	r3, r3, #30
   18390:	e1823003 	orr	r3, r2, r3
   18394:	e50b3438 	str	r3, [fp, #-1080]	; 0x438
   18398:	e51b3048 	ldr	r3, [fp, #-72]	; 0x48
   1839c:	e1a02123 	lsr	r2, r3, #2
   183a0:	e51b304c 	ldr	r3, [fp, #-76]	; 0x4c
   183a4:	e1a03f03 	lsl	r3, r3, #30
   183a8:	e1823003 	orr	r3, r2, r3
   183ac:	e50b343c 	str	r3, [fp, #-1084]	; 0x43c
   183b0:	e24b3e43 	sub	r3, fp, #1072	; 0x430
   183b4:	e14300d4 	ldrd	r0, [r3, #-4]
   183b8:	e24b2d11 	sub	r2, fp, #1088	; 0x440
   183bc:	e1c220d4 	ldrd	r2, [r2, #4]
   183c0:	e0200002 	eor	r0, r0, r2
   183c4:	e0211003 	eor	r1, r1, r3
   183c8:	e51b304c 	ldr	r3, [fp, #-76]	; 0x4c
   183cc:	e1a023a3 	lsr	r2, r3, #7
   183d0:	e51b3048 	ldr	r3, [fp, #-72]	; 0x48
   183d4:	e1a03c83 	lsl	r3, r3, #25
   183d8:	e1823003 	orr	r3, r2, r3
   183dc:	e50b3440 	str	r3, [fp, #-1088]	; 0x440
   183e0:	e51b3048 	ldr	r3, [fp, #-72]	; 0x48
   183e4:	e1a023a3 	lsr	r2, r3, #7
   183e8:	e51b304c 	ldr	r3, [fp, #-76]	; 0x4c
   183ec:	e1a03c83 	lsl	r3, r3, #25
   183f0:	e1823003 	orr	r3, r2, r3
   183f4:	e50b3444 	str	r3, [fp, #-1092]	; 0x444
   183f8:	e24b3d11 	sub	r3, fp, #1088	; 0x440
   183fc:	e14320d4 	ldrd	r2, [r3, #-4]
   18400:	e0206002 	eor	r6, r0, r2
   18404:	e0217003 	eor	r7, r1, r3
   18408:	e14b04dc 	ldrd	r0, [fp, #-76]	; 0xffffffb4
   1840c:	e14b25d4 	ldrd	r2, [fp, #-84]	; 0xffffffac
   18410:	e0004002 	and	r4, r0, r2
   18414:	e0015003 	and	r5, r1, r3
   18418:	e14b04dc 	ldrd	r0, [fp, #-76]	; 0xffffffb4
   1841c:	e14b25d4 	ldrd	r2, [fp, #-84]	; 0xffffffac
   18420:	e1800002 	orr	r0, r0, r2
   18424:	e1811003 	orr	r1, r1, r3
   18428:	e14b25dc 	ldrd	r2, [fp, #-92]	; 0xffffffa4
   1842c:	e0022000 	and	r2, r2, r0
   18430:	e0033001 	and	r3, r3, r1
   18434:	e1822004 	orr	r2, r2, r4
   18438:	e1833005 	orr	r3, r3, r5
   1843c:	e0922006 	adds	r2, r2, r6
   18440:	e0a33007 	adc	r3, r3, r7
   18444:	e14b27f4 	strd	r2, [fp, #-116]	; 0xffffff8c
   18448:	e14b06d4 	ldrd	r0, [fp, #-100]	; 0xffffff9c
   1844c:	e14b26dc 	ldrd	r2, [fp, #-108]	; 0xffffff94
   18450:	e0922000 	adds	r2, r2, r0
   18454:	e0a33001 	adc	r3, r3, r1
   18458:	e14b26f4 	strd	r2, [fp, #-100]	; 0xffffff9c
   1845c:	e14b06dc 	ldrd	r0, [fp, #-108]	; 0xffffff94
   18460:	e14b27d4 	ldrd	r2, [fp, #-116]	; 0xffffff8c
   18464:	e0922000 	adds	r2, r2, r0
   18468:	e0a33001 	adc	r3, r3, r1
   1846c:	e14b24f4 	strd	r2, [fp, #-68]	; 0xffffffbc
   18470:	e51b3020 	ldr	r3, [fp, #-32]
   18474:	e2833001 	add	r3, r3, #1
   18478:	e50b3020 	str	r3, [fp, #-32]
   1847c:	e51b3064 	ldr	r3, [fp, #-100]	; 0x64
   18480:	e1a02903 	lsl	r2, r3, #18
   18484:	e51b3060 	ldr	r3, [fp, #-96]	; 0x60
   18488:	e1a03723 	lsr	r3, r3, #14
   1848c:	e1823003 	orr	r3, r2, r3
   18490:	e50b3448 	str	r3, [fp, #-1096]	; 0x448
   18494:	e51b3060 	ldr	r3, [fp, #-96]	; 0x60
   18498:	e1a02903 	lsl	r2, r3, #18
   1849c:	e51b3064 	ldr	r3, [fp, #-100]	; 0x64
   184a0:	e1a03723 	lsr	r3, r3, #14
   184a4:	e1823003 	orr	r3, r2, r3
   184a8:	e50b344c 	str	r3, [fp, #-1100]	; 0x44c
   184ac:	e51b3064 	ldr	r3, [fp, #-100]	; 0x64
   184b0:	e1a02703 	lsl	r2, r3, #14
   184b4:	e51b3060 	ldr	r3, [fp, #-96]	; 0x60
   184b8:	e1a03923 	lsr	r3, r3, #18
   184bc:	e1823003 	orr	r3, r2, r3
   184c0:	e50b3450 	str	r3, [fp, #-1104]	; 0x450
   184c4:	e51b3060 	ldr	r3, [fp, #-96]	; 0x60
   184c8:	e1a02703 	lsl	r2, r3, #14
   184cc:	e51b3064 	ldr	r3, [fp, #-100]	; 0x64
   184d0:	e1a03923 	lsr	r3, r3, #18
   184d4:	e1823003 	orr	r3, r2, r3
   184d8:	e50b3454 	str	r3, [fp, #-1108]	; 0x454
   184dc:	e24b3e45 	sub	r3, fp, #1104	; 0x450
   184e0:	e1c300d4 	ldrd	r0, [r3, #4]
   184e4:	e24b2e45 	sub	r2, fp, #1104	; 0x450
   184e8:	e14220d4 	ldrd	r2, [r2, #-4]
   184ec:	e0200002 	eor	r0, r0, r2
   184f0:	e0211003 	eor	r1, r1, r3
   184f4:	e51b3064 	ldr	r3, [fp, #-100]	; 0x64
   184f8:	e1a024a3 	lsr	r2, r3, #9
   184fc:	e51b3060 	ldr	r3, [fp, #-96]	; 0x60
   18500:	e1a03b83 	lsl	r3, r3, #23
   18504:	e1823003 	orr	r3, r2, r3
   18508:	e50b3458 	str	r3, [fp, #-1112]	; 0x458
   1850c:	e51b3060 	ldr	r3, [fp, #-96]	; 0x60
   18510:	e1a024a3 	lsr	r2, r3, #9
   18514:	e51b3064 	ldr	r3, [fp, #-100]	; 0x64
   18518:	e1a03b83 	lsl	r3, r3, #23
   1851c:	e1823003 	orr	r3, r2, r3
   18520:	e50b345c 	str	r3, [fp, #-1116]	; 0x45c
   18524:	e24b3e46 	sub	r3, fp, #1120	; 0x460
   18528:	e1c320d4 	ldrd	r2, [r3, #4]
   1852c:	e0200002 	eor	r0, r0, r2
   18530:	e0211003 	eor	r1, r1, r3
   18534:	e14b23dc 	ldrd	r2, [fp, #-60]	; 0xffffffc4
   18538:	e1a04000 	mov	r4, r0
   1853c:	e1a05001 	mov	r5, r1
   18540:	e0944002 	adds	r4, r4, r2
   18544:	e0a55003 	adc	r5, r5, r3
   18548:	e14b02dc 	ldrd	r0, [fp, #-44]	; 0xffffffd4
   1854c:	e14b23d4 	ldrd	r2, [fp, #-52]	; 0xffffffcc
   18550:	e0200002 	eor	r0, r0, r2
   18554:	e0211003 	eor	r1, r1, r3
   18558:	e14b26d4 	ldrd	r2, [fp, #-100]	; 0xffffff9c
   1855c:	e0000002 	and	r0, r0, r2
   18560:	e0011003 	and	r1, r1, r3
   18564:	e14b23d4 	ldrd	r2, [fp, #-52]	; 0xffffffcc
   18568:	e0222000 	eor	r2, r2, r0
   1856c:	e0233001 	eor	r3, r3, r1
   18570:	e1a00004 	mov	r0, r4
   18574:	e1a01005 	mov	r1, r5
   18578:	e0900002 	adds	r0, r0, r2
   1857c:	e0a11003 	adc	r1, r1, r3
   18580:	e59f274c 	ldr	r2, [pc, #1868]	; 18cd4 <sha4_process+0x19b4>
   18584:	e51b3020 	ldr	r3, [fp, #-32]
   18588:	e1a03183 	lsl	r3, r3, #3
   1858c:	e0823003 	add	r3, r2, r3
   18590:	e1c320d0 	ldrd	r2, [r3]
   18594:	e0900002 	adds	r0, r0, r2
   18598:	e0a11003 	adc	r1, r1, r3
   1859c:	e51b3020 	ldr	r3, [fp, #-32]
   185a0:	e59f2728 	ldr	r2, [pc, #1832]	; 18cd0 <sha4_process+0x19b0>
   185a4:	e1a03183 	lsl	r3, r3, #3
   185a8:	e24bc01c 	sub	ip, fp, #28
   185ac:	e08c3003 	add	r3, ip, r3
   185b0:	e0833002 	add	r3, r3, r2
   185b4:	e1c320d0 	ldrd	r2, [r3]
   185b8:	e0922000 	adds	r2, r2, r0
   185bc:	e0a33001 	adc	r3, r3, r1
   185c0:	e14b26fc 	strd	r2, [fp, #-108]	; 0xffffff94
   185c4:	e51b3044 	ldr	r3, [fp, #-68]	; 0x44
   185c8:	e1a02203 	lsl	r2, r3, #4
   185cc:	e51b3040 	ldr	r3, [fp, #-64]	; 0x40
   185d0:	e1a03e23 	lsr	r3, r3, #28
   185d4:	e1823003 	orr	r3, r2, r3
   185d8:	e50b3460 	str	r3, [fp, #-1120]	; 0x460
   185dc:	e51b3040 	ldr	r3, [fp, #-64]	; 0x40
   185e0:	e1a02203 	lsl	r2, r3, #4
   185e4:	e51b3044 	ldr	r3, [fp, #-68]	; 0x44
   185e8:	e1a03e23 	lsr	r3, r3, #28
   185ec:	e1823003 	orr	r3, r2, r3
   185f0:	e50b3464 	str	r3, [fp, #-1124]	; 0x464
   185f4:	e51b3044 	ldr	r3, [fp, #-68]	; 0x44
   185f8:	e1a02123 	lsr	r2, r3, #2
   185fc:	e51b3040 	ldr	r3, [fp, #-64]	; 0x40
   18600:	e1a03f03 	lsl	r3, r3, #30
   18604:	e1823003 	orr	r3, r2, r3
   18608:	e50b3468 	str	r3, [fp, #-1128]	; 0x468
   1860c:	e51b3040 	ldr	r3, [fp, #-64]	; 0x40
   18610:	e1a02123 	lsr	r2, r3, #2
   18614:	e51b3044 	ldr	r3, [fp, #-68]	; 0x44
   18618:	e1a03f03 	lsl	r3, r3, #30
   1861c:	e1823003 	orr	r3, r2, r3
   18620:	e50b346c 	str	r3, [fp, #-1132]	; 0x46c
   18624:	e24b3e46 	sub	r3, fp, #1120	; 0x460
   18628:	e14300d4 	ldrd	r0, [r3, #-4]
   1862c:	e24b2e47 	sub	r2, fp, #1136	; 0x470
   18630:	e1c220d4 	ldrd	r2, [r2, #4]
   18634:	e0200002 	eor	r0, r0, r2
   18638:	e0211003 	eor	r1, r1, r3
   1863c:	e51b3044 	ldr	r3, [fp, #-68]	; 0x44
   18640:	e1a023a3 	lsr	r2, r3, #7
   18644:	e51b3040 	ldr	r3, [fp, #-64]	; 0x40
   18648:	e1a03c83 	lsl	r3, r3, #25
   1864c:	e1823003 	orr	r3, r2, r3
   18650:	e50b3470 	str	r3, [fp, #-1136]	; 0x470
   18654:	e51b3040 	ldr	r3, [fp, #-64]	; 0x40
   18658:	e1a023a3 	lsr	r2, r3, #7
   1865c:	e51b3044 	ldr	r3, [fp, #-68]	; 0x44
   18660:	e1a03c83 	lsl	r3, r3, #25
   18664:	e1823003 	orr	r3, r2, r3
   18668:	e50b3474 	str	r3, [fp, #-1140]	; 0x474
   1866c:	e24b3e47 	sub	r3, fp, #1136	; 0x470
   18670:	e14320d4 	ldrd	r2, [r3, #-4]
   18674:	e0206002 	eor	r6, r0, r2
   18678:	e0217003 	eor	r7, r1, r3
   1867c:	e14b04d4 	ldrd	r0, [fp, #-68]	; 0xffffffbc
   18680:	e14b24dc 	ldrd	r2, [fp, #-76]	; 0xffffffb4
   18684:	e0004002 	and	r4, r0, r2
   18688:	e0015003 	and	r5, r1, r3
   1868c:	e14b04d4 	ldrd	r0, [fp, #-68]	; 0xffffffbc
   18690:	e14b24dc 	ldrd	r2, [fp, #-76]	; 0xffffffb4
   18694:	e1800002 	orr	r0, r0, r2
   18698:	e1811003 	orr	r1, r1, r3
   1869c:	e14b25d4 	ldrd	r2, [fp, #-84]	; 0xffffffac
   186a0:	e0022000 	and	r2, r2, r0
   186a4:	e0033001 	and	r3, r3, r1
   186a8:	e1822004 	orr	r2, r2, r4
   186ac:	e1833005 	orr	r3, r3, r5
   186b0:	e0922006 	adds	r2, r2, r6
   186b4:	e0a33007 	adc	r3, r3, r7
   186b8:	e14b27f4 	strd	r2, [fp, #-116]	; 0xffffff8c
   186bc:	e14b05dc 	ldrd	r0, [fp, #-92]	; 0xffffffa4
   186c0:	e14b26dc 	ldrd	r2, [fp, #-108]	; 0xffffff94
   186c4:	e0922000 	adds	r2, r2, r0
   186c8:	e0a33001 	adc	r3, r3, r1
   186cc:	e14b25fc 	strd	r2, [fp, #-92]	; 0xffffffa4
   186d0:	e14b06dc 	ldrd	r0, [fp, #-108]	; 0xffffff94
   186d4:	e14b27d4 	ldrd	r2, [fp, #-116]	; 0xffffff8c
   186d8:	e0922000 	adds	r2, r2, r0
   186dc:	e0a33001 	adc	r3, r3, r1
   186e0:	e14b23fc 	strd	r2, [fp, #-60]	; 0xffffffc4
   186e4:	e51b3020 	ldr	r3, [fp, #-32]
   186e8:	e2833001 	add	r3, r3, #1
   186ec:	e50b3020 	str	r3, [fp, #-32]
   186f0:	e51b305c 	ldr	r3, [fp, #-92]	; 0x5c
   186f4:	e1a02903 	lsl	r2, r3, #18
   186f8:	e51b3058 	ldr	r3, [fp, #-88]	; 0x58
   186fc:	e1a03723 	lsr	r3, r3, #14
   18700:	e1823003 	orr	r3, r2, r3
   18704:	e50b3478 	str	r3, [fp, #-1144]	; 0x478
   18708:	e51b3058 	ldr	r3, [fp, #-88]	; 0x58
   1870c:	e1a02903 	lsl	r2, r3, #18
   18710:	e51b305c 	ldr	r3, [fp, #-92]	; 0x5c
   18714:	e1a03723 	lsr	r3, r3, #14
   18718:	e1823003 	orr	r3, r2, r3
   1871c:	e50b347c 	str	r3, [fp, #-1148]	; 0x47c
   18720:	e51b305c 	ldr	r3, [fp, #-92]	; 0x5c
   18724:	e1a02703 	lsl	r2, r3, #14
   18728:	e51b3058 	ldr	r3, [fp, #-88]	; 0x58
   1872c:	e1a03923 	lsr	r3, r3, #18
   18730:	e1823003 	orr	r3, r2, r3
   18734:	e50b3480 	str	r3, [fp, #-1152]	; 0x480
   18738:	e51b3058 	ldr	r3, [fp, #-88]	; 0x58
   1873c:	e1a02703 	lsl	r2, r3, #14
   18740:	e51b305c 	ldr	r3, [fp, #-92]	; 0x5c
   18744:	e1a03923 	lsr	r3, r3, #18
   18748:	e1823003 	orr	r3, r2, r3
   1874c:	e50b3484 	str	r3, [fp, #-1156]	; 0x484
   18750:	e24b3d12 	sub	r3, fp, #1152	; 0x480
   18754:	e1c300d4 	ldrd	r0, [r3, #4]
   18758:	e24b2d12 	sub	r2, fp, #1152	; 0x480
   1875c:	e14220d4 	ldrd	r2, [r2, #-4]
   18760:	e0200002 	eor	r0, r0, r2
   18764:	e0211003 	eor	r1, r1, r3
   18768:	e51b305c 	ldr	r3, [fp, #-92]	; 0x5c
   1876c:	e1a024a3 	lsr	r2, r3, #9
   18770:	e51b3058 	ldr	r3, [fp, #-88]	; 0x58
   18774:	e1a03b83 	lsl	r3, r3, #23
   18778:	e1823003 	orr	r3, r2, r3
   1877c:	e50b3488 	str	r3, [fp, #-1160]	; 0x488
   18780:	e51b3058 	ldr	r3, [fp, #-88]	; 0x58
   18784:	e1a024a3 	lsr	r2, r3, #9
   18788:	e51b305c 	ldr	r3, [fp, #-92]	; 0x5c
   1878c:	e1a03b83 	lsl	r3, r3, #23
   18790:	e1823003 	orr	r3, r2, r3
   18794:	e50b348c 	str	r3, [fp, #-1164]	; 0x48c
   18798:	e24b3e49 	sub	r3, fp, #1168	; 0x490
   1879c:	e1c320d4 	ldrd	r2, [r3, #4]
   187a0:	e0200002 	eor	r0, r0, r2
   187a4:	e0211003 	eor	r1, r1, r3
   187a8:	e14b23d4 	ldrd	r2, [fp, #-52]	; 0xffffffcc
   187ac:	e1a04000 	mov	r4, r0
   187b0:	e1a05001 	mov	r5, r1
   187b4:	e0944002 	adds	r4, r4, r2
   187b8:	e0a55003 	adc	r5, r5, r3
   187bc:	e14b06d4 	ldrd	r0, [fp, #-100]	; 0xffffff9c
   187c0:	e14b22dc 	ldrd	r2, [fp, #-44]	; 0xffffffd4
   187c4:	e0200002 	eor	r0, r0, r2
   187c8:	e0211003 	eor	r1, r1, r3
   187cc:	e14b25dc 	ldrd	r2, [fp, #-92]	; 0xffffffa4
   187d0:	e0000002 	and	r0, r0, r2
   187d4:	e0011003 	and	r1, r1, r3
   187d8:	e14b22dc 	ldrd	r2, [fp, #-44]	; 0xffffffd4
   187dc:	e0222000 	eor	r2, r2, r0
   187e0:	e0233001 	eor	r3, r3, r1
   187e4:	e1a00004 	mov	r0, r4
   187e8:	e1a01005 	mov	r1, r5
   187ec:	e0900002 	adds	r0, r0, r2
   187f0:	e0a11003 	adc	r1, r1, r3
   187f4:	e59f24d8 	ldr	r2, [pc, #1240]	; 18cd4 <sha4_process+0x19b4>
   187f8:	e51b3020 	ldr	r3, [fp, #-32]
   187fc:	e1a03183 	lsl	r3, r3, #3
   18800:	e0823003 	add	r3, r2, r3
   18804:	e1c320d0 	ldrd	r2, [r3]
   18808:	e0900002 	adds	r0, r0, r2
   1880c:	e0a11003 	adc	r1, r1, r3
   18810:	e51b3020 	ldr	r3, [fp, #-32]
   18814:	e59f24b4 	ldr	r2, [pc, #1204]	; 18cd0 <sha4_process+0x19b0>
   18818:	e1a03183 	lsl	r3, r3, #3
   1881c:	e24bc01c 	sub	ip, fp, #28
   18820:	e08c3003 	add	r3, ip, r3
   18824:	e0833002 	add	r3, r3, r2
   18828:	e1c320d0 	ldrd	r2, [r3]
   1882c:	e0922000 	adds	r2, r2, r0
   18830:	e0a33001 	adc	r3, r3, r1
   18834:	e14b26fc 	strd	r2, [fp, #-108]	; 0xffffff94
   18838:	e51b303c 	ldr	r3, [fp, #-60]	; 0x3c
   1883c:	e1a02203 	lsl	r2, r3, #4
   18840:	e51b3038 	ldr	r3, [fp, #-56]	; 0x38
   18844:	e1a03e23 	lsr	r3, r3, #28
   18848:	e1823003 	orr	r3, r2, r3
   1884c:	e50b3490 	str	r3, [fp, #-1168]	; 0x490
   18850:	e51b3038 	ldr	r3, [fp, #-56]	; 0x38
   18854:	e1a02203 	lsl	r2, r3, #4
   18858:	e51b303c 	ldr	r3, [fp, #-60]	; 0x3c
   1885c:	e1a03e23 	lsr	r3, r3, #28
   18860:	e1823003 	orr	r3, r2, r3
   18864:	e50b3494 	str	r3, [fp, #-1172]	; 0x494
   18868:	e51b303c 	ldr	r3, [fp, #-60]	; 0x3c
   1886c:	e1a02123 	lsr	r2, r3, #2
   18870:	e51b3038 	ldr	r3, [fp, #-56]	; 0x38
   18874:	e1a03f03 	lsl	r3, r3, #30
   18878:	e1823003 	orr	r3, r2, r3
   1887c:	e50b3498 	str	r3, [fp, #-1176]	; 0x498
   18880:	e51b3038 	ldr	r3, [fp, #-56]	; 0x38
   18884:	e1a02123 	lsr	r2, r3, #2
   18888:	e51b303c 	ldr	r3, [fp, #-60]	; 0x3c
   1888c:	e1a03f03 	lsl	r3, r3, #30
   18890:	e1823003 	orr	r3, r2, r3
   18894:	e50b349c 	str	r3, [fp, #-1180]	; 0x49c
   18898:	e24b3e49 	sub	r3, fp, #1168	; 0x490
   1889c:	e14300d4 	ldrd	r0, [r3, #-4]
   188a0:	e24b2e4a 	sub	r2, fp, #1184	; 0x4a0
   188a4:	e1c220d4 	ldrd	r2, [r2, #4]
   188a8:	e0200002 	eor	r0, r0, r2
   188ac:	e0211003 	eor	r1, r1, r3
   188b0:	e51b303c 	ldr	r3, [fp, #-60]	; 0x3c
   188b4:	e1a023a3 	lsr	r2, r3, #7
   188b8:	e51b3038 	ldr	r3, [fp, #-56]	; 0x38
   188bc:	e1a03c83 	lsl	r3, r3, #25
   188c0:	e1823003 	orr	r3, r2, r3
   188c4:	e50b34a0 	str	r3, [fp, #-1184]	; 0x4a0
   188c8:	e51b3038 	ldr	r3, [fp, #-56]	; 0x38
   188cc:	e1a023a3 	lsr	r2, r3, #7
   188d0:	e51b303c 	ldr	r3, [fp, #-60]	; 0x3c
   188d4:	e1a03c83 	lsl	r3, r3, #25
   188d8:	e1823003 	orr	r3, r2, r3
   188dc:	e50b34a4 	str	r3, [fp, #-1188]	; 0x4a4
   188e0:	e24b3e4a 	sub	r3, fp, #1184	; 0x4a0
   188e4:	e14320d4 	ldrd	r2, [r3, #-4]
   188e8:	e0206002 	eor	r6, r0, r2
   188ec:	e0217003 	eor	r7, r1, r3
   188f0:	e14b03dc 	ldrd	r0, [fp, #-60]	; 0xffffffc4
   188f4:	e14b24d4 	ldrd	r2, [fp, #-68]	; 0xffffffbc
   188f8:	e0004002 	and	r4, r0, r2
   188fc:	e0015003 	and	r5, r1, r3
   18900:	e14b03dc 	ldrd	r0, [fp, #-60]	; 0xffffffc4
   18904:	e14b24d4 	ldrd	r2, [fp, #-68]	; 0xffffffbc
   18908:	e1800002 	orr	r0, r0, r2
   1890c:	e1811003 	orr	r1, r1, r3
   18910:	e14b24dc 	ldrd	r2, [fp, #-76]	; 0xffffffb4
   18914:	e0022000 	and	r2, r2, r0
   18918:	e0033001 	and	r3, r3, r1
   1891c:	e1822004 	orr	r2, r2, r4
   18920:	e1833005 	orr	r3, r3, r5
   18924:	e0922006 	adds	r2, r2, r6
   18928:	e0a33007 	adc	r3, r3, r7
   1892c:	e14b27f4 	strd	r2, [fp, #-116]	; 0xffffff8c
   18930:	e14b05d4 	ldrd	r0, [fp, #-84]	; 0xffffffac
   18934:	e14b26dc 	ldrd	r2, [fp, #-108]	; 0xffffff94
   18938:	e0922000 	adds	r2, r2, r0
   1893c:	e0a33001 	adc	r3, r3, r1
   18940:	e14b25f4 	strd	r2, [fp, #-84]	; 0xffffffac
   18944:	e14b06dc 	ldrd	r0, [fp, #-108]	; 0xffffff94
   18948:	e14b27d4 	ldrd	r2, [fp, #-116]	; 0xffffff8c
   1894c:	e0922000 	adds	r2, r2, r0
   18950:	e0a33001 	adc	r3, r3, r1
   18954:	e14b23f4 	strd	r2, [fp, #-52]	; 0xffffffcc
   18958:	e51b3020 	ldr	r3, [fp, #-32]
   1895c:	e2833001 	add	r3, r3, #1
   18960:	e50b3020 	str	r3, [fp, #-32]
   18964:	e51b3054 	ldr	r3, [fp, #-84]	; 0x54
   18968:	e1a02903 	lsl	r2, r3, #18
   1896c:	e51b3050 	ldr	r3, [fp, #-80]	; 0x50
   18970:	e1a03723 	lsr	r3, r3, #14
   18974:	e1823003 	orr	r3, r2, r3
   18978:	e50b34a8 	str	r3, [fp, #-1192]	; 0x4a8
   1897c:	e51b3050 	ldr	r3, [fp, #-80]	; 0x50
   18980:	e1a02903 	lsl	r2, r3, #18
   18984:	e51b3054 	ldr	r3, [fp, #-84]	; 0x54
   18988:	e1a03723 	lsr	r3, r3, #14
   1898c:	e1823003 	orr	r3, r2, r3
   18990:	e50b34ac 	str	r3, [fp, #-1196]	; 0x4ac
   18994:	e51b3054 	ldr	r3, [fp, #-84]	; 0x54
   18998:	e1a02703 	lsl	r2, r3, #14
   1899c:	e51b3050 	ldr	r3, [fp, #-80]	; 0x50
   189a0:	e1a03923 	lsr	r3, r3, #18
   189a4:	e1823003 	orr	r3, r2, r3
   189a8:	e50b34b0 	str	r3, [fp, #-1200]	; 0x4b0
   189ac:	e51b3050 	ldr	r3, [fp, #-80]	; 0x50
   189b0:	e1a02703 	lsl	r2, r3, #14
   189b4:	e51b3054 	ldr	r3, [fp, #-84]	; 0x54
   189b8:	e1a03923 	lsr	r3, r3, #18
   189bc:	e1823003 	orr	r3, r2, r3
   189c0:	e50b34b4 	str	r3, [fp, #-1204]	; 0x4b4
   189c4:	e24b3e4b 	sub	r3, fp, #1200	; 0x4b0
   189c8:	e1c300d4 	ldrd	r0, [r3, #4]
   189cc:	e24b2e4b 	sub	r2, fp, #1200	; 0x4b0
   189d0:	e14220d4 	ldrd	r2, [r2, #-4]
   189d4:	e0200002 	eor	r0, r0, r2
   189d8:	e0211003 	eor	r1, r1, r3
   189dc:	e51b3054 	ldr	r3, [fp, #-84]	; 0x54
   189e0:	e1a024a3 	lsr	r2, r3, #9
   189e4:	e51b3050 	ldr	r3, [fp, #-80]	; 0x50
   189e8:	e1a03b83 	lsl	r3, r3, #23
   189ec:	e1823003 	orr	r3, r2, r3
   189f0:	e50b34b8 	str	r3, [fp, #-1208]	; 0x4b8
   189f4:	e51b3050 	ldr	r3, [fp, #-80]	; 0x50
   189f8:	e1a024a3 	lsr	r2, r3, #9
   189fc:	e51b3054 	ldr	r3, [fp, #-84]	; 0x54
   18a00:	e1a03b83 	lsl	r3, r3, #23
   18a04:	e1823003 	orr	r3, r2, r3
   18a08:	e50b34bc 	str	r3, [fp, #-1212]	; 0x4bc
   18a0c:	e24b3d13 	sub	r3, fp, #1216	; 0x4c0
   18a10:	e1c320d4 	ldrd	r2, [r3, #4]
   18a14:	e0200002 	eor	r0, r0, r2
   18a18:	e0211003 	eor	r1, r1, r3
   18a1c:	e14b22dc 	ldrd	r2, [fp, #-44]	; 0xffffffd4
   18a20:	e1a04000 	mov	r4, r0
   18a24:	e1a05001 	mov	r5, r1
   18a28:	e0944002 	adds	r4, r4, r2
   18a2c:	e0a55003 	adc	r5, r5, r3
   18a30:	e14b05dc 	ldrd	r0, [fp, #-92]	; 0xffffffa4
   18a34:	e14b26d4 	ldrd	r2, [fp, #-100]	; 0xffffff9c
   18a38:	e0200002 	eor	r0, r0, r2
   18a3c:	e0211003 	eor	r1, r1, r3
   18a40:	e14b25d4 	ldrd	r2, [fp, #-84]	; 0xffffffac
   18a44:	e0000002 	and	r0, r0, r2
   18a48:	e0011003 	and	r1, r1, r3
   18a4c:	e14b26d4 	ldrd	r2, [fp, #-100]	; 0xffffff9c
   18a50:	e0222000 	eor	r2, r2, r0
   18a54:	e0233001 	eor	r3, r3, r1
   18a58:	e1a00004 	mov	r0, r4
   18a5c:	e1a01005 	mov	r1, r5
   18a60:	e0900002 	adds	r0, r0, r2
   18a64:	e0a11003 	adc	r1, r1, r3
   18a68:	e59f2264 	ldr	r2, [pc, #612]	; 18cd4 <sha4_process+0x19b4>
   18a6c:	e51b3020 	ldr	r3, [fp, #-32]
   18a70:	e1a03183 	lsl	r3, r3, #3
   18a74:	e0823003 	add	r3, r2, r3
   18a78:	e1c320d0 	ldrd	r2, [r3]
   18a7c:	e0900002 	adds	r0, r0, r2
   18a80:	e0a11003 	adc	r1, r1, r3
   18a84:	e51b3020 	ldr	r3, [fp, #-32]
   18a88:	e59f2240 	ldr	r2, [pc, #576]	; 18cd0 <sha4_process+0x19b0>
   18a8c:	e1a03183 	lsl	r3, r3, #3
   18a90:	e24bc01c 	sub	ip, fp, #28
   18a94:	e08c3003 	add	r3, ip, r3
   18a98:	e0833002 	add	r3, r3, r2
   18a9c:	e1c320d0 	ldrd	r2, [r3]
   18aa0:	e0922000 	adds	r2, r2, r0
   18aa4:	e0a33001 	adc	r3, r3, r1
   18aa8:	e14b26fc 	strd	r2, [fp, #-108]	; 0xffffff94
   18aac:	e51b3034 	ldr	r3, [fp, #-52]	; 0x34
   18ab0:	e1a02203 	lsl	r2, r3, #4
   18ab4:	e51b3030 	ldr	r3, [fp, #-48]	; 0x30
   18ab8:	e1a03e23 	lsr	r3, r3, #28
   18abc:	e1823003 	orr	r3, r2, r3
   18ac0:	e50b34c0 	str	r3, [fp, #-1216]	; 0x4c0
   18ac4:	e51b3030 	ldr	r3, [fp, #-48]	; 0x30
   18ac8:	e1a02203 	lsl	r2, r3, #4
   18acc:	e51b3034 	ldr	r3, [fp, #-52]	; 0x34
   18ad0:	e1a03e23 	lsr	r3, r3, #28
   18ad4:	e1823003 	orr	r3, r2, r3
   18ad8:	e50b34c4 	str	r3, [fp, #-1220]	; 0x4c4
   18adc:	e51b3034 	ldr	r3, [fp, #-52]	; 0x34
   18ae0:	e1a02123 	lsr	r2, r3, #2
   18ae4:	e51b3030 	ldr	r3, [fp, #-48]	; 0x30
   18ae8:	e1a03f03 	lsl	r3, r3, #30
   18aec:	e1823003 	orr	r3, r2, r3
   18af0:	e50b34c8 	str	r3, [fp, #-1224]	; 0x4c8
   18af4:	e51b3030 	ldr	r3, [fp, #-48]	; 0x30
   18af8:	e1a02123 	lsr	r2, r3, #2
   18afc:	e51b3034 	ldr	r3, [fp, #-52]	; 0x34
   18b00:	e1a03f03 	lsl	r3, r3, #30
   18b04:	e1823003 	orr	r3, r2, r3
   18b08:	e50b34cc 	str	r3, [fp, #-1228]	; 0x4cc
   18b0c:	e24b3d13 	sub	r3, fp, #1216	; 0x4c0
   18b10:	e14300d4 	ldrd	r0, [r3, #-4]
   18b14:	e24b2e4d 	sub	r2, fp, #1232	; 0x4d0
   18b18:	e1c220d4 	ldrd	r2, [r2, #4]
   18b1c:	e0200002 	eor	r0, r0, r2
   18b20:	e0211003 	eor	r1, r1, r3
   18b24:	e51b3034 	ldr	r3, [fp, #-52]	; 0x34
   18b28:	e1a023a3 	lsr	r2, r3, #7
   18b2c:	e51b3030 	ldr	r3, [fp, #-48]	; 0x30
   18b30:	e1a03c83 	lsl	r3, r3, #25
   18b34:	e1823003 	orr	r3, r2, r3
   18b38:	e50b34d0 	str	r3, [fp, #-1232]	; 0x4d0
   18b3c:	e51b3030 	ldr	r3, [fp, #-48]	; 0x30
   18b40:	e1a023a3 	lsr	r2, r3, #7
   18b44:	e51b3034 	ldr	r3, [fp, #-52]	; 0x34
   18b48:	e1a03c83 	lsl	r3, r3, #25
   18b4c:	e1823003 	orr	r3, r2, r3
   18b50:	e50b34d4 	str	r3, [fp, #-1236]	; 0x4d4
   18b54:	e24b3e4d 	sub	r3, fp, #1232	; 0x4d0
   18b58:	e14320d4 	ldrd	r2, [r3, #-4]
   18b5c:	e0206002 	eor	r6, r0, r2
   18b60:	e0217003 	eor	r7, r1, r3
   18b64:	e14b03d4 	ldrd	r0, [fp, #-52]	; 0xffffffcc
   18b68:	e14b23dc 	ldrd	r2, [fp, #-60]	; 0xffffffc4
   18b6c:	e0004002 	and	r4, r0, r2
   18b70:	e0015003 	and	r5, r1, r3
   18b74:	e14b03d4 	ldrd	r0, [fp, #-52]	; 0xffffffcc
   18b78:	e14b23dc 	ldrd	r2, [fp, #-60]	; 0xffffffc4
   18b7c:	e1800002 	orr	r0, r0, r2
   18b80:	e1811003 	orr	r1, r1, r3
   18b84:	e14b24d4 	ldrd	r2, [fp, #-68]	; 0xffffffbc
   18b88:	e0022000 	and	r2, r2, r0
   18b8c:	e0033001 	and	r3, r3, r1
   18b90:	e1822004 	orr	r2, r2, r4
   18b94:	e1833005 	orr	r3, r3, r5
   18b98:	e0922006 	adds	r2, r2, r6
   18b9c:	e0a33007 	adc	r3, r3, r7
   18ba0:	e14b27f4 	strd	r2, [fp, #-116]	; 0xffffff8c
   18ba4:	e14b04dc 	ldrd	r0, [fp, #-76]	; 0xffffffb4
   18ba8:	e14b26dc 	ldrd	r2, [fp, #-108]	; 0xffffff94
   18bac:	e0922000 	adds	r2, r2, r0
   18bb0:	e0a33001 	adc	r3, r3, r1
   18bb4:	e14b24fc 	strd	r2, [fp, #-76]	; 0xffffffb4
   18bb8:	e14b06dc 	ldrd	r0, [fp, #-108]	; 0xffffff94
   18bbc:	e14b27d4 	ldrd	r2, [fp, #-116]	; 0xffffff8c
   18bc0:	e0922000 	adds	r2, r2, r0
   18bc4:	e0a33001 	adc	r3, r3, r1
   18bc8:	e14b22fc 	strd	r2, [fp, #-44]	; 0xffffffd4
   18bcc:	e51b3020 	ldr	r3, [fp, #-32]
   18bd0:	e2833001 	add	r3, r3, #1
   18bd4:	e50b3020 	str	r3, [fp, #-32]
   18bd8:	e51b3020 	ldr	r3, [fp, #-32]
   18bdc:	e353004f 	cmp	r3, #79	; 0x4f
   18be0:	dafffb14 	ble	17838 <sha4_process+0x518>
   18be4:	e51b32f8 	ldr	r3, [fp, #-760]	; 0x2f8
   18be8:	e1c301d0 	ldrd	r0, [r3, #16]
   18bec:	e14b22dc 	ldrd	r2, [fp, #-44]	; 0xffffffd4
   18bf0:	e0922000 	adds	r2, r2, r0
   18bf4:	e0a33001 	adc	r3, r3, r1
   18bf8:	e51b12f8 	ldr	r1, [fp, #-760]	; 0x2f8
   18bfc:	e1c121f0 	strd	r2, [r1, #16]
   18c00:	e51b32f8 	ldr	r3, [fp, #-760]	; 0x2f8
   18c04:	e1c301d8 	ldrd	r0, [r3, #24]
   18c08:	e14b23d4 	ldrd	r2, [fp, #-52]	; 0xffffffcc
   18c0c:	e0922000 	adds	r2, r2, r0
   18c10:	e0a33001 	adc	r3, r3, r1
   18c14:	e51b12f8 	ldr	r1, [fp, #-760]	; 0x2f8
   18c18:	e1c121f8 	strd	r2, [r1, #24]
   18c1c:	e51b32f8 	ldr	r3, [fp, #-760]	; 0x2f8
   18c20:	e1c302d0 	ldrd	r0, [r3, #32]
   18c24:	e14b23dc 	ldrd	r2, [fp, #-60]	; 0xffffffc4
   18c28:	e0922000 	adds	r2, r2, r0
   18c2c:	e0a33001 	adc	r3, r3, r1
   18c30:	e51b12f8 	ldr	r1, [fp, #-760]	; 0x2f8
   18c34:	e1c122f0 	strd	r2, [r1, #32]
   18c38:	e51b32f8 	ldr	r3, [fp, #-760]	; 0x2f8
   18c3c:	e1c302d8 	ldrd	r0, [r3, #40]	; 0x28
   18c40:	e14b24d4 	ldrd	r2, [fp, #-68]	; 0xffffffbc
   18c44:	e0922000 	adds	r2, r2, r0
   18c48:	e0a33001 	adc	r3, r3, r1
   18c4c:	e51b12f8 	ldr	r1, [fp, #-760]	; 0x2f8
   18c50:	e1c122f8 	strd	r2, [r1, #40]	; 0x28
   18c54:	e51b32f8 	ldr	r3, [fp, #-760]	; 0x2f8
   18c58:	e1c303d0 	ldrd	r0, [r3, #48]	; 0x30
   18c5c:	e14b24dc 	ldrd	r2, [fp, #-76]	; 0xffffffb4
   18c60:	e0922000 	adds	r2, r2, r0
   18c64:	e0a33001 	adc	r3, r3, r1
   18c68:	e51b12f8 	ldr	r1, [fp, #-760]	; 0x2f8
   18c6c:	e1c123f0 	strd	r2, [r1, #48]	; 0x30
   18c70:	e51b32f8 	ldr	r3, [fp, #-760]	; 0x2f8
   18c74:	e1c303d8 	ldrd	r0, [r3, #56]	; 0x38
   18c78:	e14b25d4 	ldrd	r2, [fp, #-84]	; 0xffffffac
   18c7c:	e0922000 	adds	r2, r2, r0
   18c80:	e0a33001 	adc	r3, r3, r1
   18c84:	e51b12f8 	ldr	r1, [fp, #-760]	; 0x2f8
   18c88:	e1c123f8 	strd	r2, [r1, #56]	; 0x38
   18c8c:	e51b32f8 	ldr	r3, [fp, #-760]	; 0x2f8
   18c90:	e1c304d0 	ldrd	r0, [r3, #64]	; 0x40
   18c94:	e14b25dc 	ldrd	r2, [fp, #-92]	; 0xffffffa4
   18c98:	e0922000 	adds	r2, r2, r0
   18c9c:	e0a33001 	adc	r3, r3, r1
   18ca0:	e51b12f8 	ldr	r1, [fp, #-760]	; 0x2f8
   18ca4:	e1c124f0 	strd	r2, [r1, #64]	; 0x40
   18ca8:	e51b32f8 	ldr	r3, [fp, #-760]	; 0x2f8
   18cac:	e1c304d8 	ldrd	r0, [r3, #72]	; 0x48
   18cb0:	e14b26d4 	ldrd	r2, [fp, #-100]	; 0xffffff9c
   18cb4:	e0922000 	adds	r2, r2, r0
   18cb8:	e0a33001 	adc	r3, r3, r1
   18cbc:	e51b12f8 	ldr	r1, [fp, #-760]	; 0x2f8
   18cc0:	e1c124f8 	strd	r2, [r1, #72]	; 0x48
   18cc4:	e24bd018 	sub	sp, fp, #24
   18cc8:	e8bd0bf0 	pop	{r4, r5, r6, r7, r8, r9, fp}
   18ccc:	e12fff1e 	bx	lr
   18cd0:	fffffd28 	.word	0xfffffd28
   18cd4:	0001ea58 	.word	0x0001ea58

00018cd8 <sha4_update>:
   18cd8:	e92d4800 	push	{fp, lr}
   18cdc:	e28db004 	add	fp, sp, #4
   18ce0:	e24dd018 	sub	sp, sp, #24
   18ce4:	e50b0010 	str	r0, [fp, #-16]
   18ce8:	e50b1014 	str	r1, [fp, #-20]
   18cec:	e50b2018 	str	r2, [fp, #-24]
   18cf0:	e51b3018 	ldr	r3, [fp, #-24]
   18cf4:	e3530000 	cmp	r3, #0
   18cf8:	0a00005f 	beq	18e7c <sha4_update+0x1a4>
   18cfc:	e51b3010 	ldr	r3, [fp, #-16]
   18d00:	e1c320d0 	ldrd	r2, [r3]
   18d04:	e1a03002 	mov	r3, r2
   18d08:	e203307f 	and	r3, r3, #127	; 0x7f
   18d0c:	e50b3008 	str	r3, [fp, #-8]
   18d10:	e51b3008 	ldr	r3, [fp, #-8]
   18d14:	e2633080 	rsb	r3, r3, #128	; 0x80
   18d18:	e50b300c 	str	r3, [fp, #-12]
   18d1c:	e51b3010 	ldr	r3, [fp, #-16]
   18d20:	e1c300d0 	ldrd	r0, [r3]
   18d24:	e51bc018 	ldr	ip, [fp, #-24]
   18d28:	e1a0200c 	mov	r2, ip
   18d2c:	e3a03000 	mov	r3, #0
   18d30:	e0922000 	adds	r2, r2, r0
   18d34:	e0a33001 	adc	r3, r3, r1
   18d38:	e51b1010 	ldr	r1, [fp, #-16]
   18d3c:	e1c120f0 	strd	r2, [r1]
   18d40:	e51b3010 	ldr	r3, [fp, #-16]
   18d44:	e1c300d0 	ldrd	r0, [r3]
   18d48:	e51bc018 	ldr	ip, [fp, #-24]
   18d4c:	e1a0200c 	mov	r2, ip
   18d50:	e3a03000 	mov	r3, #0
   18d54:	e1510003 	cmp	r1, r3
   18d58:	01500002 	cmpeq	r0, r2
   18d5c:	2a000007 	bcs	18d80 <sha4_update+0xa8>
   18d60:	e51b3010 	ldr	r3, [fp, #-16]
   18d64:	e1c300d8 	ldrd	r0, [r3, #8]
   18d68:	e3a02001 	mov	r2, #1
   18d6c:	e3a03000 	mov	r3, #0
   18d70:	e0922000 	adds	r2, r2, r0
   18d74:	e0a33001 	adc	r3, r3, r1
   18d78:	e51b1010 	ldr	r1, [fp, #-16]
   18d7c:	e1c120f8 	strd	r2, [r1, #8]
   18d80:	e51b3008 	ldr	r3, [fp, #-8]
   18d84:	e3530000 	cmp	r3, #0
   18d88:	0a000028 	beq	18e30 <sha4_update+0x158>
   18d8c:	e51b2018 	ldr	r2, [fp, #-24]
   18d90:	e51b300c 	ldr	r3, [fp, #-12]
   18d94:	e1520003 	cmp	r2, r3
   18d98:	3a000024 	bcc	18e30 <sha4_update+0x158>
   18d9c:	e51b3010 	ldr	r3, [fp, #-16]
   18da0:	e2832050 	add	r2, r3, #80	; 0x50
   18da4:	e51b3008 	ldr	r3, [fp, #-8]
   18da8:	e0822003 	add	r2, r2, r3
   18dac:	e51b3014 	ldr	r3, [fp, #-20]
   18db0:	e1a01002 	mov	r1, r2
   18db4:	e1a02003 	mov	r2, r3
   18db8:	e51b300c 	ldr	r3, [fp, #-12]
   18dbc:	e1a00001 	mov	r0, r1
   18dc0:	e1a01002 	mov	r1, r2
   18dc4:	e1a02003 	mov	r2, r3
   18dc8:	ebffbf6a 	bl	8b78 <_init+0x74>
   18dcc:	e51b3010 	ldr	r3, [fp, #-16]
   18dd0:	e2833050 	add	r3, r3, #80	; 0x50
   18dd4:	e51b0010 	ldr	r0, [fp, #-16]
   18dd8:	e1a01003 	mov	r1, r3
   18ddc:	ebfff94f 	bl	17320 <sha4_process>
   18de0:	e51b2014 	ldr	r2, [fp, #-20]
   18de4:	e51b300c 	ldr	r3, [fp, #-12]
   18de8:	e0823003 	add	r3, r2, r3
   18dec:	e50b3014 	str	r3, [fp, #-20]
   18df0:	e51b2018 	ldr	r2, [fp, #-24]
   18df4:	e51b300c 	ldr	r3, [fp, #-12]
   18df8:	e0633002 	rsb	r3, r3, r2
   18dfc:	e50b3018 	str	r3, [fp, #-24]
   18e00:	e3a03000 	mov	r3, #0
   18e04:	e50b3008 	str	r3, [fp, #-8]
   18e08:	ea000008 	b	18e30 <sha4_update+0x158>
   18e0c:	e51b0010 	ldr	r0, [fp, #-16]
   18e10:	e51b1014 	ldr	r1, [fp, #-20]
   18e14:	ebfff941 	bl	17320 <sha4_process>
   18e18:	e51b3014 	ldr	r3, [fp, #-20]
   18e1c:	e2833080 	add	r3, r3, #128	; 0x80
   18e20:	e50b3014 	str	r3, [fp, #-20]
   18e24:	e51b3018 	ldr	r3, [fp, #-24]
   18e28:	e2433080 	sub	r3, r3, #128	; 0x80
   18e2c:	e50b3018 	str	r3, [fp, #-24]
   18e30:	e51b3018 	ldr	r3, [fp, #-24]
   18e34:	e353007f 	cmp	r3, #127	; 0x7f
   18e38:	8afffff3 	bhi	18e0c <sha4_update+0x134>
   18e3c:	e51b3018 	ldr	r3, [fp, #-24]
   18e40:	e3530000 	cmp	r3, #0
   18e44:	0a00000d 	beq	18e80 <sha4_update+0x1a8>
   18e48:	e51b3010 	ldr	r3, [fp, #-16]
   18e4c:	e2832050 	add	r2, r3, #80	; 0x50
   18e50:	e51b3008 	ldr	r3, [fp, #-8]
   18e54:	e0822003 	add	r2, r2, r3
   18e58:	e51b3014 	ldr	r3, [fp, #-20]
   18e5c:	e1a01002 	mov	r1, r2
   18e60:	e1a02003 	mov	r2, r3
   18e64:	e51b3018 	ldr	r3, [fp, #-24]
   18e68:	e1a00001 	mov	r0, r1
   18e6c:	e1a01002 	mov	r1, r2
   18e70:	e1a02003 	mov	r2, r3
   18e74:	ebffbf3f 	bl	8b78 <_init+0x74>
   18e78:	ea000000 	b	18e80 <sha4_update+0x1a8>
   18e7c:	e1a00000 	nop			; (mov r0, r0)
   18e80:	e24bd004 	sub	sp, fp, #4
   18e84:	e8bd8800 	pop	{fp, pc}

00018e88 <sha4_finish>:
   18e88:	e92d4bf0 	push	{r4, r5, r6, r7, r8, r9, fp, lr}
   18e8c:	e28db01c 	add	fp, sp, #28
   18e90:	e24ddf96 	sub	sp, sp, #600	; 0x258
   18e94:	e50b0048 	str	r0, [fp, #-72]	; 0x48
   18e98:	e50b104c 	str	r1, [fp, #-76]	; 0x4c
   18e9c:	e51b3048 	ldr	r3, [fp, #-72]	; 0x48
   18ea0:	e1c320d0 	ldrd	r2, [r3]
   18ea4:	e1a06ea3 	lsr	r6, r3, #29
   18ea8:	e3a07000 	mov	r7, #0
   18eac:	e51b3048 	ldr	r3, [fp, #-72]	; 0x48
   18eb0:	e1c320d8 	ldrd	r2, [r3, #8]
   18eb4:	e1a01ea2 	lsr	r1, r2, #29
   18eb8:	e1a05183 	lsl	r5, r3, #3
   18ebc:	e1815005 	orr	r5, r1, r5
   18ec0:	e1a04182 	lsl	r4, r2, #3
   18ec4:	e1862004 	orr	r2, r6, r4
   18ec8:	e1873005 	orr	r3, r7, r5
   18ecc:	e14b22f4 	strd	r2, [fp, #-36]	; 0xffffffdc
   18ed0:	e51b3048 	ldr	r3, [fp, #-72]	; 0x48
   18ed4:	e1c320d0 	ldrd	r2, [r3]
   18ed8:	e1a00ea2 	lsr	r0, r2, #29
   18edc:	e1a01183 	lsl	r1, r3, #3
   18ee0:	e1811000 	orr	r1, r1, r0
   18ee4:	e50b1028 	str	r1, [fp, #-40]	; 0x28
   18ee8:	e1a03182 	lsl	r3, r2, #3
   18eec:	e50b302c 	str	r3, [fp, #-44]	; 0x2c
   18ef0:	e51b3020 	ldr	r3, [fp, #-32]
   18ef4:	e1a03c23 	lsr	r3, r3, #24
   18ef8:	e50b3054 	str	r3, [fp, #-84]	; 0x54
   18efc:	e3a00000 	mov	r0, #0
   18f00:	e50b0050 	str	r0, [fp, #-80]	; 0x50
   18f04:	e55b1054 	ldrb	r1, [fp, #-84]	; 0x54
   18f08:	e6ef3071 	uxtb	r3, r1
   18f0c:	e54b3044 	strb	r3, [fp, #-68]	; 0x44
   18f10:	e51b3020 	ldr	r3, [fp, #-32]
   18f14:	e1a03823 	lsr	r3, r3, #16
   18f18:	e50b305c 	str	r3, [fp, #-92]	; 0x5c
   18f1c:	e3a02000 	mov	r2, #0
   18f20:	e50b2058 	str	r2, [fp, #-88]	; 0x58
   18f24:	e55bc05c 	ldrb	ip, [fp, #-92]	; 0x5c
   18f28:	e6ef307c 	uxtb	r3, ip
   18f2c:	e54b3043 	strb	r3, [fp, #-67]	; 0x43
   18f30:	e51b3020 	ldr	r3, [fp, #-32]
   18f34:	e1a03423 	lsr	r3, r3, #8
   18f38:	e50b3064 	str	r3, [fp, #-100]	; 0x64
   18f3c:	e3a00000 	mov	r0, #0
   18f40:	e50b0060 	str	r0, [fp, #-96]	; 0x60
   18f44:	e55b1064 	ldrb	r1, [fp, #-100]	; 0x64
   18f48:	e6ef3071 	uxtb	r3, r1
   18f4c:	e54b3042 	strb	r3, [fp, #-66]	; 0x42
   18f50:	e51b3020 	ldr	r3, [fp, #-32]
   18f54:	e1a03003 	mov	r3, r3
   18f58:	e50b306c 	str	r3, [fp, #-108]	; 0x6c
   18f5c:	e3a02000 	mov	r2, #0
   18f60:	e50b2068 	str	r2, [fp, #-104]	; 0x68
   18f64:	e55bc06c 	ldrb	ip, [fp, #-108]	; 0x6c
   18f68:	e6ef307c 	uxtb	r3, ip
   18f6c:	e54b3041 	strb	r3, [fp, #-65]	; 0x41
   18f70:	e51b3020 	ldr	r3, [fp, #-32]
   18f74:	e1a02403 	lsl	r2, r3, #8
   18f78:	e51b3024 	ldr	r3, [fp, #-36]	; 0x24
   18f7c:	e1a08c23 	lsr	r8, r3, #24
   18f80:	e1828008 	orr	r8, r2, r8
   18f84:	e51b3020 	ldr	r3, [fp, #-32]
   18f88:	e1a09c23 	lsr	r9, r3, #24
   18f8c:	e6ef3078 	uxtb	r3, r8
   18f90:	e54b3040 	strb	r3, [fp, #-64]	; 0x40
   18f94:	e51b3020 	ldr	r3, [fp, #-32]
   18f98:	e1a02803 	lsl	r2, r3, #16
   18f9c:	e51b3024 	ldr	r3, [fp, #-36]	; 0x24
   18fa0:	e1a03823 	lsr	r3, r3, #16
   18fa4:	e50b3074 	str	r3, [fp, #-116]	; 0x74
   18fa8:	e51b0074 	ldr	r0, [fp, #-116]	; 0x74
   18fac:	e1820000 	orr	r0, r2, r0
   18fb0:	e50b0074 	str	r0, [fp, #-116]	; 0x74
   18fb4:	e51b3020 	ldr	r3, [fp, #-32]
   18fb8:	e1a03823 	lsr	r3, r3, #16
   18fbc:	e50b3070 	str	r3, [fp, #-112]	; 0x70
   18fc0:	e55b1074 	ldrb	r1, [fp, #-116]	; 0x74
   18fc4:	e6ef3071 	uxtb	r3, r1
   18fc8:	e54b303f 	strb	r3, [fp, #-63]	; 0x3f
   18fcc:	e51b3020 	ldr	r3, [fp, #-32]
   18fd0:	e1a02c03 	lsl	r2, r3, #24
   18fd4:	e51b3024 	ldr	r3, [fp, #-36]	; 0x24
   18fd8:	e1a03423 	lsr	r3, r3, #8
   18fdc:	e50b307c 	str	r3, [fp, #-124]	; 0x7c
   18fe0:	e51b307c 	ldr	r3, [fp, #-124]	; 0x7c
   18fe4:	e1823003 	orr	r3, r2, r3
   18fe8:	e50b307c 	str	r3, [fp, #-124]	; 0x7c
   18fec:	e51b3020 	ldr	r3, [fp, #-32]
   18ff0:	e1a03423 	lsr	r3, r3, #8
   18ff4:	e50b3078 	str	r3, [fp, #-120]	; 0x78
   18ff8:	e55bc07c 	ldrb	ip, [fp, #-124]	; 0x7c
   18ffc:	e6ef307c 	uxtb	r3, ip
   19000:	e54b303e 	strb	r3, [fp, #-62]	; 0x3e
   19004:	e55b3024 	ldrb	r3, [fp, #-36]	; 0x24
   19008:	e54b303d 	strb	r3, [fp, #-61]	; 0x3d
   1900c:	e51b3028 	ldr	r3, [fp, #-40]	; 0x28
   19010:	e1a03c23 	lsr	r3, r3, #24
   19014:	e50b3084 	str	r3, [fp, #-132]	; 0x84
   19018:	e3a00000 	mov	r0, #0
   1901c:	e50b0080 	str	r0, [fp, #-128]	; 0x80
   19020:	e55b1084 	ldrb	r1, [fp, #-132]	; 0x84
   19024:	e6ef3071 	uxtb	r3, r1
   19028:	e54b303c 	strb	r3, [fp, #-60]	; 0x3c
   1902c:	e51b3028 	ldr	r3, [fp, #-40]	; 0x28
   19030:	e1a03823 	lsr	r3, r3, #16
   19034:	e50b308c 	str	r3, [fp, #-140]	; 0x8c
   19038:	e3a02000 	mov	r2, #0
   1903c:	e50b2088 	str	r2, [fp, #-136]	; 0x88
   19040:	e55bc08c 	ldrb	ip, [fp, #-140]	; 0x8c
   19044:	e6ef307c 	uxtb	r3, ip
   19048:	e54b303b 	strb	r3, [fp, #-59]	; 0x3b
   1904c:	e51b3028 	ldr	r3, [fp, #-40]	; 0x28
   19050:	e1a03423 	lsr	r3, r3, #8
   19054:	e50b3094 	str	r3, [fp, #-148]	; 0x94
   19058:	e3a00000 	mov	r0, #0
   1905c:	e50b0090 	str	r0, [fp, #-144]	; 0x90
   19060:	e55b1094 	ldrb	r1, [fp, #-148]	; 0x94
   19064:	e6ef3071 	uxtb	r3, r1
   19068:	e54b303a 	strb	r3, [fp, #-58]	; 0x3a
   1906c:	e51b3028 	ldr	r3, [fp, #-40]	; 0x28
   19070:	e1a03003 	mov	r3, r3
   19074:	e50b309c 	str	r3, [fp, #-156]	; 0x9c
   19078:	e3a02000 	mov	r2, #0
   1907c:	e50b2098 	str	r2, [fp, #-152]	; 0x98
   19080:	e55bc09c 	ldrb	ip, [fp, #-156]	; 0x9c
   19084:	e6ef307c 	uxtb	r3, ip
   19088:	e54b3039 	strb	r3, [fp, #-57]	; 0x39
   1908c:	e51b3028 	ldr	r3, [fp, #-40]	; 0x28
   19090:	e1a02403 	lsl	r2, r3, #8
   19094:	e51b302c 	ldr	r3, [fp, #-44]	; 0x2c
   19098:	e1a03c23 	lsr	r3, r3, #24
   1909c:	e50b30a4 	str	r3, [fp, #-164]	; 0xa4
   190a0:	e51b00a4 	ldr	r0, [fp, #-164]	; 0xa4
   190a4:	e1820000 	orr	r0, r2, r0
   190a8:	e50b00a4 	str	r0, [fp, #-164]	; 0xa4
   190ac:	e51b3028 	ldr	r3, [fp, #-40]	; 0x28
   190b0:	e1a03c23 	lsr	r3, r3, #24
   190b4:	e50b30a0 	str	r3, [fp, #-160]	; 0xa0
   190b8:	e55b10a4 	ldrb	r1, [fp, #-164]	; 0xa4
   190bc:	e6ef3071 	uxtb	r3, r1
   190c0:	e54b3038 	strb	r3, [fp, #-56]	; 0x38
   190c4:	e51b3028 	ldr	r3, [fp, #-40]	; 0x28
   190c8:	e1a02803 	lsl	r2, r3, #16
   190cc:	e51b302c 	ldr	r3, [fp, #-44]	; 0x2c
   190d0:	e1a03823 	lsr	r3, r3, #16
   190d4:	e50b30ac 	str	r3, [fp, #-172]	; 0xac
   190d8:	e51b30ac 	ldr	r3, [fp, #-172]	; 0xac
   190dc:	e1823003 	orr	r3, r2, r3
   190e0:	e50b30ac 	str	r3, [fp, #-172]	; 0xac
   190e4:	e51b3028 	ldr	r3, [fp, #-40]	; 0x28
   190e8:	e1a03823 	lsr	r3, r3, #16
   190ec:	e50b30a8 	str	r3, [fp, #-168]	; 0xa8
   190f0:	e55bc0ac 	ldrb	ip, [fp, #-172]	; 0xac
   190f4:	e6ef307c 	uxtb	r3, ip
   190f8:	e54b3037 	strb	r3, [fp, #-55]	; 0x37
   190fc:	e51b3028 	ldr	r3, [fp, #-40]	; 0x28
   19100:	e1a02c03 	lsl	r2, r3, #24
   19104:	e51b302c 	ldr	r3, [fp, #-44]	; 0x2c
   19108:	e1a03423 	lsr	r3, r3, #8
   1910c:	e50b30b4 	str	r3, [fp, #-180]	; 0xb4
   19110:	e51b00b4 	ldr	r0, [fp, #-180]	; 0xb4
   19114:	e1820000 	orr	r0, r2, r0
   19118:	e50b00b4 	str	r0, [fp, #-180]	; 0xb4
   1911c:	e51b3028 	ldr	r3, [fp, #-40]	; 0x28
   19120:	e1a03423 	lsr	r3, r3, #8
   19124:	e50b30b0 	str	r3, [fp, #-176]	; 0xb0
   19128:	e55b10b4 	ldrb	r1, [fp, #-180]	; 0xb4
   1912c:	e6ef3071 	uxtb	r3, r1
   19130:	e54b3036 	strb	r3, [fp, #-54]	; 0x36
   19134:	e55b302c 	ldrb	r3, [fp, #-44]	; 0x2c
   19138:	e54b3035 	strb	r3, [fp, #-53]	; 0x35
   1913c:	e51b3048 	ldr	r3, [fp, #-72]	; 0x48
   19140:	e1c320d0 	ldrd	r2, [r3]
   19144:	e1a03002 	mov	r3, r2
   19148:	e203307f 	and	r3, r3, #127	; 0x7f
   1914c:	e50b3030 	str	r3, [fp, #-48]	; 0x30
   19150:	e51b3030 	ldr	r3, [fp, #-48]	; 0x30
   19154:	e353006f 	cmp	r3, #111	; 0x6f
   19158:	8a000002 	bhi	19168 <sha4_finish+0x2e0>
   1915c:	e51b3030 	ldr	r3, [fp, #-48]	; 0x30
   19160:	e2633070 	rsb	r3, r3, #112	; 0x70
   19164:	ea000001 	b	19170 <sha4_finish+0x2e8>
   19168:	e51b3030 	ldr	r3, [fp, #-48]	; 0x30
   1916c:	e26330f0 	rsb	r3, r3, #240	; 0xf0
   19170:	e50b3034 	str	r3, [fp, #-52]	; 0x34
   19174:	e51b0048 	ldr	r0, [fp, #-72]	; 0x48
   19178:	e59f1b50 	ldr	r1, [pc, #2896]	; 19cd0 <sha4_finish+0xe48>
   1917c:	e51b2034 	ldr	r2, [fp, #-52]	; 0x34
   19180:	ebfffed4 	bl	18cd8 <sha4_update>
   19184:	e24b3044 	sub	r3, fp, #68	; 0x44
   19188:	e51b0048 	ldr	r0, [fp, #-72]	; 0x48
   1918c:	e1a01003 	mov	r1, r3
   19190:	e3a02010 	mov	r2, #16
   19194:	ebfffecf 	bl	18cd8 <sha4_update>
   19198:	e51b3048 	ldr	r3, [fp, #-72]	; 0x48
   1919c:	e1c321d0 	ldrd	r2, [r3, #16]
   191a0:	e1a0cc23 	lsr	ip, r3, #24
   191a4:	e50bc0bc 	str	ip, [fp, #-188]	; 0xbc
   191a8:	e3a00000 	mov	r0, #0
   191ac:	e50b00b8 	str	r0, [fp, #-184]	; 0xb8
   191b0:	e55b10bc 	ldrb	r1, [fp, #-188]	; 0xbc
   191b4:	e6ef3071 	uxtb	r3, r1
   191b8:	e51b204c 	ldr	r2, [fp, #-76]	; 0x4c
   191bc:	e5c23000 	strb	r3, [r2]
   191c0:	e51b304c 	ldr	r3, [fp, #-76]	; 0x4c
   191c4:	e2831001 	add	r1, r3, #1
   191c8:	e51b3048 	ldr	r3, [fp, #-72]	; 0x48
   191cc:	e1c321d0 	ldrd	r2, [r3, #16]
   191d0:	e1a0c823 	lsr	ip, r3, #16
   191d4:	e50bc0c4 	str	ip, [fp, #-196]	; 0xc4
   191d8:	e3a00000 	mov	r0, #0
   191dc:	e50b00c0 	str	r0, [fp, #-192]	; 0xc0
   191e0:	e55b20c4 	ldrb	r2, [fp, #-196]	; 0xc4
   191e4:	e6ef3072 	uxtb	r3, r2
   191e8:	e5c13000 	strb	r3, [r1]
   191ec:	e51b304c 	ldr	r3, [fp, #-76]	; 0x4c
   191f0:	e2831002 	add	r1, r3, #2
   191f4:	e51b3048 	ldr	r3, [fp, #-72]	; 0x48
   191f8:	e1c321d0 	ldrd	r2, [r3, #16]
   191fc:	e1a0c423 	lsr	ip, r3, #8
   19200:	e50bc0cc 	str	ip, [fp, #-204]	; 0xcc
   19204:	e3a00000 	mov	r0, #0
   19208:	e50b00c8 	str	r0, [fp, #-200]	; 0xc8
   1920c:	e55b20cc 	ldrb	r2, [fp, #-204]	; 0xcc
   19210:	e6ef3072 	uxtb	r3, r2
   19214:	e5c13000 	strb	r3, [r1]
   19218:	e51b304c 	ldr	r3, [fp, #-76]	; 0x4c
   1921c:	e2831003 	add	r1, r3, #3
   19220:	e51b3048 	ldr	r3, [fp, #-72]	; 0x48
   19224:	e1c321d0 	ldrd	r2, [r3, #16]
   19228:	e1a0c003 	mov	ip, r3
   1922c:	e50bc0d4 	str	ip, [fp, #-212]	; 0xd4
   19230:	e3a00000 	mov	r0, #0
   19234:	e50b00d0 	str	r0, [fp, #-208]	; 0xd0
   19238:	e55b20d4 	ldrb	r2, [fp, #-212]	; 0xd4
   1923c:	e6ef3072 	uxtb	r3, r2
   19240:	e5c13000 	strb	r3, [r1]
   19244:	e51b304c 	ldr	r3, [fp, #-76]	; 0x4c
   19248:	e2830004 	add	r0, r3, #4
   1924c:	e51b3048 	ldr	r3, [fp, #-72]	; 0x48
   19250:	e1c321d0 	ldrd	r2, [r3, #16]
   19254:	e1a01403 	lsl	r1, r3, #8
   19258:	e1a0cc22 	lsr	ip, r2, #24
   1925c:	e50bc0dc 	str	ip, [fp, #-220]	; 0xdc
   19260:	e51bc0dc 	ldr	ip, [fp, #-220]	; 0xdc
   19264:	e181c00c 	orr	ip, r1, ip
   19268:	e50bc0dc 	str	ip, [fp, #-220]	; 0xdc
   1926c:	e1a01c23 	lsr	r1, r3, #24
   19270:	e50b10d8 	str	r1, [fp, #-216]	; 0xd8
   19274:	e55b20dc 	ldrb	r2, [fp, #-220]	; 0xdc
   19278:	e6ef3072 	uxtb	r3, r2
   1927c:	e5c03000 	strb	r3, [r0]
   19280:	e51b304c 	ldr	r3, [fp, #-76]	; 0x4c
   19284:	e2830005 	add	r0, r3, #5
   19288:	e51b3048 	ldr	r3, [fp, #-72]	; 0x48
   1928c:	e1c321d0 	ldrd	r2, [r3, #16]
   19290:	e1a01803 	lsl	r1, r3, #16
   19294:	e1a0c822 	lsr	ip, r2, #16
   19298:	e50bc0e4 	str	ip, [fp, #-228]	; 0xe4
   1929c:	e51bc0e4 	ldr	ip, [fp, #-228]	; 0xe4
   192a0:	e181c00c 	orr	ip, r1, ip
   192a4:	e50bc0e4 	str	ip, [fp, #-228]	; 0xe4
   192a8:	e1a01823 	lsr	r1, r3, #16
   192ac:	e50b10e0 	str	r1, [fp, #-224]	; 0xe0
   192b0:	e55b20e4 	ldrb	r2, [fp, #-228]	; 0xe4
   192b4:	e6ef3072 	uxtb	r3, r2
   192b8:	e5c03000 	strb	r3, [r0]
   192bc:	e51b304c 	ldr	r3, [fp, #-76]	; 0x4c
   192c0:	e2830006 	add	r0, r3, #6
   192c4:	e51b3048 	ldr	r3, [fp, #-72]	; 0x48
   192c8:	e1c321d0 	ldrd	r2, [r3, #16]
   192cc:	e1a01c03 	lsl	r1, r3, #24
   192d0:	e1a0c422 	lsr	ip, r2, #8
   192d4:	e50bc0ec 	str	ip, [fp, #-236]	; 0xec
   192d8:	e51bc0ec 	ldr	ip, [fp, #-236]	; 0xec
   192dc:	e181c00c 	orr	ip, r1, ip
   192e0:	e50bc0ec 	str	ip, [fp, #-236]	; 0xec
   192e4:	e1a01423 	lsr	r1, r3, #8
   192e8:	e50b10e8 	str	r1, [fp, #-232]	; 0xe8
   192ec:	e55b20ec 	ldrb	r2, [fp, #-236]	; 0xec
   192f0:	e6ef3072 	uxtb	r3, r2
   192f4:	e5c03000 	strb	r3, [r0]
   192f8:	e51b304c 	ldr	r3, [fp, #-76]	; 0x4c
   192fc:	e2831007 	add	r1, r3, #7
   19300:	e51b3048 	ldr	r3, [fp, #-72]	; 0x48
   19304:	e1c321d0 	ldrd	r2, [r3, #16]
   19308:	e6ef3072 	uxtb	r3, r2
   1930c:	e5c13000 	strb	r3, [r1]
   19310:	e51b304c 	ldr	r3, [fp, #-76]	; 0x4c
   19314:	e2831008 	add	r1, r3, #8
   19318:	e51b3048 	ldr	r3, [fp, #-72]	; 0x48
   1931c:	e1c321d8 	ldrd	r2, [r3, #24]
   19320:	e1a0cc23 	lsr	ip, r3, #24
   19324:	e50bc0f4 	str	ip, [fp, #-244]	; 0xf4
   19328:	e3a00000 	mov	r0, #0
   1932c:	e50b00f0 	str	r0, [fp, #-240]	; 0xf0
   19330:	e55b20f4 	ldrb	r2, [fp, #-244]	; 0xf4
   19334:	e6ef3072 	uxtb	r3, r2
   19338:	e5c13000 	strb	r3, [r1]
   1933c:	e51b304c 	ldr	r3, [fp, #-76]	; 0x4c
   19340:	e2831009 	add	r1, r3, #9
   19344:	e51b3048 	ldr	r3, [fp, #-72]	; 0x48
   19348:	e1c321d8 	ldrd	r2, [r3, #24]
   1934c:	e1a0c823 	lsr	ip, r3, #16
   19350:	e50bc0fc 	str	ip, [fp, #-252]	; 0xfc
   19354:	e3a00000 	mov	r0, #0
   19358:	e50b00f8 	str	r0, [fp, #-248]	; 0xf8
   1935c:	e55b20fc 	ldrb	r2, [fp, #-252]	; 0xfc
   19360:	e6ef3072 	uxtb	r3, r2
   19364:	e5c13000 	strb	r3, [r1]
   19368:	e51b304c 	ldr	r3, [fp, #-76]	; 0x4c
   1936c:	e283100a 	add	r1, r3, #10
   19370:	e51b3048 	ldr	r3, [fp, #-72]	; 0x48
   19374:	e1c321d8 	ldrd	r2, [r3, #24]
   19378:	e1a0c423 	lsr	ip, r3, #8
   1937c:	e50bc104 	str	ip, [fp, #-260]	; 0x104
   19380:	e3a00000 	mov	r0, #0
   19384:	e50b0100 	str	r0, [fp, #-256]	; 0x100
   19388:	e55b3104 	ldrb	r3, [fp, #-260]	; 0x104
   1938c:	e5c13000 	strb	r3, [r1]
   19390:	e51b304c 	ldr	r3, [fp, #-76]	; 0x4c
   19394:	e283100b 	add	r1, r3, #11
   19398:	e51b3048 	ldr	r3, [fp, #-72]	; 0x48
   1939c:	e1c321d8 	ldrd	r2, [r3, #24]
   193a0:	e1a0c003 	mov	ip, r3
   193a4:	e50bc10c 	str	ip, [fp, #-268]	; 0x10c
   193a8:	e3a00000 	mov	r0, #0
   193ac:	e50b0108 	str	r0, [fp, #-264]	; 0x108
   193b0:	e55b310c 	ldrb	r3, [fp, #-268]	; 0x10c
   193b4:	e5c13000 	strb	r3, [r1]
   193b8:	e51b304c 	ldr	r3, [fp, #-76]	; 0x4c
   193bc:	e283000c 	add	r0, r3, #12
   193c0:	e51b3048 	ldr	r3, [fp, #-72]	; 0x48
   193c4:	e1c321d8 	ldrd	r2, [r3, #24]
   193c8:	e1a01403 	lsl	r1, r3, #8
   193cc:	e1a0cc22 	lsr	ip, r2, #24
   193d0:	e50bc114 	str	ip, [fp, #-276]	; 0x114
   193d4:	e51bc114 	ldr	ip, [fp, #-276]	; 0x114
   193d8:	e181100c 	orr	r1, r1, ip
   193dc:	e50b1114 	str	r1, [fp, #-276]	; 0x114
   193e0:	e1a01c23 	lsr	r1, r3, #24
   193e4:	e50b1110 	str	r1, [fp, #-272]	; 0x110
   193e8:	e55b3114 	ldrb	r3, [fp, #-276]	; 0x114
   193ec:	e5c03000 	strb	r3, [r0]
   193f0:	e51b304c 	ldr	r3, [fp, #-76]	; 0x4c
   193f4:	e283000d 	add	r0, r3, #13
   193f8:	e51b3048 	ldr	r3, [fp, #-72]	; 0x48
   193fc:	e1c321d8 	ldrd	r2, [r3, #24]
   19400:	e1a01803 	lsl	r1, r3, #16
   19404:	e1a0c822 	lsr	ip, r2, #16
   19408:	e50bc11c 	str	ip, [fp, #-284]	; 0x11c
   1940c:	e51bc11c 	ldr	ip, [fp, #-284]	; 0x11c
   19410:	e181100c 	orr	r1, r1, ip
   19414:	e50b111c 	str	r1, [fp, #-284]	; 0x11c
   19418:	e1a01823 	lsr	r1, r3, #16
   1941c:	e50b1118 	str	r1, [fp, #-280]	; 0x118
   19420:	e55b311c 	ldrb	r3, [fp, #-284]	; 0x11c
   19424:	e5c03000 	strb	r3, [r0]
   19428:	e51b304c 	ldr	r3, [fp, #-76]	; 0x4c
   1942c:	e283000e 	add	r0, r3, #14
   19430:	e51b3048 	ldr	r3, [fp, #-72]	; 0x48
   19434:	e1c321d8 	ldrd	r2, [r3, #24]
   19438:	e1a01c03 	lsl	r1, r3, #24
   1943c:	e1a0c422 	lsr	ip, r2, #8
   19440:	e50bc124 	str	ip, [fp, #-292]	; 0x124
   19444:	e51bc124 	ldr	ip, [fp, #-292]	; 0x124
   19448:	e181100c 	orr	r1, r1, ip
   1944c:	e50b1124 	str	r1, [fp, #-292]	; 0x124
   19450:	e1a01423 	lsr	r1, r3, #8
   19454:	e50b1120 	str	r1, [fp, #-288]	; 0x120
   19458:	e55b3124 	ldrb	r3, [fp, #-292]	; 0x124
   1945c:	e5c03000 	strb	r3, [r0]
   19460:	e51b304c 	ldr	r3, [fp, #-76]	; 0x4c
   19464:	e283100f 	add	r1, r3, #15
   19468:	e51b3048 	ldr	r3, [fp, #-72]	; 0x48
   1946c:	e1c321d8 	ldrd	r2, [r3, #24]
   19470:	e6ef3072 	uxtb	r3, r2
   19474:	e5c13000 	strb	r3, [r1]
   19478:	e51b304c 	ldr	r3, [fp, #-76]	; 0x4c
   1947c:	e2831010 	add	r1, r3, #16
   19480:	e51b3048 	ldr	r3, [fp, #-72]	; 0x48
   19484:	e1c322d0 	ldrd	r2, [r3, #32]
   19488:	e1a0cc23 	lsr	ip, r3, #24
   1948c:	e50bc12c 	str	ip, [fp, #-300]	; 0x12c
   19490:	e3a00000 	mov	r0, #0
   19494:	e50b0128 	str	r0, [fp, #-296]	; 0x128
   19498:	e55b312c 	ldrb	r3, [fp, #-300]	; 0x12c
   1949c:	e5c13000 	strb	r3, [r1]
   194a0:	e51b304c 	ldr	r3, [fp, #-76]	; 0x4c
   194a4:	e2831011 	add	r1, r3, #17
   194a8:	e51b3048 	ldr	r3, [fp, #-72]	; 0x48
   194ac:	e1c322d0 	ldrd	r2, [r3, #32]
   194b0:	e1a0c823 	lsr	ip, r3, #16
   194b4:	e50bc134 	str	ip, [fp, #-308]	; 0x134
   194b8:	e3a00000 	mov	r0, #0
   194bc:	e50b0130 	str	r0, [fp, #-304]	; 0x130
   194c0:	e55b3134 	ldrb	r3, [fp, #-308]	; 0x134
   194c4:	e5c13000 	strb	r3, [r1]
   194c8:	e51b304c 	ldr	r3, [fp, #-76]	; 0x4c
   194cc:	e2831012 	add	r1, r3, #18
   194d0:	e51b3048 	ldr	r3, [fp, #-72]	; 0x48
   194d4:	e1c322d0 	ldrd	r2, [r3, #32]
   194d8:	e1a0c423 	lsr	ip, r3, #8
   194dc:	e50bc13c 	str	ip, [fp, #-316]	; 0x13c
   194e0:	e3a00000 	mov	r0, #0
   194e4:	e50b0138 	str	r0, [fp, #-312]	; 0x138
   194e8:	e55b313c 	ldrb	r3, [fp, #-316]	; 0x13c
   194ec:	e5c13000 	strb	r3, [r1]
   194f0:	e51b304c 	ldr	r3, [fp, #-76]	; 0x4c
   194f4:	e2831013 	add	r1, r3, #19
   194f8:	e51b3048 	ldr	r3, [fp, #-72]	; 0x48
   194fc:	e1c322d0 	ldrd	r2, [r3, #32]
   19500:	e1a0c003 	mov	ip, r3
   19504:	e50bc144 	str	ip, [fp, #-324]	; 0x144
   19508:	e3a00000 	mov	r0, #0
   1950c:	e50b0140 	str	r0, [fp, #-320]	; 0x140
   19510:	e55b3144 	ldrb	r3, [fp, #-324]	; 0x144
   19514:	e5c13000 	strb	r3, [r1]
   19518:	e51b304c 	ldr	r3, [fp, #-76]	; 0x4c
   1951c:	e2830014 	add	r0, r3, #20
   19520:	e51b3048 	ldr	r3, [fp, #-72]	; 0x48
   19524:	e1c322d0 	ldrd	r2, [r3, #32]
   19528:	e1a01403 	lsl	r1, r3, #8
   1952c:	e1a0cc22 	lsr	ip, r2, #24
   19530:	e50bc14c 	str	ip, [fp, #-332]	; 0x14c
   19534:	e51bc14c 	ldr	ip, [fp, #-332]	; 0x14c
   19538:	e181100c 	orr	r1, r1, ip
   1953c:	e50b114c 	str	r1, [fp, #-332]	; 0x14c
   19540:	e1a01c23 	lsr	r1, r3, #24
   19544:	e50b1148 	str	r1, [fp, #-328]	; 0x148
   19548:	e55b314c 	ldrb	r3, [fp, #-332]	; 0x14c
   1954c:	e5c03000 	strb	r3, [r0]
   19550:	e51b304c 	ldr	r3, [fp, #-76]	; 0x4c
   19554:	e2830015 	add	r0, r3, #21
   19558:	e51b3048 	ldr	r3, [fp, #-72]	; 0x48
   1955c:	e1c322d0 	ldrd	r2, [r3, #32]
   19560:	e1a01803 	lsl	r1, r3, #16
   19564:	e1a0c822 	lsr	ip, r2, #16
   19568:	e50bc154 	str	ip, [fp, #-340]	; 0x154
   1956c:	e51bc154 	ldr	ip, [fp, #-340]	; 0x154
   19570:	e181100c 	orr	r1, r1, ip
   19574:	e50b1154 	str	r1, [fp, #-340]	; 0x154
   19578:	e1a01823 	lsr	r1, r3, #16
   1957c:	e50b1150 	str	r1, [fp, #-336]	; 0x150
   19580:	e55b3154 	ldrb	r3, [fp, #-340]	; 0x154
   19584:	e5c03000 	strb	r3, [r0]
   19588:	e51b304c 	ldr	r3, [fp, #-76]	; 0x4c
   1958c:	e2830016 	add	r0, r3, #22
   19590:	e51b3048 	ldr	r3, [fp, #-72]	; 0x48
   19594:	e1c322d0 	ldrd	r2, [r3, #32]
   19598:	e1a01c03 	lsl	r1, r3, #24
   1959c:	e1a0c422 	lsr	ip, r2, #8
   195a0:	e50bc15c 	str	ip, [fp, #-348]	; 0x15c
   195a4:	e51bc15c 	ldr	ip, [fp, #-348]	; 0x15c
   195a8:	e181100c 	orr	r1, r1, ip
   195ac:	e50b115c 	str	r1, [fp, #-348]	; 0x15c
   195b0:	e1a01423 	lsr	r1, r3, #8
   195b4:	e50b1158 	str	r1, [fp, #-344]	; 0x158
   195b8:	e55b315c 	ldrb	r3, [fp, #-348]	; 0x15c
   195bc:	e5c03000 	strb	r3, [r0]
   195c0:	e51b304c 	ldr	r3, [fp, #-76]	; 0x4c
   195c4:	e2831017 	add	r1, r3, #23
   195c8:	e51b3048 	ldr	r3, [fp, #-72]	; 0x48
   195cc:	e1c322d0 	ldrd	r2, [r3, #32]
   195d0:	e6ef3072 	uxtb	r3, r2
   195d4:	e5c13000 	strb	r3, [r1]
   195d8:	e51b304c 	ldr	r3, [fp, #-76]	; 0x4c
   195dc:	e2831018 	add	r1, r3, #24
   195e0:	e51b3048 	ldr	r3, [fp, #-72]	; 0x48
   195e4:	e1c322d8 	ldrd	r2, [r3, #40]	; 0x28
   195e8:	e1a0cc23 	lsr	ip, r3, #24
   195ec:	e50bc164 	str	ip, [fp, #-356]	; 0x164
   195f0:	e3a00000 	mov	r0, #0
   195f4:	e50b0160 	str	r0, [fp, #-352]	; 0x160
   195f8:	e55b3164 	ldrb	r3, [fp, #-356]	; 0x164
   195fc:	e5c13000 	strb	r3, [r1]
   19600:	e51b304c 	ldr	r3, [fp, #-76]	; 0x4c
   19604:	e2831019 	add	r1, r3, #25
   19608:	e51b3048 	ldr	r3, [fp, #-72]	; 0x48
   1960c:	e1c322d8 	ldrd	r2, [r3, #40]	; 0x28
   19610:	e1a0c823 	lsr	ip, r3, #16
   19614:	e50bc16c 	str	ip, [fp, #-364]	; 0x16c
   19618:	e3a00000 	mov	r0, #0
   1961c:	e50b0168 	str	r0, [fp, #-360]	; 0x168
   19620:	e55b316c 	ldrb	r3, [fp, #-364]	; 0x16c
   19624:	e5c13000 	strb	r3, [r1]
   19628:	e51b304c 	ldr	r3, [fp, #-76]	; 0x4c
   1962c:	e283101a 	add	r1, r3, #26
   19630:	e51b3048 	ldr	r3, [fp, #-72]	; 0x48
   19634:	e1c322d8 	ldrd	r2, [r3, #40]	; 0x28
   19638:	e1a0c423 	lsr	ip, r3, #8
   1963c:	e50bc174 	str	ip, [fp, #-372]	; 0x174
   19640:	e3a00000 	mov	r0, #0
   19644:	e50b0170 	str	r0, [fp, #-368]	; 0x170
   19648:	e55b3174 	ldrb	r3, [fp, #-372]	; 0x174
   1964c:	e5c13000 	strb	r3, [r1]
   19650:	e51b304c 	ldr	r3, [fp, #-76]	; 0x4c
   19654:	e283101b 	add	r1, r3, #27
   19658:	e51b3048 	ldr	r3, [fp, #-72]	; 0x48
   1965c:	e1c322d8 	ldrd	r2, [r3, #40]	; 0x28
   19660:	e1a0c003 	mov	ip, r3
   19664:	e50bc17c 	str	ip, [fp, #-380]	; 0x17c
   19668:	e3a00000 	mov	r0, #0
   1966c:	e50b0178 	str	r0, [fp, #-376]	; 0x178
   19670:	e55b317c 	ldrb	r3, [fp, #-380]	; 0x17c
   19674:	e5c13000 	strb	r3, [r1]
   19678:	e51b304c 	ldr	r3, [fp, #-76]	; 0x4c
   1967c:	e283001c 	add	r0, r3, #28
   19680:	e51b3048 	ldr	r3, [fp, #-72]	; 0x48
   19684:	e1c322d8 	ldrd	r2, [r3, #40]	; 0x28
   19688:	e1a01403 	lsl	r1, r3, #8
   1968c:	e1a0cc22 	lsr	ip, r2, #24
   19690:	e50bc184 	str	ip, [fp, #-388]	; 0x184
   19694:	e51bc184 	ldr	ip, [fp, #-388]	; 0x184
   19698:	e181100c 	orr	r1, r1, ip
   1969c:	e50b1184 	str	r1, [fp, #-388]	; 0x184
   196a0:	e1a01c23 	lsr	r1, r3, #24
   196a4:	e50b1180 	str	r1, [fp, #-384]	; 0x180
   196a8:	e55b3184 	ldrb	r3, [fp, #-388]	; 0x184
   196ac:	e5c03000 	strb	r3, [r0]
   196b0:	e51b304c 	ldr	r3, [fp, #-76]	; 0x4c
   196b4:	e283001d 	add	r0, r3, #29
   196b8:	e51b3048 	ldr	r3, [fp, #-72]	; 0x48
   196bc:	e1c322d8 	ldrd	r2, [r3, #40]	; 0x28
   196c0:	e1a01803 	lsl	r1, r3, #16
   196c4:	e1a0c822 	lsr	ip, r2, #16
   196c8:	e50bc18c 	str	ip, [fp, #-396]	; 0x18c
   196cc:	e51bc18c 	ldr	ip, [fp, #-396]	; 0x18c
   196d0:	e181100c 	orr	r1, r1, ip
   196d4:	e50b118c 	str	r1, [fp, #-396]	; 0x18c
   196d8:	e1a01823 	lsr	r1, r3, #16
   196dc:	e50b1188 	str	r1, [fp, #-392]	; 0x188
   196e0:	e55b318c 	ldrb	r3, [fp, #-396]	; 0x18c
   196e4:	e5c03000 	strb	r3, [r0]
   196e8:	e51b304c 	ldr	r3, [fp, #-76]	; 0x4c
   196ec:	e283001e 	add	r0, r3, #30
   196f0:	e51b3048 	ldr	r3, [fp, #-72]	; 0x48
   196f4:	e1c322d8 	ldrd	r2, [r3, #40]	; 0x28
   196f8:	e1a01c03 	lsl	r1, r3, #24
   196fc:	e1a0c422 	lsr	ip, r2, #8
   19700:	e50bc194 	str	ip, [fp, #-404]	; 0x194
   19704:	e51bc194 	ldr	ip, [fp, #-404]	; 0x194
   19708:	e181100c 	orr	r1, r1, ip
   1970c:	e50b1194 	str	r1, [fp, #-404]	; 0x194
   19710:	e1a01423 	lsr	r1, r3, #8
   19714:	e50b1190 	str	r1, [fp, #-400]	; 0x190
   19718:	e55b3194 	ldrb	r3, [fp, #-404]	; 0x194
   1971c:	e5c03000 	strb	r3, [r0]
   19720:	e51b304c 	ldr	r3, [fp, #-76]	; 0x4c
   19724:	e283101f 	add	r1, r3, #31
   19728:	e51b3048 	ldr	r3, [fp, #-72]	; 0x48
   1972c:	e1c322d8 	ldrd	r2, [r3, #40]	; 0x28
   19730:	e6ef3072 	uxtb	r3, r2
   19734:	e5c13000 	strb	r3, [r1]
   19738:	e51b304c 	ldr	r3, [fp, #-76]	; 0x4c
   1973c:	e2831020 	add	r1, r3, #32
   19740:	e51b3048 	ldr	r3, [fp, #-72]	; 0x48
   19744:	e1c323d0 	ldrd	r2, [r3, #48]	; 0x30
   19748:	e1a0cc23 	lsr	ip, r3, #24
   1974c:	e50bc19c 	str	ip, [fp, #-412]	; 0x19c
   19750:	e3a00000 	mov	r0, #0
   19754:	e50b0198 	str	r0, [fp, #-408]	; 0x198
   19758:	e55b319c 	ldrb	r3, [fp, #-412]	; 0x19c
   1975c:	e5c13000 	strb	r3, [r1]
   19760:	e51b304c 	ldr	r3, [fp, #-76]	; 0x4c
   19764:	e2831021 	add	r1, r3, #33	; 0x21
   19768:	e51b3048 	ldr	r3, [fp, #-72]	; 0x48
   1976c:	e1c323d0 	ldrd	r2, [r3, #48]	; 0x30
   19770:	e1a0c823 	lsr	ip, r3, #16
   19774:	e50bc1a4 	str	ip, [fp, #-420]	; 0x1a4
   19778:	e3a00000 	mov	r0, #0
   1977c:	e50b01a0 	str	r0, [fp, #-416]	; 0x1a0
   19780:	e55b31a4 	ldrb	r3, [fp, #-420]	; 0x1a4
   19784:	e5c13000 	strb	r3, [r1]
   19788:	e51b304c 	ldr	r3, [fp, #-76]	; 0x4c
   1978c:	e2831022 	add	r1, r3, #34	; 0x22
   19790:	e51b3048 	ldr	r3, [fp, #-72]	; 0x48
   19794:	e1c323d0 	ldrd	r2, [r3, #48]	; 0x30
   19798:	e1a0c423 	lsr	ip, r3, #8
   1979c:	e50bc1ac 	str	ip, [fp, #-428]	; 0x1ac
   197a0:	e3a00000 	mov	r0, #0
   197a4:	e50b01a8 	str	r0, [fp, #-424]	; 0x1a8
   197a8:	e55b31ac 	ldrb	r3, [fp, #-428]	; 0x1ac
   197ac:	e5c13000 	strb	r3, [r1]
   197b0:	e51b304c 	ldr	r3, [fp, #-76]	; 0x4c
   197b4:	e2831023 	add	r1, r3, #35	; 0x23
   197b8:	e51b3048 	ldr	r3, [fp, #-72]	; 0x48
   197bc:	e1c323d0 	ldrd	r2, [r3, #48]	; 0x30
   197c0:	e1a0c003 	mov	ip, r3
   197c4:	e50bc1b4 	str	ip, [fp, #-436]	; 0x1b4
   197c8:	e3a00000 	mov	r0, #0
   197cc:	e50b01b0 	str	r0, [fp, #-432]	; 0x1b0
   197d0:	e55b31b4 	ldrb	r3, [fp, #-436]	; 0x1b4
   197d4:	e5c13000 	strb	r3, [r1]
   197d8:	e51b304c 	ldr	r3, [fp, #-76]	; 0x4c
   197dc:	e2830024 	add	r0, r3, #36	; 0x24
   197e0:	e51b3048 	ldr	r3, [fp, #-72]	; 0x48
   197e4:	e1c323d0 	ldrd	r2, [r3, #48]	; 0x30
   197e8:	e1a01403 	lsl	r1, r3, #8
   197ec:	e1a0cc22 	lsr	ip, r2, #24
   197f0:	e50bc1bc 	str	ip, [fp, #-444]	; 0x1bc
   197f4:	e51bc1bc 	ldr	ip, [fp, #-444]	; 0x1bc
   197f8:	e181100c 	orr	r1, r1, ip
   197fc:	e50b11bc 	str	r1, [fp, #-444]	; 0x1bc
   19800:	e1a01c23 	lsr	r1, r3, #24
   19804:	e50b11b8 	str	r1, [fp, #-440]	; 0x1b8
   19808:	e55b31bc 	ldrb	r3, [fp, #-444]	; 0x1bc
   1980c:	e5c03000 	strb	r3, [r0]
   19810:	e51b304c 	ldr	r3, [fp, #-76]	; 0x4c
   19814:	e2830025 	add	r0, r3, #37	; 0x25
   19818:	e51b3048 	ldr	r3, [fp, #-72]	; 0x48
   1981c:	e1c323d0 	ldrd	r2, [r3, #48]	; 0x30
   19820:	e1a01803 	lsl	r1, r3, #16
   19824:	e1a0c822 	lsr	ip, r2, #16
   19828:	e50bc1c4 	str	ip, [fp, #-452]	; 0x1c4
   1982c:	e51bc1c4 	ldr	ip, [fp, #-452]	; 0x1c4
   19830:	e181100c 	orr	r1, r1, ip
   19834:	e50b11c4 	str	r1, [fp, #-452]	; 0x1c4
   19838:	e1a01823 	lsr	r1, r3, #16
   1983c:	e50b11c0 	str	r1, [fp, #-448]	; 0x1c0
   19840:	e55b31c4 	ldrb	r3, [fp, #-452]	; 0x1c4
   19844:	e5c03000 	strb	r3, [r0]
   19848:	e51b304c 	ldr	r3, [fp, #-76]	; 0x4c
   1984c:	e2830026 	add	r0, r3, #38	; 0x26
   19850:	e51b3048 	ldr	r3, [fp, #-72]	; 0x48
   19854:	e1c323d0 	ldrd	r2, [r3, #48]	; 0x30
   19858:	e1a01c03 	lsl	r1, r3, #24
   1985c:	e1a0c422 	lsr	ip, r2, #8
   19860:	e50bc1cc 	str	ip, [fp, #-460]	; 0x1cc
   19864:	e51bc1cc 	ldr	ip, [fp, #-460]	; 0x1cc
   19868:	e181100c 	orr	r1, r1, ip
   1986c:	e50b11cc 	str	r1, [fp, #-460]	; 0x1cc
   19870:	e1a01423 	lsr	r1, r3, #8
   19874:	e50b11c8 	str	r1, [fp, #-456]	; 0x1c8
   19878:	e55b31cc 	ldrb	r3, [fp, #-460]	; 0x1cc
   1987c:	e5c03000 	strb	r3, [r0]
   19880:	e51b304c 	ldr	r3, [fp, #-76]	; 0x4c
   19884:	e2831027 	add	r1, r3, #39	; 0x27
   19888:	e51b3048 	ldr	r3, [fp, #-72]	; 0x48
   1988c:	e1c323d0 	ldrd	r2, [r3, #48]	; 0x30
   19890:	e6ef3072 	uxtb	r3, r2
   19894:	e5c13000 	strb	r3, [r1]
   19898:	e51b304c 	ldr	r3, [fp, #-76]	; 0x4c
   1989c:	e2831028 	add	r1, r3, #40	; 0x28
   198a0:	e51b3048 	ldr	r3, [fp, #-72]	; 0x48
   198a4:	e1c323d8 	ldrd	r2, [r3, #56]	; 0x38
   198a8:	e1a0cc23 	lsr	ip, r3, #24
   198ac:	e50bc1d4 	str	ip, [fp, #-468]	; 0x1d4
   198b0:	e3a00000 	mov	r0, #0
   198b4:	e50b01d0 	str	r0, [fp, #-464]	; 0x1d0
   198b8:	e55b31d4 	ldrb	r3, [fp, #-468]	; 0x1d4
   198bc:	e5c13000 	strb	r3, [r1]
   198c0:	e51b304c 	ldr	r3, [fp, #-76]	; 0x4c
   198c4:	e2831029 	add	r1, r3, #41	; 0x29
   198c8:	e51b3048 	ldr	r3, [fp, #-72]	; 0x48
   198cc:	e1c323d8 	ldrd	r2, [r3, #56]	; 0x38
   198d0:	e1a0c823 	lsr	ip, r3, #16
   198d4:	e50bc1dc 	str	ip, [fp, #-476]	; 0x1dc
   198d8:	e3a00000 	mov	r0, #0
   198dc:	e50b01d8 	str	r0, [fp, #-472]	; 0x1d8
   198e0:	e55b31dc 	ldrb	r3, [fp, #-476]	; 0x1dc
   198e4:	e5c13000 	strb	r3, [r1]
   198e8:	e51b304c 	ldr	r3, [fp, #-76]	; 0x4c
   198ec:	e283102a 	add	r1, r3, #42	; 0x2a
   198f0:	e51b3048 	ldr	r3, [fp, #-72]	; 0x48
   198f4:	e1c323d8 	ldrd	r2, [r3, #56]	; 0x38
   198f8:	e1a0c423 	lsr	ip, r3, #8
   198fc:	e50bc1e4 	str	ip, [fp, #-484]	; 0x1e4
   19900:	e3a00000 	mov	r0, #0
   19904:	e50b01e0 	str	r0, [fp, #-480]	; 0x1e0
   19908:	e55b31e4 	ldrb	r3, [fp, #-484]	; 0x1e4
   1990c:	e5c13000 	strb	r3, [r1]
   19910:	e51b304c 	ldr	r3, [fp, #-76]	; 0x4c
   19914:	e283102b 	add	r1, r3, #43	; 0x2b
   19918:	e51b3048 	ldr	r3, [fp, #-72]	; 0x48
   1991c:	e1c323d8 	ldrd	r2, [r3, #56]	; 0x38
   19920:	e1a0c003 	mov	ip, r3
   19924:	e50bc1ec 	str	ip, [fp, #-492]	; 0x1ec
   19928:	e3a00000 	mov	r0, #0
   1992c:	e50b01e8 	str	r0, [fp, #-488]	; 0x1e8
   19930:	e55b31ec 	ldrb	r3, [fp, #-492]	; 0x1ec
   19934:	e5c13000 	strb	r3, [r1]
   19938:	e51b304c 	ldr	r3, [fp, #-76]	; 0x4c
   1993c:	e283002c 	add	r0, r3, #44	; 0x2c
   19940:	e51b3048 	ldr	r3, [fp, #-72]	; 0x48
   19944:	e1c323d8 	ldrd	r2, [r3, #56]	; 0x38
   19948:	e1a01403 	lsl	r1, r3, #8
   1994c:	e1a0cc22 	lsr	ip, r2, #24
   19950:	e50bc1f4 	str	ip, [fp, #-500]	; 0x1f4
   19954:	e51bc1f4 	ldr	ip, [fp, #-500]	; 0x1f4
   19958:	e181100c 	orr	r1, r1, ip
   1995c:	e50b11f4 	str	r1, [fp, #-500]	; 0x1f4
   19960:	e1a01c23 	lsr	r1, r3, #24
   19964:	e50b11f0 	str	r1, [fp, #-496]	; 0x1f0
   19968:	e55b31f4 	ldrb	r3, [fp, #-500]	; 0x1f4
   1996c:	e5c03000 	strb	r3, [r0]
   19970:	e51b304c 	ldr	r3, [fp, #-76]	; 0x4c
   19974:	e283002d 	add	r0, r3, #45	; 0x2d
   19978:	e51b3048 	ldr	r3, [fp, #-72]	; 0x48
   1997c:	e1c323d8 	ldrd	r2, [r3, #56]	; 0x38
   19980:	e1a01803 	lsl	r1, r3, #16
   19984:	e1a0c822 	lsr	ip, r2, #16
   19988:	e50bc1fc 	str	ip, [fp, #-508]	; 0x1fc
   1998c:	e51bc1fc 	ldr	ip, [fp, #-508]	; 0x1fc
   19990:	e181100c 	orr	r1, r1, ip
   19994:	e50b11fc 	str	r1, [fp, #-508]	; 0x1fc
   19998:	e1a01823 	lsr	r1, r3, #16
   1999c:	e50b11f8 	str	r1, [fp, #-504]	; 0x1f8
   199a0:	e55b31fc 	ldrb	r3, [fp, #-508]	; 0x1fc
   199a4:	e5c03000 	strb	r3, [r0]
   199a8:	e51b304c 	ldr	r3, [fp, #-76]	; 0x4c
   199ac:	e283002e 	add	r0, r3, #46	; 0x2e
   199b0:	e51b3048 	ldr	r3, [fp, #-72]	; 0x48
   199b4:	e1c323d8 	ldrd	r2, [r3, #56]	; 0x38
   199b8:	e1a01c03 	lsl	r1, r3, #24
   199bc:	e1a0c422 	lsr	ip, r2, #8
   199c0:	e50bc204 	str	ip, [fp, #-516]	; 0x204
   199c4:	e51bc204 	ldr	ip, [fp, #-516]	; 0x204
   199c8:	e181100c 	orr	r1, r1, ip
   199cc:	e50b1204 	str	r1, [fp, #-516]	; 0x204
   199d0:	e1a01423 	lsr	r1, r3, #8
   199d4:	e50b1200 	str	r1, [fp, #-512]	; 0x200
   199d8:	e55b3204 	ldrb	r3, [fp, #-516]	; 0x204
   199dc:	e5c03000 	strb	r3, [r0]
   199e0:	e51b304c 	ldr	r3, [fp, #-76]	; 0x4c
   199e4:	e283102f 	add	r1, r3, #47	; 0x2f
   199e8:	e51b3048 	ldr	r3, [fp, #-72]	; 0x48
   199ec:	e1c323d8 	ldrd	r2, [r3, #56]	; 0x38
   199f0:	e6ef3072 	uxtb	r3, r2
   199f4:	e5c13000 	strb	r3, [r1]
   199f8:	e51b3048 	ldr	r3, [fp, #-72]	; 0x48
   199fc:	e59331d0 	ldr	r3, [r3, #464]	; 0x1d0
   19a00:	e3530000 	cmp	r3, #0
   19a04:	1a0000af 	bne	19cc8 <sha4_finish+0xe40>
   19a08:	e51b304c 	ldr	r3, [fp, #-76]	; 0x4c
   19a0c:	e2831030 	add	r1, r3, #48	; 0x30
   19a10:	e51b3048 	ldr	r3, [fp, #-72]	; 0x48
   19a14:	e1c324d0 	ldrd	r2, [r3, #64]	; 0x40
   19a18:	e1a0cc23 	lsr	ip, r3, #24
   19a1c:	e50bc20c 	str	ip, [fp, #-524]	; 0x20c
   19a20:	e3a00000 	mov	r0, #0
   19a24:	e50b0208 	str	r0, [fp, #-520]	; 0x208
   19a28:	e55b320c 	ldrb	r3, [fp, #-524]	; 0x20c
   19a2c:	e5c13000 	strb	r3, [r1]
   19a30:	e51b304c 	ldr	r3, [fp, #-76]	; 0x4c
   19a34:	e2831031 	add	r1, r3, #49	; 0x31
   19a38:	e51b3048 	ldr	r3, [fp, #-72]	; 0x48
   19a3c:	e1c324d0 	ldrd	r2, [r3, #64]	; 0x40
   19a40:	e1a0c823 	lsr	ip, r3, #16
   19a44:	e50bc214 	str	ip, [fp, #-532]	; 0x214
   19a48:	e3a00000 	mov	r0, #0
   19a4c:	e50b0210 	str	r0, [fp, #-528]	; 0x210
   19a50:	e55b3214 	ldrb	r3, [fp, #-532]	; 0x214
   19a54:	e5c13000 	strb	r3, [r1]
   19a58:	e51b304c 	ldr	r3, [fp, #-76]	; 0x4c
   19a5c:	e2831032 	add	r1, r3, #50	; 0x32
   19a60:	e51b3048 	ldr	r3, [fp, #-72]	; 0x48
   19a64:	e1c324d0 	ldrd	r2, [r3, #64]	; 0x40
   19a68:	e1a0c423 	lsr	ip, r3, #8
   19a6c:	e50bc21c 	str	ip, [fp, #-540]	; 0x21c
   19a70:	e3a00000 	mov	r0, #0
   19a74:	e50b0218 	str	r0, [fp, #-536]	; 0x218
   19a78:	e55b321c 	ldrb	r3, [fp, #-540]	; 0x21c
   19a7c:	e5c13000 	strb	r3, [r1]
   19a80:	e51b304c 	ldr	r3, [fp, #-76]	; 0x4c
   19a84:	e2831033 	add	r1, r3, #51	; 0x33
   19a88:	e51b3048 	ldr	r3, [fp, #-72]	; 0x48
   19a8c:	e1c324d0 	ldrd	r2, [r3, #64]	; 0x40
   19a90:	e1a0c003 	mov	ip, r3
   19a94:	e50bc224 	str	ip, [fp, #-548]	; 0x224
   19a98:	e3a00000 	mov	r0, #0
   19a9c:	e50b0220 	str	r0, [fp, #-544]	; 0x220
   19aa0:	e55b3224 	ldrb	r3, [fp, #-548]	; 0x224
   19aa4:	e5c13000 	strb	r3, [r1]
   19aa8:	e51b304c 	ldr	r3, [fp, #-76]	; 0x4c
   19aac:	e2830034 	add	r0, r3, #52	; 0x34
   19ab0:	e51b3048 	ldr	r3, [fp, #-72]	; 0x48
   19ab4:	e1c324d0 	ldrd	r2, [r3, #64]	; 0x40
   19ab8:	e1a01403 	lsl	r1, r3, #8
   19abc:	e1a0cc22 	lsr	ip, r2, #24
   19ac0:	e50bc22c 	str	ip, [fp, #-556]	; 0x22c
   19ac4:	e51bc22c 	ldr	ip, [fp, #-556]	; 0x22c
   19ac8:	e181100c 	orr	r1, r1, ip
   19acc:	e50b122c 	str	r1, [fp, #-556]	; 0x22c
   19ad0:	e1a01c23 	lsr	r1, r3, #24
   19ad4:	e50b1228 	str	r1, [fp, #-552]	; 0x228
   19ad8:	e55b322c 	ldrb	r3, [fp, #-556]	; 0x22c
   19adc:	e5c03000 	strb	r3, [r0]
   19ae0:	e51b304c 	ldr	r3, [fp, #-76]	; 0x4c
   19ae4:	e2830035 	add	r0, r3, #53	; 0x35
   19ae8:	e51b3048 	ldr	r3, [fp, #-72]	; 0x48
   19aec:	e1c324d0 	ldrd	r2, [r3, #64]	; 0x40
   19af0:	e1a01803 	lsl	r1, r3, #16
   19af4:	e1a0c822 	lsr	ip, r2, #16
   19af8:	e50bc234 	str	ip, [fp, #-564]	; 0x234
   19afc:	e51bc234 	ldr	ip, [fp, #-564]	; 0x234
   19b00:	e181100c 	orr	r1, r1, ip
   19b04:	e50b1234 	str	r1, [fp, #-564]	; 0x234
   19b08:	e1a01823 	lsr	r1, r3, #16
   19b0c:	e50b1230 	str	r1, [fp, #-560]	; 0x230
   19b10:	e55b3234 	ldrb	r3, [fp, #-564]	; 0x234
   19b14:	e5c03000 	strb	r3, [r0]
   19b18:	e51b304c 	ldr	r3, [fp, #-76]	; 0x4c
   19b1c:	e2830036 	add	r0, r3, #54	; 0x36
   19b20:	e51b3048 	ldr	r3, [fp, #-72]	; 0x48
   19b24:	e1c324d0 	ldrd	r2, [r3, #64]	; 0x40
   19b28:	e1a01c03 	lsl	r1, r3, #24
   19b2c:	e1a0c422 	lsr	ip, r2, #8
   19b30:	e50bc23c 	str	ip, [fp, #-572]	; 0x23c
   19b34:	e51bc23c 	ldr	ip, [fp, #-572]	; 0x23c
   19b38:	e181100c 	orr	r1, r1, ip
   19b3c:	e50b123c 	str	r1, [fp, #-572]	; 0x23c
   19b40:	e1a01423 	lsr	r1, r3, #8
   19b44:	e50b1238 	str	r1, [fp, #-568]	; 0x238
   19b48:	e55b323c 	ldrb	r3, [fp, #-572]	; 0x23c
   19b4c:	e5c03000 	strb	r3, [r0]
   19b50:	e51b304c 	ldr	r3, [fp, #-76]	; 0x4c
   19b54:	e2831037 	add	r1, r3, #55	; 0x37
   19b58:	e51b3048 	ldr	r3, [fp, #-72]	; 0x48
   19b5c:	e1c324d0 	ldrd	r2, [r3, #64]	; 0x40
   19b60:	e6ef3072 	uxtb	r3, r2
   19b64:	e5c13000 	strb	r3, [r1]
   19b68:	e51b304c 	ldr	r3, [fp, #-76]	; 0x4c
   19b6c:	e2831038 	add	r1, r3, #56	; 0x38
   19b70:	e51b3048 	ldr	r3, [fp, #-72]	; 0x48
   19b74:	e1c324d8 	ldrd	r2, [r3, #72]	; 0x48
   19b78:	e1a0cc23 	lsr	ip, r3, #24
   19b7c:	e50bc244 	str	ip, [fp, #-580]	; 0x244
   19b80:	e3a00000 	mov	r0, #0
   19b84:	e50b0240 	str	r0, [fp, #-576]	; 0x240
   19b88:	e55b3244 	ldrb	r3, [fp, #-580]	; 0x244
   19b8c:	e5c13000 	strb	r3, [r1]
   19b90:	e51b304c 	ldr	r3, [fp, #-76]	; 0x4c
   19b94:	e2831039 	add	r1, r3, #57	; 0x39
   19b98:	e51b3048 	ldr	r3, [fp, #-72]	; 0x48
   19b9c:	e1c324d8 	ldrd	r2, [r3, #72]	; 0x48
   19ba0:	e1a0c823 	lsr	ip, r3, #16
   19ba4:	e50bc24c 	str	ip, [fp, #-588]	; 0x24c
   19ba8:	e3a00000 	mov	r0, #0
   19bac:	e50b0248 	str	r0, [fp, #-584]	; 0x248
   19bb0:	e55b324c 	ldrb	r3, [fp, #-588]	; 0x24c
   19bb4:	e5c13000 	strb	r3, [r1]
   19bb8:	e51b304c 	ldr	r3, [fp, #-76]	; 0x4c
   19bbc:	e283103a 	add	r1, r3, #58	; 0x3a
   19bc0:	e51b3048 	ldr	r3, [fp, #-72]	; 0x48
   19bc4:	e1c324d8 	ldrd	r2, [r3, #72]	; 0x48
   19bc8:	e1a0c423 	lsr	ip, r3, #8
   19bcc:	e50bc254 	str	ip, [fp, #-596]	; 0x254
   19bd0:	e3a00000 	mov	r0, #0
   19bd4:	e50b0250 	str	r0, [fp, #-592]	; 0x250
   19bd8:	e55b3254 	ldrb	r3, [fp, #-596]	; 0x254
   19bdc:	e5c13000 	strb	r3, [r1]
   19be0:	e51b304c 	ldr	r3, [fp, #-76]	; 0x4c
   19be4:	e283103b 	add	r1, r3, #59	; 0x3b
   19be8:	e51b3048 	ldr	r3, [fp, #-72]	; 0x48
   19bec:	e1c324d8 	ldrd	r2, [r3, #72]	; 0x48
   19bf0:	e1a0c003 	mov	ip, r3
   19bf4:	e50bc25c 	str	ip, [fp, #-604]	; 0x25c
   19bf8:	e3a00000 	mov	r0, #0
   19bfc:	e50b0258 	str	r0, [fp, #-600]	; 0x258
   19c00:	e55b325c 	ldrb	r3, [fp, #-604]	; 0x25c
   19c04:	e5c13000 	strb	r3, [r1]
   19c08:	e51b304c 	ldr	r3, [fp, #-76]	; 0x4c
   19c0c:	e283003c 	add	r0, r3, #60	; 0x3c
   19c10:	e51b3048 	ldr	r3, [fp, #-72]	; 0x48
   19c14:	e1c324d8 	ldrd	r2, [r3, #72]	; 0x48
   19c18:	e1a01403 	lsl	r1, r3, #8
   19c1c:	e1a0cc22 	lsr	ip, r2, #24
   19c20:	e50bc264 	str	ip, [fp, #-612]	; 0x264
   19c24:	e51bc264 	ldr	ip, [fp, #-612]	; 0x264
   19c28:	e181100c 	orr	r1, r1, ip
   19c2c:	e50b1264 	str	r1, [fp, #-612]	; 0x264
   19c30:	e1a01c23 	lsr	r1, r3, #24
   19c34:	e50b1260 	str	r1, [fp, #-608]	; 0x260
   19c38:	e55b3264 	ldrb	r3, [fp, #-612]	; 0x264
   19c3c:	e5c03000 	strb	r3, [r0]
   19c40:	e51b304c 	ldr	r3, [fp, #-76]	; 0x4c
   19c44:	e283003d 	add	r0, r3, #61	; 0x3d
   19c48:	e51b3048 	ldr	r3, [fp, #-72]	; 0x48
   19c4c:	e1c324d8 	ldrd	r2, [r3, #72]	; 0x48
   19c50:	e1a01803 	lsl	r1, r3, #16
   19c54:	e1a0c822 	lsr	ip, r2, #16
   19c58:	e50bc26c 	str	ip, [fp, #-620]	; 0x26c
   19c5c:	e51bc26c 	ldr	ip, [fp, #-620]	; 0x26c
   19c60:	e181100c 	orr	r1, r1, ip
   19c64:	e50b126c 	str	r1, [fp, #-620]	; 0x26c
   19c68:	e1a01823 	lsr	r1, r3, #16
   19c6c:	e50b1268 	str	r1, [fp, #-616]	; 0x268
   19c70:	e55b326c 	ldrb	r3, [fp, #-620]	; 0x26c
   19c74:	e5c03000 	strb	r3, [r0]
   19c78:	e51b304c 	ldr	r3, [fp, #-76]	; 0x4c
   19c7c:	e283103e 	add	r1, r3, #62	; 0x3e
   19c80:	e51b3048 	ldr	r3, [fp, #-72]	; 0x48
   19c84:	e1c324d8 	ldrd	r2, [r3, #72]	; 0x48
   19c88:	e1a00c03 	lsl	r0, r3, #24
   19c8c:	e1a0c422 	lsr	ip, r2, #8
   19c90:	e50bc274 	str	ip, [fp, #-628]	; 0x274
   19c94:	e51bc274 	ldr	ip, [fp, #-628]	; 0x274
   19c98:	e180000c 	orr	r0, r0, ip
   19c9c:	e50b0274 	str	r0, [fp, #-628]	; 0x274
   19ca0:	e1a00423 	lsr	r0, r3, #8
   19ca4:	e50b0270 	str	r0, [fp, #-624]	; 0x270
   19ca8:	e55b3274 	ldrb	r3, [fp, #-628]	; 0x274
   19cac:	e5c13000 	strb	r3, [r1]
   19cb0:	e51b304c 	ldr	r3, [fp, #-76]	; 0x4c
   19cb4:	e283103f 	add	r1, r3, #63	; 0x3f
   19cb8:	e51b3048 	ldr	r3, [fp, #-72]	; 0x48
   19cbc:	e1c324d8 	ldrd	r2, [r3, #72]	; 0x48
   19cc0:	e6ef3072 	uxtb	r3, r2
   19cc4:	e5c13000 	strb	r3, [r1]
   19cc8:	e24bd01c 	sub	sp, fp, #28
   19ccc:	e8bd8bf0 	pop	{r4, r5, r6, r7, r8, r9, fp, pc}
   19cd0:	0001ecd8 	.word	0x0001ecd8

00019cd4 <sha4>:
   19cd4:	e92d4800 	push	{fp, lr}
   19cd8:	e28db004 	add	fp, sp, #4
   19cdc:	e24ddf7a 	sub	sp, sp, #488	; 0x1e8
   19ce0:	e50b01e0 	str	r0, [fp, #-480]	; 0x1e0
   19ce4:	e50b11e4 	str	r1, [fp, #-484]	; 0x1e4
   19ce8:	e50b21e8 	str	r2, [fp, #-488]	; 0x1e8
   19cec:	e50b31ec 	str	r3, [fp, #-492]	; 0x1ec
   19cf0:	e24b3f77 	sub	r3, fp, #476	; 0x1dc
   19cf4:	e1a00003 	mov	r0, r3
   19cf8:	e51b11ec 	ldr	r1, [fp, #-492]	; 0x1ec
   19cfc:	ebfff50f 	bl	17140 <sha4_starts>
   19d00:	e24b3f77 	sub	r3, fp, #476	; 0x1dc
   19d04:	e1a00003 	mov	r0, r3
   19d08:	e51b11e0 	ldr	r1, [fp, #-480]	; 0x1e0
   19d0c:	e51b21e4 	ldr	r2, [fp, #-484]	; 0x1e4
   19d10:	ebfffbf0 	bl	18cd8 <sha4_update>
   19d14:	e24b3f77 	sub	r3, fp, #476	; 0x1dc
   19d18:	e1a00003 	mov	r0, r3
   19d1c:	e51b11e8 	ldr	r1, [fp, #-488]	; 0x1e8
   19d20:	ebfffc58 	bl	18e88 <sha4_finish>
   19d24:	e24b3f77 	sub	r3, fp, #476	; 0x1dc
   19d28:	e1a02003 	mov	r2, r3
   19d2c:	e3a03f76 	mov	r3, #472	; 0x1d8
   19d30:	e1a00002 	mov	r0, r2
   19d34:	e3a01000 	mov	r1, #0
   19d38:	e1a02003 	mov	r2, r3
   19d3c:	ebffbbd5 	bl	8c98 <_init+0x194>
   19d40:	e24bd004 	sub	sp, fp, #4
   19d44:	e8bd8800 	pop	{fp, pc}

00019d48 <sha384>:
   19d48:	e92d4800 	push	{fp, lr}
   19d4c:	e28db004 	add	fp, sp, #4
   19d50:	e24dd010 	sub	sp, sp, #16
   19d54:	e50b0008 	str	r0, [fp, #-8]
   19d58:	e50b100c 	str	r1, [fp, #-12]
   19d5c:	e50b2010 	str	r2, [fp, #-16]
   19d60:	e51b0008 	ldr	r0, [fp, #-8]
   19d64:	e51b100c 	ldr	r1, [fp, #-12]
   19d68:	e51b2010 	ldr	r2, [fp, #-16]
   19d6c:	e3a03001 	mov	r3, #1
   19d70:	ebffffd7 	bl	19cd4 <sha4>
   19d74:	e24bd004 	sub	sp, fp, #4
   19d78:	e8bd8800 	pop	{fp, pc}

00019d7c <sha512>:
   19d7c:	e92d4800 	push	{fp, lr}
   19d80:	e28db004 	add	fp, sp, #4
   19d84:	e24dd010 	sub	sp, sp, #16
   19d88:	e50b0008 	str	r0, [fp, #-8]
   19d8c:	e50b100c 	str	r1, [fp, #-12]
   19d90:	e50b2010 	str	r2, [fp, #-16]
   19d94:	e51b0008 	ldr	r0, [fp, #-8]
   19d98:	e51b100c 	ldr	r1, [fp, #-12]
   19d9c:	e51b2010 	ldr	r2, [fp, #-16]
   19da0:	e3a03000 	mov	r3, #0
   19da4:	ebffffca 	bl	19cd4 <sha4>
   19da8:	e24bd004 	sub	sp, fp, #4
   19dac:	e8bd8800 	pop	{fp, pc}

00019db0 <rhash_md4_init>:
   19db0:	e52db004 	push	{fp}		; (str fp, [sp, #-4]!)
   19db4:	e28db000 	add	fp, sp, #0
   19db8:	e24dd00c 	sub	sp, sp, #12
   19dbc:	e50b0008 	str	r0, [fp, #-8]
   19dc0:	e51b1008 	ldr	r1, [fp, #-8]
   19dc4:	e3a02000 	mov	r2, #0
   19dc8:	e3a03000 	mov	r3, #0
   19dcc:	e1c125f0 	strd	r2, [r1, #80]	; 0x50
   19dd0:	e51b3008 	ldr	r3, [fp, #-8]
   19dd4:	e59f2030 	ldr	r2, [pc, #48]	; 19e0c <rhash_md4_init+0x5c>
   19dd8:	e5832000 	str	r2, [r3]
   19ddc:	e51b3008 	ldr	r3, [fp, #-8]
   19de0:	e59f2028 	ldr	r2, [pc, #40]	; 19e10 <rhash_md4_init+0x60>
   19de4:	e5832004 	str	r2, [r3, #4]
   19de8:	e51b3008 	ldr	r3, [fp, #-8]
   19dec:	e59f2020 	ldr	r2, [pc, #32]	; 19e14 <rhash_md4_init+0x64>
   19df0:	e5832008 	str	r2, [r3, #8]
   19df4:	e51b3008 	ldr	r3, [fp, #-8]
   19df8:	e59f2018 	ldr	r2, [pc, #24]	; 19e18 <rhash_md4_init+0x68>
   19dfc:	e583200c 	str	r2, [r3, #12]
   19e00:	e28bd000 	add	sp, fp, #0
   19e04:	e8bd0800 	pop	{fp}
   19e08:	e12fff1e 	bx	lr
   19e0c:	67452301 	.word	0x67452301
   19e10:	efcdab89 	.word	0xefcdab89
   19e14:	98badcfe 	.word	0x98badcfe
   19e18:	10325476 	.word	0x10325476

00019e1c <rhash_md4_process_block>:
   19e1c:	e92d08f0 	push	{r4, r5, r6, r7, fp}
   19e20:	e28db010 	add	fp, sp, #16
   19e24:	e24dd00c 	sub	sp, sp, #12
   19e28:	e50b0018 	str	r0, [fp, #-24]
   19e2c:	e50b101c 	str	r1, [fp, #-28]
   19e30:	e51b3018 	ldr	r3, [fp, #-24]
   19e34:	e5937000 	ldr	r7, [r3]
   19e38:	e51b3018 	ldr	r3, [fp, #-24]
   19e3c:	e5936004 	ldr	r6, [r3, #4]
   19e40:	e51b3018 	ldr	r3, [fp, #-24]
   19e44:	e5935008 	ldr	r5, [r3, #8]
   19e48:	e51b3018 	ldr	r3, [fp, #-24]
   19e4c:	e593400c 	ldr	r4, [r3, #12]
   19e50:	e0253004 	eor	r3, r5, r4
   19e54:	e0033006 	and	r3, r3, r6
   19e58:	e0232004 	eor	r2, r3, r4
   19e5c:	e51b301c 	ldr	r3, [fp, #-28]
   19e60:	e5933000 	ldr	r3, [r3]
   19e64:	e0823003 	add	r3, r2, r3
   19e68:	e0877003 	add	r7, r7, r3
   19e6c:	e1a07ee7 	ror	r7, r7, #29
   19e70:	e0263005 	eor	r3, r6, r5
   19e74:	e0033007 	and	r3, r3, r7
   19e78:	e0232005 	eor	r2, r3, r5
   19e7c:	e51b301c 	ldr	r3, [fp, #-28]
   19e80:	e2833004 	add	r3, r3, #4
   19e84:	e5933000 	ldr	r3, [r3]
   19e88:	e0823003 	add	r3, r2, r3
   19e8c:	e0844003 	add	r4, r4, r3
   19e90:	e1a04ce4 	ror	r4, r4, #25
   19e94:	e0273006 	eor	r3, r7, r6
   19e98:	e0033004 	and	r3, r3, r4
   19e9c:	e0232006 	eor	r2, r3, r6
   19ea0:	e51b301c 	ldr	r3, [fp, #-28]
   19ea4:	e2833008 	add	r3, r3, #8
   19ea8:	e5933000 	ldr	r3, [r3]
   19eac:	e0823003 	add	r3, r2, r3
   19eb0:	e0855003 	add	r5, r5, r3
   19eb4:	e1a05ae5 	ror	r5, r5, #21
   19eb8:	e0243007 	eor	r3, r4, r7
   19ebc:	e0033005 	and	r3, r3, r5
   19ec0:	e0232007 	eor	r2, r3, r7
   19ec4:	e51b301c 	ldr	r3, [fp, #-28]
   19ec8:	e283300c 	add	r3, r3, #12
   19ecc:	e5933000 	ldr	r3, [r3]
   19ed0:	e0823003 	add	r3, r2, r3
   19ed4:	e0866003 	add	r6, r6, r3
   19ed8:	e1a066e6 	ror	r6, r6, #13
   19edc:	e0253004 	eor	r3, r5, r4
   19ee0:	e0033006 	and	r3, r3, r6
   19ee4:	e0232004 	eor	r2, r3, r4
   19ee8:	e51b301c 	ldr	r3, [fp, #-28]
   19eec:	e2833010 	add	r3, r3, #16
   19ef0:	e5933000 	ldr	r3, [r3]
   19ef4:	e0823003 	add	r3, r2, r3
   19ef8:	e0877003 	add	r7, r7, r3
   19efc:	e1a07ee7 	ror	r7, r7, #29
   19f00:	e0263005 	eor	r3, r6, r5
   19f04:	e0033007 	and	r3, r3, r7
   19f08:	e0232005 	eor	r2, r3, r5
   19f0c:	e51b301c 	ldr	r3, [fp, #-28]
   19f10:	e2833014 	add	r3, r3, #20
   19f14:	e5933000 	ldr	r3, [r3]
   19f18:	e0823003 	add	r3, r2, r3
   19f1c:	e0844003 	add	r4, r4, r3
   19f20:	e1a04ce4 	ror	r4, r4, #25
   19f24:	e0273006 	eor	r3, r7, r6
   19f28:	e0033004 	and	r3, r3, r4
   19f2c:	e0232006 	eor	r2, r3, r6
   19f30:	e51b301c 	ldr	r3, [fp, #-28]
   19f34:	e2833018 	add	r3, r3, #24
   19f38:	e5933000 	ldr	r3, [r3]
   19f3c:	e0823003 	add	r3, r2, r3
   19f40:	e0855003 	add	r5, r5, r3
   19f44:	e1a05ae5 	ror	r5, r5, #21
   19f48:	e0243007 	eor	r3, r4, r7
   19f4c:	e0033005 	and	r3, r3, r5
   19f50:	e0232007 	eor	r2, r3, r7
   19f54:	e51b301c 	ldr	r3, [fp, #-28]
   19f58:	e283301c 	add	r3, r3, #28
   19f5c:	e5933000 	ldr	r3, [r3]
   19f60:	e0823003 	add	r3, r2, r3
   19f64:	e0866003 	add	r6, r6, r3
   19f68:	e1a066e6 	ror	r6, r6, #13
   19f6c:	e0253004 	eor	r3, r5, r4
   19f70:	e0033006 	and	r3, r3, r6
   19f74:	e0232004 	eor	r2, r3, r4
   19f78:	e51b301c 	ldr	r3, [fp, #-28]
   19f7c:	e2833020 	add	r3, r3, #32
   19f80:	e5933000 	ldr	r3, [r3]
   19f84:	e0823003 	add	r3, r2, r3
   19f88:	e0877003 	add	r7, r7, r3
   19f8c:	e1a07ee7 	ror	r7, r7, #29
   19f90:	e0263005 	eor	r3, r6, r5
   19f94:	e0033007 	and	r3, r3, r7
   19f98:	e0232005 	eor	r2, r3, r5
   19f9c:	e51b301c 	ldr	r3, [fp, #-28]
   19fa0:	e2833024 	add	r3, r3, #36	; 0x24
   19fa4:	e5933000 	ldr	r3, [r3]
   19fa8:	e0823003 	add	r3, r2, r3
   19fac:	e0844003 	add	r4, r4, r3
   19fb0:	e1a04ce4 	ror	r4, r4, #25
   19fb4:	e0273006 	eor	r3, r7, r6
   19fb8:	e0033004 	and	r3, r3, r4
   19fbc:	e0232006 	eor	r2, r3, r6
   19fc0:	e51b301c 	ldr	r3, [fp, #-28]
   19fc4:	e2833028 	add	r3, r3, #40	; 0x28
   19fc8:	e5933000 	ldr	r3, [r3]
   19fcc:	e0823003 	add	r3, r2, r3
   19fd0:	e0855003 	add	r5, r5, r3
   19fd4:	e1a05ae5 	ror	r5, r5, #21
   19fd8:	e0243007 	eor	r3, r4, r7
   19fdc:	e0033005 	and	r3, r3, r5
   19fe0:	e0232007 	eor	r2, r3, r7
   19fe4:	e51b301c 	ldr	r3, [fp, #-28]
   19fe8:	e283302c 	add	r3, r3, #44	; 0x2c
   19fec:	e5933000 	ldr	r3, [r3]
   19ff0:	e0823003 	add	r3, r2, r3
   19ff4:	e0866003 	add	r6, r6, r3
   19ff8:	e1a066e6 	ror	r6, r6, #13
   19ffc:	e0253004 	eor	r3, r5, r4
   1a000:	e0033006 	and	r3, r3, r6
   1a004:	e0232004 	eor	r2, r3, r4
   1a008:	e51b301c 	ldr	r3, [fp, #-28]
   1a00c:	e2833030 	add	r3, r3, #48	; 0x30
   1a010:	e5933000 	ldr	r3, [r3]
   1a014:	e0823003 	add	r3, r2, r3
   1a018:	e0877003 	add	r7, r7, r3
   1a01c:	e1a07ee7 	ror	r7, r7, #29
   1a020:	e0263005 	eor	r3, r6, r5
   1a024:	e0033007 	and	r3, r3, r7
   1a028:	e0232005 	eor	r2, r3, r5
   1a02c:	e51b301c 	ldr	r3, [fp, #-28]
   1a030:	e2833034 	add	r3, r3, #52	; 0x34
   1a034:	e5933000 	ldr	r3, [r3]
   1a038:	e0823003 	add	r3, r2, r3
   1a03c:	e0844003 	add	r4, r4, r3
   1a040:	e1a04ce4 	ror	r4, r4, #25
   1a044:	e0273006 	eor	r3, r7, r6
   1a048:	e0033004 	and	r3, r3, r4
   1a04c:	e0232006 	eor	r2, r3, r6
   1a050:	e51b301c 	ldr	r3, [fp, #-28]
   1a054:	e2833038 	add	r3, r3, #56	; 0x38
   1a058:	e5933000 	ldr	r3, [r3]
   1a05c:	e0823003 	add	r3, r2, r3
   1a060:	e0855003 	add	r5, r5, r3
   1a064:	e1a05ae5 	ror	r5, r5, #21
   1a068:	e0243007 	eor	r3, r4, r7
   1a06c:	e0033005 	and	r3, r3, r5
   1a070:	e0232007 	eor	r2, r3, r7
   1a074:	e51b301c 	ldr	r3, [fp, #-28]
   1a078:	e283303c 	add	r3, r3, #60	; 0x3c
   1a07c:	e5933000 	ldr	r3, [r3]
   1a080:	e0823003 	add	r3, r2, r3
   1a084:	e0866003 	add	r6, r6, r3
   1a088:	e1a066e6 	ror	r6, r6, #13
   1a08c:	e1853004 	orr	r3, r5, r4
   1a090:	e0032006 	and	r2, r3, r6
   1a094:	e0053004 	and	r3, r5, r4
   1a098:	e1822003 	orr	r2, r2, r3
   1a09c:	e51b301c 	ldr	r3, [fp, #-28]
   1a0a0:	e5933000 	ldr	r3, [r3]
   1a0a4:	e0823003 	add	r3, r2, r3
   1a0a8:	e0833007 	add	r3, r3, r7
   1a0ac:	e59f75c4 	ldr	r7, [pc, #1476]	; 1a678 <rhash_md4_process_block+0x85c>
   1a0b0:	e0837007 	add	r7, r3, r7
   1a0b4:	e1a07ee7 	ror	r7, r7, #29
   1a0b8:	e1863005 	orr	r3, r6, r5
   1a0bc:	e0032007 	and	r2, r3, r7
   1a0c0:	e0063005 	and	r3, r6, r5
   1a0c4:	e1822003 	orr	r2, r2, r3
   1a0c8:	e51b301c 	ldr	r3, [fp, #-28]
   1a0cc:	e2833010 	add	r3, r3, #16
   1a0d0:	e5933000 	ldr	r3, [r3]
   1a0d4:	e0823003 	add	r3, r2, r3
   1a0d8:	e0833004 	add	r3, r3, r4
   1a0dc:	e59f4594 	ldr	r4, [pc, #1428]	; 1a678 <rhash_md4_process_block+0x85c>
   1a0e0:	e0834004 	add	r4, r3, r4
   1a0e4:	e1a04de4 	ror	r4, r4, #27
   1a0e8:	e1873006 	orr	r3, r7, r6
   1a0ec:	e0032004 	and	r2, r3, r4
   1a0f0:	e0073006 	and	r3, r7, r6
   1a0f4:	e1822003 	orr	r2, r2, r3
   1a0f8:	e51b301c 	ldr	r3, [fp, #-28]
   1a0fc:	e2833020 	add	r3, r3, #32
   1a100:	e5933000 	ldr	r3, [r3]
   1a104:	e0823003 	add	r3, r2, r3
   1a108:	e0833005 	add	r3, r3, r5
   1a10c:	e59f5564 	ldr	r5, [pc, #1380]	; 1a678 <rhash_md4_process_block+0x85c>
   1a110:	e0835005 	add	r5, r3, r5
   1a114:	e1a05be5 	ror	r5, r5, #23
   1a118:	e1843007 	orr	r3, r4, r7
   1a11c:	e0032005 	and	r2, r3, r5
   1a120:	e0043007 	and	r3, r4, r7
   1a124:	e1822003 	orr	r2, r2, r3
   1a128:	e51b301c 	ldr	r3, [fp, #-28]
   1a12c:	e2833030 	add	r3, r3, #48	; 0x30
   1a130:	e5933000 	ldr	r3, [r3]
   1a134:	e0823003 	add	r3, r2, r3
   1a138:	e0833006 	add	r3, r3, r6
   1a13c:	e59f6534 	ldr	r6, [pc, #1332]	; 1a678 <rhash_md4_process_block+0x85c>
   1a140:	e0836006 	add	r6, r3, r6
   1a144:	e1a069e6 	ror	r6, r6, #19
   1a148:	e1853004 	orr	r3, r5, r4
   1a14c:	e0032006 	and	r2, r3, r6
   1a150:	e0053004 	and	r3, r5, r4
   1a154:	e1822003 	orr	r2, r2, r3
   1a158:	e51b301c 	ldr	r3, [fp, #-28]
   1a15c:	e2833004 	add	r3, r3, #4
   1a160:	e5933000 	ldr	r3, [r3]
   1a164:	e0823003 	add	r3, r2, r3
   1a168:	e0833007 	add	r3, r3, r7
   1a16c:	e59f7504 	ldr	r7, [pc, #1284]	; 1a678 <rhash_md4_process_block+0x85c>
   1a170:	e0837007 	add	r7, r3, r7
   1a174:	e1a07ee7 	ror	r7, r7, #29
   1a178:	e1863005 	orr	r3, r6, r5
   1a17c:	e0032007 	and	r2, r3, r7
   1a180:	e0063005 	and	r3, r6, r5
   1a184:	e1822003 	orr	r2, r2, r3
   1a188:	e51b301c 	ldr	r3, [fp, #-28]
   1a18c:	e2833014 	add	r3, r3, #20
   1a190:	e5933000 	ldr	r3, [r3]
   1a194:	e0823003 	add	r3, r2, r3
   1a198:	e0833004 	add	r3, r3, r4
   1a19c:	e59f44d4 	ldr	r4, [pc, #1236]	; 1a678 <rhash_md4_process_block+0x85c>
   1a1a0:	e0834004 	add	r4, r3, r4
   1a1a4:	e1a04de4 	ror	r4, r4, #27
   1a1a8:	e1873006 	orr	r3, r7, r6
   1a1ac:	e0032004 	and	r2, r3, r4
   1a1b0:	e0073006 	and	r3, r7, r6
   1a1b4:	e1822003 	orr	r2, r2, r3
   1a1b8:	e51b301c 	ldr	r3, [fp, #-28]
   1a1bc:	e2833024 	add	r3, r3, #36	; 0x24
   1a1c0:	e5933000 	ldr	r3, [r3]
   1a1c4:	e0823003 	add	r3, r2, r3
   1a1c8:	e0833005 	add	r3, r3, r5
   1a1cc:	e59f54a4 	ldr	r5, [pc, #1188]	; 1a678 <rhash_md4_process_block+0x85c>
   1a1d0:	e0835005 	add	r5, r3, r5
   1a1d4:	e1a05be5 	ror	r5, r5, #23
   1a1d8:	e1843007 	orr	r3, r4, r7
   1a1dc:	e0032005 	and	r2, r3, r5
   1a1e0:	e0043007 	and	r3, r4, r7
   1a1e4:	e1822003 	orr	r2, r2, r3
   1a1e8:	e51b301c 	ldr	r3, [fp, #-28]
   1a1ec:	e2833034 	add	r3, r3, #52	; 0x34
   1a1f0:	e5933000 	ldr	r3, [r3]
   1a1f4:	e0823003 	add	r3, r2, r3
   1a1f8:	e0833006 	add	r3, r3, r6
   1a1fc:	e59f6474 	ldr	r6, [pc, #1140]	; 1a678 <rhash_md4_process_block+0x85c>
   1a200:	e0836006 	add	r6, r3, r6
   1a204:	e1a069e6 	ror	r6, r6, #19
   1a208:	e1853004 	orr	r3, r5, r4
   1a20c:	e0032006 	and	r2, r3, r6
   1a210:	e0053004 	and	r3, r5, r4
   1a214:	e1822003 	orr	r2, r2, r3
   1a218:	e51b301c 	ldr	r3, [fp, #-28]
   1a21c:	e2833008 	add	r3, r3, #8
   1a220:	e5933000 	ldr	r3, [r3]
   1a224:	e0823003 	add	r3, r2, r3
   1a228:	e0833007 	add	r3, r3, r7
   1a22c:	e59f7444 	ldr	r7, [pc, #1092]	; 1a678 <rhash_md4_process_block+0x85c>
   1a230:	e0837007 	add	r7, r3, r7
   1a234:	e1a07ee7 	ror	r7, r7, #29
   1a238:	e1863005 	orr	r3, r6, r5
   1a23c:	e0032007 	and	r2, r3, r7
   1a240:	e0063005 	and	r3, r6, r5
   1a244:	e1822003 	orr	r2, r2, r3
   1a248:	e51b301c 	ldr	r3, [fp, #-28]
   1a24c:	e2833018 	add	r3, r3, #24
   1a250:	e5933000 	ldr	r3, [r3]
   1a254:	e0823003 	add	r3, r2, r3
   1a258:	e0833004 	add	r3, r3, r4
   1a25c:	e59f4414 	ldr	r4, [pc, #1044]	; 1a678 <rhash_md4_process_block+0x85c>
   1a260:	e0834004 	add	r4, r3, r4
   1a264:	e1a04de4 	ror	r4, r4, #27
   1a268:	e1873006 	orr	r3, r7, r6
   1a26c:	e0032004 	and	r2, r3, r4
   1a270:	e0073006 	and	r3, r7, r6
   1a274:	e1822003 	orr	r2, r2, r3
   1a278:	e51b301c 	ldr	r3, [fp, #-28]
   1a27c:	e2833028 	add	r3, r3, #40	; 0x28
   1a280:	e5933000 	ldr	r3, [r3]
   1a284:	e0823003 	add	r3, r2, r3
   1a288:	e0833005 	add	r3, r3, r5
   1a28c:	e59f53e4 	ldr	r5, [pc, #996]	; 1a678 <rhash_md4_process_block+0x85c>
   1a290:	e0835005 	add	r5, r3, r5
   1a294:	e1a05be5 	ror	r5, r5, #23
   1a298:	e1843007 	orr	r3, r4, r7
   1a29c:	e0032005 	and	r2, r3, r5
   1a2a0:	e0043007 	and	r3, r4, r7
   1a2a4:	e1822003 	orr	r2, r2, r3
   1a2a8:	e51b301c 	ldr	r3, [fp, #-28]
   1a2ac:	e2833038 	add	r3, r3, #56	; 0x38
   1a2b0:	e5933000 	ldr	r3, [r3]
   1a2b4:	e0823003 	add	r3, r2, r3
   1a2b8:	e0833006 	add	r3, r3, r6
   1a2bc:	e59f63b4 	ldr	r6, [pc, #948]	; 1a678 <rhash_md4_process_block+0x85c>
   1a2c0:	e0836006 	add	r6, r3, r6
   1a2c4:	e1a069e6 	ror	r6, r6, #19
   1a2c8:	e1853004 	orr	r3, r5, r4
   1a2cc:	e0032006 	and	r2, r3, r6
   1a2d0:	e0053004 	and	r3, r5, r4
   1a2d4:	e1822003 	orr	r2, r2, r3
   1a2d8:	e51b301c 	ldr	r3, [fp, #-28]
   1a2dc:	e283300c 	add	r3, r3, #12
   1a2e0:	e5933000 	ldr	r3, [r3]
   1a2e4:	e0823003 	add	r3, r2, r3
   1a2e8:	e0833007 	add	r3, r3, r7
   1a2ec:	e59f7384 	ldr	r7, [pc, #900]	; 1a678 <rhash_md4_process_block+0x85c>
   1a2f0:	e0837007 	add	r7, r3, r7
   1a2f4:	e1a07ee7 	ror	r7, r7, #29
   1a2f8:	e1863005 	orr	r3, r6, r5
   1a2fc:	e0032007 	and	r2, r3, r7
   1a300:	e0063005 	and	r3, r6, r5
   1a304:	e1822003 	orr	r2, r2, r3
   1a308:	e51b301c 	ldr	r3, [fp, #-28]
   1a30c:	e283301c 	add	r3, r3, #28
   1a310:	e5933000 	ldr	r3, [r3]
   1a314:	e0823003 	add	r3, r2, r3
   1a318:	e0833004 	add	r3, r3, r4
   1a31c:	e59f4354 	ldr	r4, [pc, #852]	; 1a678 <rhash_md4_process_block+0x85c>
   1a320:	e0834004 	add	r4, r3, r4
   1a324:	e1a04de4 	ror	r4, r4, #27
   1a328:	e1873006 	orr	r3, r7, r6
   1a32c:	e0032004 	and	r2, r3, r4
   1a330:	e0073006 	and	r3, r7, r6
   1a334:	e1822003 	orr	r2, r2, r3
   1a338:	e51b301c 	ldr	r3, [fp, #-28]
   1a33c:	e283302c 	add	r3, r3, #44	; 0x2c
   1a340:	e5933000 	ldr	r3, [r3]
   1a344:	e0823003 	add	r3, r2, r3
   1a348:	e0833005 	add	r3, r3, r5
   1a34c:	e59f5324 	ldr	r5, [pc, #804]	; 1a678 <rhash_md4_process_block+0x85c>
   1a350:	e0835005 	add	r5, r3, r5
   1a354:	e1a05be5 	ror	r5, r5, #23
   1a358:	e1843007 	orr	r3, r4, r7
   1a35c:	e0032005 	and	r2, r3, r5
   1a360:	e0043007 	and	r3, r4, r7
   1a364:	e1822003 	orr	r2, r2, r3
   1a368:	e51b301c 	ldr	r3, [fp, #-28]
   1a36c:	e283303c 	add	r3, r3, #60	; 0x3c
   1a370:	e5933000 	ldr	r3, [r3]
   1a374:	e0823003 	add	r3, r2, r3
   1a378:	e0833006 	add	r3, r3, r6
   1a37c:	e59f62f4 	ldr	r6, [pc, #756]	; 1a678 <rhash_md4_process_block+0x85c>
   1a380:	e0836006 	add	r6, r3, r6
   1a384:	e1a069e6 	ror	r6, r6, #19
   1a388:	e0263005 	eor	r3, r6, r5
   1a38c:	e0232004 	eor	r2, r3, r4
   1a390:	e51b301c 	ldr	r3, [fp, #-28]
   1a394:	e5933000 	ldr	r3, [r3]
   1a398:	e0823003 	add	r3, r2, r3
   1a39c:	e0833007 	add	r3, r3, r7
   1a3a0:	e59f72d4 	ldr	r7, [pc, #724]	; 1a67c <rhash_md4_process_block+0x860>
   1a3a4:	e0837007 	add	r7, r3, r7
   1a3a8:	e1a07ee7 	ror	r7, r7, #29
   1a3ac:	e0273006 	eor	r3, r7, r6
   1a3b0:	e0232005 	eor	r2, r3, r5
   1a3b4:	e51b301c 	ldr	r3, [fp, #-28]
   1a3b8:	e2833020 	add	r3, r3, #32
   1a3bc:	e5933000 	ldr	r3, [r3]
   1a3c0:	e0823003 	add	r3, r2, r3
   1a3c4:	e0833004 	add	r3, r3, r4
   1a3c8:	e59f42ac 	ldr	r4, [pc, #684]	; 1a67c <rhash_md4_process_block+0x860>
   1a3cc:	e0834004 	add	r4, r3, r4
   1a3d0:	e1a04be4 	ror	r4, r4, #23
   1a3d4:	e0243007 	eor	r3, r4, r7
   1a3d8:	e0232006 	eor	r2, r3, r6
   1a3dc:	e51b301c 	ldr	r3, [fp, #-28]
   1a3e0:	e2833010 	add	r3, r3, #16
   1a3e4:	e5933000 	ldr	r3, [r3]
   1a3e8:	e0823003 	add	r3, r2, r3
   1a3ec:	e0833005 	add	r3, r3, r5
   1a3f0:	e59f5284 	ldr	r5, [pc, #644]	; 1a67c <rhash_md4_process_block+0x860>
   1a3f4:	e0835005 	add	r5, r3, r5
   1a3f8:	e1a05ae5 	ror	r5, r5, #21
   1a3fc:	e0253004 	eor	r3, r5, r4
   1a400:	e0232007 	eor	r2, r3, r7
   1a404:	e51b301c 	ldr	r3, [fp, #-28]
   1a408:	e2833030 	add	r3, r3, #48	; 0x30
   1a40c:	e5933000 	ldr	r3, [r3]
   1a410:	e0823003 	add	r3, r2, r3
   1a414:	e0833006 	add	r3, r3, r6
   1a418:	e59f625c 	ldr	r6, [pc, #604]	; 1a67c <rhash_md4_process_block+0x860>
   1a41c:	e0836006 	add	r6, r3, r6
   1a420:	e1a068e6 	ror	r6, r6, #17
   1a424:	e0263005 	eor	r3, r6, r5
   1a428:	e0232004 	eor	r2, r3, r4
   1a42c:	e51b301c 	ldr	r3, [fp, #-28]
   1a430:	e2833008 	add	r3, r3, #8
   1a434:	e5933000 	ldr	r3, [r3]
   1a438:	e0823003 	add	r3, r2, r3
   1a43c:	e0833007 	add	r3, r3, r7
   1a440:	e59f7234 	ldr	r7, [pc, #564]	; 1a67c <rhash_md4_process_block+0x860>
   1a444:	e0837007 	add	r7, r3, r7
   1a448:	e1a07ee7 	ror	r7, r7, #29
   1a44c:	e0273006 	eor	r3, r7, r6
   1a450:	e0232005 	eor	r2, r3, r5
   1a454:	e51b301c 	ldr	r3, [fp, #-28]
   1a458:	e2833028 	add	r3, r3, #40	; 0x28
   1a45c:	e5933000 	ldr	r3, [r3]
   1a460:	e0823003 	add	r3, r2, r3
   1a464:	e0833004 	add	r3, r3, r4
   1a468:	e59f420c 	ldr	r4, [pc, #524]	; 1a67c <rhash_md4_process_block+0x860>
   1a46c:	e0834004 	add	r4, r3, r4
   1a470:	e1a04be4 	ror	r4, r4, #23
   1a474:	e0243007 	eor	r3, r4, r7
   1a478:	e0232006 	eor	r2, r3, r6
   1a47c:	e51b301c 	ldr	r3, [fp, #-28]
   1a480:	e2833018 	add	r3, r3, #24
   1a484:	e5933000 	ldr	r3, [r3]
   1a488:	e0823003 	add	r3, r2, r3
   1a48c:	e0833005 	add	r3, r3, r5
   1a490:	e59f51e4 	ldr	r5, [pc, #484]	; 1a67c <rhash_md4_process_block+0x860>
   1a494:	e0835005 	add	r5, r3, r5
   1a498:	e1a05ae5 	ror	r5, r5, #21
   1a49c:	e0253004 	eor	r3, r5, r4
   1a4a0:	e0232007 	eor	r2, r3, r7
   1a4a4:	e51b301c 	ldr	r3, [fp, #-28]
   1a4a8:	e2833038 	add	r3, r3, #56	; 0x38
   1a4ac:	e5933000 	ldr	r3, [r3]
   1a4b0:	e0823003 	add	r3, r2, r3
   1a4b4:	e0833006 	add	r3, r3, r6
   1a4b8:	e59f61bc 	ldr	r6, [pc, #444]	; 1a67c <rhash_md4_process_block+0x860>
   1a4bc:	e0836006 	add	r6, r3, r6
   1a4c0:	e1a068e6 	ror	r6, r6, #17
   1a4c4:	e0263005 	eor	r3, r6, r5
   1a4c8:	e0232004 	eor	r2, r3, r4
   1a4cc:	e51b301c 	ldr	r3, [fp, #-28]
   1a4d0:	e2833004 	add	r3, r3, #4
   1a4d4:	e5933000 	ldr	r3, [r3]
   1a4d8:	e0823003 	add	r3, r2, r3
   1a4dc:	e0833007 	add	r3, r3, r7
   1a4e0:	e59f7194 	ldr	r7, [pc, #404]	; 1a67c <rhash_md4_process_block+0x860>
   1a4e4:	e0837007 	add	r7, r3, r7
   1a4e8:	e1a07ee7 	ror	r7, r7, #29
   1a4ec:	e0273006 	eor	r3, r7, r6
   1a4f0:	e0232005 	eor	r2, r3, r5
   1a4f4:	e51b301c 	ldr	r3, [fp, #-28]
   1a4f8:	e2833024 	add	r3, r3, #36	; 0x24
   1a4fc:	e5933000 	ldr	r3, [r3]
   1a500:	e0823003 	add	r3, r2, r3
   1a504:	e0833004 	add	r3, r3, r4
   1a508:	e59f416c 	ldr	r4, [pc, #364]	; 1a67c <rhash_md4_process_block+0x860>
   1a50c:	e0834004 	add	r4, r3, r4
   1a510:	e1a04be4 	ror	r4, r4, #23
   1a514:	e0243007 	eor	r3, r4, r7
   1a518:	e0232006 	eor	r2, r3, r6
   1a51c:	e51b301c 	ldr	r3, [fp, #-28]
   1a520:	e2833014 	add	r3, r3, #20
   1a524:	e5933000 	ldr	r3, [r3]
   1a528:	e0823003 	add	r3, r2, r3
   1a52c:	e0833005 	add	r3, r3, r5
   1a530:	e59f5144 	ldr	r5, [pc, #324]	; 1a67c <rhash_md4_process_block+0x860>
   1a534:	e0835005 	add	r5, r3, r5
   1a538:	e1a05ae5 	ror	r5, r5, #21
   1a53c:	e0253004 	eor	r3, r5, r4
   1a540:	e0232007 	eor	r2, r3, r7
   1a544:	e51b301c 	ldr	r3, [fp, #-28]
   1a548:	e2833034 	add	r3, r3, #52	; 0x34
   1a54c:	e5933000 	ldr	r3, [r3]
   1a550:	e0823003 	add	r3, r2, r3
   1a554:	e0833006 	add	r3, r3, r6
   1a558:	e59f611c 	ldr	r6, [pc, #284]	; 1a67c <rhash_md4_process_block+0x860>
   1a55c:	e0836006 	add	r6, r3, r6
   1a560:	e1a068e6 	ror	r6, r6, #17
   1a564:	e0263005 	eor	r3, r6, r5
   1a568:	e0232004 	eor	r2, r3, r4
   1a56c:	e51b301c 	ldr	r3, [fp, #-28]
   1a570:	e283300c 	add	r3, r3, #12
   1a574:	e5933000 	ldr	r3, [r3]
   1a578:	e0823003 	add	r3, r2, r3
   1a57c:	e0833007 	add	r3, r3, r7
   1a580:	e59f70f4 	ldr	r7, [pc, #244]	; 1a67c <rhash_md4_process_block+0x860>
   1a584:	e0837007 	add	r7, r3, r7
   1a588:	e1a07ee7 	ror	r7, r7, #29
   1a58c:	e0273006 	eor	r3, r7, r6
   1a590:	e0232005 	eor	r2, r3, r5
   1a594:	e51b301c 	ldr	r3, [fp, #-28]
   1a598:	e283302c 	add	r3, r3, #44	; 0x2c
   1a59c:	e5933000 	ldr	r3, [r3]
   1a5a0:	e0823003 	add	r3, r2, r3
   1a5a4:	e0833004 	add	r3, r3, r4
   1a5a8:	e59f40cc 	ldr	r4, [pc, #204]	; 1a67c <rhash_md4_process_block+0x860>
   1a5ac:	e0834004 	add	r4, r3, r4
   1a5b0:	e1a04be4 	ror	r4, r4, #23
   1a5b4:	e0243007 	eor	r3, r4, r7
   1a5b8:	e0232006 	eor	r2, r3, r6
   1a5bc:	e51b301c 	ldr	r3, [fp, #-28]
   1a5c0:	e283301c 	add	r3, r3, #28
   1a5c4:	e5933000 	ldr	r3, [r3]
   1a5c8:	e0823003 	add	r3, r2, r3
   1a5cc:	e0833005 	add	r3, r3, r5
   1a5d0:	e59f50a4 	ldr	r5, [pc, #164]	; 1a67c <rhash_md4_process_block+0x860>
   1a5d4:	e0835005 	add	r5, r3, r5
   1a5d8:	e1a05ae5 	ror	r5, r5, #21
   1a5dc:	e0253004 	eor	r3, r5, r4
   1a5e0:	e0232007 	eor	r2, r3, r7
   1a5e4:	e51b301c 	ldr	r3, [fp, #-28]
   1a5e8:	e283303c 	add	r3, r3, #60	; 0x3c
   1a5ec:	e5933000 	ldr	r3, [r3]
   1a5f0:	e0823003 	add	r3, r2, r3
   1a5f4:	e0833006 	add	r3, r3, r6
   1a5f8:	e59f607c 	ldr	r6, [pc, #124]	; 1a67c <rhash_md4_process_block+0x860>
   1a5fc:	e0836006 	add	r6, r3, r6
   1a600:	e1a068e6 	ror	r6, r6, #17
   1a604:	e51b3018 	ldr	r3, [fp, #-24]
   1a608:	e5933000 	ldr	r3, [r3]
   1a60c:	e0832007 	add	r2, r3, r7
   1a610:	e51b3018 	ldr	r3, [fp, #-24]
   1a614:	e5832000 	str	r2, [r3]
   1a618:	e51b3018 	ldr	r3, [fp, #-24]
   1a61c:	e2833004 	add	r3, r3, #4
   1a620:	e51b2018 	ldr	r2, [fp, #-24]
   1a624:	e2822004 	add	r2, r2, #4
   1a628:	e5922000 	ldr	r2, [r2]
   1a62c:	e0822006 	add	r2, r2, r6
   1a630:	e5832000 	str	r2, [r3]
   1a634:	e51b3018 	ldr	r3, [fp, #-24]
   1a638:	e2833008 	add	r3, r3, #8
   1a63c:	e51b2018 	ldr	r2, [fp, #-24]
   1a640:	e2822008 	add	r2, r2, #8
   1a644:	e5922000 	ldr	r2, [r2]
   1a648:	e0822005 	add	r2, r2, r5
   1a64c:	e5832000 	str	r2, [r3]
   1a650:	e51b3018 	ldr	r3, [fp, #-24]
   1a654:	e283300c 	add	r3, r3, #12
   1a658:	e51b2018 	ldr	r2, [fp, #-24]
   1a65c:	e282200c 	add	r2, r2, #12
   1a660:	e5922000 	ldr	r2, [r2]
   1a664:	e0822004 	add	r2, r2, r4
   1a668:	e5832000 	str	r2, [r3]
   1a66c:	e24bd010 	sub	sp, fp, #16
   1a670:	e8bd08f0 	pop	{r4, r5, r6, r7, fp}
   1a674:	e12fff1e 	bx	lr
   1a678:	5a827999 	.word	0x5a827999
   1a67c:	6ed9eba1 	.word	0x6ed9eba1

0001a680 <rhash_md4_update>:
   1a680:	e92d4800 	push	{fp, lr}
   1a684:	e28db004 	add	fp, sp, #4
   1a688:	e24dd020 	sub	sp, sp, #32
   1a68c:	e50b0018 	str	r0, [fp, #-24]
   1a690:	e50b101c 	str	r1, [fp, #-28]
   1a694:	e50b2020 	str	r2, [fp, #-32]
   1a698:	e51b3018 	ldr	r3, [fp, #-24]
   1a69c:	e1c325d0 	ldrd	r2, [r3, #80]	; 0x50
   1a6a0:	e1a03002 	mov	r3, r2
   1a6a4:	e203303f 	and	r3, r3, #63	; 0x3f
   1a6a8:	e50b300c 	str	r3, [fp, #-12]
   1a6ac:	e51b3018 	ldr	r3, [fp, #-24]
   1a6b0:	e1c305d0 	ldrd	r0, [r3, #80]	; 0x50
   1a6b4:	e51bc020 	ldr	ip, [fp, #-32]
   1a6b8:	e1a0200c 	mov	r2, ip
   1a6bc:	e3a03000 	mov	r3, #0
   1a6c0:	e0922000 	adds	r2, r2, r0
   1a6c4:	e0a33001 	adc	r3, r3, r1
   1a6c8:	e51b1018 	ldr	r1, [fp, #-24]
   1a6cc:	e1c125f0 	strd	r2, [r1, #80]	; 0x50
   1a6d0:	e51b300c 	ldr	r3, [fp, #-12]
   1a6d4:	e3530000 	cmp	r3, #0
   1a6d8:	0a000042 	beq	1a7e8 <rhash_md4_update+0x168>
   1a6dc:	e51b300c 	ldr	r3, [fp, #-12]
   1a6e0:	e2633040 	rsb	r3, r3, #64	; 0x40
   1a6e4:	e50b3010 	str	r3, [fp, #-16]
   1a6e8:	e51b3018 	ldr	r3, [fp, #-24]
   1a6ec:	e2833010 	add	r3, r3, #16
   1a6f0:	e1a02003 	mov	r2, r3
   1a6f4:	e51b300c 	ldr	r3, [fp, #-12]
   1a6f8:	e0821003 	add	r1, r2, r3
   1a6fc:	e51b201c 	ldr	r2, [fp, #-28]
   1a700:	e51b0010 	ldr	r0, [fp, #-16]
   1a704:	e51b3020 	ldr	r3, [fp, #-32]
   1a708:	e1500003 	cmp	r0, r3
   1a70c:	31a03000 	movcc	r3, r0
   1a710:	e1a00001 	mov	r0, r1
   1a714:	e1a01002 	mov	r1, r2
   1a718:	e1a02003 	mov	r2, r3
   1a71c:	ebffb915 	bl	8b78 <_init+0x74>
   1a720:	e51b2020 	ldr	r2, [fp, #-32]
   1a724:	e51b3010 	ldr	r3, [fp, #-16]
   1a728:	e1520003 	cmp	r2, r3
   1a72c:	3a00003f 	bcc	1a830 <rhash_md4_update+0x1b0>
   1a730:	e51b2018 	ldr	r2, [fp, #-24]
   1a734:	e51b3018 	ldr	r3, [fp, #-24]
   1a738:	e2833010 	add	r3, r3, #16
   1a73c:	e1a00002 	mov	r0, r2
   1a740:	e1a01003 	mov	r1, r3
   1a744:	ebfffdb4 	bl	19e1c <rhash_md4_process_block>
   1a748:	e51b201c 	ldr	r2, [fp, #-28]
   1a74c:	e51b3010 	ldr	r3, [fp, #-16]
   1a750:	e0823003 	add	r3, r2, r3
   1a754:	e50b301c 	str	r3, [fp, #-28]
   1a758:	e51b2020 	ldr	r2, [fp, #-32]
   1a75c:	e51b3010 	ldr	r3, [fp, #-16]
   1a760:	e0633002 	rsb	r3, r3, r2
   1a764:	e50b3020 	str	r3, [fp, #-32]
   1a768:	ea00001e 	b	1a7e8 <rhash_md4_update+0x168>
   1a76c:	e51b301c 	ldr	r3, [fp, #-28]
   1a770:	e2033003 	and	r3, r3, #3
   1a774:	e3530000 	cmp	r3, #0
   1a778:	1a000002 	bne	1a788 <rhash_md4_update+0x108>
   1a77c:	e51b301c 	ldr	r3, [fp, #-28]
   1a780:	e50b3008 	str	r3, [fp, #-8]
   1a784:	ea00000d 	b	1a7c0 <rhash_md4_update+0x140>
   1a788:	e51b3018 	ldr	r3, [fp, #-24]
   1a78c:	e2833010 	add	r3, r3, #16
   1a790:	e1a02003 	mov	r2, r3
   1a794:	e51b301c 	ldr	r3, [fp, #-28]
   1a798:	e1a01002 	mov	r1, r2
   1a79c:	e1a02003 	mov	r2, r3
   1a7a0:	e3a03040 	mov	r3, #64	; 0x40
   1a7a4:	e1a00001 	mov	r0, r1
   1a7a8:	e1a01002 	mov	r1, r2
   1a7ac:	e1a02003 	mov	r2, r3
   1a7b0:	ebffb8f0 	bl	8b78 <_init+0x74>
   1a7b4:	e51b3018 	ldr	r3, [fp, #-24]
   1a7b8:	e2833010 	add	r3, r3, #16
   1a7bc:	e50b3008 	str	r3, [fp, #-8]
   1a7c0:	e51b3018 	ldr	r3, [fp, #-24]
   1a7c4:	e1a00003 	mov	r0, r3
   1a7c8:	e51b1008 	ldr	r1, [fp, #-8]
   1a7cc:	ebfffd92 	bl	19e1c <rhash_md4_process_block>
   1a7d0:	e51b301c 	ldr	r3, [fp, #-28]
   1a7d4:	e2833040 	add	r3, r3, #64	; 0x40
   1a7d8:	e50b301c 	str	r3, [fp, #-28]
   1a7dc:	e51b3020 	ldr	r3, [fp, #-32]
   1a7e0:	e2433040 	sub	r3, r3, #64	; 0x40
   1a7e4:	e50b3020 	str	r3, [fp, #-32]
   1a7e8:	e51b3020 	ldr	r3, [fp, #-32]
   1a7ec:	e353003f 	cmp	r3, #63	; 0x3f
   1a7f0:	8affffdd 	bhi	1a76c <rhash_md4_update+0xec>
   1a7f4:	e51b3020 	ldr	r3, [fp, #-32]
   1a7f8:	e3530000 	cmp	r3, #0
   1a7fc:	0a00000c 	beq	1a834 <rhash_md4_update+0x1b4>
   1a800:	e51b3018 	ldr	r3, [fp, #-24]
   1a804:	e2833010 	add	r3, r3, #16
   1a808:	e1a02003 	mov	r2, r3
   1a80c:	e51b301c 	ldr	r3, [fp, #-28]
   1a810:	e1a01002 	mov	r1, r2
   1a814:	e1a02003 	mov	r2, r3
   1a818:	e51b3020 	ldr	r3, [fp, #-32]
   1a81c:	e1a00001 	mov	r0, r1
   1a820:	e1a01002 	mov	r1, r2
   1a824:	e1a02003 	mov	r2, r3
   1a828:	ebffb8d2 	bl	8b78 <_init+0x74>
   1a82c:	ea000000 	b	1a834 <rhash_md4_update+0x1b4>
   1a830:	e1a00000 	nop			; (mov r0, r0)
   1a834:	e24bd004 	sub	sp, fp, #4
   1a838:	e8bd8800 	pop	{fp, pc}

0001a83c <rhash_md4_final>:
   1a83c:	e92d4830 	push	{r4, r5, fp, lr}
   1a840:	e28db00c 	add	fp, sp, #12
   1a844:	e24dd010 	sub	sp, sp, #16
   1a848:	e50b0018 	str	r0, [fp, #-24]
   1a84c:	e50b101c 	str	r1, [fp, #-28]
   1a850:	e51b3018 	ldr	r3, [fp, #-24]
   1a854:	e1c325d0 	ldrd	r2, [r3, #80]	; 0x50
   1a858:	e1a03002 	mov	r3, r2
   1a85c:	e203303f 	and	r3, r3, #63	; 0x3f
   1a860:	e1a03123 	lsr	r3, r3, #2
   1a864:	e50b3010 	str	r3, [fp, #-16]
   1a868:	e51b3018 	ldr	r3, [fp, #-24]
   1a86c:	e1c325d0 	ldrd	r2, [r3, #80]	; 0x50
   1a870:	e1a03002 	mov	r3, r2
   1a874:	e2033003 	and	r3, r3, #3
   1a878:	e1a03183 	lsl	r3, r3, #3
   1a87c:	e50b3014 	str	r3, [fp, #-20]
   1a880:	e51b3018 	ldr	r3, [fp, #-24]
   1a884:	e51b2010 	ldr	r2, [fp, #-16]
   1a888:	e2822004 	add	r2, r2, #4
   1a88c:	e7932102 	ldr	r2, [r3, r2, lsl #2]
   1a890:	e51b3014 	ldr	r3, [fp, #-20]
   1a894:	e3e01000 	mvn	r1, #0
   1a898:	e1a03311 	lsl	r3, r1, r3
   1a89c:	e1e03003 	mvn	r3, r3
   1a8a0:	e0021003 	and	r1, r2, r3
   1a8a4:	e51b3018 	ldr	r3, [fp, #-24]
   1a8a8:	e51b2010 	ldr	r2, [fp, #-16]
   1a8ac:	e2822004 	add	r2, r2, #4
   1a8b0:	e7831102 	str	r1, [r3, r2, lsl #2]
   1a8b4:	e51b3010 	ldr	r3, [fp, #-16]
   1a8b8:	e51b2018 	ldr	r2, [fp, #-24]
   1a8bc:	e2831004 	add	r1, r3, #4
   1a8c0:	e7921101 	ldr	r1, [r2, r1, lsl #2]
   1a8c4:	e51b2014 	ldr	r2, [fp, #-20]
   1a8c8:	e3a00080 	mov	r0, #128	; 0x80
   1a8cc:	e1a02210 	lsl	r2, r0, r2
   1a8d0:	e0211002 	eor	r1, r1, r2
   1a8d4:	e51b2018 	ldr	r2, [fp, #-24]
   1a8d8:	e2833004 	add	r3, r3, #4
   1a8dc:	e7821103 	str	r1, [r2, r3, lsl #2]
   1a8e0:	e51b3010 	ldr	r3, [fp, #-16]
   1a8e4:	e2833001 	add	r3, r3, #1
   1a8e8:	e50b3010 	str	r3, [fp, #-16]
   1a8ec:	e51b3010 	ldr	r3, [fp, #-16]
   1a8f0:	e353000e 	cmp	r3, #14
   1a8f4:	9a00001c 	bls	1a96c <rhash_md4_final+0x130>
   1a8f8:	ea000007 	b	1a91c <rhash_md4_final+0xe0>
   1a8fc:	e51b3018 	ldr	r3, [fp, #-24]
   1a900:	e51b2010 	ldr	r2, [fp, #-16]
   1a904:	e2822004 	add	r2, r2, #4
   1a908:	e3a01000 	mov	r1, #0
   1a90c:	e7831102 	str	r1, [r3, r2, lsl #2]
   1a910:	e51b3010 	ldr	r3, [fp, #-16]
   1a914:	e2833001 	add	r3, r3, #1
   1a918:	e50b3010 	str	r3, [fp, #-16]
   1a91c:	e51b3010 	ldr	r3, [fp, #-16]
   1a920:	e353000f 	cmp	r3, #15
   1a924:	9afffff4 	bls	1a8fc <rhash_md4_final+0xc0>
   1a928:	e51b2018 	ldr	r2, [fp, #-24]
   1a92c:	e51b3018 	ldr	r3, [fp, #-24]
   1a930:	e2833010 	add	r3, r3, #16
   1a934:	e1a00002 	mov	r0, r2
   1a938:	e1a01003 	mov	r1, r3
   1a93c:	ebfffd36 	bl	19e1c <rhash_md4_process_block>
   1a940:	e3a03000 	mov	r3, #0
   1a944:	e50b3010 	str	r3, [fp, #-16]
   1a948:	ea000007 	b	1a96c <rhash_md4_final+0x130>
   1a94c:	e51b3018 	ldr	r3, [fp, #-24]
   1a950:	e51b2010 	ldr	r2, [fp, #-16]
   1a954:	e2822004 	add	r2, r2, #4
   1a958:	e3a01000 	mov	r1, #0
   1a95c:	e7831102 	str	r1, [r3, r2, lsl #2]
   1a960:	e51b3010 	ldr	r3, [fp, #-16]
   1a964:	e2833001 	add	r3, r3, #1
   1a968:	e50b3010 	str	r3, [fp, #-16]
   1a96c:	e51b3010 	ldr	r3, [fp, #-16]
   1a970:	e353000d 	cmp	r3, #13
   1a974:	9afffff4 	bls	1a94c <rhash_md4_final+0x110>
   1a978:	e51b3018 	ldr	r3, [fp, #-24]
   1a97c:	e1c325d0 	ldrd	r2, [r3, #80]	; 0x50
   1a980:	e1a03002 	mov	r3, r2
   1a984:	e1a02183 	lsl	r2, r3, #3
   1a988:	e51b3018 	ldr	r3, [fp, #-24]
   1a98c:	e5832048 	str	r2, [r3, #72]	; 0x48
   1a990:	e51b3018 	ldr	r3, [fp, #-24]
   1a994:	e1c325d0 	ldrd	r2, [r3, #80]	; 0x50
   1a998:	e1a01183 	lsl	r1, r3, #3
   1a99c:	e1a04ea2 	lsr	r4, r2, #29
   1a9a0:	e1814004 	orr	r4, r1, r4
   1a9a4:	e1a05ea3 	lsr	r5, r3, #29
   1a9a8:	e1a02004 	mov	r2, r4
   1a9ac:	e51b3018 	ldr	r3, [fp, #-24]
   1a9b0:	e583204c 	str	r2, [r3, #76]	; 0x4c
   1a9b4:	e51b2018 	ldr	r2, [fp, #-24]
   1a9b8:	e51b3018 	ldr	r3, [fp, #-24]
   1a9bc:	e2833010 	add	r3, r3, #16
   1a9c0:	e1a00002 	mov	r0, r2
   1a9c4:	e1a01003 	mov	r1, r3
   1a9c8:	ebfffd13 	bl	19e1c <rhash_md4_process_block>
   1a9cc:	e51b301c 	ldr	r3, [fp, #-28]
   1a9d0:	e3530000 	cmp	r3, #0
   1a9d4:	0a000008 	beq	1a9fc <rhash_md4_final+0x1c0>
   1a9d8:	e51b201c 	ldr	r2, [fp, #-28]
   1a9dc:	e51b3018 	ldr	r3, [fp, #-24]
   1a9e0:	e1a01002 	mov	r1, r2
   1a9e4:	e1a02003 	mov	r2, r3
   1a9e8:	e3a03010 	mov	r3, #16
   1a9ec:	e1a00001 	mov	r0, r1
   1a9f0:	e1a01002 	mov	r1, r2
   1a9f4:	e1a02003 	mov	r2, r3
   1a9f8:	ebffb85e 	bl	8b78 <_init+0x74>
   1a9fc:	e24bd00c 	sub	sp, fp, #12
   1aa00:	e8bd8830 	pop	{r4, r5, fp, pc}

0001aa04 <rhash_ed2k_init>:
   1aa04:	e92d4800 	push	{fp, lr}
   1aa08:	e28db004 	add	fp, sp, #4
   1aa0c:	e24dd008 	sub	sp, sp, #8
   1aa10:	e50b0008 	str	r0, [fp, #-8]
   1aa14:	e51b3008 	ldr	r3, [fp, #-8]
   1aa18:	e2833058 	add	r3, r3, #88	; 0x58
   1aa1c:	e1a00003 	mov	r0, r3
   1aa20:	ebfffce2 	bl	19db0 <rhash_md4_init>
   1aa24:	e51b3008 	ldr	r3, [fp, #-8]
   1aa28:	e1a00003 	mov	r0, r3
   1aa2c:	ebfffcdf 	bl	19db0 <rhash_md4_init>
   1aa30:	e51b3008 	ldr	r3, [fp, #-8]
   1aa34:	e3a02000 	mov	r2, #0
   1aa38:	e58320b0 	str	r2, [r3, #176]	; 0xb0
   1aa3c:	e24bd004 	sub	sp, fp, #4
   1aa40:	e8bd8800 	pop	{fp, pc}

0001aa44 <rhash_ed2k_update>:
   1aa44:	e92d4800 	push	{fp, lr}
   1aa48:	e28db004 	add	fp, sp, #4
   1aa4c:	e24dd028 	sub	sp, sp, #40	; 0x28
   1aa50:	e50b0020 	str	r0, [fp, #-32]
   1aa54:	e50b1024 	str	r1, [fp, #-36]	; 0x24
   1aa58:	e50b2028 	str	r2, [fp, #-40]	; 0x28
   1aa5c:	e51b3020 	ldr	r3, [fp, #-32]
   1aa60:	e1c325d0 	ldrd	r2, [r3, #80]	; 0x50
   1aa64:	e1a03002 	mov	r3, r2
   1aa68:	e2633725 	rsb	r3, r3, #9699328	; 0x940000
   1aa6c:	e2833a07 	add	r3, r3, #28672	; 0x7000
   1aa70:	e50b3008 	str	r3, [fp, #-8]
   1aa74:	ea000025 	b	1ab10 <rhash_ed2k_update+0xcc>
   1aa78:	e51b2028 	ldr	r2, [fp, #-40]	; 0x28
   1aa7c:	e51b3008 	ldr	r3, [fp, #-8]
   1aa80:	e1520003 	cmp	r2, r3
   1aa84:	1a000003 	bne	1aa98 <rhash_ed2k_update+0x54>
   1aa88:	e51b3020 	ldr	r3, [fp, #-32]
   1aa8c:	e59330b0 	ldr	r3, [r3, #176]	; 0xb0
   1aa90:	e3530000 	cmp	r3, #0
   1aa94:	1a000022 	bne	1ab24 <rhash_ed2k_update+0xe0>
   1aa98:	e51b3020 	ldr	r3, [fp, #-32]
   1aa9c:	e1a00003 	mov	r0, r3
   1aaa0:	e51b1024 	ldr	r1, [fp, #-36]	; 0x24
   1aaa4:	e51b2008 	ldr	r2, [fp, #-8]
   1aaa8:	ebfffef4 	bl	1a680 <rhash_md4_update>
   1aaac:	e51b2024 	ldr	r2, [fp, #-36]	; 0x24
   1aab0:	e51b3008 	ldr	r3, [fp, #-8]
   1aab4:	e0823003 	add	r3, r2, r3
   1aab8:	e50b3024 	str	r3, [fp, #-36]	; 0x24
   1aabc:	e51b2028 	ldr	r2, [fp, #-40]	; 0x28
   1aac0:	e51b3008 	ldr	r3, [fp, #-8]
   1aac4:	e0633002 	rsb	r3, r3, r2
   1aac8:	e50b3028 	str	r3, [fp, #-40]	; 0x28
   1aacc:	e59f307c 	ldr	r3, [pc, #124]	; 1ab50 <rhash_ed2k_update+0x10c>
   1aad0:	e50b3008 	str	r3, [fp, #-8]
   1aad4:	e51b2020 	ldr	r2, [fp, #-32]
   1aad8:	e24b3018 	sub	r3, fp, #24
   1aadc:	e1a00002 	mov	r0, r2
   1aae0:	e1a01003 	mov	r1, r3
   1aae4:	ebffff54 	bl	1a83c <rhash_md4_final>
   1aae8:	e51b3020 	ldr	r3, [fp, #-32]
   1aaec:	e2832058 	add	r2, r3, #88	; 0x58
   1aaf0:	e24b3018 	sub	r3, fp, #24
   1aaf4:	e1a00002 	mov	r0, r2
   1aaf8:	e1a01003 	mov	r1, r3
   1aafc:	e3a02010 	mov	r2, #16
   1ab00:	ebfffede 	bl	1a680 <rhash_md4_update>
   1ab04:	e51b3020 	ldr	r3, [fp, #-32]
   1ab08:	e1a00003 	mov	r0, r3
   1ab0c:	ebfffca7 	bl	19db0 <rhash_md4_init>
   1ab10:	e51b2028 	ldr	r2, [fp, #-40]	; 0x28
   1ab14:	e51b3008 	ldr	r3, [fp, #-8]
   1ab18:	e1520003 	cmp	r2, r3
   1ab1c:	2affffd5 	bcs	1aa78 <rhash_ed2k_update+0x34>
   1ab20:	ea000000 	b	1ab28 <rhash_ed2k_update+0xe4>
   1ab24:	e1a00000 	nop			; (mov r0, r0)
   1ab28:	e51b3028 	ldr	r3, [fp, #-40]	; 0x28
   1ab2c:	e3530000 	cmp	r3, #0
   1ab30:	0a000004 	beq	1ab48 <rhash_ed2k_update+0x104>
   1ab34:	e51b3020 	ldr	r3, [fp, #-32]
   1ab38:	e1a00003 	mov	r0, r3
   1ab3c:	e51b1024 	ldr	r1, [fp, #-36]	; 0x24
   1ab40:	e51b2028 	ldr	r2, [fp, #-40]	; 0x28
   1ab44:	ebfffecd 	bl	1a680 <rhash_md4_update>
   1ab48:	e24bd004 	sub	sp, fp, #4
   1ab4c:	e8bd8800 	pop	{fp, pc}
   1ab50:	00947000 	.word	0x00947000

0001ab54 <rhash_ed2k_final>:
   1ab54:	e92d4800 	push	{fp, lr}
   1ab58:	e28db004 	add	fp, sp, #4
   1ab5c:	e24dd018 	sub	sp, sp, #24
   1ab60:	e50b0018 	str	r0, [fp, #-24]
   1ab64:	e50b101c 	str	r1, [fp, #-28]
   1ab68:	e51b3018 	ldr	r3, [fp, #-24]
   1ab6c:	e1c32ad8 	ldrd	r2, [r3, #168]	; 0xa8
   1ab70:	e1921003 	orrs	r1, r2, r3
   1ab74:	0a000025 	beq	1ac10 <rhash_ed2k_final+0xbc>
   1ab78:	e51b3018 	ldr	r3, [fp, #-24]
   1ab7c:	e1c325d0 	ldrd	r2, [r3, #80]	; 0x50
   1ab80:	e1a03002 	mov	r3, r2
   1ab84:	e3530000 	cmp	r3, #0
   1ab88:	1a000003 	bne	1ab9c <rhash_ed2k_final+0x48>
   1ab8c:	e51b3018 	ldr	r3, [fp, #-24]
   1ab90:	e59330b0 	ldr	r3, [r3, #176]	; 0xb0
   1ab94:	e3530000 	cmp	r3, #0
   1ab98:	1a00000b 	bne	1abcc <rhash_ed2k_final+0x78>
   1ab9c:	e51b2018 	ldr	r2, [fp, #-24]
   1aba0:	e24b3014 	sub	r3, fp, #20
   1aba4:	e1a00002 	mov	r0, r2
   1aba8:	e1a01003 	mov	r1, r3
   1abac:	ebffff22 	bl	1a83c <rhash_md4_final>
   1abb0:	e51b3018 	ldr	r3, [fp, #-24]
   1abb4:	e2832058 	add	r2, r3, #88	; 0x58
   1abb8:	e24b3014 	sub	r3, fp, #20
   1abbc:	e1a00002 	mov	r0, r2
   1abc0:	e1a01003 	mov	r1, r3
   1abc4:	e3a02010 	mov	r2, #16
   1abc8:	ebfffeac 	bl	1a680 <rhash_md4_update>
   1abcc:	e51b3018 	ldr	r3, [fp, #-24]
   1abd0:	e2833058 	add	r3, r3, #88	; 0x58
   1abd4:	e1a00003 	mov	r0, r3
   1abd8:	e51b101c 	ldr	r1, [fp, #-28]
   1abdc:	ebffff16 	bl	1a83c <rhash_md4_final>
   1abe0:	e51b3018 	ldr	r3, [fp, #-24]
   1abe4:	e1a02003 	mov	r2, r3
   1abe8:	e51b3018 	ldr	r3, [fp, #-24]
   1abec:	e2833058 	add	r3, r3, #88	; 0x58
   1abf0:	e1a01002 	mov	r1, r2
   1abf4:	e1a02003 	mov	r2, r3
   1abf8:	e3a03010 	mov	r3, #16
   1abfc:	e1a00001 	mov	r0, r1
   1ac00:	e1a01002 	mov	r1, r2
   1ac04:	e1a02003 	mov	r2, r3
   1ac08:	ebffb7da 	bl	8b78 <_init+0x74>
   1ac0c:	ea000006 	b	1ac2c <rhash_ed2k_final+0xd8>
   1ac10:	e51b301c 	ldr	r3, [fp, #-28]
   1ac14:	e3530000 	cmp	r3, #0
   1ac18:	0a000003 	beq	1ac2c <rhash_ed2k_final+0xd8>
   1ac1c:	e51b3018 	ldr	r3, [fp, #-24]
   1ac20:	e1a00003 	mov	r0, r3
   1ac24:	e51b101c 	ldr	r1, [fp, #-28]
   1ac28:	ebffff03 	bl	1a83c <rhash_md4_final>
   1ac2c:	e24bd004 	sub	sp, fp, #4
   1ac30:	e8bd8800 	pop	{fp, pc}

0001ac34 <ed2k>:
   1ac34:	e92d4800 	push	{fp, lr}
   1ac38:	e28db004 	add	fp, sp, #4
   1ac3c:	e24dd0c8 	sub	sp, sp, #200	; 0xc8
   1ac40:	e50b00c0 	str	r0, [fp, #-192]	; 0xc0
   1ac44:	e50b10c4 	str	r1, [fp, #-196]	; 0xc4
   1ac48:	e50b20c8 	str	r2, [fp, #-200]	; 0xc8
   1ac4c:	e24b30bc 	sub	r3, fp, #188	; 0xbc
   1ac50:	e1a00003 	mov	r0, r3
   1ac54:	ebffff6a 	bl	1aa04 <rhash_ed2k_init>
   1ac58:	e24b30bc 	sub	r3, fp, #188	; 0xbc
   1ac5c:	e1a00003 	mov	r0, r3
   1ac60:	e51b10c0 	ldr	r1, [fp, #-192]	; 0xc0
   1ac64:	e51b20c4 	ldr	r2, [fp, #-196]	; 0xc4
   1ac68:	ebffff75 	bl	1aa44 <rhash_ed2k_update>
   1ac6c:	e24b30bc 	sub	r3, fp, #188	; 0xbc
   1ac70:	e1a00003 	mov	r0, r3
   1ac74:	e51b10c8 	ldr	r1, [fp, #-200]	; 0xc8
   1ac78:	ebffffb5 	bl	1ab54 <rhash_ed2k_final>
   1ac7c:	e24bd004 	sub	sp, fp, #4
   1ac80:	e8bd8800 	pop	{fp, pc}

0001ac84 <sub8>:
   1ac84:	e52db004 	push	{fp}		; (str fp, [sp, #-4]!)
   1ac88:	e28db000 	add	fp, sp, #0
   1ac8c:	e24dd01c 	sub	sp, sp, #28
   1ac90:	e50b0010 	str	r0, [fp, #-16]
   1ac94:	e50b1014 	str	r1, [fp, #-20]
   1ac98:	e50b2018 	str	r2, [fp, #-24]
   1ac9c:	e3a03000 	mov	r3, #0
   1aca0:	e54b3006 	strb	r3, [fp, #-6]
   1aca4:	e3a03000 	mov	r3, #0
   1aca8:	e54b3005 	strb	r3, [fp, #-5]
   1acac:	ea00000a 	b	1acdc <sub8+0x58>
   1acb0:	e55b2006 	ldrb	r2, [fp, #-6]
   1acb4:	e55b3005 	ldrb	r3, [fp, #-5]
   1acb8:	e51b1010 	ldr	r1, [fp, #-16]
   1acbc:	e0813003 	add	r3, r1, r3
   1acc0:	e5d33000 	ldrb	r3, [r3]
   1acc4:	e0633002 	rsb	r3, r3, r2
   1acc8:	e6ef3073 	uxtb	r3, r3
   1accc:	e54b3006 	strb	r3, [fp, #-6]
   1acd0:	e55b3005 	ldrb	r3, [fp, #-5]
   1acd4:	e2833001 	add	r3, r3, #1
   1acd8:	e54b3005 	strb	r3, [fp, #-5]
   1acdc:	e55b2005 	ldrb	r2, [fp, #-5]
   1ace0:	e51b3014 	ldr	r3, [fp, #-20]
   1ace4:	e1520003 	cmp	r2, r3
   1ace8:	3afffff0 	bcc	1acb0 <sub8+0x2c>
   1acec:	e24b3006 	sub	r3, fp, #6
   1acf0:	e5d32000 	ldrb	r2, [r3]
   1acf4:	e51b3018 	ldr	r3, [fp, #-24]
   1acf8:	e5c32000 	strb	r2, [r3]
   1acfc:	e28bd000 	add	sp, fp, #0
   1ad00:	e8bd0800 	pop	{fp}
   1ad04:	e12fff1e 	bx	lr

0001ad08 <sub16>:
   1ad08:	e92d4800 	push	{fp, lr}
   1ad0c:	e28db004 	add	fp, sp, #4
   1ad10:	e24dd018 	sub	sp, sp, #24
   1ad14:	e50b0010 	str	r0, [fp, #-16]
   1ad18:	e50b1014 	str	r1, [fp, #-20]
   1ad1c:	e50b2018 	str	r2, [fp, #-24]
   1ad20:	e3a03000 	mov	r3, #0
   1ad24:	e14b30b6 	strh	r3, [fp, #-6]
   1ad28:	ea00000b 	b	1ad5c <sub16+0x54>
   1ad2c:	e15b20b6 	ldrh	r2, [fp, #-6]
   1ad30:	e51b3010 	ldr	r3, [fp, #-16]
   1ad34:	e1d330b0 	ldrh	r3, [r3]
   1ad38:	e0633002 	rsb	r3, r3, r2
   1ad3c:	e6ff3073 	uxth	r3, r3
   1ad40:	e14b30b6 	strh	r3, [fp, #-6]
   1ad44:	e51b3010 	ldr	r3, [fp, #-16]
   1ad48:	e2833002 	add	r3, r3, #2
   1ad4c:	e50b3010 	str	r3, [fp, #-16]
   1ad50:	e51b3014 	ldr	r3, [fp, #-20]
   1ad54:	e2433002 	sub	r3, r3, #2
   1ad58:	e50b3014 	str	r3, [fp, #-20]
   1ad5c:	e51b3014 	ldr	r3, [fp, #-20]
   1ad60:	e3530001 	cmp	r3, #1
   1ad64:	8afffff0 	bhi	1ad2c <sub16+0x24>
   1ad68:	e51b3014 	ldr	r3, [fp, #-20]
   1ad6c:	e3530000 	cmp	r3, #0
   1ad70:	0a000006 	beq	1ad90 <sub16+0x88>
   1ad74:	e51b3010 	ldr	r3, [fp, #-16]
   1ad78:	e5d33000 	ldrb	r3, [r3]
   1ad7c:	e1a02003 	mov	r2, r3
   1ad80:	e15b30b6 	ldrh	r3, [fp, #-6]
   1ad84:	e0823003 	add	r3, r2, r3
   1ad88:	e6ff3073 	uxth	r3, r3
   1ad8c:	e14b30b6 	strh	r3, [fp, #-6]
   1ad90:	e51b2018 	ldr	r2, [fp, #-24]
   1ad94:	e24b3006 	sub	r3, fp, #6
   1ad98:	e1a01002 	mov	r1, r2
   1ad9c:	e1a02003 	mov	r2, r3
   1ada0:	e3a03002 	mov	r3, #2
   1ada4:	e1a00001 	mov	r0, r1
   1ada8:	e1a01002 	mov	r1, r2
   1adac:	e1a02003 	mov	r2, r3
   1adb0:	ebffb770 	bl	8b78 <_init+0x74>
   1adb4:	e24bd004 	sub	sp, fp, #4
   1adb8:	e8bd8800 	pop	{fp, pc}

0001adbc <sub32>:
   1adbc:	e92d4800 	push	{fp, lr}
   1adc0:	e28db004 	add	fp, sp, #4
   1adc4:	e24dd018 	sub	sp, sp, #24
   1adc8:	e50b0010 	str	r0, [fp, #-16]
   1adcc:	e50b1014 	str	r1, [fp, #-20]
   1add0:	e50b2018 	str	r2, [fp, #-24]
   1add4:	e3a03000 	mov	r3, #0
   1add8:	e50b3008 	str	r3, [fp, #-8]
   1addc:	ea00000a 	b	1ae0c <sub32+0x50>
   1ade0:	e51b2008 	ldr	r2, [fp, #-8]
   1ade4:	e51b3010 	ldr	r3, [fp, #-16]
   1ade8:	e5933000 	ldr	r3, [r3]
   1adec:	e0633002 	rsb	r3, r3, r2
   1adf0:	e50b3008 	str	r3, [fp, #-8]
   1adf4:	e51b3010 	ldr	r3, [fp, #-16]
   1adf8:	e2833004 	add	r3, r3, #4
   1adfc:	e50b3010 	str	r3, [fp, #-16]
   1ae00:	e51b3014 	ldr	r3, [fp, #-20]
   1ae04:	e2433004 	sub	r3, r3, #4
   1ae08:	e50b3014 	str	r3, [fp, #-20]
   1ae0c:	e51b3014 	ldr	r3, [fp, #-20]
   1ae10:	e3530003 	cmp	r3, #3
   1ae14:	8afffff1 	bhi	1ade0 <sub32+0x24>
   1ae18:	e51b3014 	ldr	r3, [fp, #-20]
   1ae1c:	e3530000 	cmp	r3, #0
   1ae20:	0a000005 	beq	1ae3c <sub32+0x80>
   1ae24:	e51b3010 	ldr	r3, [fp, #-16]
   1ae28:	e5933000 	ldr	r3, [r3]
   1ae2c:	e3c324ff 	bic	r2, r3, #-16777216	; 0xff000000
   1ae30:	e51b3008 	ldr	r3, [fp, #-8]
   1ae34:	e0823003 	add	r3, r2, r3
   1ae38:	e50b3008 	str	r3, [fp, #-8]
   1ae3c:	e51b2018 	ldr	r2, [fp, #-24]
   1ae40:	e24b3008 	sub	r3, fp, #8
   1ae44:	e1a01002 	mov	r1, r2
   1ae48:	e1a02003 	mov	r2, r3
   1ae4c:	e3a03004 	mov	r3, #4
   1ae50:	e1a00001 	mov	r0, r1
   1ae54:	e1a01002 	mov	r1, r2
   1ae58:	e1a02003 	mov	r2, r3
   1ae5c:	ebffb745 	bl	8b78 <_init+0x74>
   1ae60:	e24bd004 	sub	sp, fp, #4
   1ae64:	e8bd8800 	pop	{fp, pc}

0001ae68 <murmurhash2>:
   1ae68:	e92d4800 	push	{fp, lr}
   1ae6c:	e28db004 	add	fp, sp, #4
   1ae70:	e24dd028 	sub	sp, sp, #40	; 0x28
   1ae74:	e50b0020 	str	r0, [fp, #-32]
   1ae78:	e50b1024 	str	r1, [fp, #-36]	; 0x24
   1ae7c:	e50b2028 	str	r2, [fp, #-40]	; 0x28
   1ae80:	e59f31a0 	ldr	r3, [pc, #416]	; 1b028 <murmurhash2+0x1c0>
   1ae84:	e50b300c 	str	r3, [fp, #-12]
   1ae88:	e59f319c 	ldr	r3, [pc, #412]	; 1b02c <murmurhash2+0x1c4>
   1ae8c:	e50b3010 	str	r3, [fp, #-16]
   1ae90:	e3a03018 	mov	r3, #24
   1ae94:	e50b3014 	str	r3, [fp, #-20]
   1ae98:	e51b200c 	ldr	r2, [fp, #-12]
   1ae9c:	e51b3024 	ldr	r3, [fp, #-36]	; 0x24
   1aea0:	e0223003 	eor	r3, r2, r3
   1aea4:	e50b301c 	str	r3, [fp, #-28]
   1aea8:	e51b3020 	ldr	r3, [fp, #-32]
   1aeac:	e50b3008 	str	r3, [fp, #-8]
   1aeb0:	ea00001e 	b	1af30 <murmurhash2+0xc8>
   1aeb4:	e51b3008 	ldr	r3, [fp, #-8]
   1aeb8:	e5933000 	ldr	r3, [r3]
   1aebc:	e50b3018 	str	r3, [fp, #-24]
   1aec0:	e51b3018 	ldr	r3, [fp, #-24]
   1aec4:	e51b2010 	ldr	r2, [fp, #-16]
   1aec8:	e0030392 	mul	r3, r2, r3
   1aecc:	e50b3018 	str	r3, [fp, #-24]
   1aed0:	e51b2018 	ldr	r2, [fp, #-24]
   1aed4:	e51b3014 	ldr	r3, [fp, #-20]
   1aed8:	e1a03332 	lsr	r3, r2, r3
   1aedc:	e51b2018 	ldr	r2, [fp, #-24]
   1aee0:	e0223003 	eor	r3, r2, r3
   1aee4:	e50b3018 	str	r3, [fp, #-24]
   1aee8:	e51b3018 	ldr	r3, [fp, #-24]
   1aeec:	e51b2010 	ldr	r2, [fp, #-16]
   1aef0:	e0030392 	mul	r3, r2, r3
   1aef4:	e50b3018 	str	r3, [fp, #-24]
   1aef8:	e51b301c 	ldr	r3, [fp, #-28]
   1aefc:	e51b2010 	ldr	r2, [fp, #-16]
   1af00:	e0030392 	mul	r3, r2, r3
   1af04:	e50b301c 	str	r3, [fp, #-28]
   1af08:	e51b201c 	ldr	r2, [fp, #-28]
   1af0c:	e51b3018 	ldr	r3, [fp, #-24]
   1af10:	e0223003 	eor	r3, r2, r3
   1af14:	e50b301c 	str	r3, [fp, #-28]
   1af18:	e51b3008 	ldr	r3, [fp, #-8]
   1af1c:	e2833004 	add	r3, r3, #4
   1af20:	e50b3008 	str	r3, [fp, #-8]
   1af24:	e51b3024 	ldr	r3, [fp, #-36]	; 0x24
   1af28:	e2433004 	sub	r3, r3, #4
   1af2c:	e50b3024 	str	r3, [fp, #-36]	; 0x24
   1af30:	e51b3024 	ldr	r3, [fp, #-36]	; 0x24
   1af34:	e3530003 	cmp	r3, #3
   1af38:	8affffdd 	bhi	1aeb4 <murmurhash2+0x4c>
   1af3c:	e51b3024 	ldr	r3, [fp, #-36]	; 0x24
   1af40:	e3530002 	cmp	r3, #2
   1af44:	0a00000c 	beq	1af7c <murmurhash2+0x114>
   1af48:	e3530003 	cmp	r3, #3
   1af4c:	0a000002 	beq	1af5c <murmurhash2+0xf4>
   1af50:	e3530001 	cmp	r3, #1
   1af54:	0a000010 	beq	1af9c <murmurhash2+0x134>
   1af58:	ea000019 	b	1afc4 <murmurhash2+0x15c>
   1af5c:	e51b3008 	ldr	r3, [fp, #-8]
   1af60:	e2833002 	add	r3, r3, #2
   1af64:	e5d33000 	ldrb	r3, [r3]
   1af68:	e1a03803 	lsl	r3, r3, #16
   1af6c:	e1a02003 	mov	r2, r3
   1af70:	e51b301c 	ldr	r3, [fp, #-28]
   1af74:	e0223003 	eor	r3, r2, r3
   1af78:	e50b301c 	str	r3, [fp, #-28]
   1af7c:	e51b3008 	ldr	r3, [fp, #-8]
   1af80:	e2833001 	add	r3, r3, #1
   1af84:	e5d33000 	ldrb	r3, [r3]
   1af88:	e1a03403 	lsl	r3, r3, #8
   1af8c:	e1a02003 	mov	r2, r3
   1af90:	e51b301c 	ldr	r3, [fp, #-28]
   1af94:	e0223003 	eor	r3, r2, r3
   1af98:	e50b301c 	str	r3, [fp, #-28]
   1af9c:	e51b3008 	ldr	r3, [fp, #-8]
   1afa0:	e5d33000 	ldrb	r3, [r3]
   1afa4:	e1a02003 	mov	r2, r3
   1afa8:	e51b301c 	ldr	r3, [fp, #-28]
   1afac:	e0223003 	eor	r3, r2, r3
   1afb0:	e50b301c 	str	r3, [fp, #-28]
   1afb4:	e51b301c 	ldr	r3, [fp, #-28]
   1afb8:	e51b2010 	ldr	r2, [fp, #-16]
   1afbc:	e0030392 	mul	r3, r2, r3
   1afc0:	e50b301c 	str	r3, [fp, #-28]
   1afc4:	e51b301c 	ldr	r3, [fp, #-28]
   1afc8:	e1a026a3 	lsr	r2, r3, #13
   1afcc:	e51b301c 	ldr	r3, [fp, #-28]
   1afd0:	e0223003 	eor	r3, r2, r3
   1afd4:	e50b301c 	str	r3, [fp, #-28]
   1afd8:	e51b301c 	ldr	r3, [fp, #-28]
   1afdc:	e51b2010 	ldr	r2, [fp, #-16]
   1afe0:	e0030392 	mul	r3, r2, r3
   1afe4:	e50b301c 	str	r3, [fp, #-28]
   1afe8:	e51b301c 	ldr	r3, [fp, #-28]
   1afec:	e1a027a3 	lsr	r2, r3, #15
   1aff0:	e51b301c 	ldr	r3, [fp, #-28]
   1aff4:	e0223003 	eor	r3, r2, r3
   1aff8:	e50b301c 	str	r3, [fp, #-28]
   1affc:	e51b2028 	ldr	r2, [fp, #-40]	; 0x28
   1b000:	e24b301c 	sub	r3, fp, #28
   1b004:	e1a01002 	mov	r1, r2
   1b008:	e1a02003 	mov	r2, r3
   1b00c:	e3a03004 	mov	r3, #4
   1b010:	e1a00001 	mov	r0, r1
   1b014:	e1a01002 	mov	r1, r2
   1b018:	e1a02003 	mov	r2, r3
   1b01c:	ebffb6d5 	bl	8b78 <_init+0x74>
   1b020:	e24bd004 	sub	sp, fp, #4
   1b024:	e8bd8800 	pop	{fp, pc}
   1b028:	cafebabe 	.word	0xcafebabe
   1b02c:	5bd1e995 	.word	0x5bd1e995

0001b030 <rotl32>:
   1b030:	e52db004 	push	{fp}		; (str fp, [sp, #-4]!)
   1b034:	e28db000 	add	fp, sp, #0
   1b038:	e24dd00c 	sub	sp, sp, #12
   1b03c:	e50b0008 	str	r0, [fp, #-8]
   1b040:	e1a03001 	mov	r3, r1
   1b044:	e54b3009 	strb	r3, [fp, #-9]
   1b048:	e15b30d9 	ldrsb	r3, [fp, #-9]
   1b04c:	e51b2008 	ldr	r2, [fp, #-8]
   1b050:	e2633020 	rsb	r3, r3, #32
   1b054:	e1a03372 	ror	r3, r2, r3
   1b058:	e1a00003 	mov	r0, r3
   1b05c:	e28bd000 	add	sp, fp, #0
   1b060:	e8bd0800 	pop	{fp}
   1b064:	e12fff1e 	bx	lr

0001b068 <rotl64>:
   1b068:	e92d09f0 	push	{r4, r5, r6, r7, r8, fp}
   1b06c:	e28db014 	add	fp, sp, #20
   1b070:	e24dd010 	sub	sp, sp, #16
   1b074:	e14b01fc 	strd	r0, [fp, #-28]	; 0xffffffe4
   1b078:	e1a03002 	mov	r3, r2
   1b07c:	e54b301d 	strb	r3, [fp, #-29]
   1b080:	e15b01dd 	ldrsb	r0, [fp, #-29]	; 0xffffffe3
   1b084:	e14b21dc 	ldrd	r2, [fp, #-28]	; 0xffffffe4
   1b088:	e240c020 	sub	ip, r0, #32
   1b08c:	e1a08c12 	lsl	r8, r2, ip
   1b090:	e2601020 	rsb	r1, r0, #32
   1b094:	e1a01132 	lsr	r1, r2, r1
   1b098:	e1a07013 	lsl	r7, r3, r0
   1b09c:	e1817007 	orr	r7, r1, r7
   1b0a0:	e35c0000 	cmp	ip, #0
   1b0a4:	a1a07008 	movge	r7, r8
   1b0a8:	e1a06012 	lsl	r6, r2, r0
   1b0ac:	e2601040 	rsb	r1, r0, #64	; 0x40
   1b0b0:	e241c020 	sub	ip, r1, #32
   1b0b4:	e1a08c33 	lsr	r8, r3, ip
   1b0b8:	e2610020 	rsb	r0, r1, #32
   1b0bc:	e1a00013 	lsl	r0, r3, r0
   1b0c0:	e1a04132 	lsr	r4, r2, r1
   1b0c4:	e1804004 	orr	r4, r0, r4
   1b0c8:	e35c0000 	cmp	ip, #0
   1b0cc:	a1a04008 	movge	r4, r8
   1b0d0:	e1a05133 	lsr	r5, r3, r1
   1b0d4:	e1844006 	orr	r4, r4, r6
   1b0d8:	e1855007 	orr	r5, r5, r7
   1b0dc:	e1a02004 	mov	r2, r4
   1b0e0:	e1a03005 	mov	r3, r5
   1b0e4:	e1a00002 	mov	r0, r2
   1b0e8:	e1a01003 	mov	r1, r3
   1b0ec:	e24bd014 	sub	sp, fp, #20
   1b0f0:	e8bd09f0 	pop	{r4, r5, r6, r7, r8, fp}
   1b0f4:	e12fff1e 	bx	lr

0001b0f8 <getblock32>:
   1b0f8:	e52db004 	push	{fp}		; (str fp, [sp, #-4]!)
   1b0fc:	e28db000 	add	fp, sp, #0
   1b100:	e24dd00c 	sub	sp, sp, #12
   1b104:	e50b0008 	str	r0, [fp, #-8]
   1b108:	e50b100c 	str	r1, [fp, #-12]
   1b10c:	e51b300c 	ldr	r3, [fp, #-12]
   1b110:	e1a03103 	lsl	r3, r3, #2
   1b114:	e51b2008 	ldr	r2, [fp, #-8]
   1b118:	e0823003 	add	r3, r2, r3
   1b11c:	e5933000 	ldr	r3, [r3]
   1b120:	e1a00003 	mov	r0, r3
   1b124:	e28bd000 	add	sp, fp, #0
   1b128:	e8bd0800 	pop	{fp}
   1b12c:	e12fff1e 	bx	lr

0001b130 <getblock64>:
   1b130:	e52db004 	push	{fp}		; (str fp, [sp, #-4]!)
   1b134:	e28db000 	add	fp, sp, #0
   1b138:	e24dd00c 	sub	sp, sp, #12
   1b13c:	e50b0008 	str	r0, [fp, #-8]
   1b140:	e50b100c 	str	r1, [fp, #-12]
   1b144:	e51b300c 	ldr	r3, [fp, #-12]
   1b148:	e1a03183 	lsl	r3, r3, #3
   1b14c:	e51b2008 	ldr	r2, [fp, #-8]
   1b150:	e0823003 	add	r3, r2, r3
   1b154:	e1c320d0 	ldrd	r2, [r3]
   1b158:	e1a00002 	mov	r0, r2
   1b15c:	e1a01003 	mov	r1, r3
   1b160:	e28bd000 	add	sp, fp, #0
   1b164:	e8bd0800 	pop	{fp}
   1b168:	e12fff1e 	bx	lr

0001b16c <fmix32>:
   1b16c:	e52db004 	push	{fp}		; (str fp, [sp, #-4]!)
   1b170:	e28db000 	add	fp, sp, #0
   1b174:	e24dd00c 	sub	sp, sp, #12
   1b178:	e50b0008 	str	r0, [fp, #-8]
   1b17c:	e51b3008 	ldr	r3, [fp, #-8]
   1b180:	e1a03823 	lsr	r3, r3, #16
   1b184:	e51b2008 	ldr	r2, [fp, #-8]
   1b188:	e0223003 	eor	r3, r2, r3
   1b18c:	e50b3008 	str	r3, [fp, #-8]
   1b190:	e51b3008 	ldr	r3, [fp, #-8]
   1b194:	e59f2050 	ldr	r2, [pc, #80]	; 1b1ec <fmix32+0x80>
   1b198:	e0030392 	mul	r3, r2, r3
   1b19c:	e50b3008 	str	r3, [fp, #-8]
   1b1a0:	e51b3008 	ldr	r3, [fp, #-8]
   1b1a4:	e1a036a3 	lsr	r3, r3, #13
   1b1a8:	e51b2008 	ldr	r2, [fp, #-8]
   1b1ac:	e0223003 	eor	r3, r2, r3
   1b1b0:	e50b3008 	str	r3, [fp, #-8]
   1b1b4:	e51b3008 	ldr	r3, [fp, #-8]
   1b1b8:	e59f2030 	ldr	r2, [pc, #48]	; 1b1f0 <fmix32+0x84>
   1b1bc:	e0030392 	mul	r3, r2, r3
   1b1c0:	e50b3008 	str	r3, [fp, #-8]
   1b1c4:	e51b3008 	ldr	r3, [fp, #-8]
   1b1c8:	e1a03823 	lsr	r3, r3, #16
   1b1cc:	e51b2008 	ldr	r2, [fp, #-8]
   1b1d0:	e0223003 	eor	r3, r2, r3
   1b1d4:	e50b3008 	str	r3, [fp, #-8]
   1b1d8:	e51b3008 	ldr	r3, [fp, #-8]
   1b1dc:	e1a00003 	mov	r0, r3
   1b1e0:	e28bd000 	add	sp, fp, #0
   1b1e4:	e8bd0800 	pop	{fp}
   1b1e8:	e12fff1e 	bx	lr
   1b1ec:	85ebca6b 	.word	0x85ebca6b
   1b1f0:	c2b2ae35 	.word	0xc2b2ae35

0001b1f4 <fmix64>:
   1b1f4:	e92d08f0 	push	{r4, r5, r6, r7, fp}
   1b1f8:	e28db010 	add	fp, sp, #16
   1b1fc:	e24dd00c 	sub	sp, sp, #12
   1b200:	e14b01fc 	strd	r0, [fp, #-28]	; 0xffffffe4
   1b204:	e51b1018 	ldr	r1, [fp, #-24]
   1b208:	e1a020a1 	lsr	r2, r1, #1
   1b20c:	e3a03000 	mov	r3, #0
   1b210:	e14b01dc 	ldrd	r0, [fp, #-28]	; 0xffffffe4
   1b214:	e0222000 	eor	r2, r2, r0
   1b218:	e0233001 	eor	r3, r3, r1
   1b21c:	e14b21fc 	strd	r2, [fp, #-28]	; 0xffffffe4
   1b220:	e51b3018 	ldr	r3, [fp, #-24]
   1b224:	e59f20b4 	ldr	r2, [pc, #180]	; 1b2e0 <fmix64+0xec>
   1b228:	e0020392 	mul	r2, r2, r3
   1b22c:	e51b301c 	ldr	r3, [fp, #-28]
   1b230:	e59f10ac 	ldr	r1, [pc, #172]	; 1b2e4 <fmix64+0xf0>
   1b234:	e0030391 	mul	r3, r1, r3
   1b238:	e0821003 	add	r1, r2, r3
   1b23c:	e51b201c 	ldr	r2, [fp, #-28]
   1b240:	e59f3098 	ldr	r3, [pc, #152]	; 1b2e0 <fmix64+0xec>
   1b244:	e0832392 	umull	r2, r3, r2, r3
   1b248:	e0811003 	add	r1, r1, r3
   1b24c:	e1a03001 	mov	r3, r1
   1b250:	e14b21fc 	strd	r2, [fp, #-28]	; 0xffffffe4
   1b254:	e14b21fc 	strd	r2, [fp, #-28]	; 0xffffffe4
   1b258:	e51b3018 	ldr	r3, [fp, #-24]
   1b25c:	e1a060a3 	lsr	r6, r3, #1
   1b260:	e3a07000 	mov	r7, #0
   1b264:	e14b21dc 	ldrd	r2, [fp, #-28]	; 0xffffffe4
   1b268:	e0222006 	eor	r2, r2, r6
   1b26c:	e0233007 	eor	r3, r3, r7
   1b270:	e14b21fc 	strd	r2, [fp, #-28]	; 0xffffffe4
   1b274:	e51b3018 	ldr	r3, [fp, #-24]
   1b278:	e59f2068 	ldr	r2, [pc, #104]	; 1b2e8 <fmix64+0xf4>
   1b27c:	e0020392 	mul	r2, r2, r3
   1b280:	e51b301c 	ldr	r3, [fp, #-28]
   1b284:	e59f1060 	ldr	r1, [pc, #96]	; 1b2ec <fmix64+0xf8>
   1b288:	e0030391 	mul	r3, r1, r3
   1b28c:	e0821003 	add	r1, r2, r3
   1b290:	e51b201c 	ldr	r2, [fp, #-28]
   1b294:	e59f304c 	ldr	r3, [pc, #76]	; 1b2e8 <fmix64+0xf4>
   1b298:	e0832392 	umull	r2, r3, r2, r3
   1b29c:	e0811003 	add	r1, r1, r3
   1b2a0:	e1a03001 	mov	r3, r1
   1b2a4:	e14b21fc 	strd	r2, [fp, #-28]	; 0xffffffe4
   1b2a8:	e14b21fc 	strd	r2, [fp, #-28]	; 0xffffffe4
   1b2ac:	e51b3018 	ldr	r3, [fp, #-24]
   1b2b0:	e1a040a3 	lsr	r4, r3, #1
   1b2b4:	e3a05000 	mov	r5, #0
   1b2b8:	e14b21dc 	ldrd	r2, [fp, #-28]	; 0xffffffe4
   1b2bc:	e0222004 	eor	r2, r2, r4
   1b2c0:	e0233005 	eor	r3, r3, r5
   1b2c4:	e14b21fc 	strd	r2, [fp, #-28]	; 0xffffffe4
   1b2c8:	e14b21dc 	ldrd	r2, [fp, #-28]	; 0xffffffe4
   1b2cc:	e1a00002 	mov	r0, r2
   1b2d0:	e1a01003 	mov	r1, r3
   1b2d4:	e24bd010 	sub	sp, fp, #16
   1b2d8:	e8bd08f0 	pop	{r4, r5, r6, r7, fp}
   1b2dc:	e12fff1e 	bx	lr
   1b2e0:	ed558ccd 	.word	0xed558ccd
   1b2e4:	ff51afd7 	.word	0xff51afd7
   1b2e8:	1a85ec53 	.word	0x1a85ec53
   1b2ec:	c4ceb9fe 	.word	0xc4ceb9fe

0001b2f0 <murmurhash3_x86_32>:
   1b2f0:	e92d4800 	push	{fp, lr}
   1b2f4:	e28db004 	add	fp, sp, #4
   1b2f8:	e24dd048 	sub	sp, sp, #72	; 0x48
   1b2fc:	e50b0040 	str	r0, [fp, #-64]	; 0x40
   1b300:	e50b1044 	str	r1, [fp, #-68]	; 0x44
   1b304:	e50b2048 	str	r2, [fp, #-72]	; 0x48
   1b308:	e51b3040 	ldr	r3, [fp, #-64]	; 0x40
   1b30c:	e50b3010 	str	r3, [fp, #-16]
   1b310:	e51b3044 	ldr	r3, [fp, #-68]	; 0x44
   1b314:	e1a03123 	lsr	r3, r3, #2
   1b318:	e50b3014 	str	r3, [fp, #-20]
   1b31c:	e59f326c 	ldr	r3, [pc, #620]	; 1b590 <murmurhash3_x86_32+0x2a0>
   1b320:	e50b3018 	str	r3, [fp, #-24]
   1b324:	e51b3018 	ldr	r3, [fp, #-24]
   1b328:	e50b303c 	str	r3, [fp, #-60]	; 0x3c
   1b32c:	e59f3260 	ldr	r3, [pc, #608]	; 1b594 <murmurhash3_x86_32+0x2a4>
   1b330:	e50b301c 	str	r3, [fp, #-28]
   1b334:	e59f325c 	ldr	r3, [pc, #604]	; 1b598 <murmurhash3_x86_32+0x2a8>
   1b338:	e50b3020 	str	r3, [fp, #-32]
   1b33c:	e51b3014 	ldr	r3, [fp, #-20]
   1b340:	e1a03103 	lsl	r3, r3, #2
   1b344:	e51b2010 	ldr	r2, [fp, #-16]
   1b348:	e0823003 	add	r3, r2, r3
   1b34c:	e50b3024 	str	r3, [fp, #-36]	; 0x24
   1b350:	e3a03000 	mov	r3, #0
   1b354:	e50b3008 	str	r3, [fp, #-8]
   1b358:	e51b3014 	ldr	r3, [fp, #-20]
   1b35c:	e2633000 	rsb	r3, r3, #0
   1b360:	e50b3008 	str	r3, [fp, #-8]
   1b364:	ea000029 	b	1b410 <murmurhash3_x86_32+0x120>
   1b368:	e51b3024 	ldr	r3, [fp, #-36]	; 0x24
   1b36c:	e50b3030 	str	r3, [fp, #-48]	; 0x30
   1b370:	e51b3008 	ldr	r3, [fp, #-8]
   1b374:	e50b3034 	str	r3, [fp, #-52]	; 0x34
   1b378:	e51b3034 	ldr	r3, [fp, #-52]	; 0x34
   1b37c:	e1a03103 	lsl	r3, r3, #2
   1b380:	e51b2030 	ldr	r2, [fp, #-48]	; 0x30
   1b384:	e0823003 	add	r3, r2, r3
   1b388:	e5933000 	ldr	r3, [r3]
   1b38c:	e50b3028 	str	r3, [fp, #-40]	; 0x28
   1b390:	e51b3028 	ldr	r3, [fp, #-40]	; 0x28
   1b394:	e51b201c 	ldr	r2, [fp, #-28]
   1b398:	e0030392 	mul	r3, r2, r3
   1b39c:	e50b3028 	str	r3, [fp, #-40]	; 0x28
   1b3a0:	e51b0028 	ldr	r0, [fp, #-40]	; 0x28
   1b3a4:	e3a0100f 	mov	r1, #15
   1b3a8:	ebffff20 	bl	1b030 <rotl32>
   1b3ac:	e50b0028 	str	r0, [fp, #-40]	; 0x28
   1b3b0:	e51b3028 	ldr	r3, [fp, #-40]	; 0x28
   1b3b4:	e51b2020 	ldr	r2, [fp, #-32]
   1b3b8:	e0030392 	mul	r3, r2, r3
   1b3bc:	e50b3028 	str	r3, [fp, #-40]	; 0x28
   1b3c0:	e51b203c 	ldr	r2, [fp, #-60]	; 0x3c
   1b3c4:	e51b3028 	ldr	r3, [fp, #-40]	; 0x28
   1b3c8:	e0223003 	eor	r3, r2, r3
   1b3cc:	e50b303c 	str	r3, [fp, #-60]	; 0x3c
   1b3d0:	e51b303c 	ldr	r3, [fp, #-60]	; 0x3c
   1b3d4:	e1a00003 	mov	r0, r3
   1b3d8:	e3a0100d 	mov	r1, #13
   1b3dc:	ebffff13 	bl	1b030 <rotl32>
   1b3e0:	e1a03000 	mov	r3, r0
   1b3e4:	e50b303c 	str	r3, [fp, #-60]	; 0x3c
   1b3e8:	e51b203c 	ldr	r2, [fp, #-60]	; 0x3c
   1b3ec:	e1a03002 	mov	r3, r2
   1b3f0:	e1a03103 	lsl	r3, r3, #2
   1b3f4:	e0832002 	add	r2, r3, r2
   1b3f8:	e59f319c 	ldr	r3, [pc, #412]	; 1b59c <murmurhash3_x86_32+0x2ac>
   1b3fc:	e0823003 	add	r3, r2, r3
   1b400:	e50b303c 	str	r3, [fp, #-60]	; 0x3c
   1b404:	e51b3008 	ldr	r3, [fp, #-8]
   1b408:	e2833001 	add	r3, r3, #1
   1b40c:	e50b3008 	str	r3, [fp, #-8]
   1b410:	e51b3008 	ldr	r3, [fp, #-8]
   1b414:	e3530000 	cmp	r3, #0
   1b418:	1affffd2 	bne	1b368 <murmurhash3_x86_32+0x78>
   1b41c:	e51b3014 	ldr	r3, [fp, #-20]
   1b420:	e1a03103 	lsl	r3, r3, #2
   1b424:	e51b2010 	ldr	r2, [fp, #-16]
   1b428:	e0823003 	add	r3, r2, r3
   1b42c:	e50b302c 	str	r3, [fp, #-44]	; 0x2c
   1b430:	e3a03000 	mov	r3, #0
   1b434:	e50b300c 	str	r3, [fp, #-12]
   1b438:	e51b3044 	ldr	r3, [fp, #-68]	; 0x44
   1b43c:	e2033003 	and	r3, r3, #3
   1b440:	e3530002 	cmp	r3, #2
   1b444:	0a00000b 	beq	1b478 <murmurhash3_x86_32+0x188>
   1b448:	e3530003 	cmp	r3, #3
   1b44c:	0a000002 	beq	1b45c <murmurhash3_x86_32+0x16c>
   1b450:	e3530001 	cmp	r3, #1
   1b454:	0a00000e 	beq	1b494 <murmurhash3_x86_32+0x1a4>
   1b458:	ea000022 	b	1b4e8 <murmurhash3_x86_32+0x1f8>
   1b45c:	e51b302c 	ldr	r3, [fp, #-44]	; 0x2c
   1b460:	e2833002 	add	r3, r3, #2
   1b464:	e5d33000 	ldrb	r3, [r3]
   1b468:	e1a03803 	lsl	r3, r3, #16
   1b46c:	e51b200c 	ldr	r2, [fp, #-12]
   1b470:	e0223003 	eor	r3, r2, r3
   1b474:	e50b300c 	str	r3, [fp, #-12]
   1b478:	e51b302c 	ldr	r3, [fp, #-44]	; 0x2c
   1b47c:	e2833001 	add	r3, r3, #1
   1b480:	e5d33000 	ldrb	r3, [r3]
   1b484:	e1a03403 	lsl	r3, r3, #8
   1b488:	e51b200c 	ldr	r2, [fp, #-12]
   1b48c:	e0223003 	eor	r3, r2, r3
   1b490:	e50b300c 	str	r3, [fp, #-12]
   1b494:	e51b302c 	ldr	r3, [fp, #-44]	; 0x2c
   1b498:	e5d33000 	ldrb	r3, [r3]
   1b49c:	e51b200c 	ldr	r2, [fp, #-12]
   1b4a0:	e0223003 	eor	r3, r2, r3
   1b4a4:	e50b300c 	str	r3, [fp, #-12]
   1b4a8:	e51b300c 	ldr	r3, [fp, #-12]
   1b4ac:	e51b201c 	ldr	r2, [fp, #-28]
   1b4b0:	e0030392 	mul	r3, r2, r3
   1b4b4:	e50b300c 	str	r3, [fp, #-12]
   1b4b8:	e51b000c 	ldr	r0, [fp, #-12]
   1b4bc:	e3a0100f 	mov	r1, #15
   1b4c0:	ebfffeda 	bl	1b030 <rotl32>
   1b4c4:	e50b000c 	str	r0, [fp, #-12]
   1b4c8:	e51b300c 	ldr	r3, [fp, #-12]
   1b4cc:	e51b2020 	ldr	r2, [fp, #-32]
   1b4d0:	e0030392 	mul	r3, r2, r3
   1b4d4:	e50b300c 	str	r3, [fp, #-12]
   1b4d8:	e51b203c 	ldr	r2, [fp, #-60]	; 0x3c
   1b4dc:	e51b300c 	ldr	r3, [fp, #-12]
   1b4e0:	e0223003 	eor	r3, r2, r3
   1b4e4:	e50b303c 	str	r3, [fp, #-60]	; 0x3c
   1b4e8:	e51b203c 	ldr	r2, [fp, #-60]	; 0x3c
   1b4ec:	e51b3044 	ldr	r3, [fp, #-68]	; 0x44
   1b4f0:	e0223003 	eor	r3, r2, r3
   1b4f4:	e50b303c 	str	r3, [fp, #-60]	; 0x3c
   1b4f8:	e51b303c 	ldr	r3, [fp, #-60]	; 0x3c
   1b4fc:	e50b3038 	str	r3, [fp, #-56]	; 0x38
   1b500:	e51b3038 	ldr	r3, [fp, #-56]	; 0x38
   1b504:	e1a03823 	lsr	r3, r3, #16
   1b508:	e51b2038 	ldr	r2, [fp, #-56]	; 0x38
   1b50c:	e0223003 	eor	r3, r2, r3
   1b510:	e50b3038 	str	r3, [fp, #-56]	; 0x38
   1b514:	e51b3038 	ldr	r3, [fp, #-56]	; 0x38
   1b518:	e59f2080 	ldr	r2, [pc, #128]	; 1b5a0 <murmurhash3_x86_32+0x2b0>
   1b51c:	e0030392 	mul	r3, r2, r3
   1b520:	e50b3038 	str	r3, [fp, #-56]	; 0x38
   1b524:	e51b3038 	ldr	r3, [fp, #-56]	; 0x38
   1b528:	e1a036a3 	lsr	r3, r3, #13
   1b52c:	e51b2038 	ldr	r2, [fp, #-56]	; 0x38
   1b530:	e0223003 	eor	r3, r2, r3
   1b534:	e50b3038 	str	r3, [fp, #-56]	; 0x38
   1b538:	e51b3038 	ldr	r3, [fp, #-56]	; 0x38
   1b53c:	e59f2060 	ldr	r2, [pc, #96]	; 1b5a4 <murmurhash3_x86_32+0x2b4>
   1b540:	e0030392 	mul	r3, r2, r3
   1b544:	e50b3038 	str	r3, [fp, #-56]	; 0x38
   1b548:	e51b3038 	ldr	r3, [fp, #-56]	; 0x38
   1b54c:	e1a03823 	lsr	r3, r3, #16
   1b550:	e51b2038 	ldr	r2, [fp, #-56]	; 0x38
   1b554:	e0223003 	eor	r3, r2, r3
   1b558:	e50b3038 	str	r3, [fp, #-56]	; 0x38
   1b55c:	e51b3038 	ldr	r3, [fp, #-56]	; 0x38
   1b560:	e50b303c 	str	r3, [fp, #-60]	; 0x3c
   1b564:	e51b2048 	ldr	r2, [fp, #-72]	; 0x48
   1b568:	e24b303c 	sub	r3, fp, #60	; 0x3c
   1b56c:	e1a01002 	mov	r1, r2
   1b570:	e1a02003 	mov	r2, r3
   1b574:	e3a03004 	mov	r3, #4
   1b578:	e1a00001 	mov	r0, r1
   1b57c:	e1a01002 	mov	r1, r2
   1b580:	e1a02003 	mov	r2, r3
   1b584:	ebffb57b 	bl	8b78 <_init+0x74>
   1b588:	e24bd004 	sub	sp, fp, #4
   1b58c:	e8bd8800 	pop	{fp, pc}
   1b590:	deadbeef 	.word	0xdeadbeef
   1b594:	cc9e2d51 	.word	0xcc9e2d51
   1b598:	1b873593 	.word	0x1b873593
   1b59c:	e6546b64 	.word	0xe6546b64
   1b5a0:	85ebca6b 	.word	0x85ebca6b
   1b5a4:	c2b2ae35 	.word	0xc2b2ae35

0001b5a8 <murmurhash3_x86_128>:
   1b5a8:	e92d4800 	push	{fp, lr}
   1b5ac:	e28db004 	add	fp, sp, #4
   1b5b0:	e24dd098 	sub	sp, sp, #152	; 0x98
   1b5b4:	e50b0090 	str	r0, [fp, #-144]	; 0x90
   1b5b8:	e50b1094 	str	r1, [fp, #-148]	; 0x94
   1b5bc:	e50b2098 	str	r2, [fp, #-152]	; 0x98
   1b5c0:	e51b3090 	ldr	r3, [fp, #-144]	; 0x90
   1b5c4:	e50b301c 	str	r3, [fp, #-28]
   1b5c8:	e51b3094 	ldr	r3, [fp, #-148]	; 0x94
   1b5cc:	e1a03223 	lsr	r3, r3, #4
   1b5d0:	e50b3020 	str	r3, [fp, #-32]
   1b5d4:	e59f39bc 	ldr	r3, [pc, #2492]	; 1bf98 <murmurhash3_x86_128+0x9f0>
   1b5d8:	e50b3024 	str	r3, [fp, #-36]	; 0x24
   1b5dc:	e51b3024 	ldr	r3, [fp, #-36]	; 0x24
   1b5e0:	e50b3080 	str	r3, [fp, #-128]	; 0x80
   1b5e4:	e51b3024 	ldr	r3, [fp, #-36]	; 0x24
   1b5e8:	e50b3084 	str	r3, [fp, #-132]	; 0x84
   1b5ec:	e51b3024 	ldr	r3, [fp, #-36]	; 0x24
   1b5f0:	e50b3088 	str	r3, [fp, #-136]	; 0x88
   1b5f4:	e51b3024 	ldr	r3, [fp, #-36]	; 0x24
   1b5f8:	e50b308c 	str	r3, [fp, #-140]	; 0x8c
   1b5fc:	e59f3998 	ldr	r3, [pc, #2456]	; 1bf9c <murmurhash3_x86_128+0x9f4>
   1b600:	e50b3028 	str	r3, [fp, #-40]	; 0x28
   1b604:	e59f3994 	ldr	r3, [pc, #2452]	; 1bfa0 <murmurhash3_x86_128+0x9f8>
   1b608:	e50b302c 	str	r3, [fp, #-44]	; 0x2c
   1b60c:	e59f3990 	ldr	r3, [pc, #2448]	; 1bfa4 <murmurhash3_x86_128+0x9fc>
   1b610:	e50b3030 	str	r3, [fp, #-48]	; 0x30
   1b614:	e59f398c 	ldr	r3, [pc, #2444]	; 1bfa8 <murmurhash3_x86_128+0xa00>
   1b618:	e50b3034 	str	r3, [fp, #-52]	; 0x34
   1b61c:	e51b3020 	ldr	r3, [fp, #-32]
   1b620:	e1a03203 	lsl	r3, r3, #4
   1b624:	e51b201c 	ldr	r2, [fp, #-28]
   1b628:	e0823003 	add	r3, r2, r3
   1b62c:	e50b3038 	str	r3, [fp, #-56]	; 0x38
   1b630:	e3a03000 	mov	r3, #0
   1b634:	e50b3008 	str	r3, [fp, #-8]
   1b638:	e51b3020 	ldr	r3, [fp, #-32]
   1b63c:	e2633000 	rsb	r3, r3, #0
   1b640:	e50b3008 	str	r3, [fp, #-8]
   1b644:	ea0000b5 	b	1b920 <murmurhash3_x86_128+0x378>
   1b648:	e51b3008 	ldr	r3, [fp, #-8]
   1b64c:	e1a03103 	lsl	r3, r3, #2
   1b650:	e51b2038 	ldr	r2, [fp, #-56]	; 0x38
   1b654:	e50b2050 	str	r2, [fp, #-80]	; 0x50
   1b658:	e50b3054 	str	r3, [fp, #-84]	; 0x54
   1b65c:	e51b3054 	ldr	r3, [fp, #-84]	; 0x54
   1b660:	e1a03103 	lsl	r3, r3, #2
   1b664:	e51b2050 	ldr	r2, [fp, #-80]	; 0x50
   1b668:	e0823003 	add	r3, r2, r3
   1b66c:	e5933000 	ldr	r3, [r3]
   1b670:	e50b303c 	str	r3, [fp, #-60]	; 0x3c
   1b674:	e51b3008 	ldr	r3, [fp, #-8]
   1b678:	e1a03103 	lsl	r3, r3, #2
   1b67c:	e2833001 	add	r3, r3, #1
   1b680:	e51b2038 	ldr	r2, [fp, #-56]	; 0x38
   1b684:	e50b2058 	str	r2, [fp, #-88]	; 0x58
   1b688:	e50b305c 	str	r3, [fp, #-92]	; 0x5c
   1b68c:	e51b305c 	ldr	r3, [fp, #-92]	; 0x5c
   1b690:	e1a03103 	lsl	r3, r3, #2
   1b694:	e51b2058 	ldr	r2, [fp, #-88]	; 0x58
   1b698:	e0823003 	add	r3, r2, r3
   1b69c:	e5933000 	ldr	r3, [r3]
   1b6a0:	e50b3040 	str	r3, [fp, #-64]	; 0x40
   1b6a4:	e51b3008 	ldr	r3, [fp, #-8]
   1b6a8:	e1a03103 	lsl	r3, r3, #2
   1b6ac:	e2833002 	add	r3, r3, #2
   1b6b0:	e51b2038 	ldr	r2, [fp, #-56]	; 0x38
   1b6b4:	e50b2060 	str	r2, [fp, #-96]	; 0x60
   1b6b8:	e50b3064 	str	r3, [fp, #-100]	; 0x64
   1b6bc:	e51b3064 	ldr	r3, [fp, #-100]	; 0x64
   1b6c0:	e1a03103 	lsl	r3, r3, #2
   1b6c4:	e51b2060 	ldr	r2, [fp, #-96]	; 0x60
   1b6c8:	e0823003 	add	r3, r2, r3
   1b6cc:	e5933000 	ldr	r3, [r3]
   1b6d0:	e50b3044 	str	r3, [fp, #-68]	; 0x44
   1b6d4:	e51b3008 	ldr	r3, [fp, #-8]
   1b6d8:	e1a03103 	lsl	r3, r3, #2
   1b6dc:	e2833003 	add	r3, r3, #3
   1b6e0:	e51b2038 	ldr	r2, [fp, #-56]	; 0x38
   1b6e4:	e50b2068 	str	r2, [fp, #-104]	; 0x68
   1b6e8:	e50b306c 	str	r3, [fp, #-108]	; 0x6c
   1b6ec:	e51b306c 	ldr	r3, [fp, #-108]	; 0x6c
   1b6f0:	e1a03103 	lsl	r3, r3, #2
   1b6f4:	e51b2068 	ldr	r2, [fp, #-104]	; 0x68
   1b6f8:	e0823003 	add	r3, r2, r3
   1b6fc:	e5933000 	ldr	r3, [r3]
   1b700:	e50b3048 	str	r3, [fp, #-72]	; 0x48
   1b704:	e51b303c 	ldr	r3, [fp, #-60]	; 0x3c
   1b708:	e51b2028 	ldr	r2, [fp, #-40]	; 0x28
   1b70c:	e0030392 	mul	r3, r2, r3
   1b710:	e50b303c 	str	r3, [fp, #-60]	; 0x3c
   1b714:	e51b003c 	ldr	r0, [fp, #-60]	; 0x3c
   1b718:	e3a0100f 	mov	r1, #15
   1b71c:	ebfffe43 	bl	1b030 <rotl32>
   1b720:	e50b003c 	str	r0, [fp, #-60]	; 0x3c
   1b724:	e51b303c 	ldr	r3, [fp, #-60]	; 0x3c
   1b728:	e51b202c 	ldr	r2, [fp, #-44]	; 0x2c
   1b72c:	e0030392 	mul	r3, r2, r3
   1b730:	e50b303c 	str	r3, [fp, #-60]	; 0x3c
   1b734:	e51b2080 	ldr	r2, [fp, #-128]	; 0x80
   1b738:	e51b303c 	ldr	r3, [fp, #-60]	; 0x3c
   1b73c:	e0223003 	eor	r3, r2, r3
   1b740:	e50b3080 	str	r3, [fp, #-128]	; 0x80
   1b744:	e51b3080 	ldr	r3, [fp, #-128]	; 0x80
   1b748:	e1a00003 	mov	r0, r3
   1b74c:	e3a01013 	mov	r1, #19
   1b750:	ebfffe36 	bl	1b030 <rotl32>
   1b754:	e1a03000 	mov	r3, r0
   1b758:	e50b3080 	str	r3, [fp, #-128]	; 0x80
   1b75c:	e51b2080 	ldr	r2, [fp, #-128]	; 0x80
   1b760:	e51b3084 	ldr	r3, [fp, #-132]	; 0x84
   1b764:	e0823003 	add	r3, r2, r3
   1b768:	e50b3080 	str	r3, [fp, #-128]	; 0x80
   1b76c:	e51b2080 	ldr	r2, [fp, #-128]	; 0x80
   1b770:	e1a03002 	mov	r3, r2
   1b774:	e1a03103 	lsl	r3, r3, #2
   1b778:	e0832002 	add	r2, r3, r2
   1b77c:	e59f3828 	ldr	r3, [pc, #2088]	; 1bfac <murmurhash3_x86_128+0xa04>
   1b780:	e0823003 	add	r3, r2, r3
   1b784:	e50b3080 	str	r3, [fp, #-128]	; 0x80
   1b788:	e51b3040 	ldr	r3, [fp, #-64]	; 0x40
   1b78c:	e51b202c 	ldr	r2, [fp, #-44]	; 0x2c
   1b790:	e0030392 	mul	r3, r2, r3
   1b794:	e50b3040 	str	r3, [fp, #-64]	; 0x40
   1b798:	e51b0040 	ldr	r0, [fp, #-64]	; 0x40
   1b79c:	e3a01010 	mov	r1, #16
   1b7a0:	ebfffe22 	bl	1b030 <rotl32>
   1b7a4:	e50b0040 	str	r0, [fp, #-64]	; 0x40
   1b7a8:	e51b3040 	ldr	r3, [fp, #-64]	; 0x40
   1b7ac:	e51b2030 	ldr	r2, [fp, #-48]	; 0x30
   1b7b0:	e0030392 	mul	r3, r2, r3
   1b7b4:	e50b3040 	str	r3, [fp, #-64]	; 0x40
   1b7b8:	e51b2084 	ldr	r2, [fp, #-132]	; 0x84
   1b7bc:	e51b3040 	ldr	r3, [fp, #-64]	; 0x40
   1b7c0:	e0223003 	eor	r3, r2, r3
   1b7c4:	e50b3084 	str	r3, [fp, #-132]	; 0x84
   1b7c8:	e51b3084 	ldr	r3, [fp, #-132]	; 0x84
   1b7cc:	e1a00003 	mov	r0, r3
   1b7d0:	e3a01011 	mov	r1, #17
   1b7d4:	ebfffe15 	bl	1b030 <rotl32>
   1b7d8:	e1a03000 	mov	r3, r0
   1b7dc:	e50b3084 	str	r3, [fp, #-132]	; 0x84
   1b7e0:	e51b2084 	ldr	r2, [fp, #-132]	; 0x84
   1b7e4:	e51b3088 	ldr	r3, [fp, #-136]	; 0x88
   1b7e8:	e0823003 	add	r3, r2, r3
   1b7ec:	e50b3084 	str	r3, [fp, #-132]	; 0x84
   1b7f0:	e51b2084 	ldr	r2, [fp, #-132]	; 0x84
   1b7f4:	e1a03002 	mov	r3, r2
   1b7f8:	e1a03103 	lsl	r3, r3, #2
   1b7fc:	e0832002 	add	r2, r3, r2
   1b800:	e59f37a8 	ldr	r3, [pc, #1960]	; 1bfb0 <murmurhash3_x86_128+0xa08>
   1b804:	e0823003 	add	r3, r2, r3
   1b808:	e50b3084 	str	r3, [fp, #-132]	; 0x84
   1b80c:	e51b3044 	ldr	r3, [fp, #-68]	; 0x44
   1b810:	e51b2030 	ldr	r2, [fp, #-48]	; 0x30
   1b814:	e0030392 	mul	r3, r2, r3
   1b818:	e50b3044 	str	r3, [fp, #-68]	; 0x44
   1b81c:	e51b0044 	ldr	r0, [fp, #-68]	; 0x44
   1b820:	e3a01011 	mov	r1, #17
   1b824:	ebfffe01 	bl	1b030 <rotl32>
   1b828:	e50b0044 	str	r0, [fp, #-68]	; 0x44
   1b82c:	e51b3044 	ldr	r3, [fp, #-68]	; 0x44
   1b830:	e51b2034 	ldr	r2, [fp, #-52]	; 0x34
   1b834:	e0030392 	mul	r3, r2, r3
   1b838:	e50b3044 	str	r3, [fp, #-68]	; 0x44
   1b83c:	e51b2088 	ldr	r2, [fp, #-136]	; 0x88
   1b840:	e51b3044 	ldr	r3, [fp, #-68]	; 0x44
   1b844:	e0223003 	eor	r3, r2, r3
   1b848:	e50b3088 	str	r3, [fp, #-136]	; 0x88
   1b84c:	e51b3088 	ldr	r3, [fp, #-136]	; 0x88
   1b850:	e1a00003 	mov	r0, r3
   1b854:	e3a0100f 	mov	r1, #15
   1b858:	ebfffdf4 	bl	1b030 <rotl32>
   1b85c:	e1a03000 	mov	r3, r0
   1b860:	e50b3088 	str	r3, [fp, #-136]	; 0x88
   1b864:	e51b2088 	ldr	r2, [fp, #-136]	; 0x88
   1b868:	e51b308c 	ldr	r3, [fp, #-140]	; 0x8c
   1b86c:	e0823003 	add	r3, r2, r3
   1b870:	e50b3088 	str	r3, [fp, #-136]	; 0x88
   1b874:	e51b2088 	ldr	r2, [fp, #-136]	; 0x88
   1b878:	e1a03002 	mov	r3, r2
   1b87c:	e1a03103 	lsl	r3, r3, #2
   1b880:	e0832002 	add	r2, r3, r2
   1b884:	e59f3728 	ldr	r3, [pc, #1832]	; 1bfb4 <murmurhash3_x86_128+0xa0c>
   1b888:	e0823003 	add	r3, r2, r3
   1b88c:	e50b3088 	str	r3, [fp, #-136]	; 0x88
   1b890:	e51b3048 	ldr	r3, [fp, #-72]	; 0x48
   1b894:	e51b2034 	ldr	r2, [fp, #-52]	; 0x34
   1b898:	e0030392 	mul	r3, r2, r3
   1b89c:	e50b3048 	str	r3, [fp, #-72]	; 0x48
   1b8a0:	e51b0048 	ldr	r0, [fp, #-72]	; 0x48
   1b8a4:	e3a01012 	mov	r1, #18
   1b8a8:	ebfffde0 	bl	1b030 <rotl32>
   1b8ac:	e50b0048 	str	r0, [fp, #-72]	; 0x48
   1b8b0:	e51b3048 	ldr	r3, [fp, #-72]	; 0x48
   1b8b4:	e51b2028 	ldr	r2, [fp, #-40]	; 0x28
   1b8b8:	e0030392 	mul	r3, r2, r3
   1b8bc:	e50b3048 	str	r3, [fp, #-72]	; 0x48
   1b8c0:	e51b208c 	ldr	r2, [fp, #-140]	; 0x8c
   1b8c4:	e51b3048 	ldr	r3, [fp, #-72]	; 0x48
   1b8c8:	e0223003 	eor	r3, r2, r3
   1b8cc:	e50b308c 	str	r3, [fp, #-140]	; 0x8c
   1b8d0:	e51b308c 	ldr	r3, [fp, #-140]	; 0x8c
   1b8d4:	e1a00003 	mov	r0, r3
   1b8d8:	e3a0100d 	mov	r1, #13
   1b8dc:	ebfffdd3 	bl	1b030 <rotl32>
   1b8e0:	e1a03000 	mov	r3, r0
   1b8e4:	e50b308c 	str	r3, [fp, #-140]	; 0x8c
   1b8e8:	e51b208c 	ldr	r2, [fp, #-140]	; 0x8c
   1b8ec:	e51b3080 	ldr	r3, [fp, #-128]	; 0x80
   1b8f0:	e0823003 	add	r3, r2, r3
   1b8f4:	e50b308c 	str	r3, [fp, #-140]	; 0x8c
   1b8f8:	e51b208c 	ldr	r2, [fp, #-140]	; 0x8c
   1b8fc:	e1a03002 	mov	r3, r2
   1b900:	e1a03103 	lsl	r3, r3, #2
   1b904:	e0832002 	add	r2, r3, r2
   1b908:	e59f36a8 	ldr	r3, [pc, #1704]	; 1bfb8 <murmurhash3_x86_128+0xa10>
   1b90c:	e0823003 	add	r3, r2, r3
   1b910:	e50b308c 	str	r3, [fp, #-140]	; 0x8c
   1b914:	e51b3008 	ldr	r3, [fp, #-8]
   1b918:	e2833001 	add	r3, r3, #1
   1b91c:	e50b3008 	str	r3, [fp, #-8]
   1b920:	e51b3008 	ldr	r3, [fp, #-8]
   1b924:	e3530000 	cmp	r3, #0
   1b928:	1affff46 	bne	1b648 <murmurhash3_x86_128+0xa0>
   1b92c:	e51b3020 	ldr	r3, [fp, #-32]
   1b930:	e1a03203 	lsl	r3, r3, #4
   1b934:	e51b201c 	ldr	r2, [fp, #-28]
   1b938:	e0823003 	add	r3, r2, r3
   1b93c:	e50b304c 	str	r3, [fp, #-76]	; 0x4c
   1b940:	e3a03000 	mov	r3, #0
   1b944:	e50b300c 	str	r3, [fp, #-12]
   1b948:	e3a03000 	mov	r3, #0
   1b94c:	e50b3010 	str	r3, [fp, #-16]
   1b950:	e3a03000 	mov	r3, #0
   1b954:	e50b3014 	str	r3, [fp, #-20]
   1b958:	e3a03000 	mov	r3, #0
   1b95c:	e50b3018 	str	r3, [fp, #-24]
   1b960:	e51b3094 	ldr	r3, [fp, #-148]	; 0x94
   1b964:	e203300f 	and	r3, r3, #15
   1b968:	e2433001 	sub	r3, r3, #1
   1b96c:	e353000e 	cmp	r3, #14
   1b970:	979ff103 	ldrls	pc, [pc, r3, lsl #2]
   1b974:	ea0000b2 	b	1bc44 <murmurhash3_x86_128+0x69c>
   1b978:	0001bbf0 	.word	0x0001bbf0
   1b97c:	0001bbd4 	.word	0x0001bbd4
   1b980:	0001bbb8 	.word	0x0001bbb8
   1b984:	0001bb9c 	.word	0x0001bb9c
   1b988:	0001bb44 	.word	0x0001bb44
   1b98c:	0001bb28 	.word	0x0001bb28
   1b990:	0001bb0c 	.word	0x0001bb0c
   1b994:	0001baf0 	.word	0x0001baf0
   1b998:	0001ba98 	.word	0x0001ba98
   1b99c:	0001ba7c 	.word	0x0001ba7c
   1b9a0:	0001ba60 	.word	0x0001ba60
   1b9a4:	0001ba44 	.word	0x0001ba44
   1b9a8:	0001b9ec 	.word	0x0001b9ec
   1b9ac:	0001b9d0 	.word	0x0001b9d0
   1b9b0:	0001b9b4 	.word	0x0001b9b4
   1b9b4:	e51b304c 	ldr	r3, [fp, #-76]	; 0x4c
   1b9b8:	e283300e 	add	r3, r3, #14
   1b9bc:	e5d33000 	ldrb	r3, [r3]
   1b9c0:	e1a03803 	lsl	r3, r3, #16
   1b9c4:	e51b2018 	ldr	r2, [fp, #-24]
   1b9c8:	e0223003 	eor	r3, r2, r3
   1b9cc:	e50b3018 	str	r3, [fp, #-24]
   1b9d0:	e51b304c 	ldr	r3, [fp, #-76]	; 0x4c
   1b9d4:	e283300d 	add	r3, r3, #13
   1b9d8:	e5d33000 	ldrb	r3, [r3]
   1b9dc:	e1a03403 	lsl	r3, r3, #8
   1b9e0:	e51b2018 	ldr	r2, [fp, #-24]
   1b9e4:	e0223003 	eor	r3, r2, r3
   1b9e8:	e50b3018 	str	r3, [fp, #-24]
   1b9ec:	e51b304c 	ldr	r3, [fp, #-76]	; 0x4c
   1b9f0:	e283300c 	add	r3, r3, #12
   1b9f4:	e5d33000 	ldrb	r3, [r3]
   1b9f8:	e51b2018 	ldr	r2, [fp, #-24]
   1b9fc:	e0223003 	eor	r3, r2, r3
   1ba00:	e50b3018 	str	r3, [fp, #-24]
   1ba04:	e51b3018 	ldr	r3, [fp, #-24]
   1ba08:	e51b2034 	ldr	r2, [fp, #-52]	; 0x34
   1ba0c:	e0030392 	mul	r3, r2, r3
   1ba10:	e50b3018 	str	r3, [fp, #-24]
   1ba14:	e51b0018 	ldr	r0, [fp, #-24]
   1ba18:	e3a01012 	mov	r1, #18
   1ba1c:	ebfffd83 	bl	1b030 <rotl32>
   1ba20:	e50b0018 	str	r0, [fp, #-24]
   1ba24:	e51b3018 	ldr	r3, [fp, #-24]
   1ba28:	e51b2028 	ldr	r2, [fp, #-40]	; 0x28
   1ba2c:	e0030392 	mul	r3, r2, r3
   1ba30:	e50b3018 	str	r3, [fp, #-24]
   1ba34:	e51b208c 	ldr	r2, [fp, #-140]	; 0x8c
   1ba38:	e51b3018 	ldr	r3, [fp, #-24]
   1ba3c:	e0223003 	eor	r3, r2, r3
   1ba40:	e50b308c 	str	r3, [fp, #-140]	; 0x8c
   1ba44:	e51b304c 	ldr	r3, [fp, #-76]	; 0x4c
   1ba48:	e283300b 	add	r3, r3, #11
   1ba4c:	e5d33000 	ldrb	r3, [r3]
   1ba50:	e1a03c03 	lsl	r3, r3, #24
   1ba54:	e51b2014 	ldr	r2, [fp, #-20]
   1ba58:	e0223003 	eor	r3, r2, r3
   1ba5c:	e50b3014 	str	r3, [fp, #-20]
   1ba60:	e51b304c 	ldr	r3, [fp, #-76]	; 0x4c
   1ba64:	e283300a 	add	r3, r3, #10
   1ba68:	e5d33000 	ldrb	r3, [r3]
   1ba6c:	e1a03803 	lsl	r3, r3, #16
   1ba70:	e51b2014 	ldr	r2, [fp, #-20]
   1ba74:	e0223003 	eor	r3, r2, r3
   1ba78:	e50b3014 	str	r3, [fp, #-20]
   1ba7c:	e51b304c 	ldr	r3, [fp, #-76]	; 0x4c
   1ba80:	e2833009 	add	r3, r3, #9
   1ba84:	e5d33000 	ldrb	r3, [r3]
   1ba88:	e1a03403 	lsl	r3, r3, #8
   1ba8c:	e51b2014 	ldr	r2, [fp, #-20]
   1ba90:	e0223003 	eor	r3, r2, r3
   1ba94:	e50b3014 	str	r3, [fp, #-20]
   1ba98:	e51b304c 	ldr	r3, [fp, #-76]	; 0x4c
   1ba9c:	e2833008 	add	r3, r3, #8
   1baa0:	e5d33000 	ldrb	r3, [r3]
   1baa4:	e51b2014 	ldr	r2, [fp, #-20]
   1baa8:	e0223003 	eor	r3, r2, r3
   1baac:	e50b3014 	str	r3, [fp, #-20]
   1bab0:	e51b3014 	ldr	r3, [fp, #-20]
   1bab4:	e51b2030 	ldr	r2, [fp, #-48]	; 0x30
   1bab8:	e0030392 	mul	r3, r2, r3
   1babc:	e50b3014 	str	r3, [fp, #-20]
   1bac0:	e51b0014 	ldr	r0, [fp, #-20]
   1bac4:	e3a01011 	mov	r1, #17
   1bac8:	ebfffd58 	bl	1b030 <rotl32>
   1bacc:	e50b0014 	str	r0, [fp, #-20]
   1bad0:	e51b3014 	ldr	r3, [fp, #-20]
   1bad4:	e51b2034 	ldr	r2, [fp, #-52]	; 0x34
   1bad8:	e0030392 	mul	r3, r2, r3
   1badc:	e50b3014 	str	r3, [fp, #-20]
   1bae0:	e51b2088 	ldr	r2, [fp, #-136]	; 0x88
   1bae4:	e51b3014 	ldr	r3, [fp, #-20]
   1bae8:	e0223003 	eor	r3, r2, r3
   1baec:	e50b3088 	str	r3, [fp, #-136]	; 0x88
   1baf0:	e51b304c 	ldr	r3, [fp, #-76]	; 0x4c
   1baf4:	e2833007 	add	r3, r3, #7
   1baf8:	e5d33000 	ldrb	r3, [r3]
   1bafc:	e1a03c03 	lsl	r3, r3, #24
   1bb00:	e51b2010 	ldr	r2, [fp, #-16]
   1bb04:	e0223003 	eor	r3, r2, r3
   1bb08:	e50b3010 	str	r3, [fp, #-16]
   1bb0c:	e51b304c 	ldr	r3, [fp, #-76]	; 0x4c
   1bb10:	e2833006 	add	r3, r3, #6
   1bb14:	e5d33000 	ldrb	r3, [r3]
   1bb18:	e1a03803 	lsl	r3, r3, #16
   1bb1c:	e51b2010 	ldr	r2, [fp, #-16]
   1bb20:	e0223003 	eor	r3, r2, r3
   1bb24:	e50b3010 	str	r3, [fp, #-16]
   1bb28:	e51b304c 	ldr	r3, [fp, #-76]	; 0x4c
   1bb2c:	e2833005 	add	r3, r3, #5
   1bb30:	e5d33000 	ldrb	r3, [r3]
   1bb34:	e1a03403 	lsl	r3, r3, #8
   1bb38:	e51b2010 	ldr	r2, [fp, #-16]
   1bb3c:	e0223003 	eor	r3, r2, r3
   1bb40:	e50b3010 	str	r3, [fp, #-16]
   1bb44:	e51b304c 	ldr	r3, [fp, #-76]	; 0x4c
   1bb48:	e2833004 	add	r3, r3, #4
   1bb4c:	e5d33000 	ldrb	r3, [r3]
   1bb50:	e51b2010 	ldr	r2, [fp, #-16]
   1bb54:	e0223003 	eor	r3, r2, r3
   1bb58:	e50b3010 	str	r3, [fp, #-16]
   1bb5c:	e51b3010 	ldr	r3, [fp, #-16]
   1bb60:	e51b202c 	ldr	r2, [fp, #-44]	; 0x2c
   1bb64:	e0030392 	mul	r3, r2, r3
   1bb68:	e50b3010 	str	r3, [fp, #-16]
   1bb6c:	e51b0010 	ldr	r0, [fp, #-16]
   1bb70:	e3a01010 	mov	r1, #16
   1bb74:	ebfffd2d 	bl	1b030 <rotl32>
   1bb78:	e50b0010 	str	r0, [fp, #-16]
   1bb7c:	e51b3010 	ldr	r3, [fp, #-16]
   1bb80:	e51b2030 	ldr	r2, [fp, #-48]	; 0x30
   1bb84:	e0030392 	mul	r3, r2, r3
   1bb88:	e50b3010 	str	r3, [fp, #-16]
   1bb8c:	e51b2084 	ldr	r2, [fp, #-132]	; 0x84
   1bb90:	e51b3010 	ldr	r3, [fp, #-16]
   1bb94:	e0223003 	eor	r3, r2, r3
   1bb98:	e50b3084 	str	r3, [fp, #-132]	; 0x84
   1bb9c:	e51b304c 	ldr	r3, [fp, #-76]	; 0x4c
   1bba0:	e2833003 	add	r3, r3, #3
   1bba4:	e5d33000 	ldrb	r3, [r3]
   1bba8:	e1a03c03 	lsl	r3, r3, #24
   1bbac:	e51b200c 	ldr	r2, [fp, #-12]
   1bbb0:	e0223003 	eor	r3, r2, r3
   1bbb4:	e50b300c 	str	r3, [fp, #-12]
   1bbb8:	e51b304c 	ldr	r3, [fp, #-76]	; 0x4c
   1bbbc:	e2833002 	add	r3, r3, #2
   1bbc0:	e5d33000 	ldrb	r3, [r3]
   1bbc4:	e1a03803 	lsl	r3, r3, #16
   1bbc8:	e51b200c 	ldr	r2, [fp, #-12]
   1bbcc:	e0223003 	eor	r3, r2, r3
   1bbd0:	e50b300c 	str	r3, [fp, #-12]
   1bbd4:	e51b304c 	ldr	r3, [fp, #-76]	; 0x4c
   1bbd8:	e2833001 	add	r3, r3, #1
   1bbdc:	e5d33000 	ldrb	r3, [r3]
   1bbe0:	e1a03403 	lsl	r3, r3, #8
   1bbe4:	e51b200c 	ldr	r2, [fp, #-12]
   1bbe8:	e0223003 	eor	r3, r2, r3
   1bbec:	e50b300c 	str	r3, [fp, #-12]
   1bbf0:	e51b304c 	ldr	r3, [fp, #-76]	; 0x4c
   1bbf4:	e5d33000 	ldrb	r3, [r3]
   1bbf8:	e51b200c 	ldr	r2, [fp, #-12]
   1bbfc:	e0223003 	eor	r3, r2, r3
   1bc00:	e50b300c 	str	r3, [fp, #-12]
   1bc04:	e51b300c 	ldr	r3, [fp, #-12]
   1bc08:	e51b2028 	ldr	r2, [fp, #-40]	; 0x28
   1bc0c:	e0030392 	mul	r3, r2, r3
   1bc10:	e50b300c 	str	r3, [fp, #-12]
   1bc14:	e51b000c 	ldr	r0, [fp, #-12]
   1bc18:	e3a0100f 	mov	r1, #15
   1bc1c:	ebfffd03 	bl	1b030 <rotl32>
   1bc20:	e50b000c 	str	r0, [fp, #-12]
   1bc24:	e51b300c 	ldr	r3, [fp, #-12]
   1bc28:	e51b202c 	ldr	r2, [fp, #-44]	; 0x2c
   1bc2c:	e0030392 	mul	r3, r2, r3
   1bc30:	e50b300c 	str	r3, [fp, #-12]
   1bc34:	e51b2080 	ldr	r2, [fp, #-128]	; 0x80
   1bc38:	e51b300c 	ldr	r3, [fp, #-12]
   1bc3c:	e0223003 	eor	r3, r2, r3
   1bc40:	e50b3080 	str	r3, [fp, #-128]	; 0x80
   1bc44:	e51b2080 	ldr	r2, [fp, #-128]	; 0x80
   1bc48:	e51b3094 	ldr	r3, [fp, #-148]	; 0x94
   1bc4c:	e0223003 	eor	r3, r2, r3
   1bc50:	e50b3080 	str	r3, [fp, #-128]	; 0x80
   1bc54:	e51b2084 	ldr	r2, [fp, #-132]	; 0x84
   1bc58:	e51b3094 	ldr	r3, [fp, #-148]	; 0x94
   1bc5c:	e0223003 	eor	r3, r2, r3
   1bc60:	e50b3084 	str	r3, [fp, #-132]	; 0x84
   1bc64:	e51b2088 	ldr	r2, [fp, #-136]	; 0x88
   1bc68:	e51b3094 	ldr	r3, [fp, #-148]	; 0x94
   1bc6c:	e0223003 	eor	r3, r2, r3
   1bc70:	e50b3088 	str	r3, [fp, #-136]	; 0x88
   1bc74:	e51b208c 	ldr	r2, [fp, #-140]	; 0x8c
   1bc78:	e51b3094 	ldr	r3, [fp, #-148]	; 0x94
   1bc7c:	e0223003 	eor	r3, r2, r3
   1bc80:	e50b308c 	str	r3, [fp, #-140]	; 0x8c
   1bc84:	e51b2080 	ldr	r2, [fp, #-128]	; 0x80
   1bc88:	e51b3084 	ldr	r3, [fp, #-132]	; 0x84
   1bc8c:	e0823003 	add	r3, r2, r3
   1bc90:	e50b3080 	str	r3, [fp, #-128]	; 0x80
   1bc94:	e51b2080 	ldr	r2, [fp, #-128]	; 0x80
   1bc98:	e51b3088 	ldr	r3, [fp, #-136]	; 0x88
   1bc9c:	e0823003 	add	r3, r2, r3
   1bca0:	e50b3080 	str	r3, [fp, #-128]	; 0x80
   1bca4:	e51b2080 	ldr	r2, [fp, #-128]	; 0x80
   1bca8:	e51b308c 	ldr	r3, [fp, #-140]	; 0x8c
   1bcac:	e0823003 	add	r3, r2, r3
   1bcb0:	e50b3080 	str	r3, [fp, #-128]	; 0x80
   1bcb4:	e51b2084 	ldr	r2, [fp, #-132]	; 0x84
   1bcb8:	e51b3080 	ldr	r3, [fp, #-128]	; 0x80
   1bcbc:	e0823003 	add	r3, r2, r3
   1bcc0:	e50b3084 	str	r3, [fp, #-132]	; 0x84
   1bcc4:	e51b2088 	ldr	r2, [fp, #-136]	; 0x88
   1bcc8:	e51b3080 	ldr	r3, [fp, #-128]	; 0x80
   1bccc:	e0823003 	add	r3, r2, r3
   1bcd0:	e50b3088 	str	r3, [fp, #-136]	; 0x88
   1bcd4:	e51b208c 	ldr	r2, [fp, #-140]	; 0x8c
   1bcd8:	e51b3080 	ldr	r3, [fp, #-128]	; 0x80
   1bcdc:	e0823003 	add	r3, r2, r3
   1bce0:	e50b308c 	str	r3, [fp, #-140]	; 0x8c
   1bce4:	e51b3080 	ldr	r3, [fp, #-128]	; 0x80
   1bce8:	e50b3070 	str	r3, [fp, #-112]	; 0x70
   1bcec:	e51b3070 	ldr	r3, [fp, #-112]	; 0x70
   1bcf0:	e1a03823 	lsr	r3, r3, #16
   1bcf4:	e51b2070 	ldr	r2, [fp, #-112]	; 0x70
   1bcf8:	e0223003 	eor	r3, r2, r3
   1bcfc:	e50b3070 	str	r3, [fp, #-112]	; 0x70
   1bd00:	e51b3070 	ldr	r3, [fp, #-112]	; 0x70
   1bd04:	e59f22b0 	ldr	r2, [pc, #688]	; 1bfbc <murmurhash3_x86_128+0xa14>
   1bd08:	e0030392 	mul	r3, r2, r3
   1bd0c:	e50b3070 	str	r3, [fp, #-112]	; 0x70
   1bd10:	e51b3070 	ldr	r3, [fp, #-112]	; 0x70
   1bd14:	e1a036a3 	lsr	r3, r3, #13
   1bd18:	e51b2070 	ldr	r2, [fp, #-112]	; 0x70
   1bd1c:	e0223003 	eor	r3, r2, r3
   1bd20:	e50b3070 	str	r3, [fp, #-112]	; 0x70
   1bd24:	e51b3070 	ldr	r3, [fp, #-112]	; 0x70
   1bd28:	e59f2290 	ldr	r2, [pc, #656]	; 1bfc0 <murmurhash3_x86_128+0xa18>
   1bd2c:	e0030392 	mul	r3, r2, r3
   1bd30:	e50b3070 	str	r3, [fp, #-112]	; 0x70
   1bd34:	e51b3070 	ldr	r3, [fp, #-112]	; 0x70
   1bd38:	e1a03823 	lsr	r3, r3, #16
   1bd3c:	e51b2070 	ldr	r2, [fp, #-112]	; 0x70
   1bd40:	e0223003 	eor	r3, r2, r3
   1bd44:	e50b3070 	str	r3, [fp, #-112]	; 0x70
   1bd48:	e51b3070 	ldr	r3, [fp, #-112]	; 0x70
   1bd4c:	e50b3080 	str	r3, [fp, #-128]	; 0x80
   1bd50:	e51b3084 	ldr	r3, [fp, #-132]	; 0x84
   1bd54:	e50b3074 	str	r3, [fp, #-116]	; 0x74
   1bd58:	e51b3074 	ldr	r3, [fp, #-116]	; 0x74
   1bd5c:	e1a03823 	lsr	r3, r3, #16
   1bd60:	e51b2074 	ldr	r2, [fp, #-116]	; 0x74
   1bd64:	e0223003 	eor	r3, r2, r3
   1bd68:	e50b3074 	str	r3, [fp, #-116]	; 0x74
   1bd6c:	e51b3074 	ldr	r3, [fp, #-116]	; 0x74
   1bd70:	e59f2244 	ldr	r2, [pc, #580]	; 1bfbc <murmurhash3_x86_128+0xa14>
   1bd74:	e0030392 	mul	r3, r2, r3
   1bd78:	e50b3074 	str	r3, [fp, #-116]	; 0x74
   1bd7c:	e51b3074 	ldr	r3, [fp, #-116]	; 0x74
   1bd80:	e1a036a3 	lsr	r3, r3, #13
   1bd84:	e51b2074 	ldr	r2, [fp, #-116]	; 0x74
   1bd88:	e0223003 	eor	r3, r2, r3
   1bd8c:	e50b3074 	str	r3, [fp, #-116]	; 0x74
   1bd90:	e51b3074 	ldr	r3, [fp, #-116]	; 0x74
   1bd94:	e59f2224 	ldr	r2, [pc, #548]	; 1bfc0 <murmurhash3_x86_128+0xa18>
   1bd98:	e0030392 	mul	r3, r2, r3
   1bd9c:	e50b3074 	str	r3, [fp, #-116]	; 0x74
   1bda0:	e51b3074 	ldr	r3, [fp, #-116]	; 0x74
   1bda4:	e1a03823 	lsr	r3, r3, #16
   1bda8:	e51b2074 	ldr	r2, [fp, #-116]	; 0x74
   1bdac:	e0223003 	eor	r3, r2, r3
   1bdb0:	e50b3074 	str	r3, [fp, #-116]	; 0x74
   1bdb4:	e51b3074 	ldr	r3, [fp, #-116]	; 0x74
   1bdb8:	e50b3084 	str	r3, [fp, #-132]	; 0x84
   1bdbc:	e51b3088 	ldr	r3, [fp, #-136]	; 0x88
   1bdc0:	e50b3078 	str	r3, [fp, #-120]	; 0x78
   1bdc4:	e51b3078 	ldr	r3, [fp, #-120]	; 0x78
   1bdc8:	e1a03823 	lsr	r3, r3, #16
   1bdcc:	e51b2078 	ldr	r2, [fp, #-120]	; 0x78
   1bdd0:	e0223003 	eor	r3, r2, r3
   1bdd4:	e50b3078 	str	r3, [fp, #-120]	; 0x78
   1bdd8:	e51b3078 	ldr	r3, [fp, #-120]	; 0x78
   1bddc:	e59f21d8 	ldr	r2, [pc, #472]	; 1bfbc <murmurhash3_x86_128+0xa14>
   1bde0:	e0030392 	mul	r3, r2, r3
   1bde4:	e50b3078 	str	r3, [fp, #-120]	; 0x78
   1bde8:	e51b3078 	ldr	r3, [fp, #-120]	; 0x78
   1bdec:	e1a036a3 	lsr	r3, r3, #13
   1bdf0:	e51b2078 	ldr	r2, [fp, #-120]	; 0x78
   1bdf4:	e0223003 	eor	r3, r2, r3
   1bdf8:	e50b3078 	str	r3, [fp, #-120]	; 0x78
   1bdfc:	e51b3078 	ldr	r3, [fp, #-120]	; 0x78
   1be00:	e59f21b8 	ldr	r2, [pc, #440]	; 1bfc0 <murmurhash3_x86_128+0xa18>
   1be04:	e0030392 	mul	r3, r2, r3
   1be08:	e50b3078 	str	r3, [fp, #-120]	; 0x78
   1be0c:	e51b3078 	ldr	r3, [fp, #-120]	; 0x78
   1be10:	e1a03823 	lsr	r3, r3, #16
   1be14:	e51b2078 	ldr	r2, [fp, #-120]	; 0x78
   1be18:	e0223003 	eor	r3, r2, r3
   1be1c:	e50b3078 	str	r3, [fp, #-120]	; 0x78
   1be20:	e51b3078 	ldr	r3, [fp, #-120]	; 0x78
   1be24:	e50b3088 	str	r3, [fp, #-136]	; 0x88
   1be28:	e51b308c 	ldr	r3, [fp, #-140]	; 0x8c
   1be2c:	e50b307c 	str	r3, [fp, #-124]	; 0x7c
   1be30:	e51b307c 	ldr	r3, [fp, #-124]	; 0x7c
   1be34:	e1a03823 	lsr	r3, r3, #16
   1be38:	e51b207c 	ldr	r2, [fp, #-124]	; 0x7c
   1be3c:	e0223003 	eor	r3, r2, r3
   1be40:	e50b307c 	str	r3, [fp, #-124]	; 0x7c
   1be44:	e51b307c 	ldr	r3, [fp, #-124]	; 0x7c
   1be48:	e59f216c 	ldr	r2, [pc, #364]	; 1bfbc <murmurhash3_x86_128+0xa14>
   1be4c:	e0030392 	mul	r3, r2, r3
   1be50:	e50b307c 	str	r3, [fp, #-124]	; 0x7c
   1be54:	e51b307c 	ldr	r3, [fp, #-124]	; 0x7c
   1be58:	e1a036a3 	lsr	r3, r3, #13
   1be5c:	e51b207c 	ldr	r2, [fp, #-124]	; 0x7c
   1be60:	e0223003 	eor	r3, r2, r3
   1be64:	e50b307c 	str	r3, [fp, #-124]	; 0x7c
   1be68:	e51b307c 	ldr	r3, [fp, #-124]	; 0x7c
   1be6c:	e59f214c 	ldr	r2, [pc, #332]	; 1bfc0 <murmurhash3_x86_128+0xa18>
   1be70:	e0030392 	mul	r3, r2, r3
   1be74:	e50b307c 	str	r3, [fp, #-124]	; 0x7c
   1be78:	e51b307c 	ldr	r3, [fp, #-124]	; 0x7c
   1be7c:	e1a03823 	lsr	r3, r3, #16
   1be80:	e51b207c 	ldr	r2, [fp, #-124]	; 0x7c
   1be84:	e0223003 	eor	r3, r2, r3
   1be88:	e50b307c 	str	r3, [fp, #-124]	; 0x7c
   1be8c:	e51b307c 	ldr	r3, [fp, #-124]	; 0x7c
   1be90:	e50b308c 	str	r3, [fp, #-140]	; 0x8c
   1be94:	e51b2080 	ldr	r2, [fp, #-128]	; 0x80
   1be98:	e51b3084 	ldr	r3, [fp, #-132]	; 0x84
   1be9c:	e0823003 	add	r3, r2, r3
   1bea0:	e50b3080 	str	r3, [fp, #-128]	; 0x80
   1bea4:	e51b2080 	ldr	r2, [fp, #-128]	; 0x80
   1bea8:	e51b3088 	ldr	r3, [fp, #-136]	; 0x88
   1beac:	e0823003 	add	r3, r2, r3
   1beb0:	e50b3080 	str	r3, [fp, #-128]	; 0x80
   1beb4:	e51b2080 	ldr	r2, [fp, #-128]	; 0x80
   1beb8:	e51b308c 	ldr	r3, [fp, #-140]	; 0x8c
   1bebc:	e0823003 	add	r3, r2, r3
   1bec0:	e50b3080 	str	r3, [fp, #-128]	; 0x80
   1bec4:	e51b2084 	ldr	r2, [fp, #-132]	; 0x84
   1bec8:	e51b3080 	ldr	r3, [fp, #-128]	; 0x80
   1becc:	e0823003 	add	r3, r2, r3
   1bed0:	e50b3084 	str	r3, [fp, #-132]	; 0x84
   1bed4:	e51b2088 	ldr	r2, [fp, #-136]	; 0x88
   1bed8:	e51b3080 	ldr	r3, [fp, #-128]	; 0x80
   1bedc:	e0823003 	add	r3, r2, r3
   1bee0:	e50b3088 	str	r3, [fp, #-136]	; 0x88
   1bee4:	e51b208c 	ldr	r2, [fp, #-140]	; 0x8c
   1bee8:	e51b3080 	ldr	r3, [fp, #-128]	; 0x80
   1beec:	e0823003 	add	r3, r2, r3
   1bef0:	e50b308c 	str	r3, [fp, #-140]	; 0x8c
   1bef4:	e51b2098 	ldr	r2, [fp, #-152]	; 0x98
   1bef8:	e24b3080 	sub	r3, fp, #128	; 0x80
   1befc:	e1a01002 	mov	r1, r2
   1bf00:	e1a02003 	mov	r2, r3
   1bf04:	e3a03004 	mov	r3, #4
   1bf08:	e1a00001 	mov	r0, r1
   1bf0c:	e1a01002 	mov	r1, r2
   1bf10:	e1a02003 	mov	r2, r3
   1bf14:	ebffb317 	bl	8b78 <_init+0x74>
   1bf18:	e51b3098 	ldr	r3, [fp, #-152]	; 0x98
   1bf1c:	e2832004 	add	r2, r3, #4
   1bf20:	e24b3084 	sub	r3, fp, #132	; 0x84
   1bf24:	e1a01002 	mov	r1, r2
   1bf28:	e1a02003 	mov	r2, r3
   1bf2c:	e3a03004 	mov	r3, #4
   1bf30:	e1a00001 	mov	r0, r1
   1bf34:	e1a01002 	mov	r1, r2
   1bf38:	e1a02003 	mov	r2, r3
   1bf3c:	ebffb30d 	bl	8b78 <_init+0x74>
   1bf40:	e51b3098 	ldr	r3, [fp, #-152]	; 0x98
   1bf44:	e2832008 	add	r2, r3, #8
   1bf48:	e24b3088 	sub	r3, fp, #136	; 0x88
   1bf4c:	e1a01002 	mov	r1, r2
   1bf50:	e1a02003 	mov	r2, r3
   1bf54:	e3a03004 	mov	r3, #4
   1bf58:	e1a00001 	mov	r0, r1
   1bf5c:	e1a01002 	mov	r1, r2
   1bf60:	e1a02003 	mov	r2, r3
   1bf64:	ebffb303 	bl	8b78 <_init+0x74>
   1bf68:	e51b3098 	ldr	r3, [fp, #-152]	; 0x98
   1bf6c:	e283200c 	add	r2, r3, #12
   1bf70:	e24b308c 	sub	r3, fp, #140	; 0x8c
   1bf74:	e1a01002 	mov	r1, r2
   1bf78:	e1a02003 	mov	r2, r3
   1bf7c:	e3a03004 	mov	r3, #4
   1bf80:	e1a00001 	mov	r0, r1
   1bf84:	e1a01002 	mov	r1, r2
   1bf88:	e1a02003 	mov	r2, r3
   1bf8c:	ebffb2f9 	bl	8b78 <_init+0x74>
   1bf90:	e24bd004 	sub	sp, fp, #4
   1bf94:	e8bd8800 	pop	{fp, pc}
   1bf98:	b00bb00b 	.word	0xb00bb00b
   1bf9c:	239b961b 	.word	0x239b961b
   1bfa0:	ab0e9789 	.word	0xab0e9789
   1bfa4:	38b34ae5 	.word	0x38b34ae5
   1bfa8:	a1e38b93 	.word	0xa1e38b93
   1bfac:	561ccd1b 	.word	0x561ccd1b
   1bfb0:	0bcaa747 	.word	0x0bcaa747
   1bfb4:	96cd1c35 	.word	0x96cd1c35
   1bfb8:	32ac3b17 	.word	0x32ac3b17
   1bfbc:	85ebca6b 	.word	0x85ebca6b
   1bfc0:	c2b2ae35 	.word	0xc2b2ae35

0001bfc4 <murmurhash3_x64_128>:
   1bfc4:	e92d4bf0 	push	{r4, r5, r6, r7, r8, r9, fp, lr}
   1bfc8:	e28db01c 	add	fp, sp, #28
   1bfcc:	e24dde13 	sub	sp, sp, #304	; 0x130
   1bfd0:	e50b00a8 	str	r0, [fp, #-168]	; 0xa8
   1bfd4:	e50b10ac 	str	r1, [fp, #-172]	; 0xac
   1bfd8:	e50b20b0 	str	r2, [fp, #-176]	; 0xb0
   1bfdc:	e51b30a8 	ldr	r3, [fp, #-168]	; 0xa8
   1bfe0:	e50b3038 	str	r3, [fp, #-56]	; 0x38
   1bfe4:	e51b30ac 	ldr	r3, [fp, #-172]	; 0xac
   1bfe8:	e1a03223 	lsr	r3, r3, #4
   1bfec:	e50b303c 	str	r3, [fp, #-60]	; 0x3c
   1bff0:	e59f3068 	ldr	r3, [pc, #104]	; 1c060 <murmurhash3_x64_128+0x9c>
   1bff4:	e50b3040 	str	r3, [fp, #-64]	; 0x40
   1bff8:	e51b1040 	ldr	r1, [fp, #-64]	; 0x40
   1bffc:	e1a02001 	mov	r2, r1
   1c000:	e3a03000 	mov	r3, #0
   1c004:	e14b29fc 	strd	r2, [fp, #-156]	; 0xffffff64
   1c008:	e51b1040 	ldr	r1, [fp, #-64]	; 0x40
   1c00c:	e1a02001 	mov	r2, r1
   1c010:	e3a03000 	mov	r3, #0
   1c014:	e14b2af4 	strd	r2, [fp, #-164]	; 0xffffff5c
   1c018:	e28f3030 	add	r3, pc, #48	; 0x30
   1c01c:	e1c320d0 	ldrd	r2, [r3]
   1c020:	e14b24fc 	strd	r2, [fp, #-76]	; 0xffffffb4
   1c024:	e28f302c 	add	r3, pc, #44	; 0x2c
   1c028:	e1c320d0 	ldrd	r2, [r3]
   1c02c:	e14b25f4 	strd	r2, [fp, #-84]	; 0xffffffac
   1c030:	e51b3038 	ldr	r3, [fp, #-56]	; 0x38
   1c034:	e50b3058 	str	r3, [fp, #-88]	; 0x58
   1c038:	e3a03000 	mov	r3, #0
   1c03c:	e50b3020 	str	r3, [fp, #-32]
   1c040:	e3a03000 	mov	r3, #0
   1c044:	e50b3020 	str	r3, [fp, #-32]
   1c048:	ea0000ab 	b	1c2fc <murmurhash3_x64_128+0x338>
   1c04c:	e1a00000 	nop			; (mov r0, r0)
   1c050:	114253d5 	.word	0x114253d5
   1c054:	87c37b91 	.word	0x87c37b91
   1c058:	2745937f 	.word	0x2745937f
   1c05c:	4cf5ad43 	.word	0x4cf5ad43
   1c060:	feedb00b 	.word	0xfeedb00b
   1c064:	e51b3020 	ldr	r3, [fp, #-32]
   1c068:	e1a02083 	lsl	r2, r3, #1
   1c06c:	e51b3058 	ldr	r3, [fp, #-88]	; 0x58
   1c070:	e50b3074 	str	r3, [fp, #-116]	; 0x74
   1c074:	e50b2078 	str	r2, [fp, #-120]	; 0x78
   1c078:	e51b3078 	ldr	r3, [fp, #-120]	; 0x78
   1c07c:	e1a02183 	lsl	r2, r3, #3
   1c080:	e51b3074 	ldr	r3, [fp, #-116]	; 0x74
   1c084:	e0833002 	add	r3, r3, r2
   1c088:	e1c320d0 	ldrd	r2, [r3]
   1c08c:	e14b26f4 	strd	r2, [fp, #-100]	; 0xffffff9c
   1c090:	e51b3020 	ldr	r3, [fp, #-32]
   1c094:	e1a03083 	lsl	r3, r3, #1
   1c098:	e2832001 	add	r2, r3, #1
   1c09c:	e51b3058 	ldr	r3, [fp, #-88]	; 0x58
   1c0a0:	e50b307c 	str	r3, [fp, #-124]	; 0x7c
   1c0a4:	e50b2080 	str	r2, [fp, #-128]	; 0x80
   1c0a8:	e51b3080 	ldr	r3, [fp, #-128]	; 0x80
   1c0ac:	e1a02183 	lsl	r2, r3, #3
   1c0b0:	e51b307c 	ldr	r3, [fp, #-124]	; 0x7c
   1c0b4:	e0833002 	add	r3, r3, r2
   1c0b8:	e1c320d0 	ldrd	r2, [r3]
   1c0bc:	e14b26fc 	strd	r2, [fp, #-108]	; 0xffffff94
   1c0c0:	e51b2060 	ldr	r2, [fp, #-96]	; 0x60
   1c0c4:	e51b304c 	ldr	r3, [fp, #-76]	; 0x4c
   1c0c8:	e0010293 	mul	r1, r3, r2
   1c0cc:	e51b2048 	ldr	r2, [fp, #-72]	; 0x48
   1c0d0:	e51b3064 	ldr	r3, [fp, #-100]	; 0x64
   1c0d4:	e0030293 	mul	r3, r3, r2
   1c0d8:	e0811003 	add	r1, r1, r3
   1c0dc:	e51b2064 	ldr	r2, [fp, #-100]	; 0x64
   1c0e0:	e51b304c 	ldr	r3, [fp, #-76]	; 0x4c
   1c0e4:	e0832392 	umull	r2, r3, r2, r3
   1c0e8:	e0811003 	add	r1, r1, r3
   1c0ec:	e1a03001 	mov	r3, r1
   1c0f0:	e14b26f4 	strd	r2, [fp, #-100]	; 0xffffff9c
   1c0f4:	e14b26f4 	strd	r2, [fp, #-100]	; 0xffffff9c
   1c0f8:	e14b06d4 	ldrd	r0, [fp, #-100]	; 0xffffff9c
   1c0fc:	e3a0201f 	mov	r2, #31
   1c100:	ebfffbd8 	bl	1b068 <rotl64>
   1c104:	e14b06f4 	strd	r0, [fp, #-100]	; 0xffffff9c
   1c108:	e51b2060 	ldr	r2, [fp, #-96]	; 0x60
   1c10c:	e51b3054 	ldr	r3, [fp, #-84]	; 0x54
   1c110:	e0010293 	mul	r1, r3, r2
   1c114:	e51b2050 	ldr	r2, [fp, #-80]	; 0x50
   1c118:	e51b3064 	ldr	r3, [fp, #-100]	; 0x64
   1c11c:	e0030293 	mul	r3, r3, r2
   1c120:	e0811003 	add	r1, r1, r3
   1c124:	e51b2064 	ldr	r2, [fp, #-100]	; 0x64
   1c128:	e51b3054 	ldr	r3, [fp, #-84]	; 0x54
   1c12c:	e0832392 	umull	r2, r3, r2, r3
   1c130:	e0811003 	add	r1, r1, r3
   1c134:	e1a03001 	mov	r3, r1
   1c138:	e14b26f4 	strd	r2, [fp, #-100]	; 0xffffff9c
   1c13c:	e14b26f4 	strd	r2, [fp, #-100]	; 0xffffff9c
   1c140:	e14b09dc 	ldrd	r0, [fp, #-156]	; 0xffffff64
   1c144:	e14b26d4 	ldrd	r2, [fp, #-100]	; 0xffffff9c
   1c148:	e0222000 	eor	r2, r2, r0
   1c14c:	e0233001 	eor	r3, r3, r1
   1c150:	e14b29fc 	strd	r2, [fp, #-156]	; 0xffffff64
   1c154:	e14b29dc 	ldrd	r2, [fp, #-156]	; 0xffffff64
   1c158:	e1a00002 	mov	r0, r2
   1c15c:	e1a01003 	mov	r1, r3
   1c160:	e3a0201b 	mov	r2, #27
   1c164:	ebfffbbf 	bl	1b068 <rotl64>
   1c168:	e1a02000 	mov	r2, r0
   1c16c:	e1a03001 	mov	r3, r1
   1c170:	e14b29fc 	strd	r2, [fp, #-156]	; 0xffffff64
   1c174:	e14b09dc 	ldrd	r0, [fp, #-156]	; 0xffffff64
   1c178:	e14b2ad4 	ldrd	r2, [fp, #-164]	; 0xffffff5c
   1c17c:	e0922000 	adds	r2, r2, r0
   1c180:	e0a33001 	adc	r3, r3, r1
   1c184:	e14b29fc 	strd	r2, [fp, #-156]	; 0xffffff64
   1c188:	e14b49dc 	ldrd	r4, [fp, #-156]	; 0xffffff64
   1c18c:	e1a02004 	mov	r2, r4
   1c190:	e1a03005 	mov	r3, r5
   1c194:	e1a01f22 	lsr	r1, r2, #30
   1c198:	e1a00103 	lsl	r0, r3, #2
   1c19c:	e50b0148 	str	r0, [fp, #-328]	; 0x148
   1c1a0:	e51b0148 	ldr	r0, [fp, #-328]	; 0x148
   1c1a4:	e1811000 	orr	r1, r1, r0
   1c1a8:	e50b1148 	str	r1, [fp, #-328]	; 0x148
   1c1ac:	e1a01102 	lsl	r1, r2, #2
   1c1b0:	e50b114c 	str	r1, [fp, #-332]	; 0x14c
   1c1b4:	e24b0e15 	sub	r0, fp, #336	; 0x150
   1c1b8:	e1c020d4 	ldrd	r2, [r0, #4]
   1c1bc:	e1a00002 	mov	r0, r2
   1c1c0:	e1a01003 	mov	r1, r3
   1c1c4:	e0900004 	adds	r0, r0, r4
   1c1c8:	e0a11005 	adc	r1, r1, r5
   1c1cc:	e28f3f6f 	add	r3, pc, #444	; 0x1bc
   1c1d0:	e1c320d0 	ldrd	r2, [r3]
   1c1d4:	e0922000 	adds	r2, r2, r0
   1c1d8:	e0a33001 	adc	r3, r3, r1
   1c1dc:	e14b29fc 	strd	r2, [fp, #-156]	; 0xffffff64
   1c1e0:	e51b2068 	ldr	r2, [fp, #-104]	; 0x68
   1c1e4:	e51b3054 	ldr	r3, [fp, #-84]	; 0x54
   1c1e8:	e0010293 	mul	r1, r3, r2
   1c1ec:	e51b2050 	ldr	r2, [fp, #-80]	; 0x50
   1c1f0:	e51b306c 	ldr	r3, [fp, #-108]	; 0x6c
   1c1f4:	e0030293 	mul	r3, r3, r2
   1c1f8:	e0811003 	add	r1, r1, r3
   1c1fc:	e51b206c 	ldr	r2, [fp, #-108]	; 0x6c
   1c200:	e51b3054 	ldr	r3, [fp, #-84]	; 0x54
   1c204:	e0832392 	umull	r2, r3, r2, r3
   1c208:	e0811003 	add	r1, r1, r3
   1c20c:	e1a03001 	mov	r3, r1
   1c210:	e14b26fc 	strd	r2, [fp, #-108]	; 0xffffff94
   1c214:	e14b26fc 	strd	r2, [fp, #-108]	; 0xffffff94
   1c218:	e14b06dc 	ldrd	r0, [fp, #-108]	; 0xffffff94
   1c21c:	e3a02021 	mov	r2, #33	; 0x21
   1c220:	ebfffb90 	bl	1b068 <rotl64>
   1c224:	e14b06fc 	strd	r0, [fp, #-108]	; 0xffffff94
   1c228:	e51b2068 	ldr	r2, [fp, #-104]	; 0x68
   1c22c:	e51b304c 	ldr	r3, [fp, #-76]	; 0x4c
   1c230:	e0010293 	mul	r1, r3, r2
   1c234:	e51b2048 	ldr	r2, [fp, #-72]	; 0x48
   1c238:	e51b306c 	ldr	r3, [fp, #-108]	; 0x6c
   1c23c:	e0030293 	mul	r3, r3, r2
   1c240:	e0811003 	add	r1, r1, r3
   1c244:	e51b206c 	ldr	r2, [fp, #-108]	; 0x6c
   1c248:	e51b304c 	ldr	r3, [fp, #-76]	; 0x4c
   1c24c:	e0832392 	umull	r2, r3, r2, r3
   1c250:	e0811003 	add	r1, r1, r3
   1c254:	e1a03001 	mov	r3, r1
   1c258:	e14b26fc 	strd	r2, [fp, #-108]	; 0xffffff94
   1c25c:	e14b26fc 	strd	r2, [fp, #-108]	; 0xffffff94
   1c260:	e14b0ad4 	ldrd	r0, [fp, #-164]	; 0xffffff5c
   1c264:	e14b26dc 	ldrd	r2, [fp, #-108]	; 0xffffff94
   1c268:	e0222000 	eor	r2, r2, r0
   1c26c:	e0233001 	eor	r3, r3, r1
   1c270:	e14b2af4 	strd	r2, [fp, #-164]	; 0xffffff5c
   1c274:	e14b2ad4 	ldrd	r2, [fp, #-164]	; 0xffffff5c
   1c278:	e1a00002 	mov	r0, r2
   1c27c:	e1a01003 	mov	r1, r3
   1c280:	e3a0201f 	mov	r2, #31
   1c284:	ebfffb77 	bl	1b068 <rotl64>
   1c288:	e1a02000 	mov	r2, r0
   1c28c:	e1a03001 	mov	r3, r1
   1c290:	e14b2af4 	strd	r2, [fp, #-164]	; 0xffffff5c
   1c294:	e14b0ad4 	ldrd	r0, [fp, #-164]	; 0xffffff5c
   1c298:	e14b29dc 	ldrd	r2, [fp, #-156]	; 0xffffff64
   1c29c:	e0922000 	adds	r2, r2, r0
   1c2a0:	e0a33001 	adc	r3, r3, r1
   1c2a4:	e14b2af4 	strd	r2, [fp, #-164]	; 0xffffff5c
   1c2a8:	e14b4ad4 	ldrd	r4, [fp, #-164]	; 0xffffff5c
   1c2ac:	e1a02004 	mov	r2, r4
   1c2b0:	e1a03005 	mov	r3, r5
   1c2b4:	e1a01f22 	lsr	r1, r2, #30
   1c2b8:	e1a07103 	lsl	r7, r3, #2
   1c2bc:	e1817007 	orr	r7, r1, r7
   1c2c0:	e1a06102 	lsl	r6, r2, #2
   1c2c4:	e1a02006 	mov	r2, r6
   1c2c8:	e1a03007 	mov	r3, r7
   1c2cc:	e1a00002 	mov	r0, r2
   1c2d0:	e1a01003 	mov	r1, r3
   1c2d4:	e0900004 	adds	r0, r0, r4
   1c2d8:	e0a11005 	adc	r1, r1, r5
   1c2dc:	e28f30b4 	add	r3, pc, #180	; 0xb4
   1c2e0:	e1c320d0 	ldrd	r2, [r3]
   1c2e4:	e0922000 	adds	r2, r2, r0
   1c2e8:	e0a33001 	adc	r3, r3, r1
   1c2ec:	e14b2af4 	strd	r2, [fp, #-164]	; 0xffffff5c
   1c2f0:	e51b3020 	ldr	r3, [fp, #-32]
   1c2f4:	e2833001 	add	r3, r3, #1
   1c2f8:	e50b3020 	str	r3, [fp, #-32]
   1c2fc:	e51b2020 	ldr	r2, [fp, #-32]
   1c300:	e51b303c 	ldr	r3, [fp, #-60]	; 0x3c
   1c304:	e1520003 	cmp	r2, r3
   1c308:	baffff55 	blt	1c064 <murmurhash3_x64_128+0xa0>
   1c30c:	e51b303c 	ldr	r3, [fp, #-60]	; 0x3c
   1c310:	e1a03203 	lsl	r3, r3, #4
   1c314:	e1a02003 	mov	r2, r3
   1c318:	e51b3038 	ldr	r3, [fp, #-56]	; 0x38
   1c31c:	e0833002 	add	r3, r3, r2
   1c320:	e50b3070 	str	r3, [fp, #-112]	; 0x70
   1c324:	e3a02000 	mov	r2, #0
   1c328:	e3a03000 	mov	r3, #0
   1c32c:	e14b22fc 	strd	r2, [fp, #-44]	; 0xffffffd4
   1c330:	e3a02000 	mov	r2, #0
   1c334:	e3a03000 	mov	r3, #0
   1c338:	e14b23f4 	strd	r2, [fp, #-52]	; 0xffffffcc
   1c33c:	e51b30ac 	ldr	r3, [fp, #-172]	; 0xac
   1c340:	e203300f 	and	r3, r3, #15
   1c344:	e2433001 	sub	r3, r3, #1
   1c348:	e353000e 	cmp	r3, #14
   1c34c:	979ff103 	ldrls	pc, [pc, r3, lsl #2]
   1c350:	ea00013d 	b	1c84c <murmurhash3_x64_128+0x888>
   1c354:	0001c798 	.word	0x0001c798
   1c358:	0001c74c 	.word	0x0001c74c
   1c35c:	0001c700 	.word	0x0001c700
   1c360:	0001c6b4 	.word	0x0001c6b4
   1c364:	0001c67c 	.word	0x0001c67c
   1c368:	0001c644 	.word	0x0001c644
   1c36c:	0001c60c 	.word	0x0001c60c
   1c370:	0001c5d4 	.word	0x0001c5d4
   1c374:	0001c51c 	.word	0x0001c51c
   1c378:	0001c4d4 	.word	0x0001c4d4
   1c37c:	0001c48c 	.word	0x0001c48c
   1c380:	0001c458 	.word	0x0001c458
   1c384:	0001c420 	.word	0x0001c420
   1c388:	0001c3e8 	.word	0x0001c3e8
   1c38c:	0001c3b0 	.word	0x0001c3b0
   1c390:	52dce729 	.word	0x52dce729
   1c394:	00000000 	.word	0x00000000
   1c398:	38495ab5 	.word	0x38495ab5
   1c39c:	00000000 	.word	0x00000000
   1c3a0:	ff51afd7 	.word	0xff51afd7
   1c3a4:	ed558ccd 	.word	0xed558ccd
   1c3a8:	c4ceb9fe 	.word	0xc4ceb9fe
   1c3ac:	1a85ec53 	.word	0x1a85ec53
   1c3b0:	e51b3070 	ldr	r3, [fp, #-112]	; 0x70
   1c3b4:	e283300e 	add	r3, r3, #14
   1c3b8:	e5d31000 	ldrb	r1, [r3]
   1c3bc:	e6ef2071 	uxtb	r2, r1
   1c3c0:	e3a03000 	mov	r3, #0
   1c3c4:	e1a01802 	lsl	r1, r2, #16
   1c3c8:	e50b10b8 	str	r1, [fp, #-184]	; 0xb8
   1c3cc:	e3a03000 	mov	r3, #0
   1c3d0:	e50b30bc 	str	r3, [fp, #-188]	; 0xbc
   1c3d4:	e14b23d4 	ldrd	r2, [fp, #-52]	; 0xffffffcc
   1c3d8:	e14b0bdc 	ldrd	r0, [fp, #-188]	; 0xffffff44
   1c3dc:	e0222000 	eor	r2, r2, r0
   1c3e0:	e0233001 	eor	r3, r3, r1
   1c3e4:	e14b23f4 	strd	r2, [fp, #-52]	; 0xffffffcc
   1c3e8:	e51b3070 	ldr	r3, [fp, #-112]	; 0x70
   1c3ec:	e283300d 	add	r3, r3, #13
   1c3f0:	e5d31000 	ldrb	r1, [r3]
   1c3f4:	e6ef2071 	uxtb	r2, r1
   1c3f8:	e3a03000 	mov	r3, #0
   1c3fc:	e1a01402 	lsl	r1, r2, #8
   1c400:	e50b10c0 	str	r1, [fp, #-192]	; 0xc0
   1c404:	e3a03000 	mov	r3, #0
   1c408:	e50b30c4 	str	r3, [fp, #-196]	; 0xc4
   1c40c:	e14b23d4 	ldrd	r2, [fp, #-52]	; 0xffffffcc
   1c410:	e14b0cd4 	ldrd	r0, [fp, #-196]	; 0xffffff3c
   1c414:	e0222000 	eor	r2, r2, r0
   1c418:	e0233001 	eor	r3, r3, r1
   1c41c:	e14b23f4 	strd	r2, [fp, #-52]	; 0xffffffcc
   1c420:	e51b3070 	ldr	r3, [fp, #-112]	; 0x70
   1c424:	e283300c 	add	r3, r3, #12
   1c428:	e5d31000 	ldrb	r1, [r3]
   1c42c:	e6ef2071 	uxtb	r2, r1
   1c430:	e3a03000 	mov	r3, #0
   1c434:	e1a01002 	mov	r1, r2
   1c438:	e50b10c8 	str	r1, [fp, #-200]	; 0xc8
   1c43c:	e3a03000 	mov	r3, #0
   1c440:	e50b30cc 	str	r3, [fp, #-204]	; 0xcc
   1c444:	e14b23d4 	ldrd	r2, [fp, #-52]	; 0xffffffcc
   1c448:	e14b0cdc 	ldrd	r0, [fp, #-204]	; 0xffffff34
   1c44c:	e0222000 	eor	r2, r2, r0
   1c450:	e0233001 	eor	r3, r3, r1
   1c454:	e14b23f4 	strd	r2, [fp, #-52]	; 0xffffffcc
   1c458:	e51b3070 	ldr	r3, [fp, #-112]	; 0x70
   1c45c:	e283300b 	add	r3, r3, #11
   1c460:	e5d31000 	ldrb	r1, [r3]
   1c464:	e6ef2071 	uxtb	r2, r1
   1c468:	e3a03000 	mov	r3, #0
   1c46c:	e1a01422 	lsr	r1, r2, #8
   1c470:	e1a09c03 	lsl	r9, r3, #24
   1c474:	e1819009 	orr	r9, r1, r9
   1c478:	e1a08c02 	lsl	r8, r2, #24
   1c47c:	e14b23d4 	ldrd	r2, [fp, #-52]	; 0xffffffcc
   1c480:	e0222008 	eor	r2, r2, r8
   1c484:	e0233009 	eor	r3, r3, r9
   1c488:	e14b23f4 	strd	r2, [fp, #-52]	; 0xffffffcc
   1c48c:	e51b3070 	ldr	r3, [fp, #-112]	; 0x70
   1c490:	e283300a 	add	r3, r3, #10
   1c494:	e5d31000 	ldrb	r1, [r3]
   1c498:	e6ef2071 	uxtb	r2, r1
   1c49c:	e3a03000 	mov	r3, #0
   1c4a0:	e1a01822 	lsr	r1, r2, #16
   1c4a4:	e1a00803 	lsl	r0, r3, #16
   1c4a8:	e50b00d0 	str	r0, [fp, #-208]	; 0xd0
   1c4ac:	e51b00d0 	ldr	r0, [fp, #-208]	; 0xd0
   1c4b0:	e1810000 	orr	r0, r1, r0
   1c4b4:	e50b00d0 	str	r0, [fp, #-208]	; 0xd0
   1c4b8:	e1a01802 	lsl	r1, r2, #16
   1c4bc:	e50b10d4 	str	r1, [fp, #-212]	; 0xd4
   1c4c0:	e14b23d4 	ldrd	r2, [fp, #-52]	; 0xffffffcc
   1c4c4:	e14b0dd4 	ldrd	r0, [fp, #-212]	; 0xffffff2c
   1c4c8:	e0222000 	eor	r2, r2, r0
   1c4cc:	e0233001 	eor	r3, r3, r1
   1c4d0:	e14b23f4 	strd	r2, [fp, #-52]	; 0xffffffcc
   1c4d4:	e51b3070 	ldr	r3, [fp, #-112]	; 0x70
   1c4d8:	e2833009 	add	r3, r3, #9
   1c4dc:	e5d31000 	ldrb	r1, [r3]
   1c4e0:	e6ef2071 	uxtb	r2, r1
   1c4e4:	e3a03000 	mov	r3, #0
   1c4e8:	e1a01c22 	lsr	r1, r2, #24
   1c4ec:	e1a00403 	lsl	r0, r3, #8
   1c4f0:	e50b00d8 	str	r0, [fp, #-216]	; 0xd8
   1c4f4:	e51b00d8 	ldr	r0, [fp, #-216]	; 0xd8
   1c4f8:	e1810000 	orr	r0, r1, r0
   1c4fc:	e50b00d8 	str	r0, [fp, #-216]	; 0xd8
   1c500:	e1a01402 	lsl	r1, r2, #8
   1c504:	e50b10dc 	str	r1, [fp, #-220]	; 0xdc
   1c508:	e14b23d4 	ldrd	r2, [fp, #-52]	; 0xffffffcc
   1c50c:	e14b0ddc 	ldrd	r0, [fp, #-220]	; 0xffffff24
   1c510:	e0222000 	eor	r2, r2, r0
   1c514:	e0233001 	eor	r3, r3, r1
   1c518:	e14b23f4 	strd	r2, [fp, #-52]	; 0xffffffcc
   1c51c:	e51b3070 	ldr	r3, [fp, #-112]	; 0x70
   1c520:	e2833008 	add	r3, r3, #8
   1c524:	e5d33000 	ldrb	r3, [r3]
   1c528:	e6ef0073 	uxtb	r0, r3
   1c52c:	e3a01000 	mov	r1, #0
   1c530:	e14b23d4 	ldrd	r2, [fp, #-52]	; 0xffffffcc
   1c534:	e0222000 	eor	r2, r2, r0
   1c538:	e0233001 	eor	r3, r3, r1
   1c53c:	e14b23f4 	strd	r2, [fp, #-52]	; 0xffffffcc
   1c540:	e51b2030 	ldr	r2, [fp, #-48]	; 0x30
   1c544:	e51b3054 	ldr	r3, [fp, #-84]	; 0x54
   1c548:	e0010293 	mul	r1, r3, r2
   1c54c:	e51b2050 	ldr	r2, [fp, #-80]	; 0x50
   1c550:	e51b3034 	ldr	r3, [fp, #-52]	; 0x34
   1c554:	e0030293 	mul	r3, r3, r2
   1c558:	e0811003 	add	r1, r1, r3
   1c55c:	e51b2034 	ldr	r2, [fp, #-52]	; 0x34
   1c560:	e51b3054 	ldr	r3, [fp, #-84]	; 0x54
   1c564:	e0832392 	umull	r2, r3, r2, r3
   1c568:	e0811003 	add	r1, r1, r3
   1c56c:	e1a03001 	mov	r3, r1
   1c570:	e14b23f4 	strd	r2, [fp, #-52]	; 0xffffffcc
   1c574:	e14b23f4 	strd	r2, [fp, #-52]	; 0xffffffcc
   1c578:	e14b03d4 	ldrd	r0, [fp, #-52]	; 0xffffffcc
   1c57c:	e3a02021 	mov	r2, #33	; 0x21
   1c580:	ebfffab8 	bl	1b068 <rotl64>
   1c584:	e14b03f4 	strd	r0, [fp, #-52]	; 0xffffffcc
   1c588:	e51b2030 	ldr	r2, [fp, #-48]	; 0x30
   1c58c:	e51b304c 	ldr	r3, [fp, #-76]	; 0x4c
   1c590:	e0010293 	mul	r1, r3, r2
   1c594:	e51b2048 	ldr	r2, [fp, #-72]	; 0x48
   1c598:	e51b3034 	ldr	r3, [fp, #-52]	; 0x34
   1c59c:	e0030293 	mul	r3, r3, r2
   1c5a0:	e0811003 	add	r1, r1, r3
   1c5a4:	e51b2034 	ldr	r2, [fp, #-52]	; 0x34
   1c5a8:	e51b304c 	ldr	r3, [fp, #-76]	; 0x4c
   1c5ac:	e0832392 	umull	r2, r3, r2, r3
   1c5b0:	e0811003 	add	r1, r1, r3
   1c5b4:	e1a03001 	mov	r3, r1
   1c5b8:	e14b23f4 	strd	r2, [fp, #-52]	; 0xffffffcc
   1c5bc:	e14b23f4 	strd	r2, [fp, #-52]	; 0xffffffcc
   1c5c0:	e14b0ad4 	ldrd	r0, [fp, #-164]	; 0xffffff5c
   1c5c4:	e14b23d4 	ldrd	r2, [fp, #-52]	; 0xffffffcc
   1c5c8:	e0222000 	eor	r2, r2, r0
   1c5cc:	e0233001 	eor	r3, r3, r1
   1c5d0:	e14b2af4 	strd	r2, [fp, #-164]	; 0xffffff5c
   1c5d4:	e51b3070 	ldr	r3, [fp, #-112]	; 0x70
   1c5d8:	e2833007 	add	r3, r3, #7
   1c5dc:	e5d31000 	ldrb	r1, [r3]
   1c5e0:	e6ef2071 	uxtb	r2, r1
   1c5e4:	e3a03000 	mov	r3, #0
   1c5e8:	e1a01c02 	lsl	r1, r2, #24
   1c5ec:	e50b10e0 	str	r1, [fp, #-224]	; 0xe0
   1c5f0:	e3a03000 	mov	r3, #0
   1c5f4:	e50b30e4 	str	r3, [fp, #-228]	; 0xe4
   1c5f8:	e14b22dc 	ldrd	r2, [fp, #-44]	; 0xffffffd4
   1c5fc:	e14b0ed4 	ldrd	r0, [fp, #-228]	; 0xffffff1c
   1c600:	e0222000 	eor	r2, r2, r0
   1c604:	e0233001 	eor	r3, r3, r1
   1c608:	e14b22fc 	strd	r2, [fp, #-44]	; 0xffffffd4
   1c60c:	e51b3070 	ldr	r3, [fp, #-112]	; 0x70
   1c610:	e2833006 	add	r3, r3, #6
   1c614:	e5d31000 	ldrb	r1, [r3]
   1c618:	e6ef2071 	uxtb	r2, r1
   1c61c:	e3a03000 	mov	r3, #0
   1c620:	e1a01802 	lsl	r1, r2, #16
   1c624:	e50b10e8 	str	r1, [fp, #-232]	; 0xe8
   1c628:	e3a03000 	mov	r3, #0
   1c62c:	e50b30ec 	str	r3, [fp, #-236]	; 0xec
   1c630:	e14b22dc 	ldrd	r2, [fp, #-44]	; 0xffffffd4
   1c634:	e14b0edc 	ldrd	r0, [fp, #-236]	; 0xffffff14
   1c638:	e0222000 	eor	r2, r2, r0
   1c63c:	e0233001 	eor	r3, r3, r1
   1c640:	e14b22fc 	strd	r2, [fp, #-44]	; 0xffffffd4
   1c644:	e51b3070 	ldr	r3, [fp, #-112]	; 0x70
   1c648:	e2833005 	add	r3, r3, #5
   1c64c:	e5d31000 	ldrb	r1, [r3]
   1c650:	e6ef2071 	uxtb	r2, r1
   1c654:	e3a03000 	mov	r3, #0
   1c658:	e1a01402 	lsl	r1, r2, #8
   1c65c:	e50b10f0 	str	r1, [fp, #-240]	; 0xf0
   1c660:	e3a03000 	mov	r3, #0
   1c664:	e50b30f4 	str	r3, [fp, #-244]	; 0xf4
   1c668:	e14b22dc 	ldrd	r2, [fp, #-44]	; 0xffffffd4
   1c66c:	e14b0fd4 	ldrd	r0, [fp, #-244]	; 0xffffff0c
   1c670:	e0222000 	eor	r2, r2, r0
   1c674:	e0233001 	eor	r3, r3, r1
   1c678:	e14b22fc 	strd	r2, [fp, #-44]	; 0xffffffd4
   1c67c:	e51b3070 	ldr	r3, [fp, #-112]	; 0x70
   1c680:	e2833004 	add	r3, r3, #4
   1c684:	e5d31000 	ldrb	r1, [r3]
   1c688:	e6ef2071 	uxtb	r2, r1
   1c68c:	e3a03000 	mov	r3, #0
   1c690:	e1a01002 	mov	r1, r2
   1c694:	e50b10f8 	str	r1, [fp, #-248]	; 0xf8
   1c698:	e3a03000 	mov	r3, #0
   1c69c:	e50b30fc 	str	r3, [fp, #-252]	; 0xfc
   1c6a0:	e14b22dc 	ldrd	r2, [fp, #-44]	; 0xffffffd4
   1c6a4:	e14b0fdc 	ldrd	r0, [fp, #-252]	; 0xffffff04
   1c6a8:	e0222000 	eor	r2, r2, r0
   1c6ac:	e0233001 	eor	r3, r3, r1
   1c6b0:	e14b22fc 	strd	r2, [fp, #-44]	; 0xffffffd4
   1c6b4:	e51b3070 	ldr	r3, [fp, #-112]	; 0x70
   1c6b8:	e2833003 	add	r3, r3, #3
   1c6bc:	e5d31000 	ldrb	r1, [r3]
   1c6c0:	e6ef2071 	uxtb	r2, r1
   1c6c4:	e3a03000 	mov	r3, #0
   1c6c8:	e1a01422 	lsr	r1, r2, #8
   1c6cc:	e1a00c03 	lsl	r0, r3, #24
   1c6d0:	e50b0100 	str	r0, [fp, #-256]	; 0x100
   1c6d4:	e51b0100 	ldr	r0, [fp, #-256]	; 0x100
   1c6d8:	e1811000 	orr	r1, r1, r0
   1c6dc:	e50b1100 	str	r1, [fp, #-256]	; 0x100
   1c6e0:	e1a01c02 	lsl	r1, r2, #24
   1c6e4:	e50b1104 	str	r1, [fp, #-260]	; 0x104
   1c6e8:	e14b22dc 	ldrd	r2, [fp, #-44]	; 0xffffffd4
   1c6ec:	e24b1c01 	sub	r1, fp, #256	; 0x100
   1c6f0:	e14100d4 	ldrd	r0, [r1, #-4]
   1c6f4:	e0222000 	eor	r2, r2, r0
   1c6f8:	e0233001 	eor	r3, r3, r1
   1c6fc:	e14b22fc 	strd	r2, [fp, #-44]	; 0xffffffd4
   1c700:	e51b3070 	ldr	r3, [fp, #-112]	; 0x70
   1c704:	e2833002 	add	r3, r3, #2
   1c708:	e5d31000 	ldrb	r1, [r3]
   1c70c:	e6ef2071 	uxtb	r2, r1
   1c710:	e3a03000 	mov	r3, #0
   1c714:	e1a01822 	lsr	r1, r2, #16
   1c718:	e1a00803 	lsl	r0, r3, #16
   1c71c:	e50b0108 	str	r0, [fp, #-264]	; 0x108
   1c720:	e51b0108 	ldr	r0, [fp, #-264]	; 0x108
   1c724:	e1811000 	orr	r1, r1, r0
   1c728:	e50b1108 	str	r1, [fp, #-264]	; 0x108
   1c72c:	e1a01802 	lsl	r1, r2, #16
   1c730:	e50b110c 	str	r1, [fp, #-268]	; 0x10c
   1c734:	e14b22dc 	ldrd	r2, [fp, #-44]	; 0xffffffd4
   1c738:	e24b1e11 	sub	r1, fp, #272	; 0x110
   1c73c:	e1c100d4 	ldrd	r0, [r1, #4]
   1c740:	e0222000 	eor	r2, r2, r0
   1c744:	e0233001 	eor	r3, r3, r1
   1c748:	e14b22fc 	strd	r2, [fp, #-44]	; 0xffffffd4
   1c74c:	e51b3070 	ldr	r3, [fp, #-112]	; 0x70
   1c750:	e2833001 	add	r3, r3, #1
   1c754:	e5d31000 	ldrb	r1, [r3]
   1c758:	e6ef2071 	uxtb	r2, r1
   1c75c:	e3a03000 	mov	r3, #0
   1c760:	e1a01c22 	lsr	r1, r2, #24
   1c764:	e1a00403 	lsl	r0, r3, #8
   1c768:	e50b0110 	str	r0, [fp, #-272]	; 0x110
   1c76c:	e51b0110 	ldr	r0, [fp, #-272]	; 0x110
   1c770:	e1811000 	orr	r1, r1, r0
   1c774:	e50b1110 	str	r1, [fp, #-272]	; 0x110
   1c778:	e1a01402 	lsl	r1, r2, #8
   1c77c:	e50b1114 	str	r1, [fp, #-276]	; 0x114
   1c780:	e14b22dc 	ldrd	r2, [fp, #-44]	; 0xffffffd4
   1c784:	e24b1e11 	sub	r1, fp, #272	; 0x110
   1c788:	e14100d4 	ldrd	r0, [r1, #-4]
   1c78c:	e0222000 	eor	r2, r2, r0
   1c790:	e0233001 	eor	r3, r3, r1
   1c794:	e14b22fc 	strd	r2, [fp, #-44]	; 0xffffffd4
   1c798:	e51b3070 	ldr	r3, [fp, #-112]	; 0x70
   1c79c:	e5d31000 	ldrb	r1, [r3]
   1c7a0:	e6ef2071 	uxtb	r2, r1
   1c7a4:	e3a03000 	mov	r3, #0
   1c7a8:	e14b02dc 	ldrd	r0, [fp, #-44]	; 0xffffffd4
   1c7ac:	e0222000 	eor	r2, r2, r0
   1c7b0:	e0233001 	eor	r3, r3, r1
   1c7b4:	e14b22fc 	strd	r2, [fp, #-44]	; 0xffffffd4
   1c7b8:	e51b3028 	ldr	r3, [fp, #-40]	; 0x28
   1c7bc:	e51b204c 	ldr	r2, [fp, #-76]	; 0x4c
   1c7c0:	e0010392 	mul	r1, r2, r3
   1c7c4:	e51b2048 	ldr	r2, [fp, #-72]	; 0x48
   1c7c8:	e51b302c 	ldr	r3, [fp, #-44]	; 0x2c
   1c7cc:	e0030293 	mul	r3, r3, r2
   1c7d0:	e0811003 	add	r1, r1, r3
   1c7d4:	e51b202c 	ldr	r2, [fp, #-44]	; 0x2c
   1c7d8:	e51b304c 	ldr	r3, [fp, #-76]	; 0x4c
   1c7dc:	e0832392 	umull	r2, r3, r2, r3
   1c7e0:	e0811003 	add	r1, r1, r3
   1c7e4:	e1a03001 	mov	r3, r1
   1c7e8:	e14b22fc 	strd	r2, [fp, #-44]	; 0xffffffd4
   1c7ec:	e14b22fc 	strd	r2, [fp, #-44]	; 0xffffffd4
   1c7f0:	e14b02dc 	ldrd	r0, [fp, #-44]	; 0xffffffd4
   1c7f4:	e3a0201f 	mov	r2, #31
   1c7f8:	ebfffa1a 	bl	1b068 <rotl64>
   1c7fc:	e14b02fc 	strd	r0, [fp, #-44]	; 0xffffffd4
   1c800:	e51b3028 	ldr	r3, [fp, #-40]	; 0x28
   1c804:	e51b2054 	ldr	r2, [fp, #-84]	; 0x54
   1c808:	e0010392 	mul	r1, r2, r3
   1c80c:	e51b2050 	ldr	r2, [fp, #-80]	; 0x50
   1c810:	e51b302c 	ldr	r3, [fp, #-44]	; 0x2c
   1c814:	e0030293 	mul	r3, r3, r2
   1c818:	e0811003 	add	r1, r1, r3
   1c81c:	e51b202c 	ldr	r2, [fp, #-44]	; 0x2c
   1c820:	e51b3054 	ldr	r3, [fp, #-84]	; 0x54
   1c824:	e0832392 	umull	r2, r3, r2, r3
   1c828:	e0811003 	add	r1, r1, r3
   1c82c:	e1a03001 	mov	r3, r1
   1c830:	e14b22fc 	strd	r2, [fp, #-44]	; 0xffffffd4
   1c834:	e14b22fc 	strd	r2, [fp, #-44]	; 0xffffffd4
   1c838:	e14b09dc 	ldrd	r0, [fp, #-156]	; 0xffffff64
   1c83c:	e14b22dc 	ldrd	r2, [fp, #-44]	; 0xffffffd4
   1c840:	e0222000 	eor	r2, r2, r0
   1c844:	e0233001 	eor	r3, r3, r1
   1c848:	e14b29fc 	strd	r2, [fp, #-156]	; 0xffffff64
   1c84c:	e51b30ac 	ldr	r3, [fp, #-172]	; 0xac
   1c850:	e1a00003 	mov	r0, r3
   1c854:	e3a01000 	mov	r1, #0
   1c858:	e14b29dc 	ldrd	r2, [fp, #-156]	; 0xffffff64
   1c85c:	e0222000 	eor	r2, r2, r0
   1c860:	e0233001 	eor	r3, r3, r1
   1c864:	e14b29fc 	strd	r2, [fp, #-156]	; 0xffffff64
   1c868:	e51b30ac 	ldr	r3, [fp, #-172]	; 0xac
   1c86c:	e1a00003 	mov	r0, r3
   1c870:	e3a01000 	mov	r1, #0
   1c874:	e14b2ad4 	ldrd	r2, [fp, #-164]	; 0xffffff5c
   1c878:	e0222000 	eor	r2, r2, r0
   1c87c:	e0233001 	eor	r3, r3, r1
   1c880:	e14b2af4 	strd	r2, [fp, #-164]	; 0xffffff5c
   1c884:	e14b09dc 	ldrd	r0, [fp, #-156]	; 0xffffff64
   1c888:	e14b2ad4 	ldrd	r2, [fp, #-164]	; 0xffffff5c
   1c88c:	e0922000 	adds	r2, r2, r0
   1c890:	e0a33001 	adc	r3, r3, r1
   1c894:	e14b29fc 	strd	r2, [fp, #-156]	; 0xffffff64
   1c898:	e14b0ad4 	ldrd	r0, [fp, #-164]	; 0xffffff5c
   1c89c:	e14b29dc 	ldrd	r2, [fp, #-156]	; 0xffffff64
   1c8a0:	e0922000 	adds	r2, r2, r0
   1c8a4:	e0a33001 	adc	r3, r3, r1
   1c8a8:	e14b2af4 	strd	r2, [fp, #-164]	; 0xffffff5c
   1c8ac:	e14b29dc 	ldrd	r2, [fp, #-156]	; 0xffffff64
   1c8b0:	e14b28fc 	strd	r2, [fp, #-140]	; 0xffffff74
   1c8b4:	e51b3088 	ldr	r3, [fp, #-136]	; 0x88
   1c8b8:	e1a030a3 	lsr	r3, r3, #1
   1c8bc:	e50b311c 	str	r3, [fp, #-284]	; 0x11c
   1c8c0:	e3a03000 	mov	r3, #0
   1c8c4:	e50b3118 	str	r3, [fp, #-280]	; 0x118
   1c8c8:	e14b28dc 	ldrd	r2, [fp, #-140]	; 0xffffff74
   1c8cc:	e24b1e12 	sub	r1, fp, #288	; 0x120
   1c8d0:	e1c100d4 	ldrd	r0, [r1, #4]
   1c8d4:	e0222000 	eor	r2, r2, r0
   1c8d8:	e0233001 	eor	r3, r3, r1
   1c8dc:	e14b28fc 	strd	r2, [fp, #-140]	; 0xffffff74
   1c8e0:	e51b3088 	ldr	r3, [fp, #-136]	; 0x88
   1c8e4:	e51f2548 	ldr	r2, [pc, #-1352]	; 1c3a4 <murmurhash3_x64_128+0x3e0>
   1c8e8:	e0020392 	mul	r2, r2, r3
   1c8ec:	e51b308c 	ldr	r3, [fp, #-140]	; 0x8c
   1c8f0:	e51f1558 	ldr	r1, [pc, #-1368]	; 1c3a0 <murmurhash3_x64_128+0x3dc>
   1c8f4:	e0030391 	mul	r3, r1, r3
   1c8f8:	e0821003 	add	r1, r2, r3
   1c8fc:	e51b208c 	ldr	r2, [fp, #-140]	; 0x8c
   1c900:	e51f3564 	ldr	r3, [pc, #-1380]	; 1c3a4 <murmurhash3_x64_128+0x3e0>
   1c904:	e0832392 	umull	r2, r3, r2, r3
   1c908:	e0811003 	add	r1, r1, r3
   1c90c:	e1a03001 	mov	r3, r1
   1c910:	e14b28fc 	strd	r2, [fp, #-140]	; 0xffffff74
   1c914:	e14b28fc 	strd	r2, [fp, #-140]	; 0xffffff74
   1c918:	e51b3088 	ldr	r3, [fp, #-136]	; 0x88
   1c91c:	e1a030a3 	lsr	r3, r3, #1
   1c920:	e50b3124 	str	r3, [fp, #-292]	; 0x124
   1c924:	e3a03000 	mov	r3, #0
   1c928:	e50b3120 	str	r3, [fp, #-288]	; 0x120
   1c92c:	e14b28dc 	ldrd	r2, [fp, #-140]	; 0xffffff74
   1c930:	e24b1e12 	sub	r1, fp, #288	; 0x120
   1c934:	e14100d4 	ldrd	r0, [r1, #-4]
   1c938:	e0222000 	eor	r2, r2, r0
   1c93c:	e0233001 	eor	r3, r3, r1
   1c940:	e14b28fc 	strd	r2, [fp, #-140]	; 0xffffff74
   1c944:	e51b3088 	ldr	r3, [fp, #-136]	; 0x88
   1c948:	e51f25a4 	ldr	r2, [pc, #-1444]	; 1c3ac <murmurhash3_x64_128+0x3e8>
   1c94c:	e0020392 	mul	r2, r2, r3
   1c950:	e51b308c 	ldr	r3, [fp, #-140]	; 0x8c
   1c954:	e51f15b4 	ldr	r1, [pc, #-1460]	; 1c3a8 <murmurhash3_x64_128+0x3e4>
   1c958:	e0030391 	mul	r3, r1, r3
   1c95c:	e0821003 	add	r1, r2, r3
   1c960:	e51b208c 	ldr	r2, [fp, #-140]	; 0x8c
   1c964:	e51f35c0 	ldr	r3, [pc, #-1472]	; 1c3ac <murmurhash3_x64_128+0x3e8>
   1c968:	e0832392 	umull	r2, r3, r2, r3
   1c96c:	e0811003 	add	r1, r1, r3
   1c970:	e1a03001 	mov	r3, r1
   1c974:	e14b28fc 	strd	r2, [fp, #-140]	; 0xffffff74
   1c978:	e14b28fc 	strd	r2, [fp, #-140]	; 0xffffff74
   1c97c:	e51b3088 	ldr	r3, [fp, #-136]	; 0x88
   1c980:	e1a030a3 	lsr	r3, r3, #1
   1c984:	e50b312c 	str	r3, [fp, #-300]	; 0x12c
   1c988:	e3a03000 	mov	r3, #0
   1c98c:	e50b3128 	str	r3, [fp, #-296]	; 0x128
   1c990:	e14b28dc 	ldrd	r2, [fp, #-140]	; 0xffffff74
   1c994:	e24b1e13 	sub	r1, fp, #304	; 0x130
   1c998:	e1c100d4 	ldrd	r0, [r1, #4]
   1c99c:	e0222000 	eor	r2, r2, r0
   1c9a0:	e0233001 	eor	r3, r3, r1
   1c9a4:	e14b28fc 	strd	r2, [fp, #-140]	; 0xffffff74
   1c9a8:	e14b28dc 	ldrd	r2, [fp, #-140]	; 0xffffff74
   1c9ac:	e14b29fc 	strd	r2, [fp, #-156]	; 0xffffff64
   1c9b0:	e14b2ad4 	ldrd	r2, [fp, #-164]	; 0xffffff5c
   1c9b4:	e14b29f4 	strd	r2, [fp, #-148]	; 0xffffff6c
   1c9b8:	e51b3090 	ldr	r3, [fp, #-144]	; 0x90
   1c9bc:	e1a030a3 	lsr	r3, r3, #1
   1c9c0:	e50b3134 	str	r3, [fp, #-308]	; 0x134
   1c9c4:	e3a03000 	mov	r3, #0
   1c9c8:	e50b3130 	str	r3, [fp, #-304]	; 0x130
   1c9cc:	e14b29d4 	ldrd	r2, [fp, #-148]	; 0xffffff6c
   1c9d0:	e24b1e13 	sub	r1, fp, #304	; 0x130
   1c9d4:	e14100d4 	ldrd	r0, [r1, #-4]
   1c9d8:	e0222000 	eor	r2, r2, r0
   1c9dc:	e0233001 	eor	r3, r3, r1
   1c9e0:	e14b29f4 	strd	r2, [fp, #-148]	; 0xffffff6c
   1c9e4:	e51b3090 	ldr	r3, [fp, #-144]	; 0x90
   1c9e8:	e51f264c 	ldr	r2, [pc, #-1612]	; 1c3a4 <murmurhash3_x64_128+0x3e0>
   1c9ec:	e0020392 	mul	r2, r2, r3
   1c9f0:	e51b3094 	ldr	r3, [fp, #-148]	; 0x94
   1c9f4:	e51f165c 	ldr	r1, [pc, #-1628]	; 1c3a0 <murmurhash3_x64_128+0x3dc>
   1c9f8:	e0030391 	mul	r3, r1, r3
   1c9fc:	e0821003 	add	r1, r2, r3
   1ca00:	e51b2094 	ldr	r2, [fp, #-148]	; 0x94
   1ca04:	e51f3668 	ldr	r3, [pc, #-1640]	; 1c3a4 <murmurhash3_x64_128+0x3e0>
   1ca08:	e0832392 	umull	r2, r3, r2, r3
   1ca0c:	e0811003 	add	r1, r1, r3
   1ca10:	e1a03001 	mov	r3, r1
   1ca14:	e14b29f4 	strd	r2, [fp, #-148]	; 0xffffff6c
   1ca18:	e14b29f4 	strd	r2, [fp, #-148]	; 0xffffff6c
   1ca1c:	e51b3090 	ldr	r3, [fp, #-144]	; 0x90
   1ca20:	e1a030a3 	lsr	r3, r3, #1
   1ca24:	e50b313c 	str	r3, [fp, #-316]	; 0x13c
   1ca28:	e3a03000 	mov	r3, #0
   1ca2c:	e50b3138 	str	r3, [fp, #-312]	; 0x138
   1ca30:	e14b29d4 	ldrd	r2, [fp, #-148]	; 0xffffff6c
   1ca34:	e24b1d05 	sub	r1, fp, #320	; 0x140
   1ca38:	e1c100d4 	ldrd	r0, [r1, #4]
   1ca3c:	e0222000 	eor	r2, r2, r0
   1ca40:	e0233001 	eor	r3, r3, r1
   1ca44:	e14b29f4 	strd	r2, [fp, #-148]	; 0xffffff6c
   1ca48:	e51b3090 	ldr	r3, [fp, #-144]	; 0x90
   1ca4c:	e51f26a8 	ldr	r2, [pc, #-1704]	; 1c3ac <murmurhash3_x64_128+0x3e8>
   1ca50:	e0020392 	mul	r2, r2, r3
   1ca54:	e51b3094 	ldr	r3, [fp, #-148]	; 0x94
   1ca58:	e51f16b8 	ldr	r1, [pc, #-1720]	; 1c3a8 <murmurhash3_x64_128+0x3e4>
   1ca5c:	e0030391 	mul	r3, r1, r3
   1ca60:	e0821003 	add	r1, r2, r3
   1ca64:	e51b2094 	ldr	r2, [fp, #-148]	; 0x94
   1ca68:	e51f36c4 	ldr	r3, [pc, #-1732]	; 1c3ac <murmurhash3_x64_128+0x3e8>
   1ca6c:	e0832392 	umull	r2, r3, r2, r3
   1ca70:	e0811003 	add	r1, r1, r3
   1ca74:	e1a03001 	mov	r3, r1
   1ca78:	e14b29f4 	strd	r2, [fp, #-148]	; 0xffffff6c
   1ca7c:	e14b29f4 	strd	r2, [fp, #-148]	; 0xffffff6c
   1ca80:	e51b3090 	ldr	r3, [fp, #-144]	; 0x90
   1ca84:	e1a030a3 	lsr	r3, r3, #1
   1ca88:	e50b3144 	str	r3, [fp, #-324]	; 0x144
   1ca8c:	e3a03000 	mov	r3, #0
   1ca90:	e50b3140 	str	r3, [fp, #-320]	; 0x140
   1ca94:	e14b29d4 	ldrd	r2, [fp, #-148]	; 0xffffff6c
   1ca98:	e24b1d05 	sub	r1, fp, #320	; 0x140
   1ca9c:	e14100d4 	ldrd	r0, [r1, #-4]
   1caa0:	e0222000 	eor	r2, r2, r0
   1caa4:	e0233001 	eor	r3, r3, r1
   1caa8:	e14b29f4 	strd	r2, [fp, #-148]	; 0xffffff6c
   1caac:	e14b29d4 	ldrd	r2, [fp, #-148]	; 0xffffff6c
   1cab0:	e14b2af4 	strd	r2, [fp, #-164]	; 0xffffff5c
   1cab4:	e14b09dc 	ldrd	r0, [fp, #-156]	; 0xffffff64
   1cab8:	e14b2ad4 	ldrd	r2, [fp, #-164]	; 0xffffff5c
   1cabc:	e0922000 	adds	r2, r2, r0
   1cac0:	e0a33001 	adc	r3, r3, r1
   1cac4:	e14b29fc 	strd	r2, [fp, #-156]	; 0xffffff64
   1cac8:	e14b0ad4 	ldrd	r0, [fp, #-164]	; 0xffffff5c
   1cacc:	e14b29dc 	ldrd	r2, [fp, #-156]	; 0xffffff64
   1cad0:	e0922000 	adds	r2, r2, r0
   1cad4:	e0a33001 	adc	r3, r3, r1
   1cad8:	e14b2af4 	strd	r2, [fp, #-164]	; 0xffffff5c
   1cadc:	e51b20b0 	ldr	r2, [fp, #-176]	; 0xb0
   1cae0:	e24b309c 	sub	r3, fp, #156	; 0x9c
   1cae4:	e1a01002 	mov	r1, r2
   1cae8:	e1a02003 	mov	r2, r3
   1caec:	e3a03008 	mov	r3, #8
   1caf0:	e1a00001 	mov	r0, r1
   1caf4:	e1a01002 	mov	r1, r2
   1caf8:	e1a02003 	mov	r2, r3
   1cafc:	ebffb01d 	bl	8b78 <_init+0x74>
   1cb00:	e51b30b0 	ldr	r3, [fp, #-176]	; 0xb0
   1cb04:	e2832008 	add	r2, r3, #8
   1cb08:	e24b30a4 	sub	r3, fp, #164	; 0xa4
   1cb0c:	e1a01002 	mov	r1, r2
   1cb10:	e1a02003 	mov	r2, r3
   1cb14:	e3a03008 	mov	r3, #8
   1cb18:	e1a00001 	mov	r0, r1
   1cb1c:	e1a01002 	mov	r1, r2
   1cb20:	e1a02003 	mov	r2, r3
   1cb24:	ebffb013 	bl	8b78 <_init+0x74>
   1cb28:	e24bd01c 	sub	sp, fp, #28
   1cb2c:	e8bd8bf0 	pop	{r4, r5, r6, r7, r8, r9, fp, pc}

0001cb30 <mul8>:
   1cb30:	e52db004 	push	{fp}		; (str fp, [sp, #-4]!)
   1cb34:	e28db000 	add	fp, sp, #0
   1cb38:	e24dd01c 	sub	sp, sp, #28
   1cb3c:	e50b0010 	str	r0, [fp, #-16]
   1cb40:	e50b1014 	str	r1, [fp, #-20]
   1cb44:	e50b2018 	str	r2, [fp, #-24]
   1cb48:	e3a03000 	mov	r3, #0
   1cb4c:	e54b3006 	strb	r3, [fp, #-6]
   1cb50:	e3a03000 	mov	r3, #0
   1cb54:	e54b3005 	strb	r3, [fp, #-5]
   1cb58:	ea00000a 	b	1cb88 <mul8+0x58>
   1cb5c:	e55b3005 	ldrb	r3, [fp, #-5]
   1cb60:	e51b2010 	ldr	r2, [fp, #-16]
   1cb64:	e0823003 	add	r3, r2, r3
   1cb68:	e5d33000 	ldrb	r3, [r3]
   1cb6c:	e55b2006 	ldrb	r2, [fp, #-6]
   1cb70:	e0030392 	mul	r3, r2, r3
   1cb74:	e6ef3073 	uxtb	r3, r3
   1cb78:	e54b3006 	strb	r3, [fp, #-6]
   1cb7c:	e55b3005 	ldrb	r3, [fp, #-5]
   1cb80:	e2833001 	add	r3, r3, #1
   1cb84:	e54b3005 	strb	r3, [fp, #-5]
   1cb88:	e55b2005 	ldrb	r2, [fp, #-5]
   1cb8c:	e51b3014 	ldr	r3, [fp, #-20]
   1cb90:	e1520003 	cmp	r2, r3
   1cb94:	3afffff0 	bcc	1cb5c <mul8+0x2c>
   1cb98:	e24b3006 	sub	r3, fp, #6
   1cb9c:	e5d32000 	ldrb	r2, [r3]
   1cba0:	e51b3018 	ldr	r3, [fp, #-24]
   1cba4:	e5c32000 	strb	r2, [r3]
   1cba8:	e28bd000 	add	sp, fp, #0
   1cbac:	e8bd0800 	pop	{fp}
   1cbb0:	e12fff1e 	bx	lr

0001cbb4 <mul16>:
   1cbb4:	e92d4800 	push	{fp, lr}
   1cbb8:	e28db004 	add	fp, sp, #4
   1cbbc:	e24dd018 	sub	sp, sp, #24
   1cbc0:	e50b0010 	str	r0, [fp, #-16]
   1cbc4:	e50b1014 	str	r1, [fp, #-20]
   1cbc8:	e50b2018 	str	r2, [fp, #-24]
   1cbcc:	e3a03000 	mov	r3, #0
   1cbd0:	e14b30b6 	strh	r3, [fp, #-6]
   1cbd4:	ea00000b 	b	1cc08 <mul16+0x54>
   1cbd8:	e51b3010 	ldr	r3, [fp, #-16]
   1cbdc:	e1d330b0 	ldrh	r3, [r3]
   1cbe0:	e15b20b6 	ldrh	r2, [fp, #-6]
   1cbe4:	e0030392 	mul	r3, r2, r3
   1cbe8:	e6ff3073 	uxth	r3, r3
   1cbec:	e14b30b6 	strh	r3, [fp, #-6]
   1cbf0:	e51b3010 	ldr	r3, [fp, #-16]
   1cbf4:	e2833002 	add	r3, r3, #2
   1cbf8:	e50b3010 	str	r3, [fp, #-16]
   1cbfc:	e51b3014 	ldr	r3, [fp, #-20]
   1cc00:	e2433002 	sub	r3, r3, #2
   1cc04:	e50b3014 	str	r3, [fp, #-20]
   1cc08:	e51b3014 	ldr	r3, [fp, #-20]
   1cc0c:	e3530001 	cmp	r3, #1
   1cc10:	8afffff0 	bhi	1cbd8 <mul16+0x24>
   1cc14:	e51b3014 	ldr	r3, [fp, #-20]
   1cc18:	e3530000 	cmp	r3, #0
   1cc1c:	0a000006 	beq	1cc3c <mul16+0x88>
   1cc20:	e51b3010 	ldr	r3, [fp, #-16]
   1cc24:	e5d33000 	ldrb	r3, [r3]
   1cc28:	e1a02003 	mov	r2, r3
   1cc2c:	e15b30b6 	ldrh	r3, [fp, #-6]
   1cc30:	e0823003 	add	r3, r2, r3
   1cc34:	e6ff3073 	uxth	r3, r3
   1cc38:	e14b30b6 	strh	r3, [fp, #-6]
   1cc3c:	e51b2018 	ldr	r2, [fp, #-24]
   1cc40:	e24b3006 	sub	r3, fp, #6
   1cc44:	e1a01002 	mov	r1, r2
   1cc48:	e1a02003 	mov	r2, r3
   1cc4c:	e3a03002 	mov	r3, #2
   1cc50:	e1a00001 	mov	r0, r1
   1cc54:	e1a01002 	mov	r1, r2
   1cc58:	e1a02003 	mov	r2, r3
   1cc5c:	ebffafc5 	bl	8b78 <_init+0x74>
   1cc60:	e24bd004 	sub	sp, fp, #4
   1cc64:	e8bd8800 	pop	{fp, pc}

0001cc68 <mul32>:
   1cc68:	e92d4800 	push	{fp, lr}
   1cc6c:	e28db004 	add	fp, sp, #4
   1cc70:	e24dd018 	sub	sp, sp, #24
   1cc74:	e50b0010 	str	r0, [fp, #-16]
   1cc78:	e50b1014 	str	r1, [fp, #-20]
   1cc7c:	e50b2018 	str	r2, [fp, #-24]
   1cc80:	e3a03000 	mov	r3, #0
   1cc84:	e50b3008 	str	r3, [fp, #-8]
   1cc88:	ea00000a 	b	1ccb8 <mul32+0x50>
   1cc8c:	e51b3010 	ldr	r3, [fp, #-16]
   1cc90:	e5933000 	ldr	r3, [r3]
   1cc94:	e51b2008 	ldr	r2, [fp, #-8]
   1cc98:	e0030392 	mul	r3, r2, r3
   1cc9c:	e50b3008 	str	r3, [fp, #-8]
   1cca0:	e51b3010 	ldr	r3, [fp, #-16]
   1cca4:	e2833004 	add	r3, r3, #4
   1cca8:	e50b3010 	str	r3, [fp, #-16]
   1ccac:	e51b3014 	ldr	r3, [fp, #-20]
   1ccb0:	e2433004 	sub	r3, r3, #4
   1ccb4:	e50b3014 	str	r3, [fp, #-20]
   1ccb8:	e51b3014 	ldr	r3, [fp, #-20]
   1ccbc:	e3530003 	cmp	r3, #3
   1ccc0:	8afffff1 	bhi	1cc8c <mul32+0x24>
   1ccc4:	e51b3014 	ldr	r3, [fp, #-20]
   1ccc8:	e3530000 	cmp	r3, #0
   1cccc:	0a000005 	beq	1cce8 <mul32+0x80>
   1ccd0:	e51b3010 	ldr	r3, [fp, #-16]
   1ccd4:	e5933000 	ldr	r3, [r3]
   1ccd8:	e3c324ff 	bic	r2, r3, #-16777216	; 0xff000000
   1ccdc:	e51b3008 	ldr	r3, [fp, #-8]
   1cce0:	e0823003 	add	r3, r2, r3
   1cce4:	e50b3008 	str	r3, [fp, #-8]
   1cce8:	e51b2018 	ldr	r2, [fp, #-24]
   1ccec:	e24b3008 	sub	r3, fp, #8
   1ccf0:	e1a01002 	mov	r1, r2
   1ccf4:	e1a02003 	mov	r2, r3
   1ccf8:	e3a03004 	mov	r3, #4
   1ccfc:	e1a00001 	mov	r0, r1
   1cd00:	e1a01002 	mov	r1, r2
   1cd04:	e1a02003 	mov	r2, r3
   1cd08:	ebffaf9a 	bl	8b78 <_init+0x74>
   1cd0c:	e24bd004 	sub	sp, fp, #4
   1cd10:	e8bd8800 	pop	{fp, pc}

0001cd14 <mod8>:
   1cd14:	e92d4800 	push	{fp, lr}
   1cd18:	e28db004 	add	fp, sp, #4
   1cd1c:	e24dd018 	sub	sp, sp, #24
   1cd20:	e50b0010 	str	r0, [fp, #-16]
   1cd24:	e50b1014 	str	r1, [fp, #-20]
   1cd28:	e50b2018 	str	r2, [fp, #-24]
   1cd2c:	e3e03021 	mvn	r3, #33	; 0x21
   1cd30:	e54b3006 	strb	r3, [fp, #-6]
   1cd34:	e3a03000 	mov	r3, #0
   1cd38:	e54b3005 	strb	r3, [fp, #-5]
   1cd3c:	ea000010 	b	1cd84 <mod8+0x70>
   1cd40:	e55b2006 	ldrb	r2, [fp, #-6]
   1cd44:	e55b3005 	ldrb	r3, [fp, #-5]
   1cd48:	e51b1010 	ldr	r1, [fp, #-16]
   1cd4c:	e0813003 	add	r3, r1, r3
   1cd50:	e5d33000 	ldrb	r3, [r3]
   1cd54:	e1a00002 	mov	r0, r2
   1cd58:	e1a01003 	mov	r1, r3
   1cd5c:	eb00057f 	bl	1e360 <__aeabi_uidivmod>
   1cd60:	e1a03001 	mov	r3, r1
   1cd64:	e6ef2073 	uxtb	r2, r3
   1cd68:	e55b3006 	ldrb	r3, [fp, #-6]
   1cd6c:	e0823003 	add	r3, r2, r3
   1cd70:	e6ef3073 	uxtb	r3, r3
   1cd74:	e54b3006 	strb	r3, [fp, #-6]
   1cd78:	e55b3005 	ldrb	r3, [fp, #-5]
   1cd7c:	e2833001 	add	r3, r3, #1
   1cd80:	e54b3005 	strb	r3, [fp, #-5]
   1cd84:	e55b2005 	ldrb	r2, [fp, #-5]
   1cd88:	e51b3014 	ldr	r3, [fp, #-20]
   1cd8c:	e1520003 	cmp	r2, r3
   1cd90:	3affffea 	bcc	1cd40 <mod8+0x2c>
   1cd94:	e24b3006 	sub	r3, fp, #6
   1cd98:	e5d32000 	ldrb	r2, [r3]
   1cd9c:	e51b3018 	ldr	r3, [fp, #-24]
   1cda0:	e5c32000 	strb	r2, [r3]
   1cda4:	e24bd004 	sub	sp, fp, #4
   1cda8:	e8bd8800 	pop	{fp, pc}

0001cdac <mod16>:
   1cdac:	e92d4800 	push	{fp, lr}
   1cdb0:	e28db004 	add	fp, sp, #4
   1cdb4:	e24dd018 	sub	sp, sp, #24
   1cdb8:	e50b0010 	str	r0, [fp, #-16]
   1cdbc:	e50b1014 	str	r1, [fp, #-20]
   1cdc0:	e50b2018 	str	r2, [fp, #-24]
   1cdc4:	e59f30ac 	ldr	r3, [pc, #172]	; 1ce78 <mod16+0xcc>
   1cdc8:	e14b30b6 	strh	r3, [fp, #-6]
   1cdcc:	ea000011 	b	1ce18 <mod16+0x6c>
   1cdd0:	e15b20b6 	ldrh	r2, [fp, #-6]
   1cdd4:	e51b3010 	ldr	r3, [fp, #-16]
   1cdd8:	e1d330b0 	ldrh	r3, [r3]
   1cddc:	e1a00002 	mov	r0, r2
   1cde0:	e1a01003 	mov	r1, r3
   1cde4:	eb00055d 	bl	1e360 <__aeabi_uidivmod>
   1cde8:	e1a03001 	mov	r3, r1
   1cdec:	e6ff2073 	uxth	r2, r3
   1cdf0:	e15b30b6 	ldrh	r3, [fp, #-6]
   1cdf4:	e0823003 	add	r3, r2, r3
   1cdf8:	e6ff3073 	uxth	r3, r3
   1cdfc:	e14b30b6 	strh	r3, [fp, #-6]
   1ce00:	e51b3010 	ldr	r3, [fp, #-16]
   1ce04:	e2833002 	add	r3, r3, #2
   1ce08:	e50b3010 	str	r3, [fp, #-16]
   1ce0c:	e51b3014 	ldr	r3, [fp, #-20]
   1ce10:	e2433002 	sub	r3, r3, #2
   1ce14:	e50b3014 	str	r3, [fp, #-20]
   1ce18:	e51b3014 	ldr	r3, [fp, #-20]
   1ce1c:	e3530001 	cmp	r3, #1
   1ce20:	8affffea 	bhi	1cdd0 <mod16+0x24>
   1ce24:	e51b3014 	ldr	r3, [fp, #-20]
   1ce28:	e3530000 	cmp	r3, #0
   1ce2c:	0a000006 	beq	1ce4c <mod16+0xa0>
   1ce30:	e51b3010 	ldr	r3, [fp, #-16]
   1ce34:	e5d33000 	ldrb	r3, [r3]
   1ce38:	e1a02003 	mov	r2, r3
   1ce3c:	e15b30b6 	ldrh	r3, [fp, #-6]
   1ce40:	e0823003 	add	r3, r2, r3
   1ce44:	e6ff3073 	uxth	r3, r3
   1ce48:	e14b30b6 	strh	r3, [fp, #-6]
   1ce4c:	e51b2018 	ldr	r2, [fp, #-24]
   1ce50:	e24b3006 	sub	r3, fp, #6
   1ce54:	e1a01002 	mov	r1, r2
   1ce58:	e1a02003 	mov	r2, r3
   1ce5c:	e3a03002 	mov	r3, #2
   1ce60:	e1a00001 	mov	r0, r1
   1ce64:	e1a01002 	mov	r1, r2
   1ce68:	e1a02003 	mov	r2, r3
   1ce6c:	ebffaf41 	bl	8b78 <_init+0x74>
   1ce70:	e24bd004 	sub	sp, fp, #4
   1ce74:	e8bd8800 	pop	{fp, pc}
   1ce78:	ffffdead 	.word	0xffffdead

0001ce7c <mod32>:
   1ce7c:	e92d4800 	push	{fp, lr}
   1ce80:	e28db004 	add	fp, sp, #4
   1ce84:	e24dd018 	sub	sp, sp, #24
   1ce88:	e50b0010 	str	r0, [fp, #-16]
   1ce8c:	e50b1014 	str	r1, [fp, #-20]
   1ce90:	e50b2018 	str	r2, [fp, #-24]
   1ce94:	e59f30a4 	ldr	r3, [pc, #164]	; 1cf40 <mod32+0xc4>
   1ce98:	e50b3008 	str	r3, [fp, #-8]
   1ce9c:	ea000010 	b	1cee4 <mod32+0x68>
   1cea0:	e51b2008 	ldr	r2, [fp, #-8]
   1cea4:	e51b3010 	ldr	r3, [fp, #-16]
   1cea8:	e5933000 	ldr	r3, [r3]
   1ceac:	e1a00002 	mov	r0, r2
   1ceb0:	e1a01003 	mov	r1, r3
   1ceb4:	eb000529 	bl	1e360 <__aeabi_uidivmod>
   1ceb8:	e1a03001 	mov	r3, r1
   1cebc:	e1a02003 	mov	r2, r3
   1cec0:	e51b3008 	ldr	r3, [fp, #-8]
   1cec4:	e0823003 	add	r3, r2, r3
   1cec8:	e50b3008 	str	r3, [fp, #-8]
   1cecc:	e51b3010 	ldr	r3, [fp, #-16]
   1ced0:	e2833004 	add	r3, r3, #4
   1ced4:	e50b3010 	str	r3, [fp, #-16]
   1ced8:	e51b3014 	ldr	r3, [fp, #-20]
   1cedc:	e2433004 	sub	r3, r3, #4
   1cee0:	e50b3014 	str	r3, [fp, #-20]
   1cee4:	e51b3014 	ldr	r3, [fp, #-20]
   1cee8:	e3530003 	cmp	r3, #3
   1ceec:	8affffeb 	bhi	1cea0 <mod32+0x24>
   1cef0:	e51b3014 	ldr	r3, [fp, #-20]
   1cef4:	e3530000 	cmp	r3, #0
   1cef8:	0a000005 	beq	1cf14 <mod32+0x98>
   1cefc:	e51b3010 	ldr	r3, [fp, #-16]
   1cf00:	e5933000 	ldr	r3, [r3]
   1cf04:	e3c324ff 	bic	r2, r3, #-16777216	; 0xff000000
   1cf08:	e51b3008 	ldr	r3, [fp, #-8]
   1cf0c:	e0823003 	add	r3, r2, r3
   1cf10:	e50b3008 	str	r3, [fp, #-8]
   1cf14:	e51b2018 	ldr	r2, [fp, #-24]
   1cf18:	e24b3008 	sub	r3, fp, #8
   1cf1c:	e1a01002 	mov	r1, r2
   1cf20:	e1a02003 	mov	r2, r3
   1cf24:	e3a03004 	mov	r3, #4
   1cf28:	e1a00001 	mov	r0, r1
   1cf2c:	e1a01002 	mov	r1, r2
   1cf30:	e1a02003 	mov	r2, r3
   1cf34:	ebffaf0f 	bl	8b78 <_init+0x74>
   1cf38:	e24bd004 	sub	sp, fp, #4
   1cf3c:	e8bd8800 	pop	{fp, pc}
   1cf40:	deadbabe 	.word	0xdeadbabe

0001cf44 <div8>:
   1cf44:	e92d4800 	push	{fp, lr}
   1cf48:	e28db004 	add	fp, sp, #4
   1cf4c:	e24dd018 	sub	sp, sp, #24
   1cf50:	e50b0010 	str	r0, [fp, #-16]
   1cf54:	e50b1014 	str	r1, [fp, #-20]
   1cf58:	e50b2018 	str	r2, [fp, #-24]
   1cf5c:	e3e03045 	mvn	r3, #69	; 0x45
   1cf60:	e54b3006 	strb	r3, [fp, #-6]
   1cf64:	e3a03000 	mov	r3, #0
   1cf68:	e54b3005 	strb	r3, [fp, #-5]
   1cf6c:	ea000010 	b	1cfb4 <div8+0x70>
   1cf70:	e55b2006 	ldrb	r2, [fp, #-6]
   1cf74:	e55b3005 	ldrb	r3, [fp, #-5]
   1cf78:	e51b1010 	ldr	r1, [fp, #-16]
   1cf7c:	e0813003 	add	r3, r1, r3
   1cf80:	e5d33000 	ldrb	r3, [r3]
   1cf84:	e1a00002 	mov	r0, r2
   1cf88:	e1a01003 	mov	r1, r3
   1cf8c:	eb000478 	bl	1e174 <__aeabi_uidiv>
   1cf90:	e1a03000 	mov	r3, r0
   1cf94:	e6ef2073 	uxtb	r2, r3
   1cf98:	e55b3006 	ldrb	r3, [fp, #-6]
   1cf9c:	e0823003 	add	r3, r2, r3
   1cfa0:	e6ef3073 	uxtb	r3, r3
   1cfa4:	e54b3006 	strb	r3, [fp, #-6]
   1cfa8:	e55b3005 	ldrb	r3, [fp, #-5]
   1cfac:	e2833001 	add	r3, r3, #1
   1cfb0:	e54b3005 	strb	r3, [fp, #-5]
   1cfb4:	e55b2005 	ldrb	r2, [fp, #-5]
   1cfb8:	e51b3014 	ldr	r3, [fp, #-20]
   1cfbc:	e1520003 	cmp	r2, r3
   1cfc0:	3affffea 	bcc	1cf70 <div8+0x2c>
   1cfc4:	e24b3006 	sub	r3, fp, #6
   1cfc8:	e5d32000 	ldrb	r2, [r3]
   1cfcc:	e51b3018 	ldr	r3, [fp, #-24]
   1cfd0:	e5c32000 	strb	r2, [r3]
   1cfd4:	e24bd004 	sub	sp, fp, #4
   1cfd8:	e8bd8800 	pop	{fp, pc}

0001cfdc <div16>:
   1cfdc:	e92d4800 	push	{fp, lr}
   1cfe0:	e28db004 	add	fp, sp, #4
   1cfe4:	e24dd018 	sub	sp, sp, #24
   1cfe8:	e50b0010 	str	r0, [fp, #-16]
   1cfec:	e50b1014 	str	r1, [fp, #-20]
   1cff0:	e50b2018 	str	r2, [fp, #-24]
   1cff4:	e59f30ac 	ldr	r3, [pc, #172]	; 1d0a8 <div16+0xcc>
   1cff8:	e14b30b6 	strh	r3, [fp, #-6]
   1cffc:	ea000011 	b	1d048 <div16+0x6c>
   1d000:	e15b20b6 	ldrh	r2, [fp, #-6]
   1d004:	e51b3010 	ldr	r3, [fp, #-16]
   1d008:	e1d330b0 	ldrh	r3, [r3]
   1d00c:	e1a00002 	mov	r0, r2
   1d010:	e1a01003 	mov	r1, r3
   1d014:	eb000456 	bl	1e174 <__aeabi_uidiv>
   1d018:	e1a03000 	mov	r3, r0
   1d01c:	e6ff2073 	uxth	r2, r3
   1d020:	e15b30b6 	ldrh	r3, [fp, #-6]
   1d024:	e0823003 	add	r3, r2, r3
   1d028:	e6ff3073 	uxth	r3, r3
   1d02c:	e14b30b6 	strh	r3, [fp, #-6]
   1d030:	e51b3010 	ldr	r3, [fp, #-16]
   1d034:	e2833002 	add	r3, r3, #2
   1d038:	e50b3010 	str	r3, [fp, #-16]
   1d03c:	e51b3014 	ldr	r3, [fp, #-20]
   1d040:	e2433002 	sub	r3, r3, #2
   1d044:	e50b3014 	str	r3, [fp, #-20]
   1d048:	e51b3014 	ldr	r3, [fp, #-20]
   1d04c:	e3530001 	cmp	r3, #1
   1d050:	8affffea 	bhi	1d000 <div16+0x24>
   1d054:	e51b3014 	ldr	r3, [fp, #-20]
   1d058:	e3530000 	cmp	r3, #0
   1d05c:	0a000006 	beq	1d07c <div16+0xa0>
   1d060:	e51b3010 	ldr	r3, [fp, #-16]
   1d064:	e5d33000 	ldrb	r3, [r3]
   1d068:	e1a02003 	mov	r2, r3
   1d06c:	e15b30b6 	ldrh	r3, [fp, #-6]
   1d070:	e0823003 	add	r3, r2, r3
   1d074:	e6ff3073 	uxth	r3, r3
   1d078:	e14b30b6 	strh	r3, [fp, #-6]
   1d07c:	e51b2018 	ldr	r2, [fp, #-24]
   1d080:	e24b3006 	sub	r3, fp, #6
   1d084:	e1a01002 	mov	r1, r2
   1d088:	e1a02003 	mov	r2, r3
   1d08c:	e3a03002 	mov	r3, #2
   1d090:	e1a00001 	mov	r0, r1
   1d094:	e1a01002 	mov	r1, r2
   1d098:	e1a02003 	mov	r2, r3
   1d09c:	ebffaeb5 	bl	8b78 <_init+0x74>
   1d0a0:	e24bd004 	sub	sp, fp, #4
   1d0a4:	e8bd8800 	pop	{fp, pc}
   1d0a8:	ffffbabe 	.word	0xffffbabe

0001d0ac <div32>:
   1d0ac:	e92d4800 	push	{fp, lr}
   1d0b0:	e28db004 	add	fp, sp, #4
   1d0b4:	e24dd018 	sub	sp, sp, #24
   1d0b8:	e50b0010 	str	r0, [fp, #-16]
   1d0bc:	e50b1014 	str	r1, [fp, #-20]
   1d0c0:	e50b2018 	str	r2, [fp, #-24]
   1d0c4:	e59f30a4 	ldr	r3, [pc, #164]	; 1d170 <div32+0xc4>
   1d0c8:	e50b3008 	str	r3, [fp, #-8]
   1d0cc:	ea000010 	b	1d114 <div32+0x68>
   1d0d0:	e51b2008 	ldr	r2, [fp, #-8]
   1d0d4:	e51b3010 	ldr	r3, [fp, #-16]
   1d0d8:	e5933000 	ldr	r3, [r3]
   1d0dc:	e1a00002 	mov	r0, r2
   1d0e0:	e1a01003 	mov	r1, r3
   1d0e4:	eb000422 	bl	1e174 <__aeabi_uidiv>
   1d0e8:	e1a03000 	mov	r3, r0
   1d0ec:	e1a02003 	mov	r2, r3
   1d0f0:	e51b3008 	ldr	r3, [fp, #-8]
   1d0f4:	e0823003 	add	r3, r2, r3
   1d0f8:	e50b3008 	str	r3, [fp, #-8]
   1d0fc:	e51b3010 	ldr	r3, [fp, #-16]
   1d100:	e2833004 	add	r3, r3, #4
   1d104:	e50b3010 	str	r3, [fp, #-16]
   1d108:	e51b3014 	ldr	r3, [fp, #-20]
   1d10c:	e2433004 	sub	r3, r3, #4
   1d110:	e50b3014 	str	r3, [fp, #-20]
   1d114:	e51b3014 	ldr	r3, [fp, #-20]
   1d118:	e3530003 	cmp	r3, #3
   1d11c:	8affffeb 	bhi	1d0d0 <div32+0x24>
   1d120:	e51b3014 	ldr	r3, [fp, #-20]
   1d124:	e3530000 	cmp	r3, #0
   1d128:	0a000005 	beq	1d144 <div32+0x98>
   1d12c:	e51b3010 	ldr	r3, [fp, #-16]
   1d130:	e5933000 	ldr	r3, [r3]
   1d134:	e3c324ff 	bic	r2, r3, #-16777216	; 0xff000000
   1d138:	e51b3008 	ldr	r3, [fp, #-8]
   1d13c:	e0823003 	add	r3, r2, r3
   1d140:	e50b3008 	str	r3, [fp, #-8]
   1d144:	e51b2018 	ldr	r2, [fp, #-24]
   1d148:	e24b3008 	sub	r3, fp, #8
   1d14c:	e1a01002 	mov	r1, r2
   1d150:	e1a02003 	mov	r2, r3
   1d154:	e3a03004 	mov	r3, #4
   1d158:	e1a00001 	mov	r0, r1
   1d15c:	e1a01002 	mov	r1, r2
   1d160:	e1a02003 	mov	r2, r3
   1d164:	ebffae83 	bl	8b78 <_init+0x74>
   1d168:	e24bd004 	sub	sp, fp, #4
   1d16c:	e8bd8800 	pop	{fp, pc}
   1d170:	babeb00b 	.word	0xbabeb00b
   1d174:	00000000 	.word	0x00000000

0001d178 <cos128>:
   1d178:	e92d4800 	push	{fp, lr}
   1d17c:	e28db004 	add	fp, sp, #4
   1d180:	e24dd020 	sub	sp, sp, #32
   1d184:	e50b0018 	str	r0, [fp, #-24]
   1d188:	e50b101c 	str	r1, [fp, #-28]
   1d18c:	e50b2020 	str	r2, [fp, #-32]
   1d190:	e51b301c 	ldr	r3, [fp, #-28]
   1d194:	e1a03123 	lsr	r3, r3, #2
   1d198:	e50b3008 	str	r3, [fp, #-8]
   1d19c:	e28f308c 	add	r3, pc, #140	; 0x8c
   1d1a0:	e1c320d0 	ldrd	r2, [r3]
   1d1a4:	e14b21f4 	strd	r2, [fp, #-20]	; 0xffffffec
   1d1a8:	ea00000a 	b	1d1d8 <cos128+0x60>
   1d1ac:	e51b3008 	ldr	r3, [fp, #-8]
   1d1b0:	e1a03183 	lsl	r3, r3, #3
   1d1b4:	e51b2018 	ldr	r2, [fp, #-24]
   1d1b8:	e0823003 	add	r3, r2, r3
   1d1bc:	ed937b00 	vldr	d7, [r3]
   1d1c0:	eeb00b47 	vmov.f64	d0, d7
   1d1c4:	ebffaedd 	bl	8d40 <_init+0x23c>
   1d1c8:	eeb06b40 	vmov.f64	d6, d0
   1d1cc:	ed1b7b05 	vldr	d7, [fp, #-20]	; 0xffffffec
   1d1d0:	ee367b07 	vadd.f64	d7, d6, d7
   1d1d4:	ed0b7b05 	vstr	d7, [fp, #-20]	; 0xffffffec
   1d1d8:	e51b3008 	ldr	r3, [fp, #-8]
   1d1dc:	e3530000 	cmp	r3, #0
   1d1e0:	03a03000 	moveq	r3, #0
   1d1e4:	13a03001 	movne	r3, #1
   1d1e8:	e6ef3073 	uxtb	r3, r3
   1d1ec:	e51b2008 	ldr	r2, [fp, #-8]
   1d1f0:	e2422001 	sub	r2, r2, #1
   1d1f4:	e50b2008 	str	r2, [fp, #-8]
   1d1f8:	e3530000 	cmp	r3, #0
   1d1fc:	1affffea 	bne	1d1ac <cos128+0x34>
   1d200:	e51b2020 	ldr	r2, [fp, #-32]
   1d204:	e24b3014 	sub	r3, fp, #20
   1d208:	e1a01002 	mov	r1, r2
   1d20c:	e1a02003 	mov	r2, r3
   1d210:	e3a03010 	mov	r3, #16
   1d214:	e1a00001 	mov	r0, r1
   1d218:	e1a01002 	mov	r1, r2
   1d21c:	e1a02003 	mov	r2, r3
   1d220:	ebffae54 	bl	8b78 <_init+0x74>
   1d224:	e24bd004 	sub	sp, fp, #4
   1d228:	e8bd8800 	pop	{fp, pc}
   1d22c:	e1a00000 	nop			; (mov r0, r0)
	...

0001d238 <acos128>:
   1d238:	e92d4800 	push	{fp, lr}
   1d23c:	e28db004 	add	fp, sp, #4
   1d240:	e24dd020 	sub	sp, sp, #32
   1d244:	e50b0018 	str	r0, [fp, #-24]
   1d248:	e50b101c 	str	r1, [fp, #-28]
   1d24c:	e50b2020 	str	r2, [fp, #-32]
   1d250:	e51b301c 	ldr	r3, [fp, #-28]
   1d254:	e1a03123 	lsr	r3, r3, #2
   1d258:	e50b3008 	str	r3, [fp, #-8]
   1d25c:	e28f308c 	add	r3, pc, #140	; 0x8c
   1d260:	e1c320d0 	ldrd	r2, [r3]
   1d264:	e14b21f4 	strd	r2, [fp, #-20]	; 0xffffffec
   1d268:	ea00000a 	b	1d298 <acos128+0x60>
   1d26c:	e51b3008 	ldr	r3, [fp, #-8]
   1d270:	e1a03183 	lsl	r3, r3, #3
   1d274:	e51b2018 	ldr	r2, [fp, #-24]
   1d278:	e0823003 	add	r3, r2, r3
   1d27c:	ed937b00 	vldr	d7, [r3]
   1d280:	eeb00b47 	vmov.f64	d0, d7
   1d284:	ebffae5c 	bl	8bfc <_init+0xf8>
   1d288:	eeb06b40 	vmov.f64	d6, d0
   1d28c:	ed1b7b05 	vldr	d7, [fp, #-20]	; 0xffffffec
   1d290:	ee367b07 	vadd.f64	d7, d6, d7
   1d294:	ed0b7b05 	vstr	d7, [fp, #-20]	; 0xffffffec
   1d298:	e51b3008 	ldr	r3, [fp, #-8]
   1d29c:	e3530000 	cmp	r3, #0
   1d2a0:	03a03000 	moveq	r3, #0
   1d2a4:	13a03001 	movne	r3, #1
   1d2a8:	e6ef3073 	uxtb	r3, r3
   1d2ac:	e51b2008 	ldr	r2, [fp, #-8]
   1d2b0:	e2422001 	sub	r2, r2, #1
   1d2b4:	e50b2008 	str	r2, [fp, #-8]
   1d2b8:	e3530000 	cmp	r3, #0
   1d2bc:	1affffea 	bne	1d26c <acos128+0x34>
   1d2c0:	e51b2020 	ldr	r2, [fp, #-32]
   1d2c4:	e24b3014 	sub	r3, fp, #20
   1d2c8:	e1a01002 	mov	r1, r2
   1d2cc:	e1a02003 	mov	r2, r3
   1d2d0:	e3a03010 	mov	r3, #16
   1d2d4:	e1a00001 	mov	r0, r1
   1d2d8:	e1a01002 	mov	r1, r2
   1d2dc:	e1a02003 	mov	r2, r3
   1d2e0:	ebffae24 	bl	8b78 <_init+0x74>
   1d2e4:	e24bd004 	sub	sp, fp, #4
   1d2e8:	e8bd8800 	pop	{fp, pc}
   1d2ec:	e1a00000 	nop			; (mov r0, r0)
	...

0001d2f8 <sin128>:
   1d2f8:	e92d4800 	push	{fp, lr}
   1d2fc:	e28db004 	add	fp, sp, #4
   1d300:	e24dd020 	sub	sp, sp, #32
   1d304:	e50b0018 	str	r0, [fp, #-24]
   1d308:	e50b101c 	str	r1, [fp, #-28]
   1d30c:	e50b2020 	str	r2, [fp, #-32]
   1d310:	e51b301c 	ldr	r3, [fp, #-28]
   1d314:	e1a03123 	lsr	r3, r3, #2
   1d318:	e50b3008 	str	r3, [fp, #-8]
   1d31c:	e28f308c 	add	r3, pc, #140	; 0x8c
   1d320:	e1c320d0 	ldrd	r2, [r3]
   1d324:	e14b21f4 	strd	r2, [fp, #-20]	; 0xffffffec
   1d328:	ea00000a 	b	1d358 <sin128+0x60>
   1d32c:	e51b3008 	ldr	r3, [fp, #-8]
   1d330:	e1a03183 	lsl	r3, r3, #3
   1d334:	e51b2018 	ldr	r2, [fp, #-24]
   1d338:	e0823003 	add	r3, r2, r3
   1d33c:	ed937b00 	vldr	d7, [r3]
   1d340:	eeb00b47 	vmov.f64	d0, d7
   1d344:	ebffae3e 	bl	8c44 <_init+0x140>
   1d348:	eeb06b40 	vmov.f64	d6, d0
   1d34c:	ed1b7b05 	vldr	d7, [fp, #-20]	; 0xffffffec
   1d350:	ee367b07 	vadd.f64	d7, d6, d7
   1d354:	ed0b7b05 	vstr	d7, [fp, #-20]	; 0xffffffec
   1d358:	e51b3008 	ldr	r3, [fp, #-8]
   1d35c:	e3530000 	cmp	r3, #0
   1d360:	03a03000 	moveq	r3, #0
   1d364:	13a03001 	movne	r3, #1
   1d368:	e6ef3073 	uxtb	r3, r3
   1d36c:	e51b2008 	ldr	r2, [fp, #-8]
   1d370:	e2422001 	sub	r2, r2, #1
   1d374:	e50b2008 	str	r2, [fp, #-8]
   1d378:	e3530000 	cmp	r3, #0
   1d37c:	1affffea 	bne	1d32c <sin128+0x34>
   1d380:	e51b2020 	ldr	r2, [fp, #-32]
   1d384:	e24b3014 	sub	r3, fp, #20
   1d388:	e1a01002 	mov	r1, r2
   1d38c:	e1a02003 	mov	r2, r3
   1d390:	e3a03010 	mov	r3, #16
   1d394:	e1a00001 	mov	r0, r1
   1d398:	e1a01002 	mov	r1, r2
   1d39c:	e1a02003 	mov	r2, r3
   1d3a0:	ebffadf4 	bl	8b78 <_init+0x74>
   1d3a4:	e24bd004 	sub	sp, fp, #4
   1d3a8:	e8bd8800 	pop	{fp, pc}
   1d3ac:	e1a00000 	nop			; (mov r0, r0)
	...

0001d3b8 <asin128>:
   1d3b8:	e92d4800 	push	{fp, lr}
   1d3bc:	e28db004 	add	fp, sp, #4
   1d3c0:	e24dd020 	sub	sp, sp, #32
   1d3c4:	e50b0018 	str	r0, [fp, #-24]
   1d3c8:	e50b101c 	str	r1, [fp, #-28]
   1d3cc:	e50b2020 	str	r2, [fp, #-32]
   1d3d0:	e51b301c 	ldr	r3, [fp, #-28]
   1d3d4:	e1a03123 	lsr	r3, r3, #2
   1d3d8:	e50b3008 	str	r3, [fp, #-8]
   1d3dc:	e28f308c 	add	r3, pc, #140	; 0x8c
   1d3e0:	e1c320d0 	ldrd	r2, [r3]
   1d3e4:	e14b21f4 	strd	r2, [fp, #-20]	; 0xffffffec
   1d3e8:	ea00000a 	b	1d418 <asin128+0x60>
   1d3ec:	e51b3008 	ldr	r3, [fp, #-8]
   1d3f0:	e1a03183 	lsl	r3, r3, #3
   1d3f4:	e51b2018 	ldr	r2, [fp, #-24]
   1d3f8:	e0823003 	add	r3, r2, r3
   1d3fc:	ed937b00 	vldr	d7, [r3]
   1d400:	eeb00b47 	vmov.f64	d0, d7
   1d404:	ebffae29 	bl	8cb0 <_init+0x1ac>
   1d408:	eeb06b40 	vmov.f64	d6, d0
   1d40c:	ed1b7b05 	vldr	d7, [fp, #-20]	; 0xffffffec
   1d410:	ee367b07 	vadd.f64	d7, d6, d7
   1d414:	ed0b7b05 	vstr	d7, [fp, #-20]	; 0xffffffec
   1d418:	e51b3008 	ldr	r3, [fp, #-8]
   1d41c:	e3530000 	cmp	r3, #0
   1d420:	03a03000 	moveq	r3, #0
   1d424:	13a03001 	movne	r3, #1
   1d428:	e6ef3073 	uxtb	r3, r3
   1d42c:	e51b2008 	ldr	r2, [fp, #-8]
   1d430:	e2422001 	sub	r2, r2, #1
   1d434:	e50b2008 	str	r2, [fp, #-8]
   1d438:	e3530000 	cmp	r3, #0
   1d43c:	1affffea 	bne	1d3ec <asin128+0x34>
   1d440:	e51b2020 	ldr	r2, [fp, #-32]
   1d444:	e24b3014 	sub	r3, fp, #20
   1d448:	e1a01002 	mov	r1, r2
   1d44c:	e1a02003 	mov	r2, r3
   1d450:	e3a03010 	mov	r3, #16
   1d454:	e1a00001 	mov	r0, r1
   1d458:	e1a01002 	mov	r1, r2
   1d45c:	e1a02003 	mov	r2, r3
   1d460:	ebffadc4 	bl	8b78 <_init+0x74>
   1d464:	e24bd004 	sub	sp, fp, #4
   1d468:	e8bd8800 	pop	{fp, pc}
   1d46c:	e1a00000 	nop			; (mov r0, r0)
	...

0001d478 <tan128>:
   1d478:	e92d4800 	push	{fp, lr}
   1d47c:	e28db004 	add	fp, sp, #4
   1d480:	e24dd020 	sub	sp, sp, #32
   1d484:	e50b0018 	str	r0, [fp, #-24]
   1d488:	e50b101c 	str	r1, [fp, #-28]
   1d48c:	e50b2020 	str	r2, [fp, #-32]
   1d490:	e51b301c 	ldr	r3, [fp, #-28]
   1d494:	e1a03123 	lsr	r3, r3, #2
   1d498:	e50b3008 	str	r3, [fp, #-8]
   1d49c:	e28f308c 	add	r3, pc, #140	; 0x8c
   1d4a0:	e1c320d0 	ldrd	r2, [r3]
   1d4a4:	e14b21f4 	strd	r2, [fp, #-20]	; 0xffffffec
   1d4a8:	ea00000a 	b	1d4d8 <tan128+0x60>
   1d4ac:	e51b3008 	ldr	r3, [fp, #-8]
   1d4b0:	e1a03183 	lsl	r3, r3, #3
   1d4b4:	e51b2018 	ldr	r2, [fp, #-24]
   1d4b8:	e0823003 	add	r3, r2, r3
   1d4bc:	ed937b00 	vldr	d7, [r3]
   1d4c0:	eeb00b47 	vmov.f64	d0, d7
   1d4c4:	ebffadf0 	bl	8c8c <_init+0x188>
   1d4c8:	eeb06b40 	vmov.f64	d6, d0
   1d4cc:	ed1b7b05 	vldr	d7, [fp, #-20]	; 0xffffffec
   1d4d0:	ee367b07 	vadd.f64	d7, d6, d7
   1d4d4:	ed0b7b05 	vstr	d7, [fp, #-20]	; 0xffffffec
   1d4d8:	e51b3008 	ldr	r3, [fp, #-8]
   1d4dc:	e3530000 	cmp	r3, #0
   1d4e0:	03a03000 	moveq	r3, #0
   1d4e4:	13a03001 	movne	r3, #1
   1d4e8:	e6ef3073 	uxtb	r3, r3
   1d4ec:	e51b2008 	ldr	r2, [fp, #-8]
   1d4f0:	e2422001 	sub	r2, r2, #1
   1d4f4:	e50b2008 	str	r2, [fp, #-8]
   1d4f8:	e3530000 	cmp	r3, #0
   1d4fc:	1affffea 	bne	1d4ac <tan128+0x34>
   1d500:	e51b2020 	ldr	r2, [fp, #-32]
   1d504:	e24b3014 	sub	r3, fp, #20
   1d508:	e1a01002 	mov	r1, r2
   1d50c:	e1a02003 	mov	r2, r3
   1d510:	e3a03010 	mov	r3, #16
   1d514:	e1a00001 	mov	r0, r1
   1d518:	e1a01002 	mov	r1, r2
   1d51c:	e1a02003 	mov	r2, r3
   1d520:	ebffad94 	bl	8b78 <_init+0x74>
   1d524:	e24bd004 	sub	sp, fp, #4
   1d528:	e8bd8800 	pop	{fp, pc}
   1d52c:	e1a00000 	nop			; (mov r0, r0)
	...

0001d538 <atan128>:
   1d538:	e92d4800 	push	{fp, lr}
   1d53c:	e28db004 	add	fp, sp, #4
   1d540:	e24dd020 	sub	sp, sp, #32
   1d544:	e50b0018 	str	r0, [fp, #-24]
   1d548:	e50b101c 	str	r1, [fp, #-28]
   1d54c:	e50b2020 	str	r2, [fp, #-32]
   1d550:	e51b301c 	ldr	r3, [fp, #-28]
   1d554:	e1a03123 	lsr	r3, r3, #2
   1d558:	e50b3008 	str	r3, [fp, #-8]
   1d55c:	e28f308c 	add	r3, pc, #140	; 0x8c
   1d560:	e1c320d0 	ldrd	r2, [r3]
   1d564:	e14b21f4 	strd	r2, [fp, #-20]	; 0xffffffec
   1d568:	ea00000a 	b	1d598 <atan128+0x60>
   1d56c:	e51b3008 	ldr	r3, [fp, #-8]
   1d570:	e1a03183 	lsl	r3, r3, #3
   1d574:	e51b2018 	ldr	r2, [fp, #-24]
   1d578:	e0823003 	add	r3, r2, r3
   1d57c:	ed937b00 	vldr	d7, [r3]
   1d580:	eeb00b47 	vmov.f64	d0, d7
   1d584:	ebffadc6 	bl	8ca4 <_init+0x1a0>
   1d588:	eeb06b40 	vmov.f64	d6, d0
   1d58c:	ed1b7b05 	vldr	d7, [fp, #-20]	; 0xffffffec
   1d590:	ee367b07 	vadd.f64	d7, d6, d7
   1d594:	ed0b7b05 	vstr	d7, [fp, #-20]	; 0xffffffec
   1d598:	e51b3008 	ldr	r3, [fp, #-8]
   1d59c:	e3530000 	cmp	r3, #0
   1d5a0:	03a03000 	moveq	r3, #0
   1d5a4:	13a03001 	movne	r3, #1
   1d5a8:	e6ef3073 	uxtb	r3, r3
   1d5ac:	e51b2008 	ldr	r2, [fp, #-8]
   1d5b0:	e2422001 	sub	r2, r2, #1
   1d5b4:	e50b2008 	str	r2, [fp, #-8]
   1d5b8:	e3530000 	cmp	r3, #0
   1d5bc:	1affffea 	bne	1d56c <atan128+0x34>
   1d5c0:	e51b2020 	ldr	r2, [fp, #-32]
   1d5c4:	e24b3014 	sub	r3, fp, #20
   1d5c8:	e1a01002 	mov	r1, r2
   1d5cc:	e1a02003 	mov	r2, r3
   1d5d0:	e3a03010 	mov	r3, #16
   1d5d4:	e1a00001 	mov	r0, r1
   1d5d8:	e1a01002 	mov	r1, r2
   1d5dc:	e1a02003 	mov	r2, r3
   1d5e0:	ebffad64 	bl	8b78 <_init+0x74>
   1d5e4:	e24bd004 	sub	sp, fp, #4
   1d5e8:	e8bd8800 	pop	{fp, pc}
   1d5ec:	e1a00000 	nop			; (mov r0, r0)
	...

0001d5f8 <SetupSock>:
   1d5f8:	e92d4810 	push	{r4, fp, lr}
   1d5fc:	e28db008 	add	fp, sp, #8
   1d600:	e24dd024 	sub	sp, sp, #36	; 0x24
   1d604:	e50b0018 	str	r0, [fp, #-24]
   1d608:	e50b101c 	str	r1, [fp, #-28]
   1d60c:	e50b2020 	str	r2, [fp, #-32]
   1d610:	e3a03001 	mov	r3, #1
   1d614:	e50b3014 	str	r3, [fp, #-20]
   1d618:	e3a00000 	mov	r0, #0
   1d61c:	ebffad5b 	bl	8b90 <_init+0x8c>
   1d620:	e1a03000 	mov	r3, r0
   1d624:	e1a00003 	mov	r0, r3
   1d628:	ebffad8b 	bl	8c5c <_init+0x158>
   1d62c:	e3a00011 	mov	r0, #17
   1d630:	e3a01001 	mov	r1, #1
   1d634:	ebffad52 	bl	8b84 <_init+0x80>
   1d638:	e51b001c 	ldr	r0, [fp, #-28]
   1d63c:	e3a01001 	mov	r1, #1
   1d640:	e3a02000 	mov	r2, #0
   1d644:	ebffadab 	bl	8cf8 <_init+0x1f4>
   1d648:	e50b0010 	str	r0, [fp, #-16]
   1d64c:	e51b3010 	ldr	r3, [fp, #-16]
   1d650:	e3730001 	cmn	r3, #1
   1d654:	1a000008 	bne	1d67c <SetupSock+0x84>
   1d658:	e59f40c0 	ldr	r4, [pc, #192]	; 1d720 <SetupSock+0x128>
   1d65c:	ebffad81 	bl	8c68 <_init+0x164>
   1d660:	e1a03000 	mov	r3, r0
   1d664:	e5933000 	ldr	r3, [r3]
   1d668:	e1a00004 	mov	r0, r4
   1d66c:	e1a01003 	mov	r1, r3
   1d670:	ebffad37 	bl	8b54 <_init+0x50>
   1d674:	e3e00000 	mvn	r0, #0
   1d678:	ebffad6e 	bl	8c38 <_init+0x134>
   1d67c:	e24b3014 	sub	r3, fp, #20
   1d680:	e3a02004 	mov	r2, #4
   1d684:	e58d2000 	str	r2, [sp]
   1d688:	e51b0010 	ldr	r0, [fp, #-16]
   1d68c:	e3a01001 	mov	r1, #1
   1d690:	e3a02002 	mov	r2, #2
   1d694:	ebffad2b 	bl	8b48 <_init+0x44>
   1d698:	e1a03000 	mov	r3, r0
   1d69c:	e3730001 	cmn	r3, #1
   1d6a0:	1a000008 	bne	1d6c8 <SetupSock+0xd0>
   1d6a4:	e59f4078 	ldr	r4, [pc, #120]	; 1d724 <SetupSock+0x12c>
   1d6a8:	ebffad6e 	bl	8c68 <_init+0x164>
   1d6ac:	e1a03000 	mov	r3, r0
   1d6b0:	e5933000 	ldr	r3, [r3]
   1d6b4:	e1a00004 	mov	r0, r4
   1d6b8:	e1a01003 	mov	r1, r3
   1d6bc:	ebffad24 	bl	8b54 <_init+0x50>
   1d6c0:	e3e00000 	mvn	r0, #0
   1d6c4:	ebffad5b 	bl	8c38 <_init+0x134>
   1d6c8:	e51b0020 	ldr	r0, [fp, #-32]
   1d6cc:	e51b1010 	ldr	r1, [fp, #-16]
   1d6d0:	e51b201c 	ldr	r2, [fp, #-28]
   1d6d4:	e51b3018 	ldr	r3, [fp, #-24]
   1d6d8:	eb000023 	bl	1d76c <bindtoif>
   1d6dc:	e1a03000 	mov	r3, r0
   1d6e0:	e3530000 	cmp	r3, #0
   1d6e4:	0a000001 	beq	1d6f0 <SetupSock+0xf8>
   1d6e8:	e3e00000 	mvn	r0, #0
   1d6ec:	ebffad51 	bl	8c38 <_init+0x134>
   1d6f0:	e51b0010 	ldr	r0, [fp, #-16]
   1d6f4:	e3a01014 	mov	r1, #20
   1d6f8:	ebffad75 	bl	8cd4 <_init+0x1d0>
   1d6fc:	e1a03000 	mov	r3, r0
   1d700:	e3530000 	cmp	r3, #0
   1d704:	0a000001 	beq	1d710 <SetupSock+0x118>
   1d708:	e3e00000 	mvn	r0, #0
   1d70c:	ebffad49 	bl	8c38 <_init+0x134>
   1d710:	e51b3010 	ldr	r3, [fp, #-16]
   1d714:	e1a00003 	mov	r0, r3
   1d718:	e24bd008 	sub	sp, fp, #8
   1d71c:	e8bd8810 	pop	{r4, fp, pc}
   1d720:	0001ed58 	.word	0x0001ed58
   1d724:	0001ed74 	.word	0x0001ed74

0001d728 <proc_handler>:
   1d728:	e92d4800 	push	{fp, lr}
   1d72c:	e28db004 	add	fp, sp, #4
   1d730:	e24dd010 	sub	sp, sp, #16
   1d734:	e50b0010 	str	r0, [fp, #-16]
   1d738:	e1a00000 	nop			; (mov r0, r0)
   1d73c:	e3a03000 	mov	r3, #0
   1d740:	e24b3008 	sub	r3, fp, #8
   1d744:	e3e00000 	mvn	r0, #0
   1d748:	e1a01003 	mov	r1, r3
   1d74c:	e3a02001 	mov	r2, #1
   1d750:	e3a03000 	mov	r3, #0
   1d754:	ebffad31 	bl	8c20 <_init+0x11c>
   1d758:	e1a03000 	mov	r3, r0
   1d75c:	e3530000 	cmp	r3, #0
   1d760:	cafffff5 	bgt	1d73c <proc_handler+0x14>
   1d764:	e24bd004 	sub	sp, fp, #4
   1d768:	e8bd8800 	pop	{fp, pc}

0001d76c <bindtoif>:
   1d76c:	e92d4810 	push	{r4, fp, lr}
   1d770:	e28db008 	add	fp, sp, #8
   1d774:	e24dd024 	sub	sp, sp, #36	; 0x24
   1d778:	e50b0020 	str	r0, [fp, #-32]
   1d77c:	e50b1024 	str	r1, [fp, #-36]	; 0x24
   1d780:	e50b2028 	str	r2, [fp, #-40]	; 0x28
   1d784:	e50b302c 	str	r3, [fp, #-44]	; 0x2c
   1d788:	e3a03000 	mov	r3, #0
   1d78c:	e50b3014 	str	r3, [fp, #-20]
   1d790:	e3a03000 	mov	r3, #0
   1d794:	e50b3010 	str	r3, [fp, #-16]
   1d798:	e51b3020 	ldr	r3, [fp, #-32]
   1d79c:	e3530000 	cmp	r3, #0
   1d7a0:	1a000001 	bne	1d7ac <bindtoif+0x40>
   1d7a4:	e3e03000 	mvn	r3, #0
   1d7a8:	ea000074 	b	1d980 <bindtoif+0x214>
   1d7ac:	e24b3018 	sub	r3, fp, #24
   1d7b0:	e1a00003 	mov	r0, r3
   1d7b4:	ebfface9 	bl	8b60 <_init+0x5c>
   1d7b8:	e50b0014 	str	r0, [fp, #-20]
   1d7bc:	e51b3014 	ldr	r3, [fp, #-20]
   1d7c0:	e3530000 	cmp	r3, #0
   1d7c4:	0a000008 	beq	1d7ec <bindtoif+0x80>
   1d7c8:	e59f41bc 	ldr	r4, [pc, #444]	; 1d98c <bindtoif+0x220>
   1d7cc:	ebffad25 	bl	8c68 <_init+0x164>
   1d7d0:	e1a03000 	mov	r3, r0
   1d7d4:	e5933000 	ldr	r3, [r3]
   1d7d8:	e1a00004 	mov	r0, r4
   1d7dc:	e1a01003 	mov	r1, r3
   1d7e0:	ebffacdb 	bl	8b54 <_init+0x50>
   1d7e4:	e3e00000 	mvn	r0, #0
   1d7e8:	ebffad12 	bl	8c38 <_init+0x134>
   1d7ec:	e51b3018 	ldr	r3, [fp, #-24]
   1d7f0:	e50b3010 	str	r3, [fp, #-16]
   1d7f4:	ea00004f 	b	1d938 <bindtoif+0x1cc>
   1d7f8:	e51b3010 	ldr	r3, [fp, #-16]
   1d7fc:	e593300c 	ldr	r3, [r3, #12]
   1d800:	e1d330b0 	ldrh	r3, [r3]
   1d804:	e1a02003 	mov	r2, r3
   1d808:	e51b3028 	ldr	r3, [fp, #-40]	; 0x28
   1d80c:	e1520003 	cmp	r2, r3
   1d810:	1a000045 	bne	1d92c <bindtoif+0x1c0>
   1d814:	e51b3010 	ldr	r3, [fp, #-16]
   1d818:	e5933004 	ldr	r3, [r3, #4]
   1d81c:	e1a00003 	mov	r0, r3
   1d820:	e51b1020 	ldr	r1, [fp, #-32]
   1d824:	ebffacc4 	bl	8b3c <_init+0x38>
   1d828:	e1a03000 	mov	r3, r0
   1d82c:	e3530000 	cmp	r3, #0
   1d830:	1a00003d 	bne	1d92c <bindtoif+0x1c0>
   1d834:	e51b3028 	ldr	r3, [fp, #-40]	; 0x28
   1d838:	e3530002 	cmp	r3, #2
   1d83c:	1a00001b 	bne	1d8b0 <bindtoif+0x144>
   1d840:	e51b3010 	ldr	r3, [fp, #-16]
   1d844:	e593400c 	ldr	r4, [r3, #12]
   1d848:	e51b302c 	ldr	r3, [fp, #-44]	; 0x2c
   1d84c:	e6ff3073 	uxth	r3, r3
   1d850:	e1a00003 	mov	r0, r3
   1d854:	ebffacd3 	bl	8ba8 <_init+0xa4>
   1d858:	e1a03000 	mov	r3, r0
   1d85c:	e1c430b2 	strh	r3, [r4, #2]
   1d860:	e3a03000 	mov	r3, #0
   1d864:	e51b3010 	ldr	r3, [fp, #-16]
   1d868:	e593300c 	ldr	r3, [r3, #12]
   1d86c:	e51b0024 	ldr	r0, [fp, #-36]	; 0x24
   1d870:	e1a01003 	mov	r1, r3
   1d874:	e3a02010 	mov	r2, #16
   1d878:	ebffacfd 	bl	8c74 <_init+0x170>
   1d87c:	e50b0014 	str	r0, [fp, #-20]
   1d880:	e51b3014 	ldr	r3, [fp, #-20]
   1d884:	e3530000 	cmp	r3, #0
   1d888:	0a00002e 	beq	1d948 <bindtoif+0x1dc>
   1d88c:	e59f40fc 	ldr	r4, [pc, #252]	; 1d990 <bindtoif+0x224>
   1d890:	ebffacf4 	bl	8c68 <_init+0x164>
   1d894:	e1a03000 	mov	r3, r0
   1d898:	e5933000 	ldr	r3, [r3]
   1d89c:	e1a00004 	mov	r0, r4
   1d8a0:	e1a01003 	mov	r1, r3
   1d8a4:	ebffacaa 	bl	8b54 <_init+0x50>
   1d8a8:	e3e00000 	mvn	r0, #0
   1d8ac:	ebfface1 	bl	8c38 <_init+0x134>
   1d8b0:	e51b3028 	ldr	r3, [fp, #-40]	; 0x28
   1d8b4:	e353000a 	cmp	r3, #10
   1d8b8:	1a000022 	bne	1d948 <bindtoif+0x1dc>
   1d8bc:	e51b3010 	ldr	r3, [fp, #-16]
   1d8c0:	e593400c 	ldr	r4, [r3, #12]
   1d8c4:	e51b302c 	ldr	r3, [fp, #-44]	; 0x2c
   1d8c8:	e6ff3073 	uxth	r3, r3
   1d8cc:	e1a00003 	mov	r0, r3
   1d8d0:	ebffacb4 	bl	8ba8 <_init+0xa4>
   1d8d4:	e1a03000 	mov	r3, r0
   1d8d8:	e1c430b2 	strh	r3, [r4, #2]
   1d8dc:	e3a03000 	mov	r3, #0
   1d8e0:	e51b3010 	ldr	r3, [fp, #-16]
   1d8e4:	e593300c 	ldr	r3, [r3, #12]
   1d8e8:	e51b0024 	ldr	r0, [fp, #-36]	; 0x24
   1d8ec:	e1a01003 	mov	r1, r3
   1d8f0:	e3a0201c 	mov	r2, #28
   1d8f4:	ebffacde 	bl	8c74 <_init+0x170>
   1d8f8:	e50b0014 	str	r0, [fp, #-20]
   1d8fc:	e51b3014 	ldr	r3, [fp, #-20]
   1d900:	e3530000 	cmp	r3, #0
   1d904:	0a00000f 	beq	1d948 <bindtoif+0x1dc>
   1d908:	e59f4084 	ldr	r4, [pc, #132]	; 1d994 <bindtoif+0x228>
   1d90c:	ebffacd5 	bl	8c68 <_init+0x164>
   1d910:	e1a03000 	mov	r3, r0
   1d914:	e5933000 	ldr	r3, [r3]
   1d918:	e1a00004 	mov	r0, r4
   1d91c:	e1a01003 	mov	r1, r3
   1d920:	ebffac8b 	bl	8b54 <_init+0x50>
   1d924:	e3e00000 	mvn	r0, #0
   1d928:	ebffacc2 	bl	8c38 <_init+0x134>
   1d92c:	e51b3010 	ldr	r3, [fp, #-16]
   1d930:	e5933000 	ldr	r3, [r3]
   1d934:	e50b3010 	str	r3, [fp, #-16]
   1d938:	e51b3010 	ldr	r3, [fp, #-16]
   1d93c:	e3530000 	cmp	r3, #0
   1d940:	1affffac 	bne	1d7f8 <bindtoif+0x8c>
   1d944:	ea000000 	b	1d94c <bindtoif+0x1e0>
   1d948:	e1a00000 	nop			; (mov r0, r0)
   1d94c:	e51b3018 	ldr	r3, [fp, #-24]
   1d950:	e1a00003 	mov	r0, r3
   1d954:	ebffac90 	bl	8b9c <_init+0x98>
   1d958:	e51b3010 	ldr	r3, [fp, #-16]
   1d95c:	e3530000 	cmp	r3, #0
   1d960:	0a000001 	beq	1d96c <bindtoif+0x200>
   1d964:	e3a03000 	mov	r3, #0
   1d968:	ea000004 	b	1d980 <bindtoif+0x214>
   1d96c:	e59f3024 	ldr	r3, [pc, #36]	; 1d998 <bindtoif+0x22c>
   1d970:	e1a00003 	mov	r0, r3
   1d974:	e51b1020 	ldr	r1, [fp, #-32]
   1d978:	ebffac75 	bl	8b54 <_init+0x50>
   1d97c:	e3e03000 	mvn	r3, #0
   1d980:	e1a00003 	mov	r0, r3
   1d984:	e24bd008 	sub	sp, fp, #8
   1d988:	e8bd8810 	pop	{r4, fp, pc}
   1d98c:	0001ed94 	.word	0x0001ed94
   1d990:	0001edb4 	.word	0x0001edb4
   1d994:	0001edd4 	.word	0x0001edd4
   1d998:	0001edf4 	.word	0x0001edf4

0001d99c <send_string>:
   1d99c:	e92d4800 	push	{fp, lr}
   1d9a0:	e28db004 	add	fp, sp, #4
   1d9a4:	e24dd010 	sub	sp, sp, #16
   1d9a8:	e50b0010 	str	r0, [fp, #-16]
   1d9ac:	e50b1014 	str	r1, [fp, #-20]
   1d9b0:	e3a03000 	mov	r3, #0
   1d9b4:	e50b3008 	str	r3, [fp, #-8]
   1d9b8:	e51b3014 	ldr	r3, [fp, #-20]
   1d9bc:	e3530000 	cmp	r3, #0
   1d9c0:	1a000001 	bne	1d9cc <send_string+0x30>
   1d9c4:	e3e03000 	mvn	r3, #0
   1d9c8:	ea000008 	b	1d9f0 <send_string+0x54>
   1d9cc:	e51b0014 	ldr	r0, [fp, #-20]
   1d9d0:	ebffac9e 	bl	8c50 <_init+0x14c>
   1d9d4:	e1a03000 	mov	r3, r0
   1d9d8:	e50b3008 	str	r3, [fp, #-8]
   1d9dc:	e51b0010 	ldr	r0, [fp, #-16]
   1d9e0:	e51b1014 	ldr	r1, [fp, #-20]
   1d9e4:	e51b2008 	ldr	r2, [fp, #-8]
   1d9e8:	eb000003 	bl	1d9fc <send_data>
   1d9ec:	e1a03000 	mov	r3, r0
   1d9f0:	e1a00003 	mov	r0, r3
   1d9f4:	e24bd004 	sub	sp, fp, #4
   1d9f8:	e8bd8800 	pop	{fp, pc}

0001d9fc <send_data>:
   1d9fc:	e92d4800 	push	{fp, lr}
   1da00:	e28db004 	add	fp, sp, #4
   1da04:	e24dd018 	sub	sp, sp, #24
   1da08:	e50b0010 	str	r0, [fp, #-16]
   1da0c:	e50b1014 	str	r1, [fp, #-20]
   1da10:	e50b2018 	str	r2, [fp, #-24]
   1da14:	e3a03000 	mov	r3, #0
   1da18:	e50b3008 	str	r3, [fp, #-8]
   1da1c:	e51b3014 	ldr	r3, [fp, #-20]
   1da20:	e3530000 	cmp	r3, #0
   1da24:	1a000001 	bne	1da30 <send_data+0x34>
   1da28:	e3e03000 	mvn	r3, #0
   1da2c:	ea00001d 	b	1daa8 <send_data+0xac>
   1da30:	e51b3018 	ldr	r3, [fp, #-24]
   1da34:	e3530000 	cmp	r3, #0
   1da38:	1a000015 	bne	1da94 <send_data+0x98>
   1da3c:	e3a03000 	mov	r3, #0
   1da40:	ea000018 	b	1daa8 <send_data+0xac>
   1da44:	e51b3008 	ldr	r3, [fp, #-8]
   1da48:	e51b2014 	ldr	r2, [fp, #-20]
   1da4c:	e0822003 	add	r2, r2, r3
   1da50:	e51b1018 	ldr	r1, [fp, #-24]
   1da54:	e51b3008 	ldr	r3, [fp, #-8]
   1da58:	e0633001 	rsb	r3, r3, r1
   1da5c:	e51b0010 	ldr	r0, [fp, #-16]
   1da60:	e1a01002 	mov	r1, r2
   1da64:	e1a02003 	mov	r2, r3
   1da68:	e3a03000 	mov	r3, #0
   1da6c:	ebffacb0 	bl	8d34 <_init+0x230>
   1da70:	e1a03000 	mov	r3, r0
   1da74:	e51b2008 	ldr	r2, [fp, #-8]
   1da78:	e0823003 	add	r3, r2, r3
   1da7c:	e50b3008 	str	r3, [fp, #-8]
   1da80:	e51b3008 	ldr	r3, [fp, #-8]
   1da84:	e3530000 	cmp	r3, #0
   1da88:	aa000001 	bge	1da94 <send_data+0x98>
   1da8c:	e3e03000 	mvn	r3, #0
   1da90:	ea000004 	b	1daa8 <send_data+0xac>
   1da94:	e51b2008 	ldr	r2, [fp, #-8]
   1da98:	e51b3018 	ldr	r3, [fp, #-24]
   1da9c:	e1520003 	cmp	r2, r3
   1daa0:	baffffe7 	blt	1da44 <send_data+0x48>
   1daa4:	e51b3008 	ldr	r3, [fp, #-8]
   1daa8:	e1a00003 	mov	r0, r3
   1daac:	e24bd004 	sub	sp, fp, #4
   1dab0:	e8bd8800 	pop	{fp, pc}

0001dab4 <recv_until>:
   1dab4:	e92d4800 	push	{fp, lr}
   1dab8:	e28db004 	add	fp, sp, #4
   1dabc:	e24dd020 	sub	sp, sp, #32
   1dac0:	e50b0018 	str	r0, [fp, #-24]
   1dac4:	e50b101c 	str	r1, [fp, #-28]
   1dac8:	e50b2020 	str	r2, [fp, #-32]
   1dacc:	e54b3021 	strb	r3, [fp, #-33]	; 0x21
   1dad0:	e3a03000 	mov	r3, #0
   1dad4:	e50b300c 	str	r3, [fp, #-12]
   1dad8:	e3a03000 	mov	r3, #0
   1dadc:	e50b3008 	str	r3, [fp, #-8]
   1dae0:	e3a03000 	mov	r3, #0
   1dae4:	e54b300d 	strb	r3, [fp, #-13]
   1dae8:	e51b301c 	ldr	r3, [fp, #-28]
   1daec:	e3530000 	cmp	r3, #0
   1daf0:	1a000001 	bne	1dafc <recv_until+0x48>
   1daf4:	e3e03000 	mvn	r3, #0
   1daf8:	ea000021 	b	1db84 <recv_until+0xd0>
   1dafc:	e51b3020 	ldr	r3, [fp, #-32]
   1db00:	e3530000 	cmp	r3, #0
   1db04:	1a000001 	bne	1db10 <recv_until+0x5c>
   1db08:	e3a03000 	mov	r3, #0
   1db0c:	ea00001c 	b	1db84 <recv_until+0xd0>
   1db10:	e24b300d 	sub	r3, fp, #13
   1db14:	e51b0018 	ldr	r0, [fp, #-24]
   1db18:	e1a01003 	mov	r1, r3
   1db1c:	e3a02001 	mov	r2, #1
   1db20:	e3a03000 	mov	r3, #0
   1db24:	ebffac79 	bl	8d10 <_init+0x20c>
   1db28:	e50b000c 	str	r0, [fp, #-12]
   1db2c:	e51b300c 	ldr	r3, [fp, #-12]
   1db30:	e3530000 	cmp	r3, #0
   1db34:	aa000001 	bge	1db40 <recv_until+0x8c>
   1db38:	e3e03000 	mvn	r3, #0
   1db3c:	ea000010 	b	1db84 <recv_until+0xd0>
   1db40:	e51b3008 	ldr	r3, [fp, #-8]
   1db44:	e51b201c 	ldr	r2, [fp, #-28]
   1db48:	e0823003 	add	r3, r2, r3
   1db4c:	e55b200d 	ldrb	r2, [fp, #-13]
   1db50:	e5c32000 	strb	r2, [r3]
   1db54:	e51b3008 	ldr	r3, [fp, #-8]
   1db58:	e2833001 	add	r3, r3, #1
   1db5c:	e50b3008 	str	r3, [fp, #-8]
   1db60:	e51b2008 	ldr	r2, [fp, #-8]
   1db64:	e51b3020 	ldr	r3, [fp, #-32]
   1db68:	e1520003 	cmp	r2, r3
   1db6c:	aa000003 	bge	1db80 <recv_until+0xcc>
   1db70:	e55b300d 	ldrb	r3, [fp, #-13]
   1db74:	e55b2021 	ldrb	r2, [fp, #-33]	; 0x21
   1db78:	e1520003 	cmp	r2, r3
   1db7c:	1affffe3 	bne	1db10 <recv_until+0x5c>
   1db80:	e51b3008 	ldr	r3, [fp, #-8]
   1db84:	e1a00003 	mov	r0, r3
   1db88:	e24bd004 	sub	sp, fp, #4
   1db8c:	e8bd8800 	pop	{fp, pc}

0001db90 <recv_stream>:
   1db90:	e92d4800 	push	{fp, lr}
   1db94:	e28db004 	add	fp, sp, #4
   1db98:	e24dd018 	sub	sp, sp, #24
   1db9c:	e50b0010 	str	r0, [fp, #-16]
   1dba0:	e50b1014 	str	r1, [fp, #-20]
   1dba4:	e50b2018 	str	r2, [fp, #-24]
   1dba8:	e3e03000 	mvn	r3, #0
   1dbac:	e50b3008 	str	r3, [fp, #-8]
   1dbb0:	e51b3014 	ldr	r3, [fp, #-20]
   1dbb4:	e3530000 	cmp	r3, #0
   1dbb8:	1a000001 	bne	1dbc4 <recv_stream+0x34>
   1dbbc:	e3e03000 	mvn	r3, #0
   1dbc0:	ea00000c 	b	1dbf8 <recv_stream+0x68>
   1dbc4:	e51b3018 	ldr	r3, [fp, #-24]
   1dbc8:	e3530000 	cmp	r3, #0
   1dbcc:	1a000001 	bne	1dbd8 <recv_stream+0x48>
   1dbd0:	e3a03000 	mov	r3, #0
   1dbd4:	ea000007 	b	1dbf8 <recv_stream+0x68>
   1dbd8:	e51b3018 	ldr	r3, [fp, #-24]
   1dbdc:	e51b0010 	ldr	r0, [fp, #-16]
   1dbe0:	e51b1014 	ldr	r1, [fp, #-20]
   1dbe4:	e1a02003 	mov	r2, r3
   1dbe8:	e3a03000 	mov	r3, #0
   1dbec:	ebffac47 	bl	8d10 <_init+0x20c>
   1dbf0:	e50b0008 	str	r0, [fp, #-8]
   1dbf4:	e51b3008 	ldr	r3, [fp, #-8]
   1dbf8:	e1a00003 	mov	r0, r3
   1dbfc:	e24bd004 	sub	sp, fp, #4
   1dc00:	e8bd8800 	pop	{fp, pc}

0001dc04 <recvdata>:
   1dc04:	e92d4800 	push	{fp, lr}
   1dc08:	e28db004 	add	fp, sp, #4
   1dc0c:	e24dd018 	sub	sp, sp, #24
   1dc10:	e50b0010 	str	r0, [fp, #-16]
   1dc14:	e50b1014 	str	r1, [fp, #-20]
   1dc18:	e50b2018 	str	r2, [fp, #-24]
   1dc1c:	e3e03000 	mvn	r3, #0
   1dc20:	e50b3008 	str	r3, [fp, #-8]
   1dc24:	e3a03000 	mov	r3, #0
   1dc28:	e50b300c 	str	r3, [fp, #-12]
   1dc2c:	e51b3014 	ldr	r3, [fp, #-20]
   1dc30:	e3530000 	cmp	r3, #0
   1dc34:	1a000001 	bne	1dc40 <recvdata+0x3c>
   1dc38:	e3e03000 	mvn	r3, #0
   1dc3c:	ea00001d 	b	1dcb8 <recvdata+0xb4>
   1dc40:	e51b3018 	ldr	r3, [fp, #-24]
   1dc44:	e3530000 	cmp	r3, #0
   1dc48:	1a000012 	bne	1dc98 <recvdata+0x94>
   1dc4c:	e3a03000 	mov	r3, #0
   1dc50:	ea000018 	b	1dcb8 <recvdata+0xb4>
   1dc54:	e51b300c 	ldr	r3, [fp, #-12]
   1dc58:	e51b2014 	ldr	r2, [fp, #-20]
   1dc5c:	e0823003 	add	r3, r2, r3
   1dc60:	e51b0010 	ldr	r0, [fp, #-16]
   1dc64:	e1a01003 	mov	r1, r3
   1dc68:	e3a02001 	mov	r2, #1
   1dc6c:	e3a03000 	mov	r3, #0
   1dc70:	ebffac26 	bl	8d10 <_init+0x20c>
   1dc74:	e50b0008 	str	r0, [fp, #-8]
   1dc78:	e51b3008 	ldr	r3, [fp, #-8]
   1dc7c:	e3530000 	cmp	r3, #0
   1dc80:	aa000001 	bge	1dc8c <recvdata+0x88>
   1dc84:	e3e03000 	mvn	r3, #0
   1dc88:	ea00000a 	b	1dcb8 <recvdata+0xb4>
   1dc8c:	e51b300c 	ldr	r3, [fp, #-12]
   1dc90:	e2833001 	add	r3, r3, #1
   1dc94:	e50b300c 	str	r3, [fp, #-12]
   1dc98:	e51b200c 	ldr	r2, [fp, #-12]
   1dc9c:	e51b3018 	ldr	r3, [fp, #-24]
   1dca0:	e1520003 	cmp	r2, r3
   1dca4:	aa000002 	bge	1dcb4 <recvdata+0xb0>
   1dca8:	e51b3008 	ldr	r3, [fp, #-8]
   1dcac:	e3530000 	cmp	r3, #0
   1dcb0:	1affffe7 	bne	1dc54 <recvdata+0x50>
   1dcb4:	e51b300c 	ldr	r3, [fp, #-12]
   1dcb8:	e1a00003 	mov	r0, r3
   1dcbc:	e24bd004 	sub	sp, fp, #4
   1dcc0:	e8bd8800 	pop	{fp, pc}

0001dcc4 <drop_privs>:
   1dcc4:	e92d4810 	push	{r4, fp, lr}
   1dcc8:	e28db008 	add	fp, sp, #8
   1dccc:	e24dd014 	sub	sp, sp, #20
   1dcd0:	e50b0018 	str	r0, [fp, #-24]
   1dcd4:	e3a03000 	mov	r3, #0
   1dcd8:	e50b3010 	str	r3, [fp, #-16]
   1dcdc:	e51b3018 	ldr	r3, [fp, #-24]
   1dce0:	e3530000 	cmp	r3, #0
   1dce4:	1a000001 	bne	1dcf0 <drop_privs+0x2c>
   1dce8:	e3e00000 	mvn	r0, #0
   1dcec:	ebffabd1 	bl	8c38 <_init+0x134>
   1dcf0:	e51b0018 	ldr	r0, [fp, #-24]
   1dcf4:	ebffab8d 	bl	8b30 <_init+0x2c>
   1dcf8:	e50b0010 	str	r0, [fp, #-16]
   1dcfc:	e51b3010 	ldr	r3, [fp, #-16]
   1dd00:	e3530000 	cmp	r3, #0
   1dd04:	1a000008 	bne	1dd2c <drop_privs+0x68>
   1dd08:	e59f4048 	ldr	r4, [pc, #72]	; 1dd58 <drop_privs+0x94>
   1dd0c:	ebffabd5 	bl	8c68 <_init+0x164>
   1dd10:	e1a03000 	mov	r3, r0
   1dd14:	e5933000 	ldr	r3, [r3]
   1dd18:	e1a00004 	mov	r0, r4
   1dd1c:	e1a01003 	mov	r1, r3
   1dd20:	ebffab8b 	bl	8b54 <_init+0x50>
   1dd24:	e3e00000 	mvn	r0, #0
   1dd28:	ebffabc2 	bl	8c38 <_init+0x134>
   1dd2c:	e51b0010 	ldr	r0, [fp, #-16]
   1dd30:	eb000009 	bl	1dd5c <init_user>
   1dd34:	e1a03000 	mov	r3, r0
   1dd38:	e3530000 	cmp	r3, #0
   1dd3c:	0a000001 	beq	1dd48 <drop_privs+0x84>
   1dd40:	e3e00000 	mvn	r0, #0
   1dd44:	ebffabbb 	bl	8c38 <_init+0x134>
   1dd48:	e3a03000 	mov	r3, #0
   1dd4c:	e1a00003 	mov	r0, r3
   1dd50:	e24bd008 	sub	sp, fp, #8
   1dd54:	e8bd8810 	pop	{r4, fp, pc}
   1dd58:	0001ee1c 	.word	0x0001ee1c

0001dd5c <init_user>:
   1dd5c:	e92d4810 	push	{r4, fp, lr}
   1dd60:	e28db008 	add	fp, sp, #8
   1dd64:	e24dd014 	sub	sp, sp, #20
   1dd68:	e50b0018 	str	r0, [fp, #-24]
   1dd6c:	e3a03000 	mov	r3, #0
   1dd70:	e50b3010 	str	r3, [fp, #-16]
   1dd74:	e3a03000 	mov	r3, #0
   1dd78:	e50b3014 	str	r3, [fp, #-20]
   1dd7c:	e51b3018 	ldr	r3, [fp, #-24]
   1dd80:	e3530000 	cmp	r3, #0
   1dd84:	1a000001 	bne	1dd90 <init_user+0x34>
   1dd88:	e3e03000 	mvn	r3, #0
   1dd8c:	ea0000b5 	b	1e068 <init_user+0x30c>
   1dd90:	ebffab75 	bl	8b6c <_init+0x68>
   1dd94:	e50b0010 	str	r0, [fp, #-16]
   1dd98:	ebffabb8 	bl	8c80 <_init+0x17c>
   1dd9c:	e50b0014 	str	r0, [fp, #-20]
   1dda0:	e51b3018 	ldr	r3, [fp, #-24]
   1dda4:	e5932000 	ldr	r2, [r3]
   1dda8:	e51b3018 	ldr	r3, [fp, #-24]
   1ddac:	e593300c 	ldr	r3, [r3, #12]
   1ddb0:	e1a00002 	mov	r0, r2
   1ddb4:	e1a01003 	mov	r1, r3
   1ddb8:	ebffab7d 	bl	8bb4 <_init+0xb0>
   1ddbc:	e1a03000 	mov	r3, r0
   1ddc0:	e3530000 	cmp	r3, #0
   1ddc4:	0a000008 	beq	1ddec <init_user+0x90>
   1ddc8:	e59f42a4 	ldr	r4, [pc, #676]	; 1e074 <init_user+0x318>
   1ddcc:	ebffaba5 	bl	8c68 <_init+0x164>
   1ddd0:	e1a03000 	mov	r3, r0
   1ddd4:	e5933000 	ldr	r3, [r3]
   1ddd8:	e1a00004 	mov	r0, r4
   1dddc:	e1a01003 	mov	r1, r3
   1dde0:	ebffab5b 	bl	8b54 <_init+0x50>
   1dde4:	e3e03000 	mvn	r3, #0
   1dde8:	ea00009e 	b	1e068 <init_user+0x30c>
   1ddec:	e51b3018 	ldr	r3, [fp, #-24]
   1ddf0:	e593100c 	ldr	r1, [r3, #12]
   1ddf4:	e51b3018 	ldr	r3, [fp, #-24]
   1ddf8:	e593200c 	ldr	r2, [r3, #12]
   1ddfc:	e51b3018 	ldr	r3, [fp, #-24]
   1de00:	e593300c 	ldr	r3, [r3, #12]
   1de04:	e1a00001 	mov	r0, r1
   1de08:	e1a01002 	mov	r1, r2
   1de0c:	e1a02003 	mov	r2, r3
   1de10:	ebffabc4 	bl	8d28 <_init+0x224>
   1de14:	e1a03000 	mov	r3, r0
   1de18:	e3530000 	cmp	r3, #0
   1de1c:	0a000008 	beq	1de44 <init_user+0xe8>
   1de20:	e59f4250 	ldr	r4, [pc, #592]	; 1e078 <init_user+0x31c>
   1de24:	ebffab8f 	bl	8c68 <_init+0x164>
   1de28:	e1a03000 	mov	r3, r0
   1de2c:	e5933000 	ldr	r3, [r3]
   1de30:	e1a00004 	mov	r0, r4
   1de34:	e1a01003 	mov	r1, r3
   1de38:	ebffab45 	bl	8b54 <_init+0x50>
   1de3c:	e3e03000 	mvn	r3, #0
   1de40:	ea000088 	b	1e068 <init_user+0x30c>
   1de44:	e51b3018 	ldr	r3, [fp, #-24]
   1de48:	e5931008 	ldr	r1, [r3, #8]
   1de4c:	e51b3018 	ldr	r3, [fp, #-24]
   1de50:	e5932008 	ldr	r2, [r3, #8]
   1de54:	e51b3018 	ldr	r3, [fp, #-24]
   1de58:	e5933008 	ldr	r3, [r3, #8]
   1de5c:	e1a00001 	mov	r0, r1
   1de60:	e1a01002 	mov	r1, r2
   1de64:	e1a02003 	mov	r2, r3
   1de68:	ebffab9c 	bl	8ce0 <_init+0x1dc>
   1de6c:	e1a03000 	mov	r3, r0
   1de70:	e3530000 	cmp	r3, #0
   1de74:	0a000008 	beq	1de9c <init_user+0x140>
   1de78:	e59f41fc 	ldr	r4, [pc, #508]	; 1e07c <init_user+0x320>
   1de7c:	ebffab79 	bl	8c68 <_init+0x164>
   1de80:	e1a03000 	mov	r3, r0
   1de84:	e5933000 	ldr	r3, [r3]
   1de88:	e1a00004 	mov	r0, r4
   1de8c:	e1a01003 	mov	r1, r3
   1de90:	ebffab2f 	bl	8b54 <_init+0x50>
   1de94:	e3e03000 	mvn	r3, #0
   1de98:	ea000072 	b	1e068 <init_user+0x30c>
   1de9c:	e51b3018 	ldr	r3, [fp, #-24]
   1dea0:	e593200c 	ldr	r2, [r3, #12]
   1dea4:	e51b3014 	ldr	r3, [fp, #-20]
   1dea8:	e1520003 	cmp	r2, r3
   1deac:	0a00001b 	beq	1df20 <init_user+0x1c4>
   1deb0:	e51b0014 	ldr	r0, [fp, #-20]
   1deb4:	ebffab53 	bl	8c08 <_init+0x104>
   1deb8:	e1a03000 	mov	r3, r0
   1debc:	e3730001 	cmn	r3, #1
   1dec0:	0a000008 	beq	1dee8 <init_user+0x18c>
   1dec4:	e59f41b4 	ldr	r4, [pc, #436]	; 1e080 <init_user+0x324>
   1dec8:	ebffab66 	bl	8c68 <_init+0x164>
   1decc:	e1a03000 	mov	r3, r0
   1ded0:	e5933000 	ldr	r3, [r3]
   1ded4:	e1a00004 	mov	r0, r4
   1ded8:	e1a01003 	mov	r1, r3
   1dedc:	ebffab1c 	bl	8b54 <_init+0x50>
   1dee0:	e3e03000 	mvn	r3, #0
   1dee4:	ea00005f 	b	1e068 <init_user+0x30c>
   1dee8:	e51b0014 	ldr	r0, [fp, #-20]
   1deec:	ebffab72 	bl	8cbc <_init+0x1b8>
   1def0:	e1a03000 	mov	r3, r0
   1def4:	e3730001 	cmn	r3, #1
   1def8:	0a000008 	beq	1df20 <init_user+0x1c4>
   1defc:	e59f4180 	ldr	r4, [pc, #384]	; 1e084 <init_user+0x328>
   1df00:	ebffab58 	bl	8c68 <_init+0x164>
   1df04:	e1a03000 	mov	r3, r0
   1df08:	e5933000 	ldr	r3, [r3]
   1df0c:	e1a00004 	mov	r0, r4
   1df10:	e1a01003 	mov	r1, r3
   1df14:	ebffab0e 	bl	8b54 <_init+0x50>
   1df18:	e3e03000 	mvn	r3, #0
   1df1c:	ea000051 	b	1e068 <init_user+0x30c>
   1df20:	e51b3018 	ldr	r3, [fp, #-24]
   1df24:	e5932008 	ldr	r2, [r3, #8]
   1df28:	e51b3010 	ldr	r3, [fp, #-16]
   1df2c:	e1520003 	cmp	r2, r3
   1df30:	0a00001b 	beq	1dfa4 <init_user+0x248>
   1df34:	e51b0010 	ldr	r0, [fp, #-16]
   1df38:	ebffab6b 	bl	8cec <_init+0x1e8>
   1df3c:	e1a03000 	mov	r3, r0
   1df40:	e3730001 	cmn	r3, #1
   1df44:	0a000008 	beq	1df6c <init_user+0x210>
   1df48:	e59f4138 	ldr	r4, [pc, #312]	; 1e088 <init_user+0x32c>
   1df4c:	ebffab45 	bl	8c68 <_init+0x164>
   1df50:	e1a03000 	mov	r3, r0
   1df54:	e5933000 	ldr	r3, [r3]
   1df58:	e1a00004 	mov	r0, r4
   1df5c:	e1a01003 	mov	r1, r3
   1df60:	ebffaafb 	bl	8b54 <_init+0x50>
   1df64:	e3e03000 	mvn	r3, #0
   1df68:	ea00003e 	b	1e068 <init_user+0x30c>
   1df6c:	e51b0010 	ldr	r0, [fp, #-16]
   1df70:	ebffab1b 	bl	8be4 <_init+0xe0>
   1df74:	e1a03000 	mov	r3, r0
   1df78:	e3730001 	cmn	r3, #1
   1df7c:	0a000008 	beq	1dfa4 <init_user+0x248>
   1df80:	e59f4104 	ldr	r4, [pc, #260]	; 1e08c <init_user+0x330>
   1df84:	ebffab37 	bl	8c68 <_init+0x164>
   1df88:	e1a03000 	mov	r3, r0
   1df8c:	e5933000 	ldr	r3, [r3]
   1df90:	e1a00004 	mov	r0, r4
   1df94:	e1a01003 	mov	r1, r3
   1df98:	ebffaaed 	bl	8b54 <_init+0x50>
   1df9c:	e3e03000 	mvn	r3, #0
   1dfa0:	ea000030 	b	1e068 <init_user+0x30c>
   1dfa4:	ebffab35 	bl	8c80 <_init+0x17c>
   1dfa8:	e1a02000 	mov	r2, r0
   1dfac:	e51b3018 	ldr	r3, [fp, #-24]
   1dfb0:	e593300c 	ldr	r3, [r3, #12]
   1dfb4:	e1520003 	cmp	r2, r3
   1dfb8:	0a000001 	beq	1dfc4 <init_user+0x268>
   1dfbc:	e3e03000 	mvn	r3, #0
   1dfc0:	ea000028 	b	1e068 <init_user+0x30c>
   1dfc4:	ebffab09 	bl	8bf0 <_init+0xec>
   1dfc8:	e1a02000 	mov	r2, r0
   1dfcc:	e51b3018 	ldr	r3, [fp, #-24]
   1dfd0:	e593300c 	ldr	r3, [r3, #12]
   1dfd4:	e1520003 	cmp	r2, r3
   1dfd8:	0a000001 	beq	1dfe4 <init_user+0x288>
   1dfdc:	e3e03000 	mvn	r3, #0
   1dfe0:	ea000020 	b	1e068 <init_user+0x30c>
   1dfe4:	ebffaae0 	bl	8b6c <_init+0x68>
   1dfe8:	e1a02000 	mov	r2, r0
   1dfec:	e51b3018 	ldr	r3, [fp, #-24]
   1dff0:	e5933008 	ldr	r3, [r3, #8]
   1dff4:	e1520003 	cmp	r2, r3
   1dff8:	0a000001 	beq	1e004 <init_user+0x2a8>
   1dffc:	e3e03000 	mvn	r3, #0
   1e000:	ea000018 	b	1e068 <init_user+0x30c>
   1e004:	ebffaaf0 	bl	8bcc <_init+0xc8>
   1e008:	e1a02000 	mov	r2, r0
   1e00c:	e51b3018 	ldr	r3, [fp, #-24]
   1e010:	e5933008 	ldr	r3, [r3, #8]
   1e014:	e1520003 	cmp	r2, r3
   1e018:	0a000001 	beq	1e024 <init_user+0x2c8>
   1e01c:	e3e03000 	mvn	r3, #0
   1e020:	ea000010 	b	1e068 <init_user+0x30c>
   1e024:	e51b3018 	ldr	r3, [fp, #-24]
   1e028:	e5933014 	ldr	r3, [r3, #20]
   1e02c:	e1a00003 	mov	r0, r3
   1e030:	ebffaae2 	bl	8bc0 <_init+0xbc>
   1e034:	e1a03000 	mov	r3, r0
   1e038:	e3530000 	cmp	r3, #0
   1e03c:	0a000008 	beq	1e064 <init_user+0x308>
   1e040:	e59f4048 	ldr	r4, [pc, #72]	; 1e090 <init_user+0x334>
   1e044:	ebffab07 	bl	8c68 <_init+0x164>
   1e048:	e1a03000 	mov	r3, r0
   1e04c:	e5933000 	ldr	r3, [r3]
   1e050:	e1a00004 	mov	r0, r4
   1e054:	e1a01003 	mov	r1, r3
   1e058:	ebffaabd 	bl	8b54 <_init+0x50>
   1e05c:	e3e03000 	mvn	r3, #0
   1e060:	ea000000 	b	1e068 <init_user+0x30c>
   1e064:	e3a03000 	mov	r3, #0
   1e068:	e1a00003 	mov	r0, r3
   1e06c:	e24bd008 	sub	sp, fp, #8
   1e070:	e8bd8810 	pop	{r4, fp, pc}
   1e074:	0001ee3c 	.word	0x0001ee3c
   1e078:	0001ee5c 	.word	0x0001ee5c
   1e07c:	0001ee7c 	.word	0x0001ee7c
   1e080:	0001ee9c 	.word	0x0001ee9c
   1e084:	0001eeb8 	.word	0x0001eeb8
   1e088:	0001eed8 	.word	0x0001eed8
   1e08c:	0001eef4 	.word	0x0001eef4
   1e090:	0001ef14 	.word	0x0001ef14

0001e094 <accept_loop>:
   1e094:	e92d4800 	push	{fp, lr}
   1e098:	e28db004 	add	fp, sp, #4
   1e09c:	e24dd040 	sub	sp, sp, #64	; 0x40
   1e0a0:	e50b0038 	str	r0, [fp, #-56]	; 0x38
   1e0a4:	e50b103c 	str	r1, [fp, #-60]	; 0x3c
   1e0a8:	e50b2040 	str	r2, [fp, #-64]	; 0x40
   1e0ac:	e3a03000 	mov	r3, #0
   1e0b0:	e50b3008 	str	r3, [fp, #-8]
   1e0b4:	e3a0301c 	mov	r3, #28
   1e0b8:	e50b3030 	str	r3, [fp, #-48]	; 0x30
   1e0bc:	e3a03000 	mov	r3, #0
   1e0c0:	e50b300c 	str	r3, [fp, #-12]
   1e0c4:	e3a03000 	mov	r3, #0
   1e0c8:	e50b3010 	str	r3, [fp, #-16]
   1e0cc:	e51b3030 	ldr	r3, [fp, #-48]	; 0x30
   1e0d0:	e24b202c 	sub	r2, fp, #44	; 0x2c
   1e0d4:	e1a00002 	mov	r0, r2
   1e0d8:	e3a01000 	mov	r1, #0
   1e0dc:	e1a02003 	mov	r2, r3
   1e0e0:	ebffaaec 	bl	8c98 <_init+0x194>
   1e0e4:	ea000000 	b	1e0ec <accept_loop+0x58>
   1e0e8:	e1a00000 	nop			; (mov r0, r0)
   1e0ec:	e3a03000 	mov	r3, #0
   1e0f0:	e24b302c 	sub	r3, fp, #44	; 0x2c
   1e0f4:	e24b2030 	sub	r2, fp, #48	; 0x30
   1e0f8:	e51b0038 	ldr	r0, [fp, #-56]	; 0x38
   1e0fc:	e1a01003 	mov	r1, r3
   1e100:	ebffaab4 	bl	8bd8 <_init+0xd4>
   1e104:	e50b0008 	str	r0, [fp, #-8]
   1e108:	e51b3008 	ldr	r3, [fp, #-8]
   1e10c:	e3730001 	cmn	r3, #1
   1e110:	0afffff4 	beq	1e0e8 <accept_loop+0x54>
   1e114:	ebffaaeb 	bl	8cc8 <_init+0x1c4>
   1e118:	e1a03000 	mov	r3, r0
   1e11c:	e50b300c 	str	r3, [fp, #-12]
   1e120:	e51b300c 	ldr	r3, [fp, #-12]
   1e124:	e3530000 	cmp	r3, #0
   1e128:	0a000002 	beq	1e138 <accept_loop+0xa4>
   1e12c:	e51b0008 	ldr	r0, [fp, #-8]
   1e130:	ebffaaf9 	bl	8d1c <_init+0x218>
   1e134:	eaffffeb 	b	1e0e8 <accept_loop+0x54>
   1e138:	e51b300c 	ldr	r3, [fp, #-12]
   1e13c:	e3530000 	cmp	r3, #0
   1e140:	1affffe8 	bne	1e0e8 <accept_loop+0x54>
   1e144:	e51b0038 	ldr	r0, [fp, #-56]	; 0x38
   1e148:	ebffaaf3 	bl	8d1c <_init+0x218>
   1e14c:	e51b0040 	ldr	r0, [fp, #-64]	; 0x40
   1e150:	ebfffedb 	bl	1dcc4 <drop_privs>
   1e154:	e51b303c 	ldr	r3, [fp, #-60]	; 0x3c
   1e158:	e51b0008 	ldr	r0, [fp, #-8]
   1e15c:	e12fff33 	blx	r3
   1e160:	e50b0010 	str	r0, [fp, #-16]
   1e164:	e51b0008 	ldr	r0, [fp, #-8]
   1e168:	ebffaaeb 	bl	8d1c <_init+0x218>
   1e16c:	e51b0010 	ldr	r0, [fp, #-16]
   1e170:	ebffaab0 	bl	8c38 <_init+0x134>

0001e174 <__aeabi_uidiv>:
   1e174:	e2512001 	subs	r2, r1, #1
   1e178:	012fff1e 	bxeq	lr
   1e17c:	3a000074 	bcc	1e354 <__aeabi_uidiv+0x1e0>
   1e180:	e1500001 	cmp	r0, r1
   1e184:	9a00006b 	bls	1e338 <__aeabi_uidiv+0x1c4>
   1e188:	e1110002 	tst	r1, r2
   1e18c:	0a00006c 	beq	1e344 <__aeabi_uidiv+0x1d0>
   1e190:	e16f3f10 	clz	r3, r0
   1e194:	e16f2f11 	clz	r2, r1
   1e198:	e0423003 	sub	r3, r2, r3
   1e19c:	e273301f 	rsbs	r3, r3, #31
   1e1a0:	10833083 	addne	r3, r3, r3, lsl #1
   1e1a4:	e3a02000 	mov	r2, #0
   1e1a8:	108ff103 	addne	pc, pc, r3, lsl #2
   1e1ac:	e1a00000 	nop			; (mov r0, r0)
   1e1b0:	e1500f81 	cmp	r0, r1, lsl #31
   1e1b4:	e0a22002 	adc	r2, r2, r2
   1e1b8:	20400f81 	subcs	r0, r0, r1, lsl #31
   1e1bc:	e1500f01 	cmp	r0, r1, lsl #30
   1e1c0:	e0a22002 	adc	r2, r2, r2
   1e1c4:	20400f01 	subcs	r0, r0, r1, lsl #30
   1e1c8:	e1500e81 	cmp	r0, r1, lsl #29
   1e1cc:	e0a22002 	adc	r2, r2, r2
   1e1d0:	20400e81 	subcs	r0, r0, r1, lsl #29
   1e1d4:	e1500e01 	cmp	r0, r1, lsl #28
   1e1d8:	e0a22002 	adc	r2, r2, r2
   1e1dc:	20400e01 	subcs	r0, r0, r1, lsl #28
   1e1e0:	e1500d81 	cmp	r0, r1, lsl #27
   1e1e4:	e0a22002 	adc	r2, r2, r2
   1e1e8:	20400d81 	subcs	r0, r0, r1, lsl #27
   1e1ec:	e1500d01 	cmp	r0, r1, lsl #26
   1e1f0:	e0a22002 	adc	r2, r2, r2
   1e1f4:	20400d01 	subcs	r0, r0, r1, lsl #26
   1e1f8:	e1500c81 	cmp	r0, r1, lsl #25
   1e1fc:	e0a22002 	adc	r2, r2, r2
   1e200:	20400c81 	subcs	r0, r0, r1, lsl #25
   1e204:	e1500c01 	cmp	r0, r1, lsl #24
   1e208:	e0a22002 	adc	r2, r2, r2
   1e20c:	20400c01 	subcs	r0, r0, r1, lsl #24
   1e210:	e1500b81 	cmp	r0, r1, lsl #23
   1e214:	e0a22002 	adc	r2, r2, r2
   1e218:	20400b81 	subcs	r0, r0, r1, lsl #23
   1e21c:	e1500b01 	cmp	r0, r1, lsl #22
   1e220:	e0a22002 	adc	r2, r2, r2
   1e224:	20400b01 	subcs	r0, r0, r1, lsl #22
   1e228:	e1500a81 	cmp	r0, r1, lsl #21
   1e22c:	e0a22002 	adc	r2, r2, r2
   1e230:	20400a81 	subcs	r0, r0, r1, lsl #21
   1e234:	e1500a01 	cmp	r0, r1, lsl #20
   1e238:	e0a22002 	adc	r2, r2, r2
   1e23c:	20400a01 	subcs	r0, r0, r1, lsl #20
   1e240:	e1500981 	cmp	r0, r1, lsl #19
   1e244:	e0a22002 	adc	r2, r2, r2
   1e248:	20400981 	subcs	r0, r0, r1, lsl #19
   1e24c:	e1500901 	cmp	r0, r1, lsl #18
   1e250:	e0a22002 	adc	r2, r2, r2
   1e254:	20400901 	subcs	r0, r0, r1, lsl #18
   1e258:	e1500881 	cmp	r0, r1, lsl #17
   1e25c:	e0a22002 	adc	r2, r2, r2
   1e260:	20400881 	subcs	r0, r0, r1, lsl #17
   1e264:	e1500801 	cmp	r0, r1, lsl #16
   1e268:	e0a22002 	adc	r2, r2, r2
   1e26c:	20400801 	subcs	r0, r0, r1, lsl #16
   1e270:	e1500781 	cmp	r0, r1, lsl #15
   1e274:	e0a22002 	adc	r2, r2, r2
   1e278:	20400781 	subcs	r0, r0, r1, lsl #15
   1e27c:	e1500701 	cmp	r0, r1, lsl #14
   1e280:	e0a22002 	adc	r2, r2, r2
   1e284:	20400701 	subcs	r0, r0, r1, lsl #14
   1e288:	e1500681 	cmp	r0, r1, lsl #13
   1e28c:	e0a22002 	adc	r2, r2, r2
   1e290:	20400681 	subcs	r0, r0, r1, lsl #13
   1e294:	e1500601 	cmp	r0, r1, lsl #12
   1e298:	e0a22002 	adc	r2, r2, r2
   1e29c:	20400601 	subcs	r0, r0, r1, lsl #12
   1e2a0:	e1500581 	cmp	r0, r1, lsl #11
   1e2a4:	e0a22002 	adc	r2, r2, r2
   1e2a8:	20400581 	subcs	r0, r0, r1, lsl #11
   1e2ac:	e1500501 	cmp	r0, r1, lsl #10
   1e2b0:	e0a22002 	adc	r2, r2, r2
   1e2b4:	20400501 	subcs	r0, r0, r1, lsl #10
   1e2b8:	e1500481 	cmp	r0, r1, lsl #9
   1e2bc:	e0a22002 	adc	r2, r2, r2
   1e2c0:	20400481 	subcs	r0, r0, r1, lsl #9
   1e2c4:	e1500401 	cmp	r0, r1, lsl #8
   1e2c8:	e0a22002 	adc	r2, r2, r2
   1e2cc:	20400401 	subcs	r0, r0, r1, lsl #8
   1e2d0:	e1500381 	cmp	r0, r1, lsl #7
   1e2d4:	e0a22002 	adc	r2, r2, r2
   1e2d8:	20400381 	subcs	r0, r0, r1, lsl #7
   1e2dc:	e1500301 	cmp	r0, r1, lsl #6
   1e2e0:	e0a22002 	adc	r2, r2, r2
   1e2e4:	20400301 	subcs	r0, r0, r1, lsl #6
   1e2e8:	e1500281 	cmp	r0, r1, lsl #5
   1e2ec:	e0a22002 	adc	r2, r2, r2
   1e2f0:	20400281 	subcs	r0, r0, r1, lsl #5
   1e2f4:	e1500201 	cmp	r0, r1, lsl #4
   1e2f8:	e0a22002 	adc	r2, r2, r2
   1e2fc:	20400201 	subcs	r0, r0, r1, lsl #4
   1e300:	e1500181 	cmp	r0, r1, lsl #3
   1e304:	e0a22002 	adc	r2, r2, r2
   1e308:	20400181 	subcs	r0, r0, r1, lsl #3
   1e30c:	e1500101 	cmp	r0, r1, lsl #2
   1e310:	e0a22002 	adc	r2, r2, r2
   1e314:	20400101 	subcs	r0, r0, r1, lsl #2
   1e318:	e1500081 	cmp	r0, r1, lsl #1
   1e31c:	e0a22002 	adc	r2, r2, r2
   1e320:	20400081 	subcs	r0, r0, r1, lsl #1
   1e324:	e1500001 	cmp	r0, r1
   1e328:	e0a22002 	adc	r2, r2, r2
   1e32c:	20400001 	subcs	r0, r0, r1
   1e330:	e1a00002 	mov	r0, r2
   1e334:	e12fff1e 	bx	lr
   1e338:	03a00001 	moveq	r0, #1
   1e33c:	13a00000 	movne	r0, #0
   1e340:	e12fff1e 	bx	lr
   1e344:	e16f2f11 	clz	r2, r1
   1e348:	e262201f 	rsb	r2, r2, #31
   1e34c:	e1a00230 	lsr	r0, r0, r2
   1e350:	e12fff1e 	bx	lr
   1e354:	e3500000 	cmp	r0, #0
   1e358:	13e00000 	mvnne	r0, #0
   1e35c:	ea000007 	b	1e380 <__aeabi_idiv0>

0001e360 <__aeabi_uidivmod>:
   1e360:	e3510000 	cmp	r1, #0
   1e364:	0afffffa 	beq	1e354 <__aeabi_uidiv+0x1e0>
   1e368:	e92d4003 	push	{r0, r1, lr}
   1e36c:	ebffff80 	bl	1e174 <__aeabi_uidiv>
   1e370:	e8bd4006 	pop	{r1, r2, lr}
   1e374:	e0030092 	mul	r3, r2, r0
   1e378:	e0411003 	sub	r1, r1, r3
   1e37c:	e12fff1e 	bx	lr

0001e380 <__aeabi_idiv0>:
   1e380:	e92d4002 	push	{r1, lr}
   1e384:	e3a00008 	mov	r0, #8
   1e388:	ebffa9e5 	bl	8b24 <_init+0x20>
   1e38c:	e8bd8002 	pop	{r1, pc}

0001e390 <__libc_csu_init>:
   1e390:	e92d45f8 	push	{r3, r4, r5, r6, r7, r8, sl, lr}
   1e394:	e1a06000 	mov	r6, r0
   1e398:	e59f5048 	ldr	r5, [pc, #72]	; 1e3e8 <__libc_csu_init+0x58>
   1e39c:	e59fa048 	ldr	sl, [pc, #72]	; 1e3ec <__libc_csu_init+0x5c>
   1e3a0:	e08f5005 	add	r5, pc, r5
   1e3a4:	e08fa00a 	add	sl, pc, sl
   1e3a8:	e065a00a 	rsb	sl, r5, sl
   1e3ac:	e1a07001 	mov	r7, r1
   1e3b0:	e1a08002 	mov	r8, r2
   1e3b4:	ebffa9d2 	bl	8b04 <_init>
   1e3b8:	e1b0a14a 	asrs	sl, sl, #2
   1e3bc:	08bd85f8 	popeq	{r3, r4, r5, r6, r7, r8, sl, pc}
   1e3c0:	e3a04000 	mov	r4, #0
   1e3c4:	e4953004 	ldr	r3, [r5], #4
   1e3c8:	e1a00006 	mov	r0, r6
   1e3cc:	e1a01007 	mov	r1, r7
   1e3d0:	e1a02008 	mov	r2, r8
   1e3d4:	e2844001 	add	r4, r4, #1
   1e3d8:	e12fff33 	blx	r3
   1e3dc:	e154000a 	cmp	r4, sl
   1e3e0:	1afffff7 	bne	1e3c4 <__libc_csu_init+0x34>
   1e3e4:	e8bd85f8 	pop	{r3, r4, r5, r6, r7, r8, sl, pc}
   1e3e8:	00008c58 	.word	0x00008c58
   1e3ec:	00008c58 	.word	0x00008c58

0001e3f0 <__libc_csu_fini>:
   1e3f0:	e12fff1e 	bx	lr

Disassembly of section .fini:

0001e3f4 <_fini>:
   1e3f4:	e92d4008 	push	{r3, lr}
   1e3f8:	e8bd8008 	pop	{r3, pc}
