
bs:     file format elf32-littlearm


Disassembly of section .init:

00008b04 <_init>:
    8b04:	e92d4008 	push	{r3, lr}
    8b08:	eb00009f 	bl	8d8c <call_gmon_start>
    8b0c:	e8bd8008 	pop	{r3, pc}

Disassembly of section .plt:

00008b10 <.plt>:
    8b10:	e52de004 	push	{lr}		; (str lr, [sp, #-4]!)
    8b14:	e59fe004 	ldr	lr, [pc, #4]	; 8b20 <_init+0x1c>
    8b18:	e08fe00e 	add	lr, pc, lr
    8b1c:	e5bef008 	ldr	pc, [lr, #8]!
    8b20:	0001e5e4 	.word	0x0001e5e4
    8b24:	e28fc600 	add	ip, pc, #0
    8b28:	e28cca1e 	add	ip, ip, #122880	; 0x1e000
    8b2c:	e5bcf5e4 	ldr	pc, [ip, #1508]!	; 0x5e4
    8b30:	e28fc600 	add	ip, pc, #0
    8b34:	e28cca1e 	add	ip, ip, #122880	; 0x1e000
    8b38:	e5bcf5dc 	ldr	pc, [ip, #1500]!	; 0x5dc
    8b3c:	e28fc600 	add	ip, pc, #0
    8b40:	e28cca1e 	add	ip, ip, #122880	; 0x1e000
    8b44:	e5bcf5d4 	ldr	pc, [ip, #1492]!	; 0x5d4
    8b48:	e28fc600 	add	ip, pc, #0
    8b4c:	e28cca1e 	add	ip, ip, #122880	; 0x1e000
    8b50:	e5bcf5cc 	ldr	pc, [ip, #1484]!	; 0x5cc
    8b54:	e28fc600 	add	ip, pc, #0
    8b58:	e28cca1e 	add	ip, ip, #122880	; 0x1e000
    8b5c:	e5bcf5c4 	ldr	pc, [ip, #1476]!	; 0x5c4
    8b60:	e28fc600 	add	ip, pc, #0
    8b64:	e28cca1e 	add	ip, ip, #122880	; 0x1e000
    8b68:	e5bcf5bc 	ldr	pc, [ip, #1468]!	; 0x5bc
    8b6c:	e28fc600 	add	ip, pc, #0
    8b70:	e28cca1e 	add	ip, ip, #122880	; 0x1e000
    8b74:	e5bcf5b4 	ldr	pc, [ip, #1460]!	; 0x5b4
    8b78:	e28fc600 	add	ip, pc, #0
    8b7c:	e28cca1e 	add	ip, ip, #122880	; 0x1e000
    8b80:	e5bcf5ac 	ldr	pc, [ip, #1452]!	; 0x5ac
    8b84:	e28fc600 	add	ip, pc, #0
    8b88:	e28cca1e 	add	ip, ip, #122880	; 0x1e000
    8b8c:	e5bcf5a4 	ldr	pc, [ip, #1444]!	; 0x5a4
    8b90:	e28fc600 	add	ip, pc, #0
    8b94:	e28cca1e 	add	ip, ip, #122880	; 0x1e000
    8b98:	e5bcf59c 	ldr	pc, [ip, #1436]!	; 0x59c
    8b9c:	e28fc600 	add	ip, pc, #0
    8ba0:	e28cca1e 	add	ip, ip, #122880	; 0x1e000
    8ba4:	e5bcf594 	ldr	pc, [ip, #1428]!	; 0x594
    8ba8:	e28fc600 	add	ip, pc, #0
    8bac:	e28cca1e 	add	ip, ip, #122880	; 0x1e000
    8bb0:	e5bcf58c 	ldr	pc, [ip, #1420]!	; 0x58c
    8bb4:	e28fc600 	add	ip, pc, #0
    8bb8:	e28cca1e 	add	ip, ip, #122880	; 0x1e000
    8bbc:	e5bcf584 	ldr	pc, [ip, #1412]!	; 0x584
    8bc0:	e28fc600 	add	ip, pc, #0
    8bc4:	e28cca1e 	add	ip, ip, #122880	; 0x1e000
    8bc8:	e5bcf57c 	ldr	pc, [ip, #1404]!	; 0x57c
    8bcc:	e28fc600 	add	ip, pc, #0
    8bd0:	e28cca1e 	add	ip, ip, #122880	; 0x1e000
    8bd4:	e5bcf574 	ldr	pc, [ip, #1396]!	; 0x574
    8bd8:	e28fc600 	add	ip, pc, #0
    8bdc:	e28cca1e 	add	ip, ip, #122880	; 0x1e000
    8be0:	e5bcf56c 	ldr	pc, [ip, #1388]!	; 0x56c
    8be4:	e28fc600 	add	ip, pc, #0
    8be8:	e28cca1e 	add	ip, ip, #122880	; 0x1e000
    8bec:	e5bcf564 	ldr	pc, [ip, #1380]!	; 0x564
    8bf0:	e28fc600 	add	ip, pc, #0
    8bf4:	e28cca1e 	add	ip, ip, #122880	; 0x1e000
    8bf8:	e5bcf55c 	ldr	pc, [ip, #1372]!	; 0x55c
    8bfc:	e28fc600 	add	ip, pc, #0
    8c00:	e28cca1e 	add	ip, ip, #122880	; 0x1e000
    8c04:	e5bcf554 	ldr	pc, [ip, #1364]!	; 0x554
    8c08:	e28fc600 	add	ip, pc, #0
    8c0c:	e28cca1e 	add	ip, ip, #122880	; 0x1e000
    8c10:	e5bcf54c 	ldr	pc, [ip, #1356]!	; 0x54c
    8c14:	e28fc600 	add	ip, pc, #0
    8c18:	e28cca1e 	add	ip, ip, #122880	; 0x1e000
    8c1c:	e5bcf544 	ldr	pc, [ip, #1348]!	; 0x544
    8c20:	e28fc600 	add	ip, pc, #0
    8c24:	e28cca1e 	add	ip, ip, #122880	; 0x1e000
    8c28:	e5bcf53c 	ldr	pc, [ip, #1340]!	; 0x53c
    8c2c:	e28fc600 	add	ip, pc, #0
    8c30:	e28cca1e 	add	ip, ip, #122880	; 0x1e000
    8c34:	e5bcf534 	ldr	pc, [ip, #1332]!	; 0x534
    8c38:	e28fc600 	add	ip, pc, #0
    8c3c:	e28cca1e 	add	ip, ip, #122880	; 0x1e000
    8c40:	e5bcf52c 	ldr	pc, [ip, #1324]!	; 0x52c
    8c44:	e28fc600 	add	ip, pc, #0
    8c48:	e28cca1e 	add	ip, ip, #122880	; 0x1e000
    8c4c:	e5bcf524 	ldr	pc, [ip, #1316]!	; 0x524
    8c50:	e28fc600 	add	ip, pc, #0
    8c54:	e28cca1e 	add	ip, ip, #122880	; 0x1e000
    8c58:	e5bcf51c 	ldr	pc, [ip, #1308]!	; 0x51c
    8c5c:	e28fc600 	add	ip, pc, #0
    8c60:	e28cca1e 	add	ip, ip, #122880	; 0x1e000
    8c64:	e5bcf514 	ldr	pc, [ip, #1300]!	; 0x514
    8c68:	e28fc600 	add	ip, pc, #0
    8c6c:	e28cca1e 	add	ip, ip, #122880	; 0x1e000
    8c70:	e5bcf50c 	ldr	pc, [ip, #1292]!	; 0x50c
    8c74:	e28fc600 	add	ip, pc, #0
    8c78:	e28cca1e 	add	ip, ip, #122880	; 0x1e000
    8c7c:	e5bcf504 	ldr	pc, [ip, #1284]!	; 0x504
    8c80:	e28fc600 	add	ip, pc, #0
    8c84:	e28cca1e 	add	ip, ip, #122880	; 0x1e000
    8c88:	e5bcf4fc 	ldr	pc, [ip, #1276]!	; 0x4fc
    8c8c:	e28fc600 	add	ip, pc, #0
    8c90:	e28cca1e 	add	ip, ip, #122880	; 0x1e000
    8c94:	e5bcf4f4 	ldr	pc, [ip, #1268]!	; 0x4f4
    8c98:	e28fc600 	add	ip, pc, #0
    8c9c:	e28cca1e 	add	ip, ip, #122880	; 0x1e000
    8ca0:	e5bcf4ec 	ldr	pc, [ip, #1260]!	; 0x4ec
    8ca4:	e28fc600 	add	ip, pc, #0
    8ca8:	e28cca1e 	add	ip, ip, #122880	; 0x1e000
    8cac:	e5bcf4e4 	ldr	pc, [ip, #1252]!	; 0x4e4
    8cb0:	e28fc600 	add	ip, pc, #0
    8cb4:	e28cca1e 	add	ip, ip, #122880	; 0x1e000
    8cb8:	e5bcf4dc 	ldr	pc, [ip, #1244]!	; 0x4dc
    8cbc:	e28fc600 	add	ip, pc, #0
    8cc0:	e28cca1e 	add	ip, ip, #122880	; 0x1e000
    8cc4:	e5bcf4d4 	ldr	pc, [ip, #1236]!	; 0x4d4
    8cc8:	e28fc600 	add	ip, pc, #0
    8ccc:	e28cca1e 	add	ip, ip, #122880	; 0x1e000
    8cd0:	e5bcf4cc 	ldr	pc, [ip, #1228]!	; 0x4cc
    8cd4:	e28fc600 	add	ip, pc, #0
    8cd8:	e28cca1e 	add	ip, ip, #122880	; 0x1e000
    8cdc:	e5bcf4c4 	ldr	pc, [ip, #1220]!	; 0x4c4
    8ce0:	e28fc600 	add	ip, pc, #0
    8ce4:	e28cca1e 	add	ip, ip, #122880	; 0x1e000
    8ce8:	e5bcf4bc 	ldr	pc, [ip, #1212]!	; 0x4bc
    8cec:	e28fc600 	add	ip, pc, #0
    8cf0:	e28cca1e 	add	ip, ip, #122880	; 0x1e000
    8cf4:	e5bcf4b4 	ldr	pc, [ip, #1204]!	; 0x4b4
    8cf8:	e28fc600 	add	ip, pc, #0
    8cfc:	e28cca1e 	add	ip, ip, #122880	; 0x1e000
    8d00:	e5bcf4ac 	ldr	pc, [ip, #1196]!	; 0x4ac
    8d04:	e28fc600 	add	ip, pc, #0
    8d08:	e28cca1e 	add	ip, ip, #122880	; 0x1e000
    8d0c:	e5bcf4a4 	ldr	pc, [ip, #1188]!	; 0x4a4
    8d10:	e28fc600 	add	ip, pc, #0
    8d14:	e28cca1e 	add	ip, ip, #122880	; 0x1e000
    8d18:	e5bcf49c 	ldr	pc, [ip, #1180]!	; 0x49c
    8d1c:	e28fc600 	add	ip, pc, #0
    8d20:	e28cca1e 	add	ip, ip, #122880	; 0x1e000
    8d24:	e5bcf494 	ldr	pc, [ip, #1172]!	; 0x494
    8d28:	e28fc600 	add	ip, pc, #0
    8d2c:	e28cca1e 	add	ip, ip, #122880	; 0x1e000
    8d30:	e5bcf48c 	ldr	pc, [ip, #1164]!	; 0x48c
    8d34:	e28fc600 	add	ip, pc, #0
    8d38:	e28cca1e 	add	ip, ip, #122880	; 0x1e000
    8d3c:	e5bcf484 	ldr	pc, [ip, #1156]!	; 0x484
    8d40:	e28fc600 	add	ip, pc, #0
    8d44:	e28cca1e 	add	ip, ip, #122880	; 0x1e000
    8d48:	e5bcf47c 	ldr	pc, [ip, #1148]!	; 0x47c

Disassembly of section .text:

00008d50 <_start>:
    8d50:	e3a0b000 	mov	fp, #0
    8d54:	e3a0e000 	mov	lr, #0
    8d58:	e49d1004 	pop	{r1}		; (ldr r1, [sp], #4)
    8d5c:	e1a0200d 	mov	r2, sp
    8d60:	e52d2004 	push	{r2}		; (str r2, [sp, #-4]!)
    8d64:	e52d0004 	push	{r0}		; (str r0, [sp, #-4]!)
    8d68:	e59fc010 	ldr	ip, [pc, #16]	; 8d80 <_start+0x30>
    8d6c:	e52dc004 	push	{ip}		; (str ip, [sp, #-4]!)
    8d70:	e59f000c 	ldr	r0, [pc, #12]	; 8d84 <_start+0x34>
    8d74:	e59f300c 	ldr	r3, [pc, #12]	; 8d88 <_start+0x38>
    8d78:	ebffffa5 	bl	8c14 <_init+0x110>
    8d7c:	ebffffe0 	bl	8d04 <_init+0x200>
    8d80:	0001e3f0 	.word	0x0001e3f0
    8d84:	0000a260 	.word	0x0000a260
    8d88:	0001e390 	.word	0x0001e390

00008d8c <call_gmon_start>:
    8d8c:	e59f3014 	ldr	r3, [pc, #20]	; 8da8 <call_gmon_start+0x1c>
    8d90:	e59f2014 	ldr	r2, [pc, #20]	; 8dac <call_gmon_start+0x20>
    8d94:	e08f3003 	add	r3, pc, r3
    8d98:	e7933002 	ldr	r3, [r3, r2]
    8d9c:	e3530000 	cmp	r3, #0
    8da0:	012fff1e 	bxeq	lr
    8da4:	eaffffa0 	b	8c2c <_init+0x128>
    8da8:	0001e368 	.word	0x0001e368
    8dac:	000000c4 	.word	0x000000c4

00008db0 <__do_global_dtors_aux>:
    8db0:	e59f3010 	ldr	r3, [pc, #16]	; 8dc8 <__do_global_dtors_aux+0x18>
    8db4:	e5d32000 	ldrb	r2, [r3]
    8db8:	e3520000 	cmp	r2, #0
    8dbc:	03a02001 	moveq	r2, #1
    8dc0:	05c32000 	strbeq	r2, [r3]
    8dc4:	e12fff1e 	bx	lr
    8dc8:	000275d8 	.word	0x000275d8

00008dcc <frame_dummy>:
    8dcc:	e59f0020 	ldr	r0, [pc, #32]	; 8df4 <frame_dummy+0x28>
    8dd0:	e92d4008 	push	{r3, lr}
    8dd4:	e5903000 	ldr	r3, [r0]
    8dd8:	e3530000 	cmp	r3, #0
    8ddc:	08bd8008 	popeq	{r3, pc}
    8de0:	e59f3010 	ldr	r3, [pc, #16]	; 8df8 <frame_dummy+0x2c>
    8de4:	e3530000 	cmp	r3, #0
    8de8:	08bd8008 	popeq	{r3, pc}
    8dec:	e12fff33 	blx	r3
    8df0:	e8bd8008 	pop	{r3, pc}
    8df4:	00027008 	.word	0x00027008
    8df8:	00000000 	.word	0x00000000

00008dfc <ff>:
    8dfc:	e92d4800 	push	{fp, lr}
    8e00:	e28db004 	add	fp, sp, #4
    8e04:	e24dd018 	sub	sp, sp, #24
    8e08:	e50b0018 	str	r0, [fp, #-24]
    8e0c:	e3a03000 	mov	r3, #0
    8e10:	e50b3010 	str	r3, [fp, #-16]
    8e14:	e3a03000 	mov	r3, #0
    8e18:	e50b3014 	str	r3, [fp, #-20]
    8e1c:	e51b0018 	ldr	r0, [fp, #-24]
    8e20:	eb000326 	bl	9ac0 <send_greetz>
    8e24:	e50b0008 	str	r0, [fp, #-8]
    8e28:	e51b3008 	ldr	r3, [fp, #-8]
    8e2c:	e3730001 	cmn	r3, #1
    8e30:	1a000002 	bne	8e40 <ff+0x44>
    8e34:	e3e03000 	mvn	r3, #0
    8e38:	ea000018 	b	8ea0 <ff+0xa4>
    8e3c:	e1a00000 	nop			; (mov r0, r0)
    8e40:	e24b2010 	sub	r2, fp, #16
    8e44:	e24b3014 	sub	r3, fp, #20
    8e48:	e51b0018 	ldr	r0, [fp, #-24]
    8e4c:	e1a01002 	mov	r1, r2
    8e50:	e1a02003 	mov	r2, r3
    8e54:	eb00034c 	bl	9b8c <get_meta>
    8e58:	e50b000c 	str	r0, [fp, #-12]
    8e5c:	e51b300c 	ldr	r3, [fp, #-12]
    8e60:	e3530000 	cmp	r3, #0
    8e64:	1a000001 	bne	8e70 <ff+0x74>
    8e68:	e3a03000 	mov	r3, #0
    8e6c:	ea00000b 	b	8ea0 <ff+0xa4>
    8e70:	e51b2010 	ldr	r2, [fp, #-16]
    8e74:	e51b3014 	ldr	r3, [fp, #-20]
    8e78:	e51b0018 	ldr	r0, [fp, #-24]
    8e7c:	e51b100c 	ldr	r1, [fp, #-12]
    8e80:	eb000009 	bl	8eac <handle_checks>
    8e84:	e1a03000 	mov	r3, r0
    8e88:	e3530000 	cmp	r3, #0
    8e8c:	1affffea 	bne	8e3c <ff+0x40>
    8e90:	e1a00000 	nop			; (mov r0, r0)
    8e94:	e51b0018 	ldr	r0, [fp, #-24]
    8e98:	ebffff9f 	bl	8d1c <_init+0x218>
    8e9c:	e3a03001 	mov	r3, #1
    8ea0:	e1a00003 	mov	r0, r3
    8ea4:	e24bd004 	sub	sp, fp, #4
    8ea8:	e8bd8800 	pop	{fp, pc}

00008eac <handle_checks>:
    8eac:	e92d4800 	push	{fp, lr}
    8eb0:	e28db004 	add	fp, sp, #4
    8eb4:	e24dde45 	sub	sp, sp, #1104	; 0x450
    8eb8:	e24dd008 	sub	sp, sp, #8
    8ebc:	e50b0450 	str	r0, [fp, #-1104]	; 0x450
    8ec0:	e50b1454 	str	r1, [fp, #-1108]	; 0x454
    8ec4:	e50b2458 	str	r2, [fp, #-1112]	; 0x458
    8ec8:	e50b345c 	str	r3, [fp, #-1116]	; 0x45c
    8ecc:	e24b3d11 	sub	r3, fp, #1088	; 0x440
    8ed0:	e2433004 	sub	r3, r3, #4
    8ed4:	e1a02003 	mov	r2, r3
    8ed8:	e3a03b01 	mov	r3, #1024	; 0x400
    8edc:	e1a00002 	mov	r0, r2
    8ee0:	e3a01000 	mov	r1, #0
    8ee4:	e1a02003 	mov	r2, r3
    8ee8:	ebffff6a 	bl	8c98 <_init+0x194>
    8eec:	e24b3044 	sub	r3, fp, #68	; 0x44
    8ef0:	e1a02003 	mov	r2, r3
    8ef4:	e3a03040 	mov	r3, #64	; 0x40
    8ef8:	e1a00002 	mov	r0, r2
    8efc:	e3a01000 	mov	r1, #0
    8f00:	e1a02003 	mov	r2, r3
    8f04:	ebffff63 	bl	8c98 <_init+0x194>
    8f08:	e3a03000 	mov	r3, #0
    8f0c:	e50b3448 	str	r3, [fp, #-1096]	; 0x448
    8f10:	e59f3ba0 	ldr	r3, [pc, #2976]	; 9ab8 <handle_checks+0xc0c>
    8f14:	e1a00003 	mov	r0, r3
    8f18:	e51b1454 	ldr	r1, [fp, #-1108]	; 0x454
    8f1c:	e51b2458 	ldr	r2, [fp, #-1112]	; 0x458
    8f20:	e51b345c 	ldr	r3, [fp, #-1116]	; 0x45c
    8f24:	ebffff0a 	bl	8b54 <_init+0x50>
    8f28:	e24b3d11 	sub	r3, fp, #1088	; 0x440
    8f2c:	e2433004 	sub	r3, r3, #4
    8f30:	e51b0450 	ldr	r0, [fp, #-1104]	; 0x450
    8f34:	e1a01003 	mov	r1, r3
    8f38:	e51b2454 	ldr	r2, [fp, #-1108]	; 0x454
    8f3c:	eb005330 	bl	1dc04 <recvdata>
    8f40:	e1a03000 	mov	r3, r0
    8f44:	e3730001 	cmn	r3, #1
    8f48:	1a000001 	bne	8f54 <handle_checks+0xa8>
    8f4c:	e3a03000 	mov	r3, #0
    8f50:	ea0002d5 	b	9aac <handle_checks+0xc00>
    8f54:	e51b3458 	ldr	r3, [fp, #-1112]	; 0x458
    8f58:	e203303f 	and	r3, r3, #63	; 0x3f
    8f5c:	e353003f 	cmp	r3, #63	; 0x3f
    8f60:	979ff103 	ldrls	pc, [pc, r3, lsl #2]
    8f64:	ea0002b7 	b	9a48 <handle_checks+0xb9c>
    8f68:	00009068 	.word	0x00009068
    8f6c:	00009094 	.word	0x00009094
    8f70:	000090c0 	.word	0x000090c0
    8f74:	000090ec 	.word	0x000090ec
    8f78:	00009118 	.word	0x00009118
    8f7c:	00009144 	.word	0x00009144
    8f80:	00009170 	.word	0x00009170
    8f84:	0000919c 	.word	0x0000919c
    8f88:	000091c8 	.word	0x000091c8
    8f8c:	000091f4 	.word	0x000091f4
    8f90:	00009220 	.word	0x00009220
    8f94:	0000924c 	.word	0x0000924c
    8f98:	00009278 	.word	0x00009278
    8f9c:	000092a4 	.word	0x000092a4
    8fa0:	000092d0 	.word	0x000092d0
    8fa4:	000092fc 	.word	0x000092fc
    8fa8:	00009328 	.word	0x00009328
    8fac:	00009354 	.word	0x00009354
    8fb0:	00009380 	.word	0x00009380
    8fb4:	000093ac 	.word	0x000093ac
    8fb8:	000093d8 	.word	0x000093d8
    8fbc:	00009404 	.word	0x00009404
    8fc0:	00009430 	.word	0x00009430
    8fc4:	0000945c 	.word	0x0000945c
    8fc8:	00009488 	.word	0x00009488
    8fcc:	000094b4 	.word	0x000094b4
    8fd0:	000094e0 	.word	0x000094e0
    8fd4:	000094ec 	.word	0x000094ec
    8fd8:	00009518 	.word	0x00009518
    8fdc:	00009544 	.word	0x00009544
    8fe0:	00009570 	.word	0x00009570
    8fe4:	0000959c 	.word	0x0000959c
    8fe8:	000095c8 	.word	0x000095c8
    8fec:	000095f4 	.word	0x000095f4
    8ff0:	00009620 	.word	0x00009620
    8ff4:	0000964c 	.word	0x0000964c
    8ff8:	00009678 	.word	0x00009678
    8ffc:	000096a4 	.word	0x000096a4
    9000:	000096d0 	.word	0x000096d0
    9004:	000096fc 	.word	0x000096fc
    9008:	00009728 	.word	0x00009728
    900c:	00009754 	.word	0x00009754
    9010:	00009780 	.word	0x00009780
    9014:	000097ac 	.word	0x000097ac
    9018:	000097d8 	.word	0x000097d8
    901c:	00009804 	.word	0x00009804
    9020:	00009830 	.word	0x00009830
    9024:	0000985c 	.word	0x0000985c
    9028:	00009888 	.word	0x00009888
    902c:	000098b4 	.word	0x000098b4
    9030:	000098e0 	.word	0x000098e0
    9034:	0000990c 	.word	0x0000990c
    9038:	00009938 	.word	0x00009938
    903c:	00009964 	.word	0x00009964
    9040:	00009990 	.word	0x00009990
    9044:	000099bc 	.word	0x000099bc
    9048:	000099e8 	.word	0x000099e8
    904c:	000099f4 	.word	0x000099f4
    9050:	00009a00 	.word	0x00009a00
    9054:	00009a0c 	.word	0x00009a0c
    9058:	00009a18 	.word	0x00009a18
    905c:	00009a24 	.word	0x00009a24
    9060:	00009a30 	.word	0x00009a30
    9064:	00009a3c 	.word	0x00009a3c
    9068:	e51b2454 	ldr	r2, [fp, #-1108]	; 0x454
    906c:	e24b1d11 	sub	r1, fp, #1088	; 0x440
    9070:	e2411004 	sub	r1, r1, #4
    9074:	e24b3044 	sub	r3, fp, #68	; 0x44
    9078:	e1a00001 	mov	r0, r1
    907c:	e1a01002 	mov	r1, r2
    9080:	e1a02003 	mov	r2, r3
    9084:	eb00048d 	bl	a2c0 <md2>
    9088:	e3a03010 	mov	r3, #16
    908c:	e50b3448 	str	r3, [fp, #-1096]	; 0x448
    9090:	ea00026c 	b	9a48 <handle_checks+0xb9c>
    9094:	e51b2454 	ldr	r2, [fp, #-1108]	; 0x454
    9098:	e24b1d11 	sub	r1, fp, #1088	; 0x440
    909c:	e2411004 	sub	r1, r1, #4
    90a0:	e24b3044 	sub	r3, fp, #68	; 0x44
    90a4:	e1a00001 	mov	r0, r1
    90a8:	e1a01002 	mov	r1, r2
    90ac:	e1a02003 	mov	r2, r3
    90b0:	eb000b7e 	bl	beb0 <md4>
    90b4:	e3a03010 	mov	r3, #16
    90b8:	e50b3448 	str	r3, [fp, #-1096]	; 0x448
    90bc:	ea000261 	b	9a48 <handle_checks+0xb9c>
    90c0:	e51b2454 	ldr	r2, [fp, #-1108]	; 0x454
    90c4:	e24b1d11 	sub	r1, fp, #1088	; 0x440
    90c8:	e2411004 	sub	r1, r1, #4
    90cc:	e24b3044 	sub	r3, fp, #68	; 0x44
    90d0:	e1a00001 	mov	r0, r1
    90d4:	e1a01002 	mov	r1, r2
    90d8:	e1a02003 	mov	r2, r3
    90dc:	eb0012ff 	bl	dce0 <md5>
    90e0:	e3a03010 	mov	r3, #16
    90e4:	e50b3448 	str	r3, [fp, #-1096]	; 0x448
    90e8:	ea000256 	b	9a48 <handle_checks+0xb9c>
    90ec:	e51b2454 	ldr	r2, [fp, #-1108]	; 0x454
    90f0:	e24b1d11 	sub	r1, fp, #1088	; 0x440
    90f4:	e2411004 	sub	r1, r1, #4
    90f8:	e24b3044 	sub	r3, fp, #68	; 0x44
    90fc:	e1a00001 	mov	r0, r1
    9100:	e1a01002 	mov	r1, r2
    9104:	e1a02003 	mov	r2, r3
    9108:	eb00130f 	bl	dd4c <crc16_ccitt>
    910c:	e3a03002 	mov	r3, #2
    9110:	e50b3448 	str	r3, [fp, #-1096]	; 0x448
    9114:	ea00024b 	b	9a48 <handle_checks+0xb9c>
    9118:	e51b2454 	ldr	r2, [fp, #-1108]	; 0x454
    911c:	e24b1d11 	sub	r1, fp, #1088	; 0x440
    9120:	e2411004 	sub	r1, r1, #4
    9124:	e24b3044 	sub	r3, fp, #68	; 0x44
    9128:	e1a00001 	mov	r0, r1
    912c:	e1a01002 	mov	r1, r2
    9130:	e1a02003 	mov	r2, r3
    9134:	eb001339 	bl	de20 <crc32>
    9138:	e3a03004 	mov	r3, #4
    913c:	e50b3448 	str	r3, [fp, #-1096]	; 0x448
    9140:	ea000240 	b	9a48 <handle_checks+0xb9c>
    9144:	e51b2454 	ldr	r2, [fp, #-1108]	; 0x454
    9148:	e24b1d11 	sub	r1, fp, #1088	; 0x440
    914c:	e2411004 	sub	r1, r1, #4
    9150:	e24b3044 	sub	r3, fp, #68	; 0x44
    9154:	e1a00001 	mov	r0, r1
    9158:	e1a01002 	mov	r1, r2
    915c:	e1a02003 	mov	r2, r3
    9160:	eb001361 	bl	deec <sum8>
    9164:	e3a03001 	mov	r3, #1
    9168:	e50b3448 	str	r3, [fp, #-1096]	; 0x448
    916c:	ea000235 	b	9a48 <handle_checks+0xb9c>
    9170:	e51b2454 	ldr	r2, [fp, #-1108]	; 0x454
    9174:	e24b1d11 	sub	r1, fp, #1088	; 0x440
    9178:	e2411004 	sub	r1, r1, #4
    917c:	e24b3044 	sub	r3, fp, #68	; 0x44
    9180:	e1a00001 	mov	r0, r1
    9184:	e1a01002 	mov	r1, r2
    9188:	e1a02003 	mov	r2, r3
    918c:	eb001377 	bl	df70 <sum16>
    9190:	e3a03002 	mov	r3, #2
    9194:	e50b3448 	str	r3, [fp, #-1096]	; 0x448
    9198:	ea00022a 	b	9a48 <handle_checks+0xb9c>
    919c:	e51b2454 	ldr	r2, [fp, #-1108]	; 0x454
    91a0:	e24b1d11 	sub	r1, fp, #1088	; 0x440
    91a4:	e2411004 	sub	r1, r1, #4
    91a8:	e24b3044 	sub	r3, fp, #68	; 0x44
    91ac:	e1a00001 	mov	r0, r1
    91b0:	e1a01002 	mov	r1, r2
    91b4:	e1a02003 	mov	r2, r3
    91b8:	eb001399 	bl	e024 <sum32>
    91bc:	e3a03004 	mov	r3, #4
    91c0:	e50b3448 	str	r3, [fp, #-1096]	; 0x448
    91c4:	ea00021f 	b	9a48 <handle_checks+0xb9c>
    91c8:	e51b2454 	ldr	r2, [fp, #-1108]	; 0x454
    91cc:	e24b1d11 	sub	r1, fp, #1088	; 0x440
    91d0:	e2411004 	sub	r1, r1, #4
    91d4:	e24b3044 	sub	r3, fp, #68	; 0x44
    91d8:	e1a00001 	mov	r0, r1
    91dc:	e1a01002 	mov	r1, r2
    91e0:	e1a02003 	mov	r2, r3
    91e4:	eb004e51 	bl	1cb30 <mul8>
    91e8:	e3a03001 	mov	r3, #1
    91ec:	e50b3448 	str	r3, [fp, #-1096]	; 0x448
    91f0:	ea000214 	b	9a48 <handle_checks+0xb9c>
    91f4:	e51b2454 	ldr	r2, [fp, #-1108]	; 0x454
    91f8:	e24b1d11 	sub	r1, fp, #1088	; 0x440
    91fc:	e2411004 	sub	r1, r1, #4
    9200:	e24b3044 	sub	r3, fp, #68	; 0x44
    9204:	e1a00001 	mov	r0, r1
    9208:	e1a01002 	mov	r1, r2
    920c:	e1a02003 	mov	r2, r3
    9210:	eb004e67 	bl	1cbb4 <mul16>
    9214:	e3a03002 	mov	r3, #2
    9218:	e50b3448 	str	r3, [fp, #-1096]	; 0x448
    921c:	ea000209 	b	9a48 <handle_checks+0xb9c>
    9220:	e51b2454 	ldr	r2, [fp, #-1108]	; 0x454
    9224:	e24b1d11 	sub	r1, fp, #1088	; 0x440
    9228:	e2411004 	sub	r1, r1, #4
    922c:	e24b3044 	sub	r3, fp, #68	; 0x44
    9230:	e1a00001 	mov	r0, r1
    9234:	e1a01002 	mov	r1, r2
    9238:	e1a02003 	mov	r2, r3
    923c:	eb004e89 	bl	1cc68 <mul32>
    9240:	e3a03004 	mov	r3, #4
    9244:	e50b3448 	str	r3, [fp, #-1096]	; 0x448
    9248:	ea0001fe 	b	9a48 <handle_checks+0xb9c>
    924c:	e51b2454 	ldr	r2, [fp, #-1108]	; 0x454
    9250:	e24b1d11 	sub	r1, fp, #1088	; 0x440
    9254:	e2411004 	sub	r1, r1, #4
    9258:	e24b3044 	sub	r3, fp, #68	; 0x44
    925c:	e1a00001 	mov	r0, r1
    9260:	e1a01002 	mov	r1, r2
    9264:	e1a02003 	mov	r2, r3
    9268:	eb004f35 	bl	1cf44 <div8>
    926c:	e3a03001 	mov	r3, #1
    9270:	e50b3448 	str	r3, [fp, #-1096]	; 0x448
    9274:	ea0001f3 	b	9a48 <handle_checks+0xb9c>
    9278:	e51b2454 	ldr	r2, [fp, #-1108]	; 0x454
    927c:	e24b1d11 	sub	r1, fp, #1088	; 0x440
    9280:	e2411004 	sub	r1, r1, #4
    9284:	e24b3044 	sub	r3, fp, #68	; 0x44
    9288:	e1a00001 	mov	r0, r1
    928c:	e1a01002 	mov	r1, r2
    9290:	e1a02003 	mov	r2, r3
    9294:	eb004f50 	bl	1cfdc <div16>
    9298:	e3a03002 	mov	r3, #2
    929c:	e50b3448 	str	r3, [fp, #-1096]	; 0x448
    92a0:	ea0001e8 	b	9a48 <handle_checks+0xb9c>
    92a4:	e51b2454 	ldr	r2, [fp, #-1108]	; 0x454
    92a8:	e24b1d11 	sub	r1, fp, #1088	; 0x440
    92ac:	e2411004 	sub	r1, r1, #4
    92b0:	e24b3044 	sub	r3, fp, #68	; 0x44
    92b4:	e1a00001 	mov	r0, r1
    92b8:	e1a01002 	mov	r1, r2
    92bc:	e1a02003 	mov	r2, r3
    92c0:	eb004f79 	bl	1d0ac <div32>
    92c4:	e3a03004 	mov	r3, #4
    92c8:	e50b3448 	str	r3, [fp, #-1096]	; 0x448
    92cc:	ea0001dd 	b	9a48 <handle_checks+0xb9c>
    92d0:	e51b2454 	ldr	r2, [fp, #-1108]	; 0x454
    92d4:	e24b1d11 	sub	r1, fp, #1088	; 0x440
    92d8:	e2411004 	sub	r1, r1, #4
    92dc:	e24b3044 	sub	r3, fp, #68	; 0x44
    92e0:	e1a00001 	mov	r0, r1
    92e4:	e1a01002 	mov	r1, r2
    92e8:	e1a02003 	mov	r2, r3
    92ec:	eb004664 	bl	1ac84 <sub8>
    92f0:	e3a03001 	mov	r3, #1
    92f4:	e50b3448 	str	r3, [fp, #-1096]	; 0x448
    92f8:	ea0001d2 	b	9a48 <handle_checks+0xb9c>
    92fc:	e51b2454 	ldr	r2, [fp, #-1108]	; 0x454
    9300:	e24b1d11 	sub	r1, fp, #1088	; 0x440
    9304:	e2411004 	sub	r1, r1, #4
    9308:	e24b3044 	sub	r3, fp, #68	; 0x44
    930c:	e1a00001 	mov	r0, r1
    9310:	e1a01002 	mov	r1, r2
    9314:	e1a02003 	mov	r2, r3
    9318:	eb00467a 	bl	1ad08 <sub16>
    931c:	e3a03002 	mov	r3, #2
    9320:	e50b3448 	str	r3, [fp, #-1096]	; 0x448
    9324:	ea0001c7 	b	9a48 <handle_checks+0xb9c>
    9328:	e51b2454 	ldr	r2, [fp, #-1108]	; 0x454
    932c:	e24b1d11 	sub	r1, fp, #1088	; 0x440
    9330:	e2411004 	sub	r1, r1, #4
    9334:	e24b3044 	sub	r3, fp, #68	; 0x44
    9338:	e1a00001 	mov	r0, r1
    933c:	e1a01002 	mov	r1, r2
    9340:	e1a02003 	mov	r2, r3
    9344:	eb00469c 	bl	1adbc <sub32>
    9348:	e3a03004 	mov	r3, #4
    934c:	e50b3448 	str	r3, [fp, #-1096]	; 0x448
    9350:	ea0001bc 	b	9a48 <handle_checks+0xb9c>
    9354:	e51b2454 	ldr	r2, [fp, #-1108]	; 0x454
    9358:	e24b1d11 	sub	r1, fp, #1088	; 0x440
    935c:	e2411004 	sub	r1, r1, #4
    9360:	e24b3044 	sub	r3, fp, #68	; 0x44
    9364:	e1a00001 	mov	r0, r1
    9368:	e1a01002 	mov	r1, r2
    936c:	e1a02003 	mov	r2, r3
    9370:	eb004e67 	bl	1cd14 <mod8>
    9374:	e3a03001 	mov	r3, #1
    9378:	e50b3448 	str	r3, [fp, #-1096]	; 0x448
    937c:	ea0001b1 	b	9a48 <handle_checks+0xb9c>
    9380:	e51b2454 	ldr	r2, [fp, #-1108]	; 0x454
    9384:	e24b1d11 	sub	r1, fp, #1088	; 0x440
    9388:	e2411004 	sub	r1, r1, #4
    938c:	e24b3044 	sub	r3, fp, #68	; 0x44
    9390:	e1a00001 	mov	r0, r1
    9394:	e1a01002 	mov	r1, r2
    9398:	e1a02003 	mov	r2, r3
    939c:	eb004e82 	bl	1cdac <mod16>
    93a0:	e3a03002 	mov	r3, #2
    93a4:	e50b3448 	str	r3, [fp, #-1096]	; 0x448
    93a8:	ea0001a6 	b	9a48 <handle_checks+0xb9c>
    93ac:	e51b2454 	ldr	r2, [fp, #-1108]	; 0x454
    93b0:	e24b1d11 	sub	r1, fp, #1088	; 0x440
    93b4:	e2411004 	sub	r1, r1, #4
    93b8:	e24b3044 	sub	r3, fp, #68	; 0x44
    93bc:	e1a00001 	mov	r0, r1
    93c0:	e1a01002 	mov	r1, r2
    93c4:	e1a02003 	mov	r2, r3
    93c8:	eb004eab 	bl	1ce7c <mod32>
    93cc:	e3a03004 	mov	r3, #4
    93d0:	e50b3448 	str	r3, [fp, #-1096]	; 0x448
    93d4:	ea00019b 	b	9a48 <handle_checks+0xb9c>
    93d8:	e51b2454 	ldr	r2, [fp, #-1108]	; 0x454
    93dc:	e24b1d11 	sub	r1, fp, #1088	; 0x440
    93e0:	e2411004 	sub	r1, r1, #4
    93e4:	e24b3044 	sub	r3, fp, #68	; 0x44
    93e8:	e1a00001 	mov	r0, r1
    93ec:	e1a01002 	mov	r1, r2
    93f0:	e1a02003 	mov	r2, r3
    93f4:	eb004f5f 	bl	1d178 <cos128>
    93f8:	e3a03010 	mov	r3, #16
    93fc:	e50b3448 	str	r3, [fp, #-1096]	; 0x448
    9400:	ea000190 	b	9a48 <handle_checks+0xb9c>
    9404:	e51b2454 	ldr	r2, [fp, #-1108]	; 0x454
    9408:	e24b1d11 	sub	r1, fp, #1088	; 0x440
    940c:	e2411004 	sub	r1, r1, #4
    9410:	e24b3044 	sub	r3, fp, #68	; 0x44
    9414:	e1a00001 	mov	r0, r1
    9418:	e1a01002 	mov	r1, r2
    941c:	e1a02003 	mov	r2, r3
    9420:	eb004f84 	bl	1d238 <acos128>
    9424:	e3a03010 	mov	r3, #16
    9428:	e50b3448 	str	r3, [fp, #-1096]	; 0x448
    942c:	ea000185 	b	9a48 <handle_checks+0xb9c>
    9430:	e51b2454 	ldr	r2, [fp, #-1108]	; 0x454
    9434:	e24b1d11 	sub	r1, fp, #1088	; 0x440
    9438:	e2411004 	sub	r1, r1, #4
    943c:	e24b3044 	sub	r3, fp, #68	; 0x44
    9440:	e1a00001 	mov	r0, r1
    9444:	e1a01002 	mov	r1, r2
    9448:	e1a02003 	mov	r2, r3
    944c:	eb004fa9 	bl	1d2f8 <sin128>
    9450:	e3a03010 	mov	r3, #16
    9454:	e50b3448 	str	r3, [fp, #-1096]	; 0x448
    9458:	ea00017a 	b	9a48 <handle_checks+0xb9c>
    945c:	e51b2454 	ldr	r2, [fp, #-1108]	; 0x454
    9460:	e24b1d11 	sub	r1, fp, #1088	; 0x440
    9464:	e2411004 	sub	r1, r1, #4
    9468:	e24b3044 	sub	r3, fp, #68	; 0x44
    946c:	e1a00001 	mov	r0, r1
    9470:	e1a01002 	mov	r1, r2
    9474:	e1a02003 	mov	r2, r3
    9478:	eb004fce 	bl	1d3b8 <asin128>
    947c:	e3a03010 	mov	r3, #16
    9480:	e50b3448 	str	r3, [fp, #-1096]	; 0x448
    9484:	ea00016f 	b	9a48 <handle_checks+0xb9c>
    9488:	e51b2454 	ldr	r2, [fp, #-1108]	; 0x454
    948c:	e24b1d11 	sub	r1, fp, #1088	; 0x440
    9490:	e2411004 	sub	r1, r1, #4
    9494:	e24b3044 	sub	r3, fp, #68	; 0x44
    9498:	e1a00001 	mov	r0, r1
    949c:	e1a01002 	mov	r1, r2
    94a0:	e1a02003 	mov	r2, r3
    94a4:	eb004ff3 	bl	1d478 <tan128>
    94a8:	e3a03010 	mov	r3, #16
    94ac:	e50b3448 	str	r3, [fp, #-1096]	; 0x448
    94b0:	ea000164 	b	9a48 <handle_checks+0xb9c>
    94b4:	e51b2454 	ldr	r2, [fp, #-1108]	; 0x454
    94b8:	e24b1d11 	sub	r1, fp, #1088	; 0x440
    94bc:	e2411004 	sub	r1, r1, #4
    94c0:	e24b3044 	sub	r3, fp, #68	; 0x44
    94c4:	e1a00001 	mov	r0, r1
    94c8:	e1a01002 	mov	r1, r2
    94cc:	e1a02003 	mov	r2, r3
    94d0:	eb005018 	bl	1d538 <atan128>
    94d4:	e3a03010 	mov	r3, #16
    94d8:	e50b3448 	str	r3, [fp, #-1096]	; 0x448
    94dc:	ea000159 	b	9a48 <handle_checks+0xb9c>
    94e0:	e3a03000 	mov	r3, #0
    94e4:	e50b3448 	str	r3, [fp, #-1096]	; 0x448
    94e8:	ea000156 	b	9a48 <handle_checks+0xb9c>
    94ec:	e51b2454 	ldr	r2, [fp, #-1108]	; 0x454
    94f0:	e24b1d11 	sub	r1, fp, #1088	; 0x440
    94f4:	e2411004 	sub	r1, r1, #4
    94f8:	e24b3044 	sub	r3, fp, #68	; 0x44
    94fc:	e1a00001 	mov	r0, r1
    9500:	e1a01002 	mov	r1, r2
    9504:	e1a02003 	mov	r2, r3
    9508:	eb0012f0 	bl	e0d0 <fletcher16>
    950c:	e3a03002 	mov	r3, #2
    9510:	e50b3448 	str	r3, [fp, #-1096]	; 0x448
    9514:	ea00014b 	b	9a48 <handle_checks+0xb9c>
    9518:	e51b2454 	ldr	r2, [fp, #-1108]	; 0x454
    951c:	e24b1d11 	sub	r1, fp, #1088	; 0x440
    9520:	e2411004 	sub	r1, r1, #4
    9524:	e24b3044 	sub	r3, fp, #68	; 0x44
    9528:	e1a00001 	mov	r0, r1
    952c:	e1a01002 	mov	r1, r2
    9530:	e1a02003 	mov	r2, r3
    9534:	eb00132e 	bl	e1f4 <fletcher32>
    9538:	e3a03004 	mov	r3, #4
    953c:	e50b3448 	str	r3, [fp, #-1096]	; 0x448
    9540:	ea000140 	b	9a48 <handle_checks+0xb9c>
    9544:	e51b2454 	ldr	r2, [fp, #-1108]	; 0x454
    9548:	e24b1d11 	sub	r1, fp, #1088	; 0x440
    954c:	e2411004 	sub	r1, r1, #4
    9550:	e24b3044 	sub	r3, fp, #68	; 0x44
    9554:	e1a00001 	mov	r0, r1
    9558:	e1a01002 	mov	r1, r2
    955c:	e1a02003 	mov	r2, r3
    9560:	eb001403 	bl	e574 <adler8>
    9564:	e3a03001 	mov	r3, #1
    9568:	e50b3448 	str	r3, [fp, #-1096]	; 0x448
    956c:	ea000135 	b	9a48 <handle_checks+0xb9c>
    9570:	e51b2454 	ldr	r2, [fp, #-1108]	; 0x454
    9574:	e24b1d11 	sub	r1, fp, #1088	; 0x440
    9578:	e2411004 	sub	r1, r1, #4
    957c:	e24b3044 	sub	r3, fp, #68	; 0x44
    9580:	e1a00001 	mov	r0, r1
    9584:	e1a01002 	mov	r1, r2
    9588:	e1a02003 	mov	r2, r3
    958c:	eb0013bb 	bl	e480 <adler16>
    9590:	e3a03002 	mov	r3, #2
    9594:	e50b3448 	str	r3, [fp, #-1096]	; 0x448
    9598:	ea00012a 	b	9a48 <handle_checks+0xb9c>
    959c:	e51b2454 	ldr	r2, [fp, #-1108]	; 0x454
    95a0:	e24b1d11 	sub	r1, fp, #1088	; 0x440
    95a4:	e2411004 	sub	r1, r1, #4
    95a8:	e24b3044 	sub	r3, fp, #68	; 0x44
    95ac:	e1a00001 	mov	r0, r1
    95b0:	e1a01002 	mov	r1, r2
    95b4:	e1a02003 	mov	r2, r3
    95b8:	eb001373 	bl	e38c <adler32>
    95bc:	e3a03004 	mov	r3, #4
    95c0:	e50b3448 	str	r3, [fp, #-1096]	; 0x448
    95c4:	ea00011f 	b	9a48 <handle_checks+0xb9c>
    95c8:	e51b2454 	ldr	r2, [fp, #-1108]	; 0x454
    95cc:	e24b1d11 	sub	r1, fp, #1088	; 0x440
    95d0:	e2411004 	sub	r1, r1, #4
    95d4:	e24b3044 	sub	r3, fp, #68	; 0x44
    95d8:	e1a00001 	mov	r0, r1
    95dc:	e1a01002 	mov	r1, r2
    95e0:	e1a02003 	mov	r2, r3
    95e4:	eb00141a 	bl	e654 <aphash>
    95e8:	e3a03004 	mov	r3, #4
    95ec:	e50b3448 	str	r3, [fp, #-1096]	; 0x448
    95f0:	ea000114 	b	9a48 <handle_checks+0xb9c>
    95f4:	e51b2454 	ldr	r2, [fp, #-1108]	; 0x454
    95f8:	e24b1d11 	sub	r1, fp, #1088	; 0x440
    95fc:	e2411004 	sub	r1, r1, #4
    9600:	e24b3044 	sub	r3, fp, #68	; 0x44
    9604:	e1a00001 	mov	r0, r1
    9608:	e1a01002 	mov	r1, r2
    960c:	e1a02003 	mov	r2, r3
    9610:	eb00144c 	bl	e748 <rshash>
    9614:	e3a03004 	mov	r3, #4
    9618:	e50b3448 	str	r3, [fp, #-1096]	; 0x448
    961c:	ea000109 	b	9a48 <handle_checks+0xb9c>
    9620:	e51b2454 	ldr	r2, [fp, #-1108]	; 0x454
    9624:	e24b1d11 	sub	r1, fp, #1088	; 0x440
    9628:	e2411004 	sub	r1, r1, #4
    962c:	e24b3044 	sub	r3, fp, #68	; 0x44
    9630:	e1a00001 	mov	r0, r1
    9634:	e1a01002 	mov	r1, r2
    9638:	e1a02003 	mov	r2, r3
    963c:	eb001474 	bl	e814 <jshash>
    9640:	e3a03004 	mov	r3, #4
    9644:	e50b3448 	str	r3, [fp, #-1096]	; 0x448
    9648:	ea0000fe 	b	9a48 <handle_checks+0xb9c>
    964c:	e51b2454 	ldr	r2, [fp, #-1108]	; 0x454
    9650:	e24b1d11 	sub	r1, fp, #1088	; 0x440
    9654:	e2411004 	sub	r1, r1, #4
    9658:	e24b3044 	sub	r3, fp, #68	; 0x44
    965c:	e1a00001 	mov	r0, r1
    9660:	e1a01002 	mov	r1, r2
    9664:	e1a02003 	mov	r2, r3
    9668:	eb001497 	bl	e8cc <pjwhash>
    966c:	e3a03004 	mov	r3, #4
    9670:	e50b3448 	str	r3, [fp, #-1096]	; 0x448
    9674:	ea0000f3 	b	9a48 <handle_checks+0xb9c>
    9678:	e51b2454 	ldr	r2, [fp, #-1108]	; 0x454
    967c:	e24b1d11 	sub	r1, fp, #1088	; 0x440
    9680:	e2411004 	sub	r1, r1, #4
    9684:	e24b3044 	sub	r3, fp, #68	; 0x44
    9688:	e1a00001 	mov	r0, r1
    968c:	e1a01002 	mov	r1, r2
    9690:	e1a02003 	mov	r2, r3
    9694:	eb0014d8 	bl	e9fc <elfhash>
    9698:	e3a03004 	mov	r3, #4
    969c:	e50b3448 	str	r3, [fp, #-1096]	; 0x448
    96a0:	ea0000e8 	b	9a48 <handle_checks+0xb9c>
    96a4:	e51b2454 	ldr	r2, [fp, #-1108]	; 0x454
    96a8:	e24b1d11 	sub	r1, fp, #1088	; 0x440
    96ac:	e2411004 	sub	r1, r1, #4
    96b0:	e24b3044 	sub	r3, fp, #68	; 0x44
    96b4:	e1a00001 	mov	r0, r1
    96b8:	e1a01002 	mov	r1, r2
    96bc:	e1a02003 	mov	r2, r3
    96c0:	eb001507 	bl	eae4 <bkdrhash>
    96c4:	e3a03004 	mov	r3, #4
    96c8:	e50b3448 	str	r3, [fp, #-1096]	; 0x448
    96cc:	ea0000dd 	b	9a48 <handle_checks+0xb9c>
    96d0:	e51b2454 	ldr	r2, [fp, #-1108]	; 0x454
    96d4:	e24b1d11 	sub	r1, fp, #1088	; 0x440
    96d8:	e2411004 	sub	r1, r1, #4
    96dc:	e24b3044 	sub	r3, fp, #68	; 0x44
    96e0:	e1a00001 	mov	r0, r1
    96e4:	e1a01002 	mov	r1, r2
    96e8:	e1a02003 	mov	r2, r3
    96ec:	eb001527 	bl	eb90 <sdbmhash>
    96f0:	e3a03004 	mov	r3, #4
    96f4:	e50b3448 	str	r3, [fp, #-1096]	; 0x448
    96f8:	ea0000d2 	b	9a48 <handle_checks+0xb9c>
    96fc:	e51b2454 	ldr	r2, [fp, #-1108]	; 0x454
    9700:	e24b1d11 	sub	r1, fp, #1088	; 0x440
    9704:	e2411004 	sub	r1, r1, #4
    9708:	e24b3044 	sub	r3, fp, #68	; 0x44
    970c:	e1a00001 	mov	r0, r1
    9710:	e1a01002 	mov	r1, r2
    9714:	e1a02003 	mov	r2, r3
    9718:	eb00154a 	bl	ec48 <djbhash>
    971c:	e3a03004 	mov	r3, #4
    9720:	e50b3448 	str	r3, [fp, #-1096]	; 0x448
    9724:	ea0000c7 	b	9a48 <handle_checks+0xb9c>
    9728:	e51b2454 	ldr	r2, [fp, #-1108]	; 0x454
    972c:	e24b1d11 	sub	r1, fp, #1088	; 0x440
    9730:	e2411004 	sub	r1, r1, #4
    9734:	e24b3044 	sub	r3, fp, #68	; 0x44
    9738:	e1a00001 	mov	r0, r1
    973c:	e1a01002 	mov	r1, r2
    9740:	e1a02003 	mov	r2, r3
    9744:	eb00156a 	bl	ecf4 <dekhash>
    9748:	e3a03004 	mov	r3, #4
    974c:	e50b3448 	str	r3, [fp, #-1096]	; 0x448
    9750:	ea0000bc 	b	9a48 <handle_checks+0xb9c>
    9754:	e51b2454 	ldr	r2, [fp, #-1108]	; 0x454
    9758:	e24b1d11 	sub	r1, fp, #1088	; 0x440
    975c:	e2411004 	sub	r1, r1, #4
    9760:	e24b3044 	sub	r3, fp, #68	; 0x44
    9764:	e1a00001 	mov	r0, r1
    9768:	e1a01002 	mov	r1, r2
    976c:	e1a02003 	mov	r2, r3
    9770:	eb001587 	bl	ed94 <bphash>
    9774:	e3a03004 	mov	r3, #4
    9778:	e50b3448 	str	r3, [fp, #-1096]	; 0x448
    977c:	ea0000b1 	b	9a48 <handle_checks+0xb9c>
    9780:	e51b2454 	ldr	r2, [fp, #-1108]	; 0x454
    9784:	e24b1d11 	sub	r1, fp, #1088	; 0x440
    9788:	e2411004 	sub	r1, r1, #4
    978c:	e24b3044 	sub	r3, fp, #68	; 0x44
    9790:	e1a00001 	mov	r0, r1
    9794:	e1a01002 	mov	r1, r2
    9798:	e1a02003 	mov	r2, r3
    979c:	eb0015a4 	bl	ee34 <fnvhash>
    97a0:	e3a03004 	mov	r3, #4
    97a4:	e50b3448 	str	r3, [fp, #-1096]	; 0x448
    97a8:	ea0000a6 	b	9a48 <handle_checks+0xb9c>
    97ac:	e51b2454 	ldr	r2, [fp, #-1108]	; 0x454
    97b0:	e24b1d11 	sub	r1, fp, #1088	; 0x440
    97b4:	e2411004 	sub	r1, r1, #4
    97b8:	e24b3044 	sub	r3, fp, #68	; 0x44
    97bc:	e1a00001 	mov	r0, r1
    97c0:	e1a01002 	mov	r1, r2
    97c4:	e1a02003 	mov	r2, r3
    97c8:	eb0015c8 	bl	eef0 <xor8>
    97cc:	e3a03001 	mov	r3, #1
    97d0:	e50b3448 	str	r3, [fp, #-1096]	; 0x448
    97d4:	ea00009b 	b	9a48 <handle_checks+0xb9c>
    97d8:	e51b2454 	ldr	r2, [fp, #-1108]	; 0x454
    97dc:	e24b1d11 	sub	r1, fp, #1088	; 0x440
    97e0:	e2411004 	sub	r1, r1, #4
    97e4:	e24b3044 	sub	r3, fp, #68	; 0x44
    97e8:	e1a00001 	mov	r0, r1
    97ec:	e1a01002 	mov	r1, r2
    97f0:	e1a02003 	mov	r2, r3
    97f4:	eb0015de 	bl	ef74 <xor16>
    97f8:	e3a03002 	mov	r3, #2
    97fc:	e50b3448 	str	r3, [fp, #-1096]	; 0x448
    9800:	ea000090 	b	9a48 <handle_checks+0xb9c>
    9804:	e51b2454 	ldr	r2, [fp, #-1108]	; 0x454
    9808:	e24b1d11 	sub	r1, fp, #1088	; 0x440
    980c:	e2411004 	sub	r1, r1, #4
    9810:	e24b3044 	sub	r3, fp, #68	; 0x44
    9814:	e1a00001 	mov	r0, r1
    9818:	e1a01002 	mov	r1, r2
    981c:	e1a02003 	mov	r2, r3
    9820:	eb0015f9 	bl	f00c <xor32>
    9824:	e3a03004 	mov	r3, #4
    9828:	e50b3448 	str	r3, [fp, #-1096]	; 0x448
    982c:	ea000085 	b	9a48 <handle_checks+0xb9c>
    9830:	e51b2454 	ldr	r2, [fp, #-1108]	; 0x454
    9834:	e24b1d11 	sub	r1, fp, #1088	; 0x440
    9838:	e2411004 	sub	r1, r1, #4
    983c:	e24b3044 	sub	r3, fp, #68	; 0x44
    9840:	e1a00001 	mov	r0, r1
    9844:	e1a01002 	mov	r1, r2
    9848:	e1a02003 	mov	r2, r3
    984c:	eb0021aa 	bl	11efc <sha1>
    9850:	e3a03014 	mov	r3, #20
    9854:	e50b3448 	str	r3, [fp, #-1096]	; 0x448
    9858:	ea00007a 	b	9a48 <handle_checks+0xb9c>
    985c:	e51b2454 	ldr	r2, [fp, #-1108]	; 0x454
    9860:	e24b1d11 	sub	r1, fp, #1088	; 0x440
    9864:	e2411004 	sub	r1, r1, #4
    9868:	e24b3044 	sub	r3, fp, #68	; 0x44
    986c:	e1a00001 	mov	r0, r1
    9870:	e1a01002 	mov	r1, r2
    9874:	e1a02003 	mov	r2, r3
    9878:	eb003616 	bl	170d8 <sha224>
    987c:	e3a03020 	mov	r3, #32
    9880:	e50b3448 	str	r3, [fp, #-1096]	; 0x448
    9884:	ea00006f 	b	9a48 <handle_checks+0xb9c>
    9888:	e51b2454 	ldr	r2, [fp, #-1108]	; 0x454
    988c:	e24b1d11 	sub	r1, fp, #1088	; 0x440
    9890:	e2411004 	sub	r1, r1, #4
    9894:	e24b3044 	sub	r3, fp, #68	; 0x44
    9898:	e1a00001 	mov	r0, r1
    989c:	e1a01002 	mov	r1, r2
    98a0:	e1a02003 	mov	r2, r3
    98a4:	eb003618 	bl	1710c <sha256>
    98a8:	e3a03020 	mov	r3, #32
    98ac:	e50b3448 	str	r3, [fp, #-1096]	; 0x448
    98b0:	ea000064 	b	9a48 <handle_checks+0xb9c>
    98b4:	e51b2454 	ldr	r2, [fp, #-1108]	; 0x454
    98b8:	e24b1d11 	sub	r1, fp, #1088	; 0x440
    98bc:	e2411004 	sub	r1, r1, #4
    98c0:	e24b3044 	sub	r3, fp, #68	; 0x44
    98c4:	e1a00001 	mov	r0, r1
    98c8:	e1a01002 	mov	r1, r2
    98cc:	e1a02003 	mov	r2, r3
    98d0:	eb00411c 	bl	19d48 <sha384>
    98d4:	e3a03040 	mov	r3, #64	; 0x40
    98d8:	e50b3448 	str	r3, [fp, #-1096]	; 0x448
    98dc:	ea000059 	b	9a48 <handle_checks+0xb9c>
    98e0:	e51b2454 	ldr	r2, [fp, #-1108]	; 0x454
    98e4:	e24b1d11 	sub	r1, fp, #1088	; 0x440
    98e8:	e2411004 	sub	r1, r1, #4
    98ec:	e24b3044 	sub	r3, fp, #68	; 0x44
    98f0:	e1a00001 	mov	r0, r1
    98f4:	e1a01002 	mov	r1, r2
    98f8:	e1a02003 	mov	r2, r3
    98fc:	eb00411e 	bl	19d7c <sha512>
    9900:	e3a03040 	mov	r3, #64	; 0x40
    9904:	e50b3448 	str	r3, [fp, #-1096]	; 0x448
    9908:	ea00004e 	b	9a48 <handle_checks+0xb9c>
    990c:	e51b2454 	ldr	r2, [fp, #-1108]	; 0x454
    9910:	e24b1d11 	sub	r1, fp, #1088	; 0x440
    9914:	e2411004 	sub	r1, r1, #4
    9918:	e24b3044 	sub	r3, fp, #68	; 0x44
    991c:	e1a00001 	mov	r0, r1
    9920:	e1a01002 	mov	r1, r2
    9924:	e1a02003 	mov	r2, r3
    9928:	eb00454e 	bl	1ae68 <murmurhash2>
    992c:	e3a03004 	mov	r3, #4
    9930:	e50b3448 	str	r3, [fp, #-1096]	; 0x448
    9934:	ea000043 	b	9a48 <handle_checks+0xb9c>
    9938:	e51b2454 	ldr	r2, [fp, #-1108]	; 0x454
    993c:	e24b1d11 	sub	r1, fp, #1088	; 0x440
    9940:	e2411004 	sub	r1, r1, #4
    9944:	e24b3044 	sub	r3, fp, #68	; 0x44
    9948:	e1a00001 	mov	r0, r1
    994c:	e1a01002 	mov	r1, r2
    9950:	e1a02003 	mov	r2, r3
    9954:	eb004665 	bl	1b2f0 <murmurhash3_x86_32>
    9958:	e3a03004 	mov	r3, #4
    995c:	e50b3448 	str	r3, [fp, #-1096]	; 0x448
    9960:	ea000038 	b	9a48 <handle_checks+0xb9c>
    9964:	e51b2454 	ldr	r2, [fp, #-1108]	; 0x454
    9968:	e24b1d11 	sub	r1, fp, #1088	; 0x440
    996c:	e2411004 	sub	r1, r1, #4
    9970:	e24b3044 	sub	r3, fp, #68	; 0x44
    9974:	e1a00001 	mov	r0, r1
    9978:	e1a01002 	mov	r1, r2
    997c:	e1a02003 	mov	r2, r3
    9980:	eb004708 	bl	1b5a8 <murmurhash3_x86_128>
    9984:	e3a03004 	mov	r3, #4
    9988:	e50b3448 	str	r3, [fp, #-1096]	; 0x448
    998c:	ea00002d 	b	9a48 <handle_checks+0xb9c>
    9990:	e51b2454 	ldr	r2, [fp, #-1108]	; 0x454
    9994:	e24b1d11 	sub	r1, fp, #1088	; 0x440
    9998:	e2411004 	sub	r1, r1, #4
    999c:	e24b3044 	sub	r3, fp, #68	; 0x44
    99a0:	e1a00001 	mov	r0, r1
    99a4:	e1a01002 	mov	r1, r2
    99a8:	e1a02003 	mov	r2, r3
    99ac:	eb004984 	bl	1bfc4 <murmurhash3_x64_128>
    99b0:	e3a03010 	mov	r3, #16
    99b4:	e50b3448 	str	r3, [fp, #-1096]	; 0x448
    99b8:	ea000022 	b	9a48 <handle_checks+0xb9c>
    99bc:	e51b2454 	ldr	r2, [fp, #-1108]	; 0x454
    99c0:	e24b1d11 	sub	r1, fp, #1088	; 0x440
    99c4:	e2411004 	sub	r1, r1, #4
    99c8:	e24b3044 	sub	r3, fp, #68	; 0x44
    99cc:	e1a00001 	mov	r0, r1
    99d0:	e1a01002 	mov	r1, r2
    99d4:	e1a02003 	mov	r2, r3
    99d8:	eb004495 	bl	1ac34 <ed2k>
    99dc:	e3a03010 	mov	r3, #16
    99e0:	e50b3448 	str	r3, [fp, #-1096]	; 0x448
    99e4:	ea000017 	b	9a48 <handle_checks+0xb9c>
    99e8:	e3a03000 	mov	r3, #0
    99ec:	e50b3448 	str	r3, [fp, #-1096]	; 0x448
    99f0:	ea000014 	b	9a48 <handle_checks+0xb9c>
    99f4:	e3a03000 	mov	r3, #0
    99f8:	e50b3448 	str	r3, [fp, #-1096]	; 0x448
    99fc:	ea000011 	b	9a48 <handle_checks+0xb9c>
    9a00:	e3a03000 	mov	r3, #0
    9a04:	e50b3448 	str	r3, [fp, #-1096]	; 0x448
    9a08:	ea00000e 	b	9a48 <handle_checks+0xb9c>
    9a0c:	e3a03000 	mov	r3, #0
    9a10:	e50b3448 	str	r3, [fp, #-1096]	; 0x448
    9a14:	ea00000b 	b	9a48 <handle_checks+0xb9c>
    9a18:	e3a03000 	mov	r3, #0
    9a1c:	e50b3448 	str	r3, [fp, #-1096]	; 0x448
    9a20:	ea000008 	b	9a48 <handle_checks+0xb9c>
    9a24:	e3a03000 	mov	r3, #0
    9a28:	e50b3448 	str	r3, [fp, #-1096]	; 0x448
    9a2c:	ea000005 	b	9a48 <handle_checks+0xb9c>
    9a30:	e3a03000 	mov	r3, #0
    9a34:	e50b3448 	str	r3, [fp, #-1096]	; 0x448
    9a38:	ea000002 	b	9a48 <handle_checks+0xb9c>
    9a3c:	e3a03000 	mov	r3, #0
    9a40:	e50b3448 	str	r3, [fp, #-1096]	; 0x448
    9a44:	e1a00000 	nop			; (mov r0, r0)
    9a48:	e51b3448 	ldr	r3, [fp, #-1096]	; 0x448
    9a4c:	e24b2044 	sub	r2, fp, #68	; 0x44
    9a50:	e51b0450 	ldr	r0, [fp, #-1104]	; 0x450
    9a54:	e1a01002 	mov	r1, r2
    9a58:	e1a02003 	mov	r2, r3
    9a5c:	eb004fe6 	bl	1d9fc <send_data>
    9a60:	e51b0450 	ldr	r0, [fp, #-1104]	; 0x450
    9a64:	e59f1050 	ldr	r1, [pc, #80]	; 9abc <handle_checks+0xc10>
    9a68:	eb004fcb 	bl	1d99c <send_string>
    9a6c:	e24b3d11 	sub	r3, fp, #1088	; 0x440
    9a70:	e2433004 	sub	r3, r3, #4
    9a74:	e2433004 	sub	r3, r3, #4
    9a78:	e51b0450 	ldr	r0, [fp, #-1104]	; 0x450
    9a7c:	e1a01003 	mov	r1, r3
    9a80:	e3a02001 	mov	r2, #1
    9a84:	eb00505e 	bl	1dc04 <recvdata>
    9a88:	e51b3448 	ldr	r3, [fp, #-1096]	; 0x448
    9a8c:	e3530079 	cmp	r3, #121	; 0x79
    9a90:	0a000002 	beq	9aa0 <handle_checks+0xbf4>
    9a94:	e51b3448 	ldr	r3, [fp, #-1096]	; 0x448
    9a98:	e3530059 	cmp	r3, #89	; 0x59
    9a9c:	1a000001 	bne	9aa8 <handle_checks+0xbfc>
    9aa0:	e3a03001 	mov	r3, #1
    9aa4:	ea000000 	b	9aac <handle_checks+0xc00>
    9aa8:	e3a03000 	mov	r3, #0
    9aac:	e1a00003 	mov	r0, r3
    9ab0:	e24bd004 	sub	sp, fp, #4
    9ab4:	e8bd8800 	pop	{fp, pc}
    9ab8:	0001e404 	.word	0x0001e404
    9abc:	0001e410 	.word	0x0001e410

00009ac0 <send_greetz>:
    9ac0:	e92d4800 	push	{fp, lr}
    9ac4:	e28db004 	add	fp, sp, #4
    9ac8:	e24dd010 	sub	sp, sp, #16
    9acc:	e50b0010 	str	r0, [fp, #-16]
    9ad0:	e3a03000 	mov	r3, #0
    9ad4:	e50b300c 	str	r3, [fp, #-12]
    9ad8:	e3a03000 	mov	r3, #0
    9adc:	e50b3008 	str	r3, [fp, #-8]
    9ae0:	e51b0010 	ldr	r0, [fp, #-16]
    9ae4:	e59f1098 	ldr	r1, [pc, #152]	; 9b84 <send_greetz+0xc4>
    9ae8:	eb004fab 	bl	1d99c <send_string>
    9aec:	e1a03000 	mov	r3, r0
    9af0:	e3730001 	cmn	r3, #1
    9af4:	1a000001 	bne	9b00 <send_greetz+0x40>
    9af8:	e3e03000 	mvn	r3, #0
    9afc:	e50b3008 	str	r3, [fp, #-8]
    9b00:	e51b0010 	ldr	r0, [fp, #-16]
    9b04:	e59f107c 	ldr	r1, [pc, #124]	; 9b88 <send_greetz+0xc8>
    9b08:	eb004fa3 	bl	1d99c <send_string>
    9b0c:	e1a03000 	mov	r3, r0
    9b10:	e3730001 	cmn	r3, #1
    9b14:	1a000001 	bne	9b20 <send_greetz+0x60>
    9b18:	e3e03000 	mvn	r3, #0
    9b1c:	e50b3008 	str	r3, [fp, #-8]
    9b20:	e24b300c 	sub	r3, fp, #12
    9b24:	e51b0010 	ldr	r0, [fp, #-16]
    9b28:	e1a01003 	mov	r1, r3
    9b2c:	e3a02001 	mov	r2, #1
    9b30:	eb005033 	bl	1dc04 <recvdata>
    9b34:	e1a03000 	mov	r3, r0
    9b38:	e3730001 	cmn	r3, #1
    9b3c:	1a000001 	bne	9b48 <send_greetz+0x88>
    9b40:	e3e03000 	mvn	r3, #0
    9b44:	e50b3008 	str	r3, [fp, #-8]
    9b48:	e51b300c 	ldr	r3, [fp, #-12]
    9b4c:	e3530079 	cmp	r3, #121	; 0x79
    9b50:	0a000002 	beq	9b60 <send_greetz+0xa0>
    9b54:	e51b300c 	ldr	r3, [fp, #-12]
    9b58:	e3530059 	cmp	r3, #89	; 0x59
    9b5c:	1a000002 	bne	9b6c <send_greetz+0xac>
    9b60:	e3a03000 	mov	r3, #0
    9b64:	e50b3008 	str	r3, [fp, #-8]
    9b68:	ea000001 	b	9b74 <send_greetz+0xb4>
    9b6c:	e3e03000 	mvn	r3, #0
    9b70:	e50b3008 	str	r3, [fp, #-8]
    9b74:	e51b3008 	ldr	r3, [fp, #-8]
    9b78:	e1a00003 	mov	r0, r3
    9b7c:	e24bd004 	sub	sp, fp, #4
    9b80:	e8bd8800 	pop	{fp, pc}
    9b84:	0001e438 	.word	0x0001e438
    9b88:	0001e450 	.word	0x0001e450

00009b8c <get_meta>:
    9b8c:	e92d4800 	push	{fp, lr}
    9b90:	e28db004 	add	fp, sp, #4
    9b94:	e24dd020 	sub	sp, sp, #32
    9b98:	e50b0018 	str	r0, [fp, #-24]
    9b9c:	e50b101c 	str	r1, [fp, #-28]
    9ba0:	e50b2020 	str	r2, [fp, #-32]
    9ba4:	e51b301c 	ldr	r3, [fp, #-28]
    9ba8:	e3530000 	cmp	r3, #0
    9bac:	1a000001 	bne	9bb8 <get_meta+0x2c>
    9bb0:	e3a03000 	mov	r3, #0
    9bb4:	ea00016d 	b	a170 <get_meta+0x5e4>
    9bb8:	e51b3020 	ldr	r3, [fp, #-32]
    9bbc:	e3530000 	cmp	r3, #0
    9bc0:	1a000001 	bne	9bcc <get_meta+0x40>
    9bc4:	e3a03000 	mov	r3, #0
    9bc8:	ea000168 	b	a170 <get_meta+0x5e4>
    9bcc:	e24b300c 	sub	r3, fp, #12
    9bd0:	e51b0018 	ldr	r0, [fp, #-24]
    9bd4:	e1a01003 	mov	r1, r3
    9bd8:	e3a02001 	mov	r2, #1
    9bdc:	eb005008 	bl	1dc04 <recvdata>
    9be0:	e1a03000 	mov	r3, r0
    9be4:	e3730001 	cmn	r3, #1
    9be8:	1a000001 	bne	9bf4 <get_meta+0x68>
    9bec:	e3a03000 	mov	r3, #0
    9bf0:	ea00015e 	b	a170 <get_meta+0x5e4>
    9bf4:	e51b200c 	ldr	r2, [fp, #-12]
    9bf8:	e51b301c 	ldr	r3, [fp, #-28]
    9bfc:	e5832000 	str	r2, [r3]
    9c00:	e51b300c 	ldr	r3, [fp, #-12]
    9c04:	e203303f 	and	r3, r3, #63	; 0x3f
    9c08:	e353003f 	cmp	r3, #63	; 0x3f
    9c0c:	979ff103 	ldrls	pc, [pc, r3, lsl #2]
    9c10:	ea00013f 	b	a114 <get_meta+0x588>
    9c14:	00009d14 	.word	0x00009d14
    9c18:	00009d24 	.word	0x00009d24
    9c1c:	00009d34 	.word	0x00009d34
    9c20:	00009d44 	.word	0x00009d44
    9c24:	00009d54 	.word	0x00009d54
    9c28:	00009d64 	.word	0x00009d64
    9c2c:	00009d74 	.word	0x00009d74
    9c30:	00009d84 	.word	0x00009d84
    9c34:	00009d94 	.word	0x00009d94
    9c38:	00009da4 	.word	0x00009da4
    9c3c:	00009db4 	.word	0x00009db4
    9c40:	00009dc4 	.word	0x00009dc4
    9c44:	00009dd4 	.word	0x00009dd4
    9c48:	00009de4 	.word	0x00009de4
    9c4c:	00009df4 	.word	0x00009df4
    9c50:	00009e04 	.word	0x00009e04
    9c54:	00009e14 	.word	0x00009e14
    9c58:	00009e24 	.word	0x00009e24
    9c5c:	00009e34 	.word	0x00009e34
    9c60:	00009e44 	.word	0x00009e44
    9c64:	00009e54 	.word	0x00009e54
    9c68:	00009e64 	.word	0x00009e64
    9c6c:	00009e74 	.word	0x00009e74
    9c70:	00009e84 	.word	0x00009e84
    9c74:	00009e94 	.word	0x00009e94
    9c78:	00009ea4 	.word	0x00009ea4
    9c7c:	00009eb4 	.word	0x00009eb4
    9c80:	00009ec4 	.word	0x00009ec4
    9c84:	00009ed4 	.word	0x00009ed4
    9c88:	00009ee4 	.word	0x00009ee4
    9c8c:	00009ef4 	.word	0x00009ef4
    9c90:	00009f04 	.word	0x00009f04
    9c94:	00009f14 	.word	0x00009f14
    9c98:	00009f24 	.word	0x00009f24
    9c9c:	00009f34 	.word	0x00009f34
    9ca0:	00009f44 	.word	0x00009f44
    9ca4:	00009f54 	.word	0x00009f54
    9ca8:	00009f64 	.word	0x00009f64
    9cac:	00009f74 	.word	0x00009f74
    9cb0:	00009f84 	.word	0x00009f84
    9cb4:	00009f94 	.word	0x00009f94
    9cb8:	00009fa4 	.word	0x00009fa4
    9cbc:	00009fb4 	.word	0x00009fb4
    9cc0:	00009fc4 	.word	0x00009fc4
    9cc4:	00009fd4 	.word	0x00009fd4
    9cc8:	00009fe4 	.word	0x00009fe4
    9ccc:	00009ff4 	.word	0x00009ff4
    9cd0:	0000a004 	.word	0x0000a004
    9cd4:	0000a014 	.word	0x0000a014
    9cd8:	0000a024 	.word	0x0000a024
    9cdc:	0000a034 	.word	0x0000a034
    9ce0:	0000a044 	.word	0x0000a044
    9ce4:	0000a054 	.word	0x0000a054
    9ce8:	0000a064 	.word	0x0000a064
    9cec:	0000a074 	.word	0x0000a074
    9cf0:	0000a084 	.word	0x0000a084
    9cf4:	0000a094 	.word	0x0000a094
    9cf8:	0000a0a4 	.word	0x0000a0a4
    9cfc:	0000a0b4 	.word	0x0000a0b4
    9d00:	0000a0c4 	.word	0x0000a0c4
    9d04:	0000a0d4 	.word	0x0000a0d4
    9d08:	0000a0e4 	.word	0x0000a0e4
    9d0c:	0000a0f4 	.word	0x0000a0f4
    9d10:	0000a104 	.word	0x0000a104
    9d14:	e59f3460 	ldr	r3, [pc, #1120]	; a17c <get_meta+0x5f0>
    9d18:	e5933000 	ldr	r3, [r3]
    9d1c:	e50b3010 	str	r3, [fp, #-16]
    9d20:	ea0000fb 	b	a114 <get_meta+0x588>
    9d24:	e59f3454 	ldr	r3, [pc, #1108]	; a180 <get_meta+0x5f4>
    9d28:	e5933000 	ldr	r3, [r3]
    9d2c:	e50b3010 	str	r3, [fp, #-16]
    9d30:	ea0000f7 	b	a114 <get_meta+0x588>
    9d34:	e59f3448 	ldr	r3, [pc, #1096]	; a184 <get_meta+0x5f8>
    9d38:	e5933000 	ldr	r3, [r3]
    9d3c:	e50b3010 	str	r3, [fp, #-16]
    9d40:	ea0000f3 	b	a114 <get_meta+0x588>
    9d44:	e59f343c 	ldr	r3, [pc, #1084]	; a188 <get_meta+0x5fc>
    9d48:	e5933000 	ldr	r3, [r3]
    9d4c:	e50b3010 	str	r3, [fp, #-16]
    9d50:	ea0000ef 	b	a114 <get_meta+0x588>
    9d54:	e59f3430 	ldr	r3, [pc, #1072]	; a18c <get_meta+0x600>
    9d58:	e5933000 	ldr	r3, [r3]
    9d5c:	e50b3010 	str	r3, [fp, #-16]
    9d60:	ea0000eb 	b	a114 <get_meta+0x588>
    9d64:	e59f3424 	ldr	r3, [pc, #1060]	; a190 <get_meta+0x604>
    9d68:	e5933000 	ldr	r3, [r3]
    9d6c:	e50b3010 	str	r3, [fp, #-16]
    9d70:	ea0000e7 	b	a114 <get_meta+0x588>
    9d74:	e59f3418 	ldr	r3, [pc, #1048]	; a194 <get_meta+0x608>
    9d78:	e5933000 	ldr	r3, [r3]
    9d7c:	e50b3010 	str	r3, [fp, #-16]
    9d80:	ea0000e3 	b	a114 <get_meta+0x588>
    9d84:	e59f340c 	ldr	r3, [pc, #1036]	; a198 <get_meta+0x60c>
    9d88:	e5933000 	ldr	r3, [r3]
    9d8c:	e50b3010 	str	r3, [fp, #-16]
    9d90:	ea0000df 	b	a114 <get_meta+0x588>
    9d94:	e59f3400 	ldr	r3, [pc, #1024]	; a19c <get_meta+0x610>
    9d98:	e5933000 	ldr	r3, [r3]
    9d9c:	e50b3010 	str	r3, [fp, #-16]
    9da0:	ea0000db 	b	a114 <get_meta+0x588>
    9da4:	e59f33f4 	ldr	r3, [pc, #1012]	; a1a0 <get_meta+0x614>
    9da8:	e5933000 	ldr	r3, [r3]
    9dac:	e50b3010 	str	r3, [fp, #-16]
    9db0:	ea0000d7 	b	a114 <get_meta+0x588>
    9db4:	e59f33e8 	ldr	r3, [pc, #1000]	; a1a4 <get_meta+0x618>
    9db8:	e5933000 	ldr	r3, [r3]
    9dbc:	e50b3010 	str	r3, [fp, #-16]
    9dc0:	ea0000d3 	b	a114 <get_meta+0x588>
    9dc4:	e59f33dc 	ldr	r3, [pc, #988]	; a1a8 <get_meta+0x61c>
    9dc8:	e5933000 	ldr	r3, [r3]
    9dcc:	e50b3010 	str	r3, [fp, #-16]
    9dd0:	ea0000cf 	b	a114 <get_meta+0x588>
    9dd4:	e59f33d0 	ldr	r3, [pc, #976]	; a1ac <get_meta+0x620>
    9dd8:	e5933000 	ldr	r3, [r3]
    9ddc:	e50b3010 	str	r3, [fp, #-16]
    9de0:	ea0000cb 	b	a114 <get_meta+0x588>
    9de4:	e59f33c4 	ldr	r3, [pc, #964]	; a1b0 <get_meta+0x624>
    9de8:	e5933000 	ldr	r3, [r3]
    9dec:	e50b3010 	str	r3, [fp, #-16]
    9df0:	ea0000c7 	b	a114 <get_meta+0x588>
    9df4:	e59f33b8 	ldr	r3, [pc, #952]	; a1b4 <get_meta+0x628>
    9df8:	e5933000 	ldr	r3, [r3]
    9dfc:	e50b3010 	str	r3, [fp, #-16]
    9e00:	ea0000c3 	b	a114 <get_meta+0x588>
    9e04:	e59f33ac 	ldr	r3, [pc, #940]	; a1b8 <get_meta+0x62c>
    9e08:	e5933000 	ldr	r3, [r3]
    9e0c:	e50b3010 	str	r3, [fp, #-16]
    9e10:	ea0000bf 	b	a114 <get_meta+0x588>
    9e14:	e59f33a0 	ldr	r3, [pc, #928]	; a1bc <get_meta+0x630>
    9e18:	e5933000 	ldr	r3, [r3]
    9e1c:	e50b3010 	str	r3, [fp, #-16]
    9e20:	ea0000bb 	b	a114 <get_meta+0x588>
    9e24:	e59f3394 	ldr	r3, [pc, #916]	; a1c0 <get_meta+0x634>
    9e28:	e5933000 	ldr	r3, [r3]
    9e2c:	e50b3010 	str	r3, [fp, #-16]
    9e30:	ea0000b7 	b	a114 <get_meta+0x588>
    9e34:	e59f3388 	ldr	r3, [pc, #904]	; a1c4 <get_meta+0x638>
    9e38:	e5933000 	ldr	r3, [r3]
    9e3c:	e50b3010 	str	r3, [fp, #-16]
    9e40:	ea0000b3 	b	a114 <get_meta+0x588>
    9e44:	e59f337c 	ldr	r3, [pc, #892]	; a1c8 <get_meta+0x63c>
    9e48:	e5933000 	ldr	r3, [r3]
    9e4c:	e50b3010 	str	r3, [fp, #-16]
    9e50:	ea0000af 	b	a114 <get_meta+0x588>
    9e54:	e59f3370 	ldr	r3, [pc, #880]	; a1cc <get_meta+0x640>
    9e58:	e5933000 	ldr	r3, [r3]
    9e5c:	e50b3010 	str	r3, [fp, #-16]
    9e60:	ea0000ab 	b	a114 <get_meta+0x588>
    9e64:	e59f3364 	ldr	r3, [pc, #868]	; a1d0 <get_meta+0x644>
    9e68:	e5933000 	ldr	r3, [r3]
    9e6c:	e50b3010 	str	r3, [fp, #-16]
    9e70:	ea0000a7 	b	a114 <get_meta+0x588>
    9e74:	e59f3358 	ldr	r3, [pc, #856]	; a1d4 <get_meta+0x648>
    9e78:	e5933000 	ldr	r3, [r3]
    9e7c:	e50b3010 	str	r3, [fp, #-16]
    9e80:	ea0000a3 	b	a114 <get_meta+0x588>
    9e84:	e59f334c 	ldr	r3, [pc, #844]	; a1d8 <get_meta+0x64c>
    9e88:	e5933000 	ldr	r3, [r3]
    9e8c:	e50b3010 	str	r3, [fp, #-16]
    9e90:	ea00009f 	b	a114 <get_meta+0x588>
    9e94:	e59f3340 	ldr	r3, [pc, #832]	; a1dc <get_meta+0x650>
    9e98:	e5933000 	ldr	r3, [r3]
    9e9c:	e50b3010 	str	r3, [fp, #-16]
    9ea0:	ea00009b 	b	a114 <get_meta+0x588>
    9ea4:	e59f3334 	ldr	r3, [pc, #820]	; a1e0 <get_meta+0x654>
    9ea8:	e5933000 	ldr	r3, [r3]
    9eac:	e50b3010 	str	r3, [fp, #-16]
    9eb0:	ea000097 	b	a114 <get_meta+0x588>
    9eb4:	e59f3328 	ldr	r3, [pc, #808]	; a1e4 <get_meta+0x658>
    9eb8:	e5933000 	ldr	r3, [r3]
    9ebc:	e50b3010 	str	r3, [fp, #-16]
    9ec0:	ea0000a2 	b	a150 <get_meta+0x5c4>
    9ec4:	e59f331c 	ldr	r3, [pc, #796]	; a1e8 <get_meta+0x65c>
    9ec8:	e5933000 	ldr	r3, [r3]
    9ecc:	e50b3010 	str	r3, [fp, #-16]
    9ed0:	ea00008f 	b	a114 <get_meta+0x588>
    9ed4:	e59f3310 	ldr	r3, [pc, #784]	; a1ec <get_meta+0x660>
    9ed8:	e5933000 	ldr	r3, [r3]
    9edc:	e50b3010 	str	r3, [fp, #-16]
    9ee0:	ea00008b 	b	a114 <get_meta+0x588>
    9ee4:	e59f3304 	ldr	r3, [pc, #772]	; a1f0 <get_meta+0x664>
    9ee8:	e5933000 	ldr	r3, [r3]
    9eec:	e50b3010 	str	r3, [fp, #-16]
    9ef0:	ea000087 	b	a114 <get_meta+0x588>
    9ef4:	e59f32f8 	ldr	r3, [pc, #760]	; a1f4 <get_meta+0x668>
    9ef8:	e5933000 	ldr	r3, [r3]
    9efc:	e50b3010 	str	r3, [fp, #-16]
    9f00:	ea000083 	b	a114 <get_meta+0x588>
    9f04:	e59f32ec 	ldr	r3, [pc, #748]	; a1f8 <get_meta+0x66c>
    9f08:	e5933000 	ldr	r3, [r3]
    9f0c:	e50b3010 	str	r3, [fp, #-16]
    9f10:	ea00007f 	b	a114 <get_meta+0x588>
    9f14:	e59f32e0 	ldr	r3, [pc, #736]	; a1fc <get_meta+0x670>
    9f18:	e5933000 	ldr	r3, [r3]
    9f1c:	e50b3010 	str	r3, [fp, #-16]
    9f20:	ea00007b 	b	a114 <get_meta+0x588>
    9f24:	e59f32d4 	ldr	r3, [pc, #724]	; a200 <get_meta+0x674>
    9f28:	e5933000 	ldr	r3, [r3]
    9f2c:	e50b3010 	str	r3, [fp, #-16]
    9f30:	ea000077 	b	a114 <get_meta+0x588>
    9f34:	e59f32c8 	ldr	r3, [pc, #712]	; a204 <get_meta+0x678>
    9f38:	e5933000 	ldr	r3, [r3]
    9f3c:	e50b3010 	str	r3, [fp, #-16]
    9f40:	ea000073 	b	a114 <get_meta+0x588>
    9f44:	e59f32bc 	ldr	r3, [pc, #700]	; a208 <get_meta+0x67c>
    9f48:	e5933000 	ldr	r3, [r3]
    9f4c:	e50b3010 	str	r3, [fp, #-16]
    9f50:	ea00006f 	b	a114 <get_meta+0x588>
    9f54:	e59f32b0 	ldr	r3, [pc, #688]	; a20c <get_meta+0x680>
    9f58:	e5933000 	ldr	r3, [r3]
    9f5c:	e50b3010 	str	r3, [fp, #-16]
    9f60:	ea00006b 	b	a114 <get_meta+0x588>
    9f64:	e59f32a4 	ldr	r3, [pc, #676]	; a210 <get_meta+0x684>
    9f68:	e5933000 	ldr	r3, [r3]
    9f6c:	e50b3010 	str	r3, [fp, #-16]
    9f70:	ea000067 	b	a114 <get_meta+0x588>
    9f74:	e59f3298 	ldr	r3, [pc, #664]	; a214 <get_meta+0x688>
    9f78:	e5933000 	ldr	r3, [r3]
    9f7c:	e50b3010 	str	r3, [fp, #-16]
    9f80:	ea000063 	b	a114 <get_meta+0x588>
    9f84:	e59f328c 	ldr	r3, [pc, #652]	; a218 <get_meta+0x68c>
    9f88:	e5933000 	ldr	r3, [r3]
    9f8c:	e50b3010 	str	r3, [fp, #-16]
    9f90:	ea00005f 	b	a114 <get_meta+0x588>
    9f94:	e59f3280 	ldr	r3, [pc, #640]	; a21c <get_meta+0x690>
    9f98:	e5933000 	ldr	r3, [r3]
    9f9c:	e50b3010 	str	r3, [fp, #-16]
    9fa0:	ea00005b 	b	a114 <get_meta+0x588>
    9fa4:	e59f3274 	ldr	r3, [pc, #628]	; a220 <get_meta+0x694>
    9fa8:	e5933000 	ldr	r3, [r3]
    9fac:	e50b3010 	str	r3, [fp, #-16]
    9fb0:	ea000057 	b	a114 <get_meta+0x588>
    9fb4:	e59f3268 	ldr	r3, [pc, #616]	; a224 <get_meta+0x698>
    9fb8:	e5933000 	ldr	r3, [r3]
    9fbc:	e50b3010 	str	r3, [fp, #-16]
    9fc0:	ea000053 	b	a114 <get_meta+0x588>
    9fc4:	e59f325c 	ldr	r3, [pc, #604]	; a228 <get_meta+0x69c>
    9fc8:	e5933000 	ldr	r3, [r3]
    9fcc:	e50b3010 	str	r3, [fp, #-16]
    9fd0:	ea00004f 	b	a114 <get_meta+0x588>
    9fd4:	e59f3250 	ldr	r3, [pc, #592]	; a22c <get_meta+0x6a0>
    9fd8:	e5933000 	ldr	r3, [r3]
    9fdc:	e50b3010 	str	r3, [fp, #-16]
    9fe0:	ea00004b 	b	a114 <get_meta+0x588>
    9fe4:	e59f3244 	ldr	r3, [pc, #580]	; a230 <get_meta+0x6a4>
    9fe8:	e5933000 	ldr	r3, [r3]
    9fec:	e50b3010 	str	r3, [fp, #-16]
    9ff0:	ea000047 	b	a114 <get_meta+0x588>
    9ff4:	e59f3238 	ldr	r3, [pc, #568]	; a234 <get_meta+0x6a8>
    9ff8:	e5933000 	ldr	r3, [r3]
    9ffc:	e50b3010 	str	r3, [fp, #-16]
    a000:	ea000043 	b	a114 <get_meta+0x588>
    a004:	e59f322c 	ldr	r3, [pc, #556]	; a238 <get_meta+0x6ac>
    a008:	e5933000 	ldr	r3, [r3]
    a00c:	e50b3010 	str	r3, [fp, #-16]
    a010:	ea00003f 	b	a114 <get_meta+0x588>
    a014:	e59f3220 	ldr	r3, [pc, #544]	; a23c <get_meta+0x6b0>
    a018:	e5933000 	ldr	r3, [r3]
    a01c:	e50b3010 	str	r3, [fp, #-16]
    a020:	ea00003b 	b	a114 <get_meta+0x588>
    a024:	e59f3214 	ldr	r3, [pc, #532]	; a240 <get_meta+0x6b4>
    a028:	e5933000 	ldr	r3, [r3]
    a02c:	e50b3010 	str	r3, [fp, #-16]
    a030:	ea000037 	b	a114 <get_meta+0x588>
    a034:	e59f3208 	ldr	r3, [pc, #520]	; a244 <get_meta+0x6b8>
    a038:	e5933000 	ldr	r3, [r3]
    a03c:	e50b3010 	str	r3, [fp, #-16]
    a040:	ea000033 	b	a114 <get_meta+0x588>
    a044:	e59f31fc 	ldr	r3, [pc, #508]	; a248 <get_meta+0x6bc>
    a048:	e5933000 	ldr	r3, [r3]
    a04c:	e50b3010 	str	r3, [fp, #-16]
    a050:	ea00002f 	b	a114 <get_meta+0x588>
    a054:	e59f31f0 	ldr	r3, [pc, #496]	; a24c <get_meta+0x6c0>
    a058:	e5933000 	ldr	r3, [r3]
    a05c:	e50b3010 	str	r3, [fp, #-16]
    a060:	ea00002b 	b	a114 <get_meta+0x588>
    a064:	e59f31e4 	ldr	r3, [pc, #484]	; a250 <get_meta+0x6c4>
    a068:	e5933000 	ldr	r3, [r3]
    a06c:	e50b3010 	str	r3, [fp, #-16]
    a070:	ea000027 	b	a114 <get_meta+0x588>
    a074:	e59f31d8 	ldr	r3, [pc, #472]	; a254 <get_meta+0x6c8>
    a078:	e5933000 	ldr	r3, [r3]
    a07c:	e50b3010 	str	r3, [fp, #-16]
    a080:	ea000023 	b	a114 <get_meta+0x588>
    a084:	e59f31cc 	ldr	r3, [pc, #460]	; a258 <get_meta+0x6cc>
    a088:	e5933000 	ldr	r3, [r3]
    a08c:	e50b3010 	str	r3, [fp, #-16]
    a090:	ea00001f 	b	a114 <get_meta+0x588>
    a094:	e59f31c0 	ldr	r3, [pc, #448]	; a25c <get_meta+0x6d0>
    a098:	e5933000 	ldr	r3, [r3]
    a09c:	e50b3010 	str	r3, [fp, #-16]
    a0a0:	ea00001b 	b	a114 <get_meta+0x588>
    a0a4:	e59f31b0 	ldr	r3, [pc, #432]	; a25c <get_meta+0x6d0>
    a0a8:	e5933000 	ldr	r3, [r3]
    a0ac:	e50b3010 	str	r3, [fp, #-16]
    a0b0:	ea000017 	b	a114 <get_meta+0x588>
    a0b4:	e59f31a0 	ldr	r3, [pc, #416]	; a25c <get_meta+0x6d0>
    a0b8:	e5933000 	ldr	r3, [r3]
    a0bc:	e50b3010 	str	r3, [fp, #-16]
    a0c0:	ea000013 	b	a114 <get_meta+0x588>
    a0c4:	e59f3190 	ldr	r3, [pc, #400]	; a25c <get_meta+0x6d0>
    a0c8:	e5933000 	ldr	r3, [r3]
    a0cc:	e50b3010 	str	r3, [fp, #-16]
    a0d0:	ea00000f 	b	a114 <get_meta+0x588>
    a0d4:	e59f3180 	ldr	r3, [pc, #384]	; a25c <get_meta+0x6d0>
    a0d8:	e5933000 	ldr	r3, [r3]
    a0dc:	e50b3010 	str	r3, [fp, #-16]
    a0e0:	ea00000b 	b	a114 <get_meta+0x588>
    a0e4:	e59f3170 	ldr	r3, [pc, #368]	; a25c <get_meta+0x6d0>
    a0e8:	e5933000 	ldr	r3, [r3]
    a0ec:	e50b3010 	str	r3, [fp, #-16]
    a0f0:	ea000007 	b	a114 <get_meta+0x588>
    a0f4:	e59f3160 	ldr	r3, [pc, #352]	; a25c <get_meta+0x6d0>
    a0f8:	e5933000 	ldr	r3, [r3]
    a0fc:	e50b3010 	str	r3, [fp, #-16]
    a100:	ea000003 	b	a114 <get_meta+0x588>
    a104:	e59f3150 	ldr	r3, [pc, #336]	; a25c <get_meta+0x6d0>
    a108:	e5933000 	ldr	r3, [r3]
    a10c:	e50b3010 	str	r3, [fp, #-16]
    a110:	e1a00000 	nop			; (mov r0, r0)
    a114:	e24b3008 	sub	r3, fp, #8
    a118:	e51b0018 	ldr	r0, [fp, #-24]
    a11c:	e1a01003 	mov	r1, r3
    a120:	e3a02002 	mov	r2, #2
    a124:	eb004eb6 	bl	1dc04 <recvdata>
    a128:	e1a03000 	mov	r3, r0
    a12c:	e3730001 	cmn	r3, #1
    a130:	1a000001 	bne	a13c <get_meta+0x5b0>
    a134:	e3a03000 	mov	r3, #0
    a138:	ea00000c 	b	a170 <get_meta+0x5e4>
    a13c:	e51b3008 	ldr	r3, [fp, #-8]
    a140:	e3530b01 	cmp	r3, #1024	; 0x400
    a144:	da000001 	ble	a150 <get_meta+0x5c4>
    a148:	e3a03b01 	mov	r3, #1024	; 0x400
    a14c:	e50b3008 	str	r3, [fp, #-8]
    a150:	e51b3008 	ldr	r3, [fp, #-8]
    a154:	e1a03803 	lsl	r3, r3, #16
    a158:	e1a03823 	lsr	r3, r3, #16
    a15c:	e50b3008 	str	r3, [fp, #-8]
    a160:	e51b2010 	ldr	r2, [fp, #-16]
    a164:	e51b3020 	ldr	r3, [fp, #-32]
    a168:	e5832000 	str	r2, [r3]
    a16c:	e51b3008 	ldr	r3, [fp, #-8]
    a170:	e1a00003 	mov	r0, r3
    a174:	e24bd004 	sub	sp, fp, #4
    a178:	e8bd8800 	pop	{fp, pc}
    a17c:	0001e468 	.word	0x0001e468
    a180:	0001e470 	.word	0x0001e470
    a184:	0001e478 	.word	0x0001e478
    a188:	0001e480 	.word	0x0001e480
    a18c:	0001e488 	.word	0x0001e488
    a190:	0001e490 	.word	0x0001e490
    a194:	0001e498 	.word	0x0001e498
    a198:	0001e4a0 	.word	0x0001e4a0
    a19c:	0001e4a8 	.word	0x0001e4a8
    a1a0:	0001e4b0 	.word	0x0001e4b0
    a1a4:	0001e4b8 	.word	0x0001e4b8
    a1a8:	0001e4c0 	.word	0x0001e4c0
    a1ac:	0001e4c8 	.word	0x0001e4c8
    a1b0:	0001e4d0 	.word	0x0001e4d0
    a1b4:	0001e4d8 	.word	0x0001e4d8
    a1b8:	0001e4e0 	.word	0x0001e4e0
    a1bc:	0001e4e8 	.word	0x0001e4e8
    a1c0:	0001e4f0 	.word	0x0001e4f0
    a1c4:	0001e4f8 	.word	0x0001e4f8
    a1c8:	0001e500 	.word	0x0001e500
    a1cc:	0001e508 	.word	0x0001e508
    a1d0:	0001e510 	.word	0x0001e510
    a1d4:	0001e518 	.word	0x0001e518
    a1d8:	0001e520 	.word	0x0001e520
    a1dc:	0001e528 	.word	0x0001e528
    a1e0:	0001e530 	.word	0x0001e530
    a1e4:	0001e538 	.word	0x0001e538
    a1e8:	0001e540 	.word	0x0001e540
    a1ec:	0001e548 	.word	0x0001e548
    a1f0:	0001e550 	.word	0x0001e550
    a1f4:	0001e558 	.word	0x0001e558
    a1f8:	0001e560 	.word	0x0001e560
    a1fc:	0001e568 	.word	0x0001e568
    a200:	0001e570 	.word	0x0001e570
    a204:	0001e578 	.word	0x0001e578
    a208:	0001e580 	.word	0x0001e580
    a20c:	0001e588 	.word	0x0001e588
    a210:	0001e590 	.word	0x0001e590
    a214:	0001e598 	.word	0x0001e598
    a218:	0001e5a0 	.word	0x0001e5a0
    a21c:	0001e5a8 	.word	0x0001e5a8
    a220:	0001e5b0 	.word	0x0001e5b0
    a224:	0001e5b8 	.word	0x0001e5b8
    a228:	0001e5c0 	.word	0x0001e5c0
    a22c:	0001e5c8 	.word	0x0001e5c8
    a230:	0001e5d0 	.word	0x0001e5d0
    a234:	0001e5d8 	.word	0x0001e5d8
    a238:	0001e5e0 	.word	0x0001e5e0
    a23c:	0001e5e8 	.word	0x0001e5e8
    a240:	0001e5f0 	.word	0x0001e5f0
    a244:	0001e5f8 	.word	0x0001e5f8
    a248:	0001e600 	.word	0x0001e600
    a24c:	0001e608 	.word	0x0001e608
    a250:	0001e610 	.word	0x0001e610
    a254:	0001e618 	.word	0x0001e618
    a258:	0001e620 	.word	0x0001e620
    a25c:	0001e628 	.word	0x0001e628

0000a260 <main>:
    a260:	e92d4800 	push	{fp, lr}
    a264:	e28db004 	add	fp, sp, #4
    a268:	e24dd010 	sub	sp, sp, #16
    a26c:	e50b0010 	str	r0, [fp, #-16]
    a270:	e50b1014 	str	r1, [fp, #-20]
    a274:	e59f3034 	ldr	r3, [pc, #52]	; a2b0 <main+0x50>
    a278:	e5933000 	ldr	r3, [r3]
    a27c:	e1a00003 	mov	r0, r3
    a280:	e3a01002 	mov	r1, #2
    a284:	e59f2028 	ldr	r2, [pc, #40]	; a2b4 <main+0x54>
    a288:	eb004cda 	bl	1d5f8 <SetupSock>
    a28c:	e50b0008 	str	r0, [fp, #-8]
    a290:	e51b0008 	ldr	r0, [fp, #-8]
    a294:	e59f101c 	ldr	r1, [pc, #28]	; a2b8 <main+0x58>
    a298:	e59f201c 	ldr	r2, [pc, #28]	; a2bc <main+0x5c>
    a29c:	eb004f7c 	bl	1e094 <accept_loop>
    a2a0:	e3a03000 	mov	r3, #0
    a2a4:	e1a00003 	mov	r0, r3
    a2a8:	e24bd004 	sub	sp, fp, #4
    a2ac:	e8bd8800 	pop	{fp, pc}
    a2b0:	000271d4 	.word	0x000271d4
    a2b4:	0001e630 	.word	0x0001e630
    a2b8:	00008dfc 	.word	0x00008dfc
    a2bc:	0001e638 	.word	0x0001e638

0000a2c0 <md2>:
    a2c0:	e92d4800 	push	{fp, lr}
    a2c4:	e28db004 	add	fp, sp, #4
    a2c8:	e24dd088 	sub	sp, sp, #136	; 0x88
    a2cc:	e50b0080 	str	r0, [fp, #-128]	; 0x80
    a2d0:	e50b1084 	str	r1, [fp, #-132]	; 0x84
    a2d4:	e50b2088 	str	r2, [fp, #-136]	; 0x88
    a2d8:	e24b3078 	sub	r3, fp, #120	; 0x78
    a2dc:	e1a00003 	mov	r0, r3
    a2e0:	eb000011 	bl	a32c <md2_starts>
    a2e4:	e24b3078 	sub	r3, fp, #120	; 0x78
    a2e8:	e1a00003 	mov	r0, r3
    a2ec:	e51b1080 	ldr	r1, [fp, #-128]	; 0x80
    a2f0:	e51b2084 	ldr	r2, [fp, #-132]	; 0x84
    a2f4:	eb00002c 	bl	a3ac <md2_update>
    a2f8:	e24b3078 	sub	r3, fp, #120	; 0x78
    a2fc:	e1a00003 	mov	r0, r3
    a300:	e51b1088 	ldr	r1, [fp, #-136]	; 0x88
    a304:	eb0000f0 	bl	a6cc <md2_finish>
    a308:	e24b3078 	sub	r3, fp, #120	; 0x78
    a30c:	e1a02003 	mov	r2, r3
    a310:	e3a03074 	mov	r3, #116	; 0x74
    a314:	e1a00002 	mov	r0, r2
    a318:	e3a01000 	mov	r1, #0
    a31c:	e1a02003 	mov	r2, r3
    a320:	ebfffa5c 	bl	8c98 <_init+0x194>
    a324:	e24bd004 	sub	sp, fp, #4
    a328:	e8bd8800 	pop	{fp, pc}

0000a32c <md2_starts>:
    a32c:	e92d4800 	push	{fp, lr}
    a330:	e28db004 	add	fp, sp, #4
    a334:	e24dd008 	sub	sp, sp, #8
    a338:	e50b0008 	str	r0, [fp, #-8]
    a33c:	e51b3008 	ldr	r3, [fp, #-8]
    a340:	e1a02003 	mov	r2, r3
    a344:	e3a03010 	mov	r3, #16
    a348:	e1a00002 	mov	r0, r2
    a34c:	e3a01000 	mov	r1, #0
    a350:	e1a02003 	mov	r2, r3
    a354:	ebfffa4f 	bl	8c98 <_init+0x194>
    a358:	e51b3008 	ldr	r3, [fp, #-8]
    a35c:	e2833010 	add	r3, r3, #16
    a360:	e1a02003 	mov	r2, r3
    a364:	e3a0302e 	mov	r3, #46	; 0x2e
    a368:	e1a00002 	mov	r0, r2
    a36c:	e3a01000 	mov	r1, #0
    a370:	e1a02003 	mov	r2, r3
    a374:	ebfffa47 	bl	8c98 <_init+0x194>
    a378:	e51b3008 	ldr	r3, [fp, #-8]
    a37c:	e2833040 	add	r3, r3, #64	; 0x40
    a380:	e1a02003 	mov	r2, r3
    a384:	e3a03010 	mov	r3, #16
    a388:	e1a00002 	mov	r0, r2
    a38c:	e3a01000 	mov	r1, #0
    a390:	e1a02003 	mov	r2, r3
    a394:	ebfffa3f 	bl	8c98 <_init+0x194>
    a398:	e51b3008 	ldr	r3, [fp, #-8]
    a39c:	e3a02000 	mov	r2, #0
    a3a0:	e5832070 	str	r2, [r3, #112]	; 0x70
    a3a4:	e24bd004 	sub	sp, fp, #4
    a3a8:	e8bd8800 	pop	{fp, pc}

0000a3ac <md2_update>:
    a3ac:	e92d4800 	push	{fp, lr}
    a3b0:	e28db004 	add	fp, sp, #4
    a3b4:	e24dd018 	sub	sp, sp, #24
    a3b8:	e50b0010 	str	r0, [fp, #-16]
    a3bc:	e50b1014 	str	r1, [fp, #-20]
    a3c0:	e50b2018 	str	r2, [fp, #-24]
    a3c4:	ea000031 	b	a490 <md2_update+0xe4>
    a3c8:	e51b3010 	ldr	r3, [fp, #-16]
    a3cc:	e5932070 	ldr	r2, [r3, #112]	; 0x70
    a3d0:	e51b3018 	ldr	r3, [fp, #-24]
    a3d4:	e0823003 	add	r3, r2, r3
    a3d8:	e3530010 	cmp	r3, #16
    a3dc:	9a000004 	bls	a3f4 <md2_update+0x48>
    a3e0:	e51b3010 	ldr	r3, [fp, #-16]
    a3e4:	e5933070 	ldr	r3, [r3, #112]	; 0x70
    a3e8:	e2633010 	rsb	r3, r3, #16
    a3ec:	e50b3008 	str	r3, [fp, #-8]
    a3f0:	ea000001 	b	a3fc <md2_update+0x50>
    a3f4:	e51b3018 	ldr	r3, [fp, #-24]
    a3f8:	e50b3008 	str	r3, [fp, #-8]
    a3fc:	e51b3010 	ldr	r3, [fp, #-16]
    a400:	e2833040 	add	r3, r3, #64	; 0x40
    a404:	e1a02003 	mov	r2, r3
    a408:	e51b3010 	ldr	r3, [fp, #-16]
    a40c:	e5933070 	ldr	r3, [r3, #112]	; 0x70
    a410:	e0822003 	add	r2, r2, r3
    a414:	e51b3014 	ldr	r3, [fp, #-20]
    a418:	e1a01002 	mov	r1, r2
    a41c:	e1a02003 	mov	r2, r3
    a420:	e51b3008 	ldr	r3, [fp, #-8]
    a424:	e1a00001 	mov	r0, r1
    a428:	e1a01002 	mov	r1, r2
    a42c:	e1a02003 	mov	r2, r3
    a430:	ebfff9d0 	bl	8b78 <_init+0x74>
    a434:	e51b3010 	ldr	r3, [fp, #-16]
    a438:	e5932070 	ldr	r2, [r3, #112]	; 0x70
    a43c:	e51b3008 	ldr	r3, [fp, #-8]
    a440:	e0822003 	add	r2, r2, r3
    a444:	e51b3010 	ldr	r3, [fp, #-16]
    a448:	e5832070 	str	r2, [r3, #112]	; 0x70
    a44c:	e51b2014 	ldr	r2, [fp, #-20]
    a450:	e51b3008 	ldr	r3, [fp, #-8]
    a454:	e0823003 	add	r3, r2, r3
    a458:	e50b3014 	str	r3, [fp, #-20]
    a45c:	e51b2018 	ldr	r2, [fp, #-24]
    a460:	e51b3008 	ldr	r3, [fp, #-8]
    a464:	e0633002 	rsb	r3, r3, r2
    a468:	e50b3018 	str	r3, [fp, #-24]
    a46c:	e51b3010 	ldr	r3, [fp, #-16]
    a470:	e5933070 	ldr	r3, [r3, #112]	; 0x70
    a474:	e3530010 	cmp	r3, #16
    a478:	1a000004 	bne	a490 <md2_update+0xe4>
    a47c:	e51b3010 	ldr	r3, [fp, #-16]
    a480:	e3a02000 	mov	r2, #0
    a484:	e5832070 	str	r2, [r3, #112]	; 0x70
    a488:	e51b0010 	ldr	r0, [fp, #-16]
    a48c:	eb000004 	bl	a4a4 <md2_process>
    a490:	e51b3018 	ldr	r3, [fp, #-24]
    a494:	e3530000 	cmp	r3, #0
    a498:	1affffca 	bne	a3c8 <md2_update+0x1c>
    a49c:	e24bd004 	sub	sp, fp, #4
    a4a0:	e8bd8800 	pop	{fp, pc}

0000a4a4 <md2_process>:
    a4a4:	e52db004 	push	{fp}		; (str fp, [sp, #-4]!)
    a4a8:	e28db000 	add	fp, sp, #0
    a4ac:	e24dd01c 	sub	sp, sp, #28
    a4b0:	e50b0018 	str	r0, [fp, #-24]
    a4b4:	e3a03000 	mov	r3, #0
    a4b8:	e54b300d 	strb	r3, [fp, #-13]
    a4bc:	e3a03000 	mov	r3, #0
    a4c0:	e50b3008 	str	r3, [fp, #-8]
    a4c4:	ea000024 	b	a55c <md2_process+0xb8>
    a4c8:	e51b3008 	ldr	r3, [fp, #-8]
    a4cc:	e2831010 	add	r1, r3, #16
    a4d0:	e51b0018 	ldr	r0, [fp, #-24]
    a4d4:	e3a03040 	mov	r3, #64	; 0x40
    a4d8:	e51b2008 	ldr	r2, [fp, #-8]
    a4dc:	e0802002 	add	r2, r0, r2
    a4e0:	e0823003 	add	r3, r2, r3
    a4e4:	e5d32000 	ldrb	r2, [r3]
    a4e8:	e51b0018 	ldr	r0, [fp, #-24]
    a4ec:	e3a03010 	mov	r3, #16
    a4f0:	e0801001 	add	r1, r0, r1
    a4f4:	e0813003 	add	r3, r1, r3
    a4f8:	e5c32000 	strb	r2, [r3]
    a4fc:	e51b3008 	ldr	r3, [fp, #-8]
    a500:	e2831020 	add	r1, r3, #32
    a504:	e51b0018 	ldr	r0, [fp, #-24]
    a508:	e3a03040 	mov	r3, #64	; 0x40
    a50c:	e51b2008 	ldr	r2, [fp, #-8]
    a510:	e0802002 	add	r2, r0, r2
    a514:	e0823003 	add	r3, r2, r3
    a518:	e5d32000 	ldrb	r2, [r3]
    a51c:	e51bc018 	ldr	ip, [fp, #-24]
    a520:	e3a03010 	mov	r3, #16
    a524:	e51b0008 	ldr	r0, [fp, #-8]
    a528:	e08c0000 	add	r0, ip, r0
    a52c:	e0803003 	add	r3, r0, r3
    a530:	e5d33000 	ldrb	r3, [r3]
    a534:	e0223003 	eor	r3, r2, r3
    a538:	e6ef2073 	uxtb	r2, r3
    a53c:	e51b0018 	ldr	r0, [fp, #-24]
    a540:	e3a03010 	mov	r3, #16
    a544:	e0801001 	add	r1, r0, r1
    a548:	e0813003 	add	r3, r1, r3
    a54c:	e5c32000 	strb	r2, [r3]
    a550:	e51b3008 	ldr	r3, [fp, #-8]
    a554:	e2833001 	add	r3, r3, #1
    a558:	e50b3008 	str	r3, [fp, #-8]
    a55c:	e51b3008 	ldr	r3, [fp, #-8]
    a560:	e353000f 	cmp	r3, #15
    a564:	daffffd7 	ble	a4c8 <md2_process+0x24>
    a568:	e3a03000 	mov	r3, #0
    a56c:	e50b3008 	str	r3, [fp, #-8]
    a570:	ea000028 	b	a618 <md2_process+0x174>
    a574:	e3a03000 	mov	r3, #0
    a578:	e50b300c 	str	r3, [fp, #-12]
    a57c:	ea00001a 	b	a5ec <md2_process+0x148>
    a580:	e51b1018 	ldr	r1, [fp, #-24]
    a584:	e3a03010 	mov	r3, #16
    a588:	e51b200c 	ldr	r2, [fp, #-12]
    a58c:	e0812002 	add	r2, r1, r2
    a590:	e0823003 	add	r3, r2, r3
    a594:	e5d32000 	ldrb	r2, [r3]
    a598:	e55b300d 	ldrb	r3, [fp, #-13]
    a59c:	e59f1124 	ldr	r1, [pc, #292]	; a6c8 <md2_process+0x224>
    a5a0:	e7d13003 	ldrb	r3, [r1, r3]
    a5a4:	e0223003 	eor	r3, r2, r3
    a5a8:	e6ef2073 	uxtb	r2, r3
    a5ac:	e51b0018 	ldr	r0, [fp, #-24]
    a5b0:	e3a03010 	mov	r3, #16
    a5b4:	e51b100c 	ldr	r1, [fp, #-12]
    a5b8:	e0801001 	add	r1, r0, r1
    a5bc:	e0813003 	add	r3, r1, r3
    a5c0:	e5c32000 	strb	r2, [r3]
    a5c4:	e51b1018 	ldr	r1, [fp, #-24]
    a5c8:	e3a03010 	mov	r3, #16
    a5cc:	e51b200c 	ldr	r2, [fp, #-12]
    a5d0:	e0812002 	add	r2, r1, r2
    a5d4:	e0823003 	add	r3, r2, r3
    a5d8:	e5d33000 	ldrb	r3, [r3]
    a5dc:	e54b300d 	strb	r3, [fp, #-13]
    a5e0:	e51b300c 	ldr	r3, [fp, #-12]
    a5e4:	e2833001 	add	r3, r3, #1
    a5e8:	e50b300c 	str	r3, [fp, #-12]
    a5ec:	e51b300c 	ldr	r3, [fp, #-12]
    a5f0:	e353002f 	cmp	r3, #47	; 0x2f
    a5f4:	daffffe1 	ble	a580 <md2_process+0xdc>
    a5f8:	e51b3008 	ldr	r3, [fp, #-8]
    a5fc:	e6ef2073 	uxtb	r2, r3
    a600:	e55b300d 	ldrb	r3, [fp, #-13]
    a604:	e0823003 	add	r3, r2, r3
    a608:	e54b300d 	strb	r3, [fp, #-13]
    a60c:	e51b3008 	ldr	r3, [fp, #-8]
    a610:	e2833001 	add	r3, r3, #1
    a614:	e50b3008 	str	r3, [fp, #-8]
    a618:	e51b3008 	ldr	r3, [fp, #-8]
    a61c:	e3530011 	cmp	r3, #17
    a620:	daffffd3 	ble	a574 <md2_process+0xd0>
    a624:	e51b3018 	ldr	r3, [fp, #-24]
    a628:	e5d3300f 	ldrb	r3, [r3, #15]
    a62c:	e54b300d 	strb	r3, [fp, #-13]
    a630:	e3a03000 	mov	r3, #0
    a634:	e50b3008 	str	r3, [fp, #-8]
    a638:	ea00001c 	b	a6b0 <md2_process+0x20c>
    a63c:	e51b2018 	ldr	r2, [fp, #-24]
    a640:	e51b3008 	ldr	r3, [fp, #-8]
    a644:	e0823003 	add	r3, r2, r3
    a648:	e5d32000 	ldrb	r2, [r3]
    a64c:	e51b0018 	ldr	r0, [fp, #-24]
    a650:	e3a03040 	mov	r3, #64	; 0x40
    a654:	e51b1008 	ldr	r1, [fp, #-8]
    a658:	e0801001 	add	r1, r0, r1
    a65c:	e0813003 	add	r3, r1, r3
    a660:	e5d31000 	ldrb	r1, [r3]
    a664:	e55b300d 	ldrb	r3, [fp, #-13]
    a668:	e0213003 	eor	r3, r1, r3
    a66c:	e6ef3073 	uxtb	r3, r3
    a670:	e59f1050 	ldr	r1, [pc, #80]	; a6c8 <md2_process+0x224>
    a674:	e7d13003 	ldrb	r3, [r1, r3]
    a678:	e0223003 	eor	r3, r2, r3
    a67c:	e6ef2073 	uxtb	r2, r3
    a680:	e51b1018 	ldr	r1, [fp, #-24]
    a684:	e51b3008 	ldr	r3, [fp, #-8]
    a688:	e0813003 	add	r3, r1, r3
    a68c:	e5c32000 	strb	r2, [r3]
    a690:	e51b2018 	ldr	r2, [fp, #-24]
    a694:	e51b3008 	ldr	r3, [fp, #-8]
    a698:	e0823003 	add	r3, r2, r3
    a69c:	e5d33000 	ldrb	r3, [r3]
    a6a0:	e54b300d 	strb	r3, [fp, #-13]
    a6a4:	e51b3008 	ldr	r3, [fp, #-8]
    a6a8:	e2833001 	add	r3, r3, #1
    a6ac:	e50b3008 	str	r3, [fp, #-8]
    a6b0:	e51b3008 	ldr	r3, [fp, #-8]
    a6b4:	e353000f 	cmp	r3, #15
    a6b8:	daffffdf 	ble	a63c <md2_process+0x198>
    a6bc:	e28bd000 	add	sp, fp, #0
    a6c0:	e8bd0800 	pop	{fp}
    a6c4:	e12fff1e 	bx	lr
    a6c8:	0001e648 	.word	0x0001e648

0000a6cc <md2_finish>:
    a6cc:	e92d4800 	push	{fp, lr}
    a6d0:	e28db004 	add	fp, sp, #4
    a6d4:	e24dd010 	sub	sp, sp, #16
    a6d8:	e50b0010 	str	r0, [fp, #-16]
    a6dc:	e50b1014 	str	r1, [fp, #-20]
    a6e0:	e51b3010 	ldr	r3, [fp, #-16]
    a6e4:	e5933070 	ldr	r3, [r3, #112]	; 0x70
    a6e8:	e6ef3073 	uxtb	r3, r3
    a6ec:	e2633010 	rsb	r3, r3, #16
    a6f0:	e54b3009 	strb	r3, [fp, #-9]
    a6f4:	e51b3010 	ldr	r3, [fp, #-16]
    a6f8:	e5933070 	ldr	r3, [r3, #112]	; 0x70
    a6fc:	e50b3008 	str	r3, [fp, #-8]
    a700:	ea000009 	b	a72c <md2_finish+0x60>
    a704:	e51b1010 	ldr	r1, [fp, #-16]
    a708:	e3a03040 	mov	r3, #64	; 0x40
    a70c:	e51b2008 	ldr	r2, [fp, #-8]
    a710:	e0812002 	add	r2, r1, r2
    a714:	e0823003 	add	r3, r2, r3
    a718:	e55b2009 	ldrb	r2, [fp, #-9]
    a71c:	e5c32000 	strb	r2, [r3]
    a720:	e51b3008 	ldr	r3, [fp, #-8]
    a724:	e2833001 	add	r3, r3, #1
    a728:	e50b3008 	str	r3, [fp, #-8]
    a72c:	e51b3008 	ldr	r3, [fp, #-8]
    a730:	e353000f 	cmp	r3, #15
    a734:	9afffff2 	bls	a704 <md2_finish+0x38>
    a738:	e51b0010 	ldr	r0, [fp, #-16]
    a73c:	ebffff58 	bl	a4a4 <md2_process>
    a740:	e51b3010 	ldr	r3, [fp, #-16]
    a744:	e2833040 	add	r3, r3, #64	; 0x40
    a748:	e1a02003 	mov	r2, r3
    a74c:	e51b3010 	ldr	r3, [fp, #-16]
    a750:	e1a01002 	mov	r1, r2
    a754:	e1a02003 	mov	r2, r3
    a758:	e3a03010 	mov	r3, #16
    a75c:	e1a00001 	mov	r0, r1
    a760:	e1a01002 	mov	r1, r2
    a764:	e1a02003 	mov	r2, r3
    a768:	ebfff902 	bl	8b78 <_init+0x74>
    a76c:	e51b0010 	ldr	r0, [fp, #-16]
    a770:	ebffff4b 	bl	a4a4 <md2_process>
    a774:	e51b2014 	ldr	r2, [fp, #-20]
    a778:	e51b3010 	ldr	r3, [fp, #-16]
    a77c:	e2833010 	add	r3, r3, #16
    a780:	e1a01002 	mov	r1, r2
    a784:	e1a02003 	mov	r2, r3
    a788:	e3a03010 	mov	r3, #16
    a78c:	e1a00001 	mov	r0, r1
    a790:	e1a01002 	mov	r1, r2
    a794:	e1a02003 	mov	r2, r3
    a798:	ebfff8f6 	bl	8b78 <_init+0x74>
    a79c:	e24bd004 	sub	sp, fp, #4
    a7a0:	e8bd8800 	pop	{fp, pc}

0000a7a4 <md4_finish>:
    a7a4:	e92d4800 	push	{fp, lr}
    a7a8:	e28db004 	add	fp, sp, #4
    a7ac:	e24dd020 	sub	sp, sp, #32
    a7b0:	e50b0020 	str	r0, [fp, #-32]
    a7b4:	e50b1024 	str	r1, [fp, #-36]	; 0x24
    a7b8:	e51b3020 	ldr	r3, [fp, #-32]
    a7bc:	e5933000 	ldr	r3, [r3]
    a7c0:	e1a02ea3 	lsr	r2, r3, #29
    a7c4:	e51b3020 	ldr	r3, [fp, #-32]
    a7c8:	e5933004 	ldr	r3, [r3, #4]
    a7cc:	e1a03183 	lsl	r3, r3, #3
    a7d0:	e1823003 	orr	r3, r2, r3
    a7d4:	e50b3008 	str	r3, [fp, #-8]
    a7d8:	e51b3020 	ldr	r3, [fp, #-32]
    a7dc:	e5933000 	ldr	r3, [r3]
    a7e0:	e1a03183 	lsl	r3, r3, #3
    a7e4:	e50b300c 	str	r3, [fp, #-12]
    a7e8:	e51b300c 	ldr	r3, [fp, #-12]
    a7ec:	e6ef3073 	uxtb	r3, r3
    a7f0:	e54b301c 	strb	r3, [fp, #-28]
    a7f4:	e51b300c 	ldr	r3, [fp, #-12]
    a7f8:	e1a03423 	lsr	r3, r3, #8
    a7fc:	e6ef3073 	uxtb	r3, r3
    a800:	e54b301b 	strb	r3, [fp, #-27]
    a804:	e51b300c 	ldr	r3, [fp, #-12]
    a808:	e1a03823 	lsr	r3, r3, #16
    a80c:	e6ef3073 	uxtb	r3, r3
    a810:	e54b301a 	strb	r3, [fp, #-26]
    a814:	e51b300c 	ldr	r3, [fp, #-12]
    a818:	e1a03c23 	lsr	r3, r3, #24
    a81c:	e6ef3073 	uxtb	r3, r3
    a820:	e54b3019 	strb	r3, [fp, #-25]
    a824:	e51b3008 	ldr	r3, [fp, #-8]
    a828:	e6ef3073 	uxtb	r3, r3
    a82c:	e54b3018 	strb	r3, [fp, #-24]
    a830:	e51b3008 	ldr	r3, [fp, #-8]
    a834:	e1a03423 	lsr	r3, r3, #8
    a838:	e6ef3073 	uxtb	r3, r3
    a83c:	e54b3017 	strb	r3, [fp, #-23]
    a840:	e51b3008 	ldr	r3, [fp, #-8]
    a844:	e1a03823 	lsr	r3, r3, #16
    a848:	e6ef3073 	uxtb	r3, r3
    a84c:	e54b3016 	strb	r3, [fp, #-22]
    a850:	e51b3008 	ldr	r3, [fp, #-8]
    a854:	e1a03c23 	lsr	r3, r3, #24
    a858:	e6ef3073 	uxtb	r3, r3
    a85c:	e54b3015 	strb	r3, [fp, #-21]
    a860:	e51b3020 	ldr	r3, [fp, #-32]
    a864:	e5933000 	ldr	r3, [r3]
    a868:	e203303f 	and	r3, r3, #63	; 0x3f
    a86c:	e50b3010 	str	r3, [fp, #-16]
    a870:	e51b3010 	ldr	r3, [fp, #-16]
    a874:	e3530037 	cmp	r3, #55	; 0x37
    a878:	8a000002 	bhi	a888 <md4_finish+0xe4>
    a87c:	e51b3010 	ldr	r3, [fp, #-16]
    a880:	e2633038 	rsb	r3, r3, #56	; 0x38
    a884:	ea000001 	b	a890 <md4_finish+0xec>
    a888:	e51b3010 	ldr	r3, [fp, #-16]
    a88c:	e2633078 	rsb	r3, r3, #120	; 0x78
    a890:	e50b3014 	str	r3, [fp, #-20]
    a894:	e51b0020 	ldr	r0, [fp, #-32]
    a898:	e59f11cc 	ldr	r1, [pc, #460]	; aa6c <md4_finish+0x2c8>
    a89c:	e51b2014 	ldr	r2, [fp, #-20]
    a8a0:	eb00051c 	bl	bd18 <md4_update>
    a8a4:	e24b301c 	sub	r3, fp, #28
    a8a8:	e51b0020 	ldr	r0, [fp, #-32]
    a8ac:	e1a01003 	mov	r1, r3
    a8b0:	e3a02008 	mov	r2, #8
    a8b4:	eb000517 	bl	bd18 <md4_update>
    a8b8:	e51b3020 	ldr	r3, [fp, #-32]
    a8bc:	e5933008 	ldr	r3, [r3, #8]
    a8c0:	e6ef2073 	uxtb	r2, r3
    a8c4:	e51b3024 	ldr	r3, [fp, #-36]	; 0x24
    a8c8:	e5c32000 	strb	r2, [r3]
    a8cc:	e51b3024 	ldr	r3, [fp, #-36]	; 0x24
    a8d0:	e2833001 	add	r3, r3, #1
    a8d4:	e51b2020 	ldr	r2, [fp, #-32]
    a8d8:	e5922008 	ldr	r2, [r2, #8]
    a8dc:	e1a02422 	lsr	r2, r2, #8
    a8e0:	e6ef2072 	uxtb	r2, r2
    a8e4:	e5c32000 	strb	r2, [r3]
    a8e8:	e51b3024 	ldr	r3, [fp, #-36]	; 0x24
    a8ec:	e2833002 	add	r3, r3, #2
    a8f0:	e51b2020 	ldr	r2, [fp, #-32]
    a8f4:	e5922008 	ldr	r2, [r2, #8]
    a8f8:	e1a02822 	lsr	r2, r2, #16
    a8fc:	e6ef2072 	uxtb	r2, r2
    a900:	e5c32000 	strb	r2, [r3]
    a904:	e51b3024 	ldr	r3, [fp, #-36]	; 0x24
    a908:	e2833003 	add	r3, r3, #3
    a90c:	e51b2020 	ldr	r2, [fp, #-32]
    a910:	e5922008 	ldr	r2, [r2, #8]
    a914:	e1a02c22 	lsr	r2, r2, #24
    a918:	e6ef2072 	uxtb	r2, r2
    a91c:	e5c32000 	strb	r2, [r3]
    a920:	e51b3024 	ldr	r3, [fp, #-36]	; 0x24
    a924:	e2833004 	add	r3, r3, #4
    a928:	e51b2020 	ldr	r2, [fp, #-32]
    a92c:	e592200c 	ldr	r2, [r2, #12]
    a930:	e6ef2072 	uxtb	r2, r2
    a934:	e5c32000 	strb	r2, [r3]
    a938:	e51b3024 	ldr	r3, [fp, #-36]	; 0x24
    a93c:	e2833005 	add	r3, r3, #5
    a940:	e51b2020 	ldr	r2, [fp, #-32]
    a944:	e592200c 	ldr	r2, [r2, #12]
    a948:	e1a02422 	lsr	r2, r2, #8
    a94c:	e6ef2072 	uxtb	r2, r2
    a950:	e5c32000 	strb	r2, [r3]
    a954:	e51b3024 	ldr	r3, [fp, #-36]	; 0x24
    a958:	e2833006 	add	r3, r3, #6
    a95c:	e51b2020 	ldr	r2, [fp, #-32]
    a960:	e592200c 	ldr	r2, [r2, #12]
    a964:	e1a02822 	lsr	r2, r2, #16
    a968:	e6ef2072 	uxtb	r2, r2
    a96c:	e5c32000 	strb	r2, [r3]
    a970:	e51b3024 	ldr	r3, [fp, #-36]	; 0x24
    a974:	e2833007 	add	r3, r3, #7
    a978:	e51b2020 	ldr	r2, [fp, #-32]
    a97c:	e592200c 	ldr	r2, [r2, #12]
    a980:	e1a02c22 	lsr	r2, r2, #24
    a984:	e6ef2072 	uxtb	r2, r2
    a988:	e5c32000 	strb	r2, [r3]
    a98c:	e51b3024 	ldr	r3, [fp, #-36]	; 0x24
    a990:	e2833008 	add	r3, r3, #8
    a994:	e51b2020 	ldr	r2, [fp, #-32]
    a998:	e5922010 	ldr	r2, [r2, #16]
    a99c:	e6ef2072 	uxtb	r2, r2
    a9a0:	e5c32000 	strb	r2, [r3]
    a9a4:	e51b3024 	ldr	r3, [fp, #-36]	; 0x24
    a9a8:	e2833009 	add	r3, r3, #9
    a9ac:	e51b2020 	ldr	r2, [fp, #-32]
    a9b0:	e5922010 	ldr	r2, [r2, #16]
    a9b4:	e1a02422 	lsr	r2, r2, #8
    a9b8:	e6ef2072 	uxtb	r2, r2
    a9bc:	e5c32000 	strb	r2, [r3]
    a9c0:	e51b3024 	ldr	r3, [fp, #-36]	; 0x24
    a9c4:	e283300a 	add	r3, r3, #10
    a9c8:	e51b2020 	ldr	r2, [fp, #-32]
    a9cc:	e5922010 	ldr	r2, [r2, #16]
    a9d0:	e1a02822 	lsr	r2, r2, #16
    a9d4:	e6ef2072 	uxtb	r2, r2
    a9d8:	e5c32000 	strb	r2, [r3]
    a9dc:	e51b3024 	ldr	r3, [fp, #-36]	; 0x24
    a9e0:	e283300b 	add	r3, r3, #11
    a9e4:	e51b2020 	ldr	r2, [fp, #-32]
    a9e8:	e5922010 	ldr	r2, [r2, #16]
    a9ec:	e1a02c22 	lsr	r2, r2, #24
    a9f0:	e6ef2072 	uxtb	r2, r2
    a9f4:	e5c32000 	strb	r2, [r3]
    a9f8:	e51b3024 	ldr	r3, [fp, #-36]	; 0x24
    a9fc:	e283300c 	add	r3, r3, #12
    aa00:	e51b2020 	ldr	r2, [fp, #-32]
    aa04:	e5922014 	ldr	r2, [r2, #20]
    aa08:	e6ef2072 	uxtb	r2, r2
    aa0c:	e5c32000 	strb	r2, [r3]
    aa10:	e51b3024 	ldr	r3, [fp, #-36]	; 0x24
    aa14:	e283300d 	add	r3, r3, #13
    aa18:	e51b2020 	ldr	r2, [fp, #-32]
    aa1c:	e5922014 	ldr	r2, [r2, #20]
    aa20:	e1a02422 	lsr	r2, r2, #8
    aa24:	e6ef2072 	uxtb	r2, r2
    aa28:	e5c32000 	strb	r2, [r3]
    aa2c:	e51b3024 	ldr	r3, [fp, #-36]	; 0x24
    aa30:	e283300e 	add	r3, r3, #14
    aa34:	e51b2020 	ldr	r2, [fp, #-32]
    aa38:	e5922014 	ldr	r2, [r2, #20]
    aa3c:	e1a02822 	lsr	r2, r2, #16
    aa40:	e6ef2072 	uxtb	r2, r2
    aa44:	e5c32000 	strb	r2, [r3]
    aa48:	e51b3024 	ldr	r3, [fp, #-36]	; 0x24
    aa4c:	e283300f 	add	r3, r3, #15
    aa50:	e51b2020 	ldr	r2, [fp, #-32]
    aa54:	e5922014 	ldr	r2, [r2, #20]
    aa58:	e1a02c22 	lsr	r2, r2, #24
    aa5c:	e6ef2072 	uxtb	r2, r2
    aa60:	e5c32000 	strb	r2, [r3]
    aa64:	e24bd004 	sub	sp, fp, #4
    aa68:	e8bd8800 	pop	{fp, pc}
    aa6c:	0001e748 	.word	0x0001e748

0000aa70 <md4_process>:
    aa70:	e52db004 	push	{fp}		; (str fp, [sp, #-4]!)
    aa74:	e28db000 	add	fp, sp, #0
    aa78:	e24dd05c 	sub	sp, sp, #92	; 0x5c
    aa7c:	e50b0058 	str	r0, [fp, #-88]	; 0x58
    aa80:	e50b105c 	str	r1, [fp, #-92]	; 0x5c
    aa84:	e51b305c 	ldr	r3, [fp, #-92]	; 0x5c
    aa88:	e5d33000 	ldrb	r3, [r3]
    aa8c:	e1a02003 	mov	r2, r3
    aa90:	e51b305c 	ldr	r3, [fp, #-92]	; 0x5c
    aa94:	e2833001 	add	r3, r3, #1
    aa98:	e5d33000 	ldrb	r3, [r3]
    aa9c:	e1a03403 	lsl	r3, r3, #8
    aaa0:	e1822003 	orr	r2, r2, r3
    aaa4:	e51b305c 	ldr	r3, [fp, #-92]	; 0x5c
    aaa8:	e2833002 	add	r3, r3, #2
    aaac:	e5d33000 	ldrb	r3, [r3]
    aab0:	e1a03803 	lsl	r3, r3, #16
    aab4:	e1822003 	orr	r2, r2, r3
    aab8:	e51b305c 	ldr	r3, [fp, #-92]	; 0x5c
    aabc:	e2833003 	add	r3, r3, #3
    aac0:	e5d33000 	ldrb	r3, [r3]
    aac4:	e1a03c03 	lsl	r3, r3, #24
    aac8:	e1823003 	orr	r3, r2, r3
    aacc:	e50b3054 	str	r3, [fp, #-84]	; 0x54
    aad0:	e51b305c 	ldr	r3, [fp, #-92]	; 0x5c
    aad4:	e2833004 	add	r3, r3, #4
    aad8:	e5d33000 	ldrb	r3, [r3]
    aadc:	e1a02003 	mov	r2, r3
    aae0:	e51b305c 	ldr	r3, [fp, #-92]	; 0x5c
    aae4:	e2833005 	add	r3, r3, #5
    aae8:	e5d33000 	ldrb	r3, [r3]
    aaec:	e1a03403 	lsl	r3, r3, #8
    aaf0:	e1822003 	orr	r2, r2, r3
    aaf4:	e51b305c 	ldr	r3, [fp, #-92]	; 0x5c
    aaf8:	e2833006 	add	r3, r3, #6
    aafc:	e5d33000 	ldrb	r3, [r3]
    ab00:	e1a03803 	lsl	r3, r3, #16
    ab04:	e1822003 	orr	r2, r2, r3
    ab08:	e51b305c 	ldr	r3, [fp, #-92]	; 0x5c
    ab0c:	e2833007 	add	r3, r3, #7
    ab10:	e5d33000 	ldrb	r3, [r3]
    ab14:	e1a03c03 	lsl	r3, r3, #24
    ab18:	e1823003 	orr	r3, r2, r3
    ab1c:	e50b3050 	str	r3, [fp, #-80]	; 0x50
    ab20:	e51b305c 	ldr	r3, [fp, #-92]	; 0x5c
    ab24:	e2833008 	add	r3, r3, #8
    ab28:	e5d33000 	ldrb	r3, [r3]
    ab2c:	e1a02003 	mov	r2, r3
    ab30:	e51b305c 	ldr	r3, [fp, #-92]	; 0x5c
    ab34:	e2833009 	add	r3, r3, #9
    ab38:	e5d33000 	ldrb	r3, [r3]
    ab3c:	e1a03403 	lsl	r3, r3, #8
    ab40:	e1822003 	orr	r2, r2, r3
    ab44:	e51b305c 	ldr	r3, [fp, #-92]	; 0x5c
    ab48:	e283300a 	add	r3, r3, #10
    ab4c:	e5d33000 	ldrb	r3, [r3]
    ab50:	e1a03803 	lsl	r3, r3, #16
    ab54:	e1822003 	orr	r2, r2, r3
    ab58:	e51b305c 	ldr	r3, [fp, #-92]	; 0x5c
    ab5c:	e283300b 	add	r3, r3, #11
    ab60:	e5d33000 	ldrb	r3, [r3]
    ab64:	e1a03c03 	lsl	r3, r3, #24
    ab68:	e1823003 	orr	r3, r2, r3
    ab6c:	e50b304c 	str	r3, [fp, #-76]	; 0x4c
    ab70:	e51b305c 	ldr	r3, [fp, #-92]	; 0x5c
    ab74:	e283300c 	add	r3, r3, #12
    ab78:	e5d33000 	ldrb	r3, [r3]
    ab7c:	e1a02003 	mov	r2, r3
    ab80:	e51b305c 	ldr	r3, [fp, #-92]	; 0x5c
    ab84:	e283300d 	add	r3, r3, #13
    ab88:	e5d33000 	ldrb	r3, [r3]
    ab8c:	e1a03403 	lsl	r3, r3, #8
    ab90:	e1822003 	orr	r2, r2, r3
    ab94:	e51b305c 	ldr	r3, [fp, #-92]	; 0x5c
    ab98:	e283300e 	add	r3, r3, #14
    ab9c:	e5d33000 	ldrb	r3, [r3]
    aba0:	e1a03803 	lsl	r3, r3, #16
    aba4:	e1822003 	orr	r2, r2, r3
    aba8:	e51b305c 	ldr	r3, [fp, #-92]	; 0x5c
    abac:	e283300f 	add	r3, r3, #15
    abb0:	e5d33000 	ldrb	r3, [r3]
    abb4:	e1a03c03 	lsl	r3, r3, #24
    abb8:	e1823003 	orr	r3, r2, r3
    abbc:	e50b3048 	str	r3, [fp, #-72]	; 0x48
    abc0:	e51b305c 	ldr	r3, [fp, #-92]	; 0x5c
    abc4:	e2833010 	add	r3, r3, #16
    abc8:	e5d33000 	ldrb	r3, [r3]
    abcc:	e1a02003 	mov	r2, r3
    abd0:	e51b305c 	ldr	r3, [fp, #-92]	; 0x5c
    abd4:	e2833011 	add	r3, r3, #17
    abd8:	e5d33000 	ldrb	r3, [r3]
    abdc:	e1a03403 	lsl	r3, r3, #8
    abe0:	e1822003 	orr	r2, r2, r3
    abe4:	e51b305c 	ldr	r3, [fp, #-92]	; 0x5c
    abe8:	e2833012 	add	r3, r3, #18
    abec:	e5d33000 	ldrb	r3, [r3]
    abf0:	e1a03803 	lsl	r3, r3, #16
    abf4:	e1822003 	orr	r2, r2, r3
    abf8:	e51b305c 	ldr	r3, [fp, #-92]	; 0x5c
    abfc:	e2833013 	add	r3, r3, #19
    ac00:	e5d33000 	ldrb	r3, [r3]
    ac04:	e1a03c03 	lsl	r3, r3, #24
    ac08:	e1823003 	orr	r3, r2, r3
    ac0c:	e50b3044 	str	r3, [fp, #-68]	; 0x44
    ac10:	e51b305c 	ldr	r3, [fp, #-92]	; 0x5c
    ac14:	e2833014 	add	r3, r3, #20
    ac18:	e5d33000 	ldrb	r3, [r3]
    ac1c:	e1a02003 	mov	r2, r3
    ac20:	e51b305c 	ldr	r3, [fp, #-92]	; 0x5c
    ac24:	e2833015 	add	r3, r3, #21
    ac28:	e5d33000 	ldrb	r3, [r3]
    ac2c:	e1a03403 	lsl	r3, r3, #8
    ac30:	e1822003 	orr	r2, r2, r3
    ac34:	e51b305c 	ldr	r3, [fp, #-92]	; 0x5c
    ac38:	e2833016 	add	r3, r3, #22
    ac3c:	e5d33000 	ldrb	r3, [r3]
    ac40:	e1a03803 	lsl	r3, r3, #16
    ac44:	e1822003 	orr	r2, r2, r3
    ac48:	e51b305c 	ldr	r3, [fp, #-92]	; 0x5c
    ac4c:	e2833017 	add	r3, r3, #23
    ac50:	e5d33000 	ldrb	r3, [r3]
    ac54:	e1a03c03 	lsl	r3, r3, #24
    ac58:	e1823003 	orr	r3, r2, r3
    ac5c:	e50b3040 	str	r3, [fp, #-64]	; 0x40
    ac60:	e51b305c 	ldr	r3, [fp, #-92]	; 0x5c
    ac64:	e2833018 	add	r3, r3, #24
    ac68:	e5d33000 	ldrb	r3, [r3]
    ac6c:	e1a02003 	mov	r2, r3
    ac70:	e51b305c 	ldr	r3, [fp, #-92]	; 0x5c
    ac74:	e2833019 	add	r3, r3, #25
    ac78:	e5d33000 	ldrb	r3, [r3]
    ac7c:	e1a03403 	lsl	r3, r3, #8
    ac80:	e1822003 	orr	r2, r2, r3
    ac84:	e51b305c 	ldr	r3, [fp, #-92]	; 0x5c
    ac88:	e283301a 	add	r3, r3, #26
    ac8c:	e5d33000 	ldrb	r3, [r3]
    ac90:	e1a03803 	lsl	r3, r3, #16
    ac94:	e1822003 	orr	r2, r2, r3
    ac98:	e51b305c 	ldr	r3, [fp, #-92]	; 0x5c
    ac9c:	e283301b 	add	r3, r3, #27
    aca0:	e5d33000 	ldrb	r3, [r3]
    aca4:	e1a03c03 	lsl	r3, r3, #24
    aca8:	e1823003 	orr	r3, r2, r3
    acac:	e50b303c 	str	r3, [fp, #-60]	; 0x3c
    acb0:	e51b305c 	ldr	r3, [fp, #-92]	; 0x5c
    acb4:	e283301c 	add	r3, r3, #28
    acb8:	e5d33000 	ldrb	r3, [r3]
    acbc:	e1a02003 	mov	r2, r3
    acc0:	e51b305c 	ldr	r3, [fp, #-92]	; 0x5c
    acc4:	e283301d 	add	r3, r3, #29
    acc8:	e5d33000 	ldrb	r3, [r3]
    accc:	e1a03403 	lsl	r3, r3, #8
    acd0:	e1822003 	orr	r2, r2, r3
    acd4:	e51b305c 	ldr	r3, [fp, #-92]	; 0x5c
    acd8:	e283301e 	add	r3, r3, #30
    acdc:	e5d33000 	ldrb	r3, [r3]
    ace0:	e1a03803 	lsl	r3, r3, #16
    ace4:	e1822003 	orr	r2, r2, r3
    ace8:	e51b305c 	ldr	r3, [fp, #-92]	; 0x5c
    acec:	e283301f 	add	r3, r3, #31
    acf0:	e5d33000 	ldrb	r3, [r3]
    acf4:	e1a03c03 	lsl	r3, r3, #24
    acf8:	e1823003 	orr	r3, r2, r3
    acfc:	e50b3038 	str	r3, [fp, #-56]	; 0x38
    ad00:	e51b305c 	ldr	r3, [fp, #-92]	; 0x5c
    ad04:	e2833020 	add	r3, r3, #32
    ad08:	e5d33000 	ldrb	r3, [r3]
    ad0c:	e1a02003 	mov	r2, r3
    ad10:	e51b305c 	ldr	r3, [fp, #-92]	; 0x5c
    ad14:	e2833021 	add	r3, r3, #33	; 0x21
    ad18:	e5d33000 	ldrb	r3, [r3]
    ad1c:	e1a03403 	lsl	r3, r3, #8
    ad20:	e1822003 	orr	r2, r2, r3
    ad24:	e51b305c 	ldr	r3, [fp, #-92]	; 0x5c
    ad28:	e2833022 	add	r3, r3, #34	; 0x22
    ad2c:	e5d33000 	ldrb	r3, [r3]
    ad30:	e1a03803 	lsl	r3, r3, #16
    ad34:	e1822003 	orr	r2, r2, r3
    ad38:	e51b305c 	ldr	r3, [fp, #-92]	; 0x5c
    ad3c:	e2833023 	add	r3, r3, #35	; 0x23
    ad40:	e5d33000 	ldrb	r3, [r3]
    ad44:	e1a03c03 	lsl	r3, r3, #24
    ad48:	e1823003 	orr	r3, r2, r3
    ad4c:	e50b3034 	str	r3, [fp, #-52]	; 0x34
    ad50:	e51b305c 	ldr	r3, [fp, #-92]	; 0x5c
    ad54:	e2833024 	add	r3, r3, #36	; 0x24
    ad58:	e5d33000 	ldrb	r3, [r3]
    ad5c:	e1a02003 	mov	r2, r3
    ad60:	e51b305c 	ldr	r3, [fp, #-92]	; 0x5c
    ad64:	e2833025 	add	r3, r3, #37	; 0x25
    ad68:	e5d33000 	ldrb	r3, [r3]
    ad6c:	e1a03403 	lsl	r3, r3, #8
    ad70:	e1822003 	orr	r2, r2, r3
    ad74:	e51b305c 	ldr	r3, [fp, #-92]	; 0x5c
    ad78:	e2833026 	add	r3, r3, #38	; 0x26
    ad7c:	e5d33000 	ldrb	r3, [r3]
    ad80:	e1a03803 	lsl	r3, r3, #16
    ad84:	e1822003 	orr	r2, r2, r3
    ad88:	e51b305c 	ldr	r3, [fp, #-92]	; 0x5c
    ad8c:	e2833027 	add	r3, r3, #39	; 0x27
    ad90:	e5d33000 	ldrb	r3, [r3]
    ad94:	e1a03c03 	lsl	r3, r3, #24
    ad98:	e1823003 	orr	r3, r2, r3
    ad9c:	e50b3030 	str	r3, [fp, #-48]	; 0x30
    ada0:	e51b305c 	ldr	r3, [fp, #-92]	; 0x5c
    ada4:	e2833028 	add	r3, r3, #40	; 0x28
    ada8:	e5d33000 	ldrb	r3, [r3]
    adac:	e1a02003 	mov	r2, r3
    adb0:	e51b305c 	ldr	r3, [fp, #-92]	; 0x5c
    adb4:	e2833029 	add	r3, r3, #41	; 0x29
    adb8:	e5d33000 	ldrb	r3, [r3]
    adbc:	e1a03403 	lsl	r3, r3, #8
    adc0:	e1822003 	orr	r2, r2, r3
    adc4:	e51b305c 	ldr	r3, [fp, #-92]	; 0x5c
    adc8:	e283302a 	add	r3, r3, #42	; 0x2a
    adcc:	e5d33000 	ldrb	r3, [r3]
    add0:	e1a03803 	lsl	r3, r3, #16
    add4:	e1822003 	orr	r2, r2, r3
    add8:	e51b305c 	ldr	r3, [fp, #-92]	; 0x5c
    addc:	e283302b 	add	r3, r3, #43	; 0x2b
    ade0:	e5d33000 	ldrb	r3, [r3]
    ade4:	e1a03c03 	lsl	r3, r3, #24
    ade8:	e1823003 	orr	r3, r2, r3
    adec:	e50b302c 	str	r3, [fp, #-44]	; 0x2c
    adf0:	e51b305c 	ldr	r3, [fp, #-92]	; 0x5c
    adf4:	e283302c 	add	r3, r3, #44	; 0x2c
    adf8:	e5d33000 	ldrb	r3, [r3]
    adfc:	e1a02003 	mov	r2, r3
    ae00:	e51b305c 	ldr	r3, [fp, #-92]	; 0x5c
    ae04:	e283302d 	add	r3, r3, #45	; 0x2d
    ae08:	e5d33000 	ldrb	r3, [r3]
    ae0c:	e1a03403 	lsl	r3, r3, #8
    ae10:	e1822003 	orr	r2, r2, r3
    ae14:	e51b305c 	ldr	r3, [fp, #-92]	; 0x5c
    ae18:	e283302e 	add	r3, r3, #46	; 0x2e
    ae1c:	e5d33000 	ldrb	r3, [r3]
    ae20:	e1a03803 	lsl	r3, r3, #16
    ae24:	e1822003 	orr	r2, r2, r3
    ae28:	e51b305c 	ldr	r3, [fp, #-92]	; 0x5c
    ae2c:	e283302f 	add	r3, r3, #47	; 0x2f
    ae30:	e5d33000 	ldrb	r3, [r3]
    ae34:	e1a03c03 	lsl	r3, r3, #24
    ae38:	e1823003 	orr	r3, r2, r3
    ae3c:	e50b3028 	str	r3, [fp, #-40]	; 0x28
    ae40:	e51b305c 	ldr	r3, [fp, #-92]	; 0x5c
    ae44:	e2833030 	add	r3, r3, #48	; 0x30
    ae48:	e5d33000 	ldrb	r3, [r3]
    ae4c:	e1a02003 	mov	r2, r3
    ae50:	e51b305c 	ldr	r3, [fp, #-92]	; 0x5c
    ae54:	e2833031 	add	r3, r3, #49	; 0x31
    ae58:	e5d33000 	ldrb	r3, [r3]
    ae5c:	e1a03403 	lsl	r3, r3, #8
    ae60:	e1822003 	orr	r2, r2, r3
    ae64:	e51b305c 	ldr	r3, [fp, #-92]	; 0x5c
    ae68:	e2833032 	add	r3, r3, #50	; 0x32
    ae6c:	e5d33000 	ldrb	r3, [r3]
    ae70:	e1a03803 	lsl	r3, r3, #16
    ae74:	e1822003 	orr	r2, r2, r3
    ae78:	e51b305c 	ldr	r3, [fp, #-92]	; 0x5c
    ae7c:	e2833033 	add	r3, r3, #51	; 0x33
    ae80:	e5d33000 	ldrb	r3, [r3]
    ae84:	e1a03c03 	lsl	r3, r3, #24
    ae88:	e1823003 	orr	r3, r2, r3
    ae8c:	e50b3024 	str	r3, [fp, #-36]	; 0x24
    ae90:	e51b305c 	ldr	r3, [fp, #-92]	; 0x5c
    ae94:	e2833034 	add	r3, r3, #52	; 0x34
    ae98:	e5d33000 	ldrb	r3, [r3]
    ae9c:	e1a02003 	mov	r2, r3
    aea0:	e51b305c 	ldr	r3, [fp, #-92]	; 0x5c
    aea4:	e2833035 	add	r3, r3, #53	; 0x35
    aea8:	e5d33000 	ldrb	r3, [r3]
    aeac:	e1a03403 	lsl	r3, r3, #8
    aeb0:	e1822003 	orr	r2, r2, r3
    aeb4:	e51b305c 	ldr	r3, [fp, #-92]	; 0x5c
    aeb8:	e2833036 	add	r3, r3, #54	; 0x36
    aebc:	e5d33000 	ldrb	r3, [r3]
    aec0:	e1a03803 	lsl	r3, r3, #16
    aec4:	e1822003 	orr	r2, r2, r3
    aec8:	e51b305c 	ldr	r3, [fp, #-92]	; 0x5c
    aecc:	e2833037 	add	r3, r3, #55	; 0x37
    aed0:	e5d33000 	ldrb	r3, [r3]
    aed4:	e1a03c03 	lsl	r3, r3, #24
    aed8:	e1823003 	orr	r3, r2, r3
    aedc:	e50b3020 	str	r3, [fp, #-32]
    aee0:	e51b305c 	ldr	r3, [fp, #-92]	; 0x5c
    aee4:	e2833038 	add	r3, r3, #56	; 0x38
    aee8:	e5d33000 	ldrb	r3, [r3]
    aeec:	e1a02003 	mov	r2, r3
    aef0:	e51b305c 	ldr	r3, [fp, #-92]	; 0x5c
    aef4:	e2833039 	add	r3, r3, #57	; 0x39
    aef8:	e5d33000 	ldrb	r3, [r3]
    aefc:	e1a03403 	lsl	r3, r3, #8
    af00:	e1822003 	orr	r2, r2, r3
    af04:	e51b305c 	ldr	r3, [fp, #-92]	; 0x5c
    af08:	e283303a 	add	r3, r3, #58	; 0x3a
    af0c:	e5d33000 	ldrb	r3, [r3]
    af10:	e1a03803 	lsl	r3, r3, #16
    af14:	e1822003 	orr	r2, r2, r3
    af18:	e51b305c 	ldr	r3, [fp, #-92]	; 0x5c
    af1c:	e283303b 	add	r3, r3, #59	; 0x3b
    af20:	e5d33000 	ldrb	r3, [r3]
    af24:	e1a03c03 	lsl	r3, r3, #24
    af28:	e1823003 	orr	r3, r2, r3
    af2c:	e50b301c 	str	r3, [fp, #-28]
    af30:	e51b305c 	ldr	r3, [fp, #-92]	; 0x5c
    af34:	e283303c 	add	r3, r3, #60	; 0x3c
    af38:	e5d33000 	ldrb	r3, [r3]
    af3c:	e1a02003 	mov	r2, r3
    af40:	e51b305c 	ldr	r3, [fp, #-92]	; 0x5c
    af44:	e283303d 	add	r3, r3, #61	; 0x3d
    af48:	e5d33000 	ldrb	r3, [r3]
    af4c:	e1a03403 	lsl	r3, r3, #8
    af50:	e1822003 	orr	r2, r2, r3
    af54:	e51b305c 	ldr	r3, [fp, #-92]	; 0x5c
    af58:	e283303e 	add	r3, r3, #62	; 0x3e
    af5c:	e5d33000 	ldrb	r3, [r3]
    af60:	e1a03803 	lsl	r3, r3, #16
    af64:	e1822003 	orr	r2, r2, r3
    af68:	e51b305c 	ldr	r3, [fp, #-92]	; 0x5c
    af6c:	e283303f 	add	r3, r3, #63	; 0x3f
    af70:	e5d33000 	ldrb	r3, [r3]
    af74:	e1a03c03 	lsl	r3, r3, #24
    af78:	e1823003 	orr	r3, r2, r3
    af7c:	e50b3018 	str	r3, [fp, #-24]
    af80:	e51b3058 	ldr	r3, [fp, #-88]	; 0x58
    af84:	e5933008 	ldr	r3, [r3, #8]
    af88:	e50b3008 	str	r3, [fp, #-8]
    af8c:	e51b3058 	ldr	r3, [fp, #-88]	; 0x58
    af90:	e593300c 	ldr	r3, [r3, #12]
    af94:	e50b300c 	str	r3, [fp, #-12]
    af98:	e51b3058 	ldr	r3, [fp, #-88]	; 0x58
    af9c:	e5933010 	ldr	r3, [r3, #16]
    afa0:	e50b3010 	str	r3, [fp, #-16]
    afa4:	e51b3058 	ldr	r3, [fp, #-88]	; 0x58
    afa8:	e5933014 	ldr	r3, [r3, #20]
    afac:	e50b3014 	str	r3, [fp, #-20]
    afb0:	e51b200c 	ldr	r2, [fp, #-12]
    afb4:	e51b3010 	ldr	r3, [fp, #-16]
    afb8:	e0022003 	and	r2, r2, r3
    afbc:	e51b300c 	ldr	r3, [fp, #-12]
    afc0:	e1e01003 	mvn	r1, r3
    afc4:	e51b3014 	ldr	r3, [fp, #-20]
    afc8:	e0013003 	and	r3, r1, r3
    afcc:	e1822003 	orr	r2, r2, r3
    afd0:	e51b3054 	ldr	r3, [fp, #-84]	; 0x54
    afd4:	e0823003 	add	r3, r2, r3
    afd8:	e51b2008 	ldr	r2, [fp, #-8]
    afdc:	e0823003 	add	r3, r2, r3
    afe0:	e50b3008 	str	r3, [fp, #-8]
    afe4:	e51b3008 	ldr	r3, [fp, #-8]
    afe8:	e1a03ee3 	ror	r3, r3, #29
    afec:	e50b3008 	str	r3, [fp, #-8]
    aff0:	e51b2008 	ldr	r2, [fp, #-8]
    aff4:	e51b300c 	ldr	r3, [fp, #-12]
    aff8:	e0022003 	and	r2, r2, r3
    affc:	e51b3008 	ldr	r3, [fp, #-8]
    b000:	e1e01003 	mvn	r1, r3
    b004:	e51b3010 	ldr	r3, [fp, #-16]
    b008:	e0013003 	and	r3, r1, r3
    b00c:	e1822003 	orr	r2, r2, r3
    b010:	e51b3050 	ldr	r3, [fp, #-80]	; 0x50
    b014:	e0823003 	add	r3, r2, r3
    b018:	e51b2014 	ldr	r2, [fp, #-20]
    b01c:	e0823003 	add	r3, r2, r3
    b020:	e50b3014 	str	r3, [fp, #-20]
    b024:	e51b3014 	ldr	r3, [fp, #-20]
    b028:	e1a03ce3 	ror	r3, r3, #25
    b02c:	e50b3014 	str	r3, [fp, #-20]
    b030:	e51b2014 	ldr	r2, [fp, #-20]
    b034:	e51b3008 	ldr	r3, [fp, #-8]
    b038:	e0022003 	and	r2, r2, r3
    b03c:	e51b3014 	ldr	r3, [fp, #-20]
    b040:	e1e01003 	mvn	r1, r3
    b044:	e51b300c 	ldr	r3, [fp, #-12]
    b048:	e0013003 	and	r3, r1, r3
    b04c:	e1822003 	orr	r2, r2, r3
    b050:	e51b304c 	ldr	r3, [fp, #-76]	; 0x4c
    b054:	e0823003 	add	r3, r2, r3
    b058:	e51b2010 	ldr	r2, [fp, #-16]
    b05c:	e0823003 	add	r3, r2, r3
    b060:	e50b3010 	str	r3, [fp, #-16]
    b064:	e51b3010 	ldr	r3, [fp, #-16]
    b068:	e1a03ae3 	ror	r3, r3, #21
    b06c:	e50b3010 	str	r3, [fp, #-16]
    b070:	e51b2010 	ldr	r2, [fp, #-16]
    b074:	e51b3014 	ldr	r3, [fp, #-20]
    b078:	e0022003 	and	r2, r2, r3
    b07c:	e51b3010 	ldr	r3, [fp, #-16]
    b080:	e1e01003 	mvn	r1, r3
    b084:	e51b3008 	ldr	r3, [fp, #-8]
    b088:	e0013003 	and	r3, r1, r3
    b08c:	e1822003 	orr	r2, r2, r3
    b090:	e51b3048 	ldr	r3, [fp, #-72]	; 0x48
    b094:	e0823003 	add	r3, r2, r3
    b098:	e51b200c 	ldr	r2, [fp, #-12]
    b09c:	e0823003 	add	r3, r2, r3
    b0a0:	e50b300c 	str	r3, [fp, #-12]
    b0a4:	e51b300c 	ldr	r3, [fp, #-12]
    b0a8:	e1a036e3 	ror	r3, r3, #13
    b0ac:	e50b300c 	str	r3, [fp, #-12]
    b0b0:	e51b200c 	ldr	r2, [fp, #-12]
    b0b4:	e51b3010 	ldr	r3, [fp, #-16]
    b0b8:	e0022003 	and	r2, r2, r3
    b0bc:	e51b300c 	ldr	r3, [fp, #-12]
    b0c0:	e1e01003 	mvn	r1, r3
    b0c4:	e51b3014 	ldr	r3, [fp, #-20]
    b0c8:	e0013003 	and	r3, r1, r3
    b0cc:	e1822003 	orr	r2, r2, r3
    b0d0:	e51b3044 	ldr	r3, [fp, #-68]	; 0x44
    b0d4:	e0823003 	add	r3, r2, r3
    b0d8:	e51b2008 	ldr	r2, [fp, #-8]
    b0dc:	e0823003 	add	r3, r2, r3
    b0e0:	e50b3008 	str	r3, [fp, #-8]
    b0e4:	e51b3008 	ldr	r3, [fp, #-8]
    b0e8:	e1a03ee3 	ror	r3, r3, #29
    b0ec:	e50b3008 	str	r3, [fp, #-8]
    b0f0:	e51b2008 	ldr	r2, [fp, #-8]
    b0f4:	e51b300c 	ldr	r3, [fp, #-12]
    b0f8:	e0022003 	and	r2, r2, r3
    b0fc:	e51b3008 	ldr	r3, [fp, #-8]
    b100:	e1e01003 	mvn	r1, r3
    b104:	e51b3010 	ldr	r3, [fp, #-16]
    b108:	e0013003 	and	r3, r1, r3
    b10c:	e1822003 	orr	r2, r2, r3
    b110:	e51b3040 	ldr	r3, [fp, #-64]	; 0x40
    b114:	e0823003 	add	r3, r2, r3
    b118:	e51b2014 	ldr	r2, [fp, #-20]
    b11c:	e0823003 	add	r3, r2, r3
    b120:	e50b3014 	str	r3, [fp, #-20]
    b124:	e51b3014 	ldr	r3, [fp, #-20]
    b128:	e1a03ce3 	ror	r3, r3, #25
    b12c:	e50b3014 	str	r3, [fp, #-20]
    b130:	e51b2014 	ldr	r2, [fp, #-20]
    b134:	e51b3008 	ldr	r3, [fp, #-8]
    b138:	e0022003 	and	r2, r2, r3
    b13c:	e51b3014 	ldr	r3, [fp, #-20]
    b140:	e1e01003 	mvn	r1, r3
    b144:	e51b300c 	ldr	r3, [fp, #-12]
    b148:	e0013003 	and	r3, r1, r3
    b14c:	e1822003 	orr	r2, r2, r3
    b150:	e51b303c 	ldr	r3, [fp, #-60]	; 0x3c
    b154:	e0823003 	add	r3, r2, r3
    b158:	e51b2010 	ldr	r2, [fp, #-16]
    b15c:	e0823003 	add	r3, r2, r3
    b160:	e50b3010 	str	r3, [fp, #-16]
    b164:	e51b3010 	ldr	r3, [fp, #-16]
    b168:	e1a03ae3 	ror	r3, r3, #21
    b16c:	e50b3010 	str	r3, [fp, #-16]
    b170:	e51b2010 	ldr	r2, [fp, #-16]
    b174:	e51b3014 	ldr	r3, [fp, #-20]
    b178:	e0022003 	and	r2, r2, r3
    b17c:	e51b3010 	ldr	r3, [fp, #-16]
    b180:	e1e01003 	mvn	r1, r3
    b184:	e51b3008 	ldr	r3, [fp, #-8]
    b188:	e0013003 	and	r3, r1, r3
    b18c:	e1822003 	orr	r2, r2, r3
    b190:	e51b3038 	ldr	r3, [fp, #-56]	; 0x38
    b194:	e0823003 	add	r3, r2, r3
    b198:	e51b200c 	ldr	r2, [fp, #-12]
    b19c:	e0823003 	add	r3, r2, r3
    b1a0:	e50b300c 	str	r3, [fp, #-12]
    b1a4:	e51b300c 	ldr	r3, [fp, #-12]
    b1a8:	e1a036e3 	ror	r3, r3, #13
    b1ac:	e50b300c 	str	r3, [fp, #-12]
    b1b0:	e51b200c 	ldr	r2, [fp, #-12]
    b1b4:	e51b3010 	ldr	r3, [fp, #-16]
    b1b8:	e0022003 	and	r2, r2, r3
    b1bc:	e51b300c 	ldr	r3, [fp, #-12]
    b1c0:	e1e01003 	mvn	r1, r3
    b1c4:	e51b3014 	ldr	r3, [fp, #-20]
    b1c8:	e0013003 	and	r3, r1, r3
    b1cc:	e1822003 	orr	r2, r2, r3
    b1d0:	e51b3034 	ldr	r3, [fp, #-52]	; 0x34
    b1d4:	e0823003 	add	r3, r2, r3
    b1d8:	e51b2008 	ldr	r2, [fp, #-8]
    b1dc:	e0823003 	add	r3, r2, r3
    b1e0:	e50b3008 	str	r3, [fp, #-8]
    b1e4:	e51b3008 	ldr	r3, [fp, #-8]
    b1e8:	e1a03ee3 	ror	r3, r3, #29
    b1ec:	e50b3008 	str	r3, [fp, #-8]
    b1f0:	e51b2008 	ldr	r2, [fp, #-8]
    b1f4:	e51b300c 	ldr	r3, [fp, #-12]
    b1f8:	e0022003 	and	r2, r2, r3
    b1fc:	e51b3008 	ldr	r3, [fp, #-8]
    b200:	e1e01003 	mvn	r1, r3
    b204:	e51b3010 	ldr	r3, [fp, #-16]
    b208:	e0013003 	and	r3, r1, r3
    b20c:	e1822003 	orr	r2, r2, r3
    b210:	e51b3030 	ldr	r3, [fp, #-48]	; 0x30
    b214:	e0823003 	add	r3, r2, r3
    b218:	e51b2014 	ldr	r2, [fp, #-20]
    b21c:	e0823003 	add	r3, r2, r3
    b220:	e50b3014 	str	r3, [fp, #-20]
    b224:	e51b3014 	ldr	r3, [fp, #-20]
    b228:	e1a03ce3 	ror	r3, r3, #25
    b22c:	e50b3014 	str	r3, [fp, #-20]
    b230:	e51b2014 	ldr	r2, [fp, #-20]
    b234:	e51b3008 	ldr	r3, [fp, #-8]
    b238:	e0022003 	and	r2, r2, r3
    b23c:	e51b3014 	ldr	r3, [fp, #-20]
    b240:	e1e01003 	mvn	r1, r3
    b244:	e51b300c 	ldr	r3, [fp, #-12]
    b248:	e0013003 	and	r3, r1, r3
    b24c:	e1822003 	orr	r2, r2, r3
    b250:	e51b302c 	ldr	r3, [fp, #-44]	; 0x2c
    b254:	e0823003 	add	r3, r2, r3
    b258:	e51b2010 	ldr	r2, [fp, #-16]
    b25c:	e0823003 	add	r3, r2, r3
    b260:	e50b3010 	str	r3, [fp, #-16]
    b264:	e51b3010 	ldr	r3, [fp, #-16]
    b268:	e1a03ae3 	ror	r3, r3, #21
    b26c:	e50b3010 	str	r3, [fp, #-16]
    b270:	e51b2010 	ldr	r2, [fp, #-16]
    b274:	e51b3014 	ldr	r3, [fp, #-20]
    b278:	e0022003 	and	r2, r2, r3
    b27c:	e51b3010 	ldr	r3, [fp, #-16]
    b280:	e1e01003 	mvn	r1, r3
    b284:	e51b3008 	ldr	r3, [fp, #-8]
    b288:	e0013003 	and	r3, r1, r3
    b28c:	e1822003 	orr	r2, r2, r3
    b290:	e51b3028 	ldr	r3, [fp, #-40]	; 0x28
    b294:	e0823003 	add	r3, r2, r3
    b298:	e51b200c 	ldr	r2, [fp, #-12]
    b29c:	e0823003 	add	r3, r2, r3
    b2a0:	e50b300c 	str	r3, [fp, #-12]
    b2a4:	e51b300c 	ldr	r3, [fp, #-12]
    b2a8:	e1a036e3 	ror	r3, r3, #13
    b2ac:	e50b300c 	str	r3, [fp, #-12]
    b2b0:	e51b200c 	ldr	r2, [fp, #-12]
    b2b4:	e51b3010 	ldr	r3, [fp, #-16]
    b2b8:	e0022003 	and	r2, r2, r3
    b2bc:	e51b300c 	ldr	r3, [fp, #-12]
    b2c0:	e1e01003 	mvn	r1, r3
    b2c4:	e51b3014 	ldr	r3, [fp, #-20]
    b2c8:	e0013003 	and	r3, r1, r3
    b2cc:	e1822003 	orr	r2, r2, r3
    b2d0:	e51b3024 	ldr	r3, [fp, #-36]	; 0x24
    b2d4:	e0823003 	add	r3, r2, r3
    b2d8:	e51b2008 	ldr	r2, [fp, #-8]
    b2dc:	e0823003 	add	r3, r2, r3
    b2e0:	e50b3008 	str	r3, [fp, #-8]
    b2e4:	e51b3008 	ldr	r3, [fp, #-8]
    b2e8:	e1a03ee3 	ror	r3, r3, #29
    b2ec:	e50b3008 	str	r3, [fp, #-8]
    b2f0:	e51b2008 	ldr	r2, [fp, #-8]
    b2f4:	e51b300c 	ldr	r3, [fp, #-12]
    b2f8:	e0022003 	and	r2, r2, r3
    b2fc:	e51b3008 	ldr	r3, [fp, #-8]
    b300:	e1e01003 	mvn	r1, r3
    b304:	e51b3010 	ldr	r3, [fp, #-16]
    b308:	e0013003 	and	r3, r1, r3
    b30c:	e1822003 	orr	r2, r2, r3
    b310:	e51b3020 	ldr	r3, [fp, #-32]
    b314:	e0823003 	add	r3, r2, r3
    b318:	e51b2014 	ldr	r2, [fp, #-20]
    b31c:	e0823003 	add	r3, r2, r3
    b320:	e50b3014 	str	r3, [fp, #-20]
    b324:	e51b3014 	ldr	r3, [fp, #-20]
    b328:	e1a03ce3 	ror	r3, r3, #25
    b32c:	e50b3014 	str	r3, [fp, #-20]
    b330:	e51b2014 	ldr	r2, [fp, #-20]
    b334:	e51b3008 	ldr	r3, [fp, #-8]
    b338:	e0022003 	and	r2, r2, r3
    b33c:	e51b3014 	ldr	r3, [fp, #-20]
    b340:	e1e01003 	mvn	r1, r3
    b344:	e51b300c 	ldr	r3, [fp, #-12]
    b348:	e0013003 	and	r3, r1, r3
    b34c:	e1822003 	orr	r2, r2, r3
    b350:	e51b301c 	ldr	r3, [fp, #-28]
    b354:	e0823003 	add	r3, r2, r3
    b358:	e51b2010 	ldr	r2, [fp, #-16]
    b35c:	e0823003 	add	r3, r2, r3
    b360:	e50b3010 	str	r3, [fp, #-16]
    b364:	e51b3010 	ldr	r3, [fp, #-16]
    b368:	e1a03ae3 	ror	r3, r3, #21
    b36c:	e50b3010 	str	r3, [fp, #-16]
    b370:	e51b2010 	ldr	r2, [fp, #-16]
    b374:	e51b3014 	ldr	r3, [fp, #-20]
    b378:	e0022003 	and	r2, r2, r3
    b37c:	e51b3010 	ldr	r3, [fp, #-16]
    b380:	e1e01003 	mvn	r1, r3
    b384:	e51b3008 	ldr	r3, [fp, #-8]
    b388:	e0013003 	and	r3, r1, r3
    b38c:	e1822003 	orr	r2, r2, r3
    b390:	e51b3018 	ldr	r3, [fp, #-24]
    b394:	e0823003 	add	r3, r2, r3
    b398:	e51b200c 	ldr	r2, [fp, #-12]
    b39c:	e0823003 	add	r3, r2, r3
    b3a0:	e50b300c 	str	r3, [fp, #-12]
    b3a4:	e51b300c 	ldr	r3, [fp, #-12]
    b3a8:	e1a036e3 	ror	r3, r3, #13
    b3ac:	e50b300c 	str	r3, [fp, #-12]
    b3b0:	e51b2010 	ldr	r2, [fp, #-16]
    b3b4:	e51b3014 	ldr	r3, [fp, #-20]
    b3b8:	e1822003 	orr	r2, r2, r3
    b3bc:	e51b300c 	ldr	r3, [fp, #-12]
    b3c0:	e0022003 	and	r2, r2, r3
    b3c4:	e51b1010 	ldr	r1, [fp, #-16]
    b3c8:	e51b3014 	ldr	r3, [fp, #-20]
    b3cc:	e0013003 	and	r3, r1, r3
    b3d0:	e1822003 	orr	r2, r2, r3
    b3d4:	e51b3054 	ldr	r3, [fp, #-84]	; 0x54
    b3d8:	e0822003 	add	r2, r2, r3
    b3dc:	e51b3008 	ldr	r3, [fp, #-8]
    b3e0:	e0822003 	add	r2, r2, r3
    b3e4:	e59f38b0 	ldr	r3, [pc, #2224]	; bc9c <md4_process+0x122c>
    b3e8:	e0823003 	add	r3, r2, r3
    b3ec:	e50b3008 	str	r3, [fp, #-8]
    b3f0:	e51b3008 	ldr	r3, [fp, #-8]
    b3f4:	e1a03ee3 	ror	r3, r3, #29
    b3f8:	e50b3008 	str	r3, [fp, #-8]
    b3fc:	e51b200c 	ldr	r2, [fp, #-12]
    b400:	e51b3010 	ldr	r3, [fp, #-16]
    b404:	e1822003 	orr	r2, r2, r3
    b408:	e51b3008 	ldr	r3, [fp, #-8]
    b40c:	e0022003 	and	r2, r2, r3
    b410:	e51b100c 	ldr	r1, [fp, #-12]
    b414:	e51b3010 	ldr	r3, [fp, #-16]
    b418:	e0013003 	and	r3, r1, r3
    b41c:	e1822003 	orr	r2, r2, r3
    b420:	e51b3044 	ldr	r3, [fp, #-68]	; 0x44
    b424:	e0822003 	add	r2, r2, r3
    b428:	e51b3014 	ldr	r3, [fp, #-20]
    b42c:	e0822003 	add	r2, r2, r3
    b430:	e59f3864 	ldr	r3, [pc, #2148]	; bc9c <md4_process+0x122c>
    b434:	e0823003 	add	r3, r2, r3
    b438:	e50b3014 	str	r3, [fp, #-20]
    b43c:	e51b3014 	ldr	r3, [fp, #-20]
    b440:	e1a03de3 	ror	r3, r3, #27
    b444:	e50b3014 	str	r3, [fp, #-20]
    b448:	e51b2008 	ldr	r2, [fp, #-8]
    b44c:	e51b300c 	ldr	r3, [fp, #-12]
    b450:	e1822003 	orr	r2, r2, r3
    b454:	e51b3014 	ldr	r3, [fp, #-20]
    b458:	e0022003 	and	r2, r2, r3
    b45c:	e51b1008 	ldr	r1, [fp, #-8]
    b460:	e51b300c 	ldr	r3, [fp, #-12]
    b464:	e0013003 	and	r3, r1, r3
    b468:	e1822003 	orr	r2, r2, r3
    b46c:	e51b3034 	ldr	r3, [fp, #-52]	; 0x34
    b470:	e0822003 	add	r2, r2, r3
    b474:	e51b3010 	ldr	r3, [fp, #-16]
    b478:	e0822003 	add	r2, r2, r3
    b47c:	e59f3818 	ldr	r3, [pc, #2072]	; bc9c <md4_process+0x122c>
    b480:	e0823003 	add	r3, r2, r3
    b484:	e50b3010 	str	r3, [fp, #-16]
    b488:	e51b3010 	ldr	r3, [fp, #-16]
    b48c:	e1a03be3 	ror	r3, r3, #23
    b490:	e50b3010 	str	r3, [fp, #-16]
    b494:	e51b2014 	ldr	r2, [fp, #-20]
    b498:	e51b3008 	ldr	r3, [fp, #-8]
    b49c:	e1822003 	orr	r2, r2, r3
    b4a0:	e51b3010 	ldr	r3, [fp, #-16]
    b4a4:	e0022003 	and	r2, r2, r3
    b4a8:	e51b1014 	ldr	r1, [fp, #-20]
    b4ac:	e51b3008 	ldr	r3, [fp, #-8]
    b4b0:	e0013003 	and	r3, r1, r3
    b4b4:	e1822003 	orr	r2, r2, r3
    b4b8:	e51b3024 	ldr	r3, [fp, #-36]	; 0x24
    b4bc:	e0822003 	add	r2, r2, r3
    b4c0:	e51b300c 	ldr	r3, [fp, #-12]
    b4c4:	e0822003 	add	r2, r2, r3
    b4c8:	e59f37cc 	ldr	r3, [pc, #1996]	; bc9c <md4_process+0x122c>
    b4cc:	e0823003 	add	r3, r2, r3
    b4d0:	e50b300c 	str	r3, [fp, #-12]
    b4d4:	e51b300c 	ldr	r3, [fp, #-12]
    b4d8:	e1a039e3 	ror	r3, r3, #19
    b4dc:	e50b300c 	str	r3, [fp, #-12]
    b4e0:	e51b2010 	ldr	r2, [fp, #-16]
    b4e4:	e51b3014 	ldr	r3, [fp, #-20]
    b4e8:	e1822003 	orr	r2, r2, r3
    b4ec:	e51b300c 	ldr	r3, [fp, #-12]
    b4f0:	e0022003 	and	r2, r2, r3
    b4f4:	e51b1010 	ldr	r1, [fp, #-16]
    b4f8:	e51b3014 	ldr	r3, [fp, #-20]
    b4fc:	e0013003 	and	r3, r1, r3
    b500:	e1822003 	orr	r2, r2, r3
    b504:	e51b3050 	ldr	r3, [fp, #-80]	; 0x50
    b508:	e0822003 	add	r2, r2, r3
    b50c:	e51b3008 	ldr	r3, [fp, #-8]
    b510:	e0822003 	add	r2, r2, r3
    b514:	e59f3780 	ldr	r3, [pc, #1920]	; bc9c <md4_process+0x122c>
    b518:	e0823003 	add	r3, r2, r3
    b51c:	e50b3008 	str	r3, [fp, #-8]
    b520:	e51b3008 	ldr	r3, [fp, #-8]
    b524:	e1a03ee3 	ror	r3, r3, #29
    b528:	e50b3008 	str	r3, [fp, #-8]
    b52c:	e51b200c 	ldr	r2, [fp, #-12]
    b530:	e51b3010 	ldr	r3, [fp, #-16]
    b534:	e1822003 	orr	r2, r2, r3
    b538:	e51b3008 	ldr	r3, [fp, #-8]
    b53c:	e0022003 	and	r2, r2, r3
    b540:	e51b100c 	ldr	r1, [fp, #-12]
    b544:	e51b3010 	ldr	r3, [fp, #-16]
    b548:	e0013003 	and	r3, r1, r3
    b54c:	e1822003 	orr	r2, r2, r3
    b550:	e51b3040 	ldr	r3, [fp, #-64]	; 0x40
    b554:	e0822003 	add	r2, r2, r3
    b558:	e51b3014 	ldr	r3, [fp, #-20]
    b55c:	e0822003 	add	r2, r2, r3
    b560:	e59f3734 	ldr	r3, [pc, #1844]	; bc9c <md4_process+0x122c>
    b564:	e0823003 	add	r3, r2, r3
    b568:	e50b3014 	str	r3, [fp, #-20]
    b56c:	e51b3014 	ldr	r3, [fp, #-20]
    b570:	e1a03de3 	ror	r3, r3, #27
    b574:	e50b3014 	str	r3, [fp, #-20]
    b578:	e51b2008 	ldr	r2, [fp, #-8]
    b57c:	e51b300c 	ldr	r3, [fp, #-12]
    b580:	e1822003 	orr	r2, r2, r3
    b584:	e51b3014 	ldr	r3, [fp, #-20]
    b588:	e0022003 	and	r2, r2, r3
    b58c:	e51b1008 	ldr	r1, [fp, #-8]
    b590:	e51b300c 	ldr	r3, [fp, #-12]
    b594:	e0013003 	and	r3, r1, r3
    b598:	e1822003 	orr	r2, r2, r3
    b59c:	e51b3030 	ldr	r3, [fp, #-48]	; 0x30
    b5a0:	e0822003 	add	r2, r2, r3
    b5a4:	e51b3010 	ldr	r3, [fp, #-16]
    b5a8:	e0822003 	add	r2, r2, r3
    b5ac:	e59f36e8 	ldr	r3, [pc, #1768]	; bc9c <md4_process+0x122c>
    b5b0:	e0823003 	add	r3, r2, r3
    b5b4:	e50b3010 	str	r3, [fp, #-16]
    b5b8:	e51b3010 	ldr	r3, [fp, #-16]
    b5bc:	e1a03be3 	ror	r3, r3, #23
    b5c0:	e50b3010 	str	r3, [fp, #-16]
    b5c4:	e51b2014 	ldr	r2, [fp, #-20]
    b5c8:	e51b3008 	ldr	r3, [fp, #-8]
    b5cc:	e1822003 	orr	r2, r2, r3
    b5d0:	e51b3010 	ldr	r3, [fp, #-16]
    b5d4:	e0022003 	and	r2, r2, r3
    b5d8:	e51b1014 	ldr	r1, [fp, #-20]
    b5dc:	e51b3008 	ldr	r3, [fp, #-8]
    b5e0:	e0013003 	and	r3, r1, r3
    b5e4:	e1822003 	orr	r2, r2, r3
    b5e8:	e51b3020 	ldr	r3, [fp, #-32]
    b5ec:	e0822003 	add	r2, r2, r3
    b5f0:	e51b300c 	ldr	r3, [fp, #-12]
    b5f4:	e0822003 	add	r2, r2, r3
    b5f8:	e59f369c 	ldr	r3, [pc, #1692]	; bc9c <md4_process+0x122c>
    b5fc:	e0823003 	add	r3, r2, r3
    b600:	e50b300c 	str	r3, [fp, #-12]
    b604:	e51b300c 	ldr	r3, [fp, #-12]
    b608:	e1a039e3 	ror	r3, r3, #19
    b60c:	e50b300c 	str	r3, [fp, #-12]
    b610:	e51b2010 	ldr	r2, [fp, #-16]
    b614:	e51b3014 	ldr	r3, [fp, #-20]
    b618:	e1822003 	orr	r2, r2, r3
    b61c:	e51b300c 	ldr	r3, [fp, #-12]
    b620:	e0022003 	and	r2, r2, r3
    b624:	e51b1010 	ldr	r1, [fp, #-16]
    b628:	e51b3014 	ldr	r3, [fp, #-20]
    b62c:	e0013003 	and	r3, r1, r3
    b630:	e1822003 	orr	r2, r2, r3
    b634:	e51b304c 	ldr	r3, [fp, #-76]	; 0x4c
    b638:	e0822003 	add	r2, r2, r3
    b63c:	e51b3008 	ldr	r3, [fp, #-8]
    b640:	e0822003 	add	r2, r2, r3
    b644:	e59f3650 	ldr	r3, [pc, #1616]	; bc9c <md4_process+0x122c>
    b648:	e0823003 	add	r3, r2, r3
    b64c:	e50b3008 	str	r3, [fp, #-8]
    b650:	e51b3008 	ldr	r3, [fp, #-8]
    b654:	e1a03ee3 	ror	r3, r3, #29
    b658:	e50b3008 	str	r3, [fp, #-8]
    b65c:	e51b200c 	ldr	r2, [fp, #-12]
    b660:	e51b3010 	ldr	r3, [fp, #-16]
    b664:	e1822003 	orr	r2, r2, r3
    b668:	e51b3008 	ldr	r3, [fp, #-8]
    b66c:	e0022003 	and	r2, r2, r3
    b670:	e51b100c 	ldr	r1, [fp, #-12]
    b674:	e51b3010 	ldr	r3, [fp, #-16]
    b678:	e0013003 	and	r3, r1, r3
    b67c:	e1822003 	orr	r2, r2, r3
    b680:	e51b303c 	ldr	r3, [fp, #-60]	; 0x3c
    b684:	e0822003 	add	r2, r2, r3
    b688:	e51b3014 	ldr	r3, [fp, #-20]
    b68c:	e0822003 	add	r2, r2, r3
    b690:	e59f3604 	ldr	r3, [pc, #1540]	; bc9c <md4_process+0x122c>
    b694:	e0823003 	add	r3, r2, r3
    b698:	e50b3014 	str	r3, [fp, #-20]
    b69c:	e51b3014 	ldr	r3, [fp, #-20]
    b6a0:	e1a03de3 	ror	r3, r3, #27
    b6a4:	e50b3014 	str	r3, [fp, #-20]
    b6a8:	e51b2008 	ldr	r2, [fp, #-8]
    b6ac:	e51b300c 	ldr	r3, [fp, #-12]
    b6b0:	e1822003 	orr	r2, r2, r3
    b6b4:	e51b3014 	ldr	r3, [fp, #-20]
    b6b8:	e0022003 	and	r2, r2, r3
    b6bc:	e51b1008 	ldr	r1, [fp, #-8]
    b6c0:	e51b300c 	ldr	r3, [fp, #-12]
    b6c4:	e0013003 	and	r3, r1, r3
    b6c8:	e1822003 	orr	r2, r2, r3
    b6cc:	e51b302c 	ldr	r3, [fp, #-44]	; 0x2c
    b6d0:	e0822003 	add	r2, r2, r3
    b6d4:	e51b3010 	ldr	r3, [fp, #-16]
    b6d8:	e0822003 	add	r2, r2, r3
    b6dc:	e59f35b8 	ldr	r3, [pc, #1464]	; bc9c <md4_process+0x122c>
    b6e0:	e0823003 	add	r3, r2, r3
    b6e4:	e50b3010 	str	r3, [fp, #-16]
    b6e8:	e51b3010 	ldr	r3, [fp, #-16]
    b6ec:	e1a03be3 	ror	r3, r3, #23
    b6f0:	e50b3010 	str	r3, [fp, #-16]
    b6f4:	e51b2014 	ldr	r2, [fp, #-20]
    b6f8:	e51b3008 	ldr	r3, [fp, #-8]
    b6fc:	e1822003 	orr	r2, r2, r3
    b700:	e51b3010 	ldr	r3, [fp, #-16]
    b704:	e0022003 	and	r2, r2, r3
    b708:	e51b1014 	ldr	r1, [fp, #-20]
    b70c:	e51b3008 	ldr	r3, [fp, #-8]
    b710:	e0013003 	and	r3, r1, r3
    b714:	e1822003 	orr	r2, r2, r3
    b718:	e51b301c 	ldr	r3, [fp, #-28]
    b71c:	e0822003 	add	r2, r2, r3
    b720:	e51b300c 	ldr	r3, [fp, #-12]
    b724:	e0822003 	add	r2, r2, r3
    b728:	e59f356c 	ldr	r3, [pc, #1388]	; bc9c <md4_process+0x122c>
    b72c:	e0823003 	add	r3, r2, r3
    b730:	e50b300c 	str	r3, [fp, #-12]
    b734:	e51b300c 	ldr	r3, [fp, #-12]
    b738:	e1a039e3 	ror	r3, r3, #19
    b73c:	e50b300c 	str	r3, [fp, #-12]
    b740:	e51b2010 	ldr	r2, [fp, #-16]
    b744:	e51b3014 	ldr	r3, [fp, #-20]
    b748:	e1822003 	orr	r2, r2, r3
    b74c:	e51b300c 	ldr	r3, [fp, #-12]
    b750:	e0022003 	and	r2, r2, r3
    b754:	e51b1010 	ldr	r1, [fp, #-16]
    b758:	e51b3014 	ldr	r3, [fp, #-20]
    b75c:	e0013003 	and	r3, r1, r3
    b760:	e1822003 	orr	r2, r2, r3
    b764:	e51b3048 	ldr	r3, [fp, #-72]	; 0x48
    b768:	e0822003 	add	r2, r2, r3
    b76c:	e51b3008 	ldr	r3, [fp, #-8]
    b770:	e0822003 	add	r2, r2, r3
    b774:	e59f3520 	ldr	r3, [pc, #1312]	; bc9c <md4_process+0x122c>
    b778:	e0823003 	add	r3, r2, r3
    b77c:	e50b3008 	str	r3, [fp, #-8]
    b780:	e51b3008 	ldr	r3, [fp, #-8]
    b784:	e1a03ee3 	ror	r3, r3, #29
    b788:	e50b3008 	str	r3, [fp, #-8]
    b78c:	e51b200c 	ldr	r2, [fp, #-12]
    b790:	e51b3010 	ldr	r3, [fp, #-16]
    b794:	e1822003 	orr	r2, r2, r3
    b798:	e51b3008 	ldr	r3, [fp, #-8]
    b79c:	e0022003 	and	r2, r2, r3
    b7a0:	e51b100c 	ldr	r1, [fp, #-12]
    b7a4:	e51b3010 	ldr	r3, [fp, #-16]
    b7a8:	e0013003 	and	r3, r1, r3
    b7ac:	e1822003 	orr	r2, r2, r3
    b7b0:	e51b3038 	ldr	r3, [fp, #-56]	; 0x38
    b7b4:	e0822003 	add	r2, r2, r3
    b7b8:	e51b3014 	ldr	r3, [fp, #-20]
    b7bc:	e0822003 	add	r2, r2, r3
    b7c0:	e59f34d4 	ldr	r3, [pc, #1236]	; bc9c <md4_process+0x122c>
    b7c4:	e0823003 	add	r3, r2, r3
    b7c8:	e50b3014 	str	r3, [fp, #-20]
    b7cc:	e51b3014 	ldr	r3, [fp, #-20]
    b7d0:	e1a03de3 	ror	r3, r3, #27
    b7d4:	e50b3014 	str	r3, [fp, #-20]
    b7d8:	e51b2008 	ldr	r2, [fp, #-8]
    b7dc:	e51b300c 	ldr	r3, [fp, #-12]
    b7e0:	e1822003 	orr	r2, r2, r3
    b7e4:	e51b3014 	ldr	r3, [fp, #-20]
    b7e8:	e0022003 	and	r2, r2, r3
    b7ec:	e51b1008 	ldr	r1, [fp, #-8]
    b7f0:	e51b300c 	ldr	r3, [fp, #-12]
    b7f4:	e0013003 	and	r3, r1, r3
    b7f8:	e1822003 	orr	r2, r2, r3
    b7fc:	e51b3028 	ldr	r3, [fp, #-40]	; 0x28
    b800:	e0822003 	add	r2, r2, r3
    b804:	e51b3010 	ldr	r3, [fp, #-16]
    b808:	e0822003 	add	r2, r2, r3
    b80c:	e59f3488 	ldr	r3, [pc, #1160]	; bc9c <md4_process+0x122c>
    b810:	e0823003 	add	r3, r2, r3
    b814:	e50b3010 	str	r3, [fp, #-16]
    b818:	e51b3010 	ldr	r3, [fp, #-16]
    b81c:	e1a03be3 	ror	r3, r3, #23
    b820:	e50b3010 	str	r3, [fp, #-16]
    b824:	e51b2014 	ldr	r2, [fp, #-20]
    b828:	e51b3008 	ldr	r3, [fp, #-8]
    b82c:	e1822003 	orr	r2, r2, r3
    b830:	e51b3010 	ldr	r3, [fp, #-16]
    b834:	e0022003 	and	r2, r2, r3
    b838:	e51b1014 	ldr	r1, [fp, #-20]
    b83c:	e51b3008 	ldr	r3, [fp, #-8]
    b840:	e0013003 	and	r3, r1, r3
    b844:	e1822003 	orr	r2, r2, r3
    b848:	e51b3018 	ldr	r3, [fp, #-24]
    b84c:	e0822003 	add	r2, r2, r3
    b850:	e51b300c 	ldr	r3, [fp, #-12]
    b854:	e0822003 	add	r2, r2, r3
    b858:	e59f343c 	ldr	r3, [pc, #1084]	; bc9c <md4_process+0x122c>
    b85c:	e0823003 	add	r3, r2, r3
    b860:	e50b300c 	str	r3, [fp, #-12]
    b864:	e51b300c 	ldr	r3, [fp, #-12]
    b868:	e1a039e3 	ror	r3, r3, #19
    b86c:	e50b300c 	str	r3, [fp, #-12]
    b870:	e51b200c 	ldr	r2, [fp, #-12]
    b874:	e51b3010 	ldr	r3, [fp, #-16]
    b878:	e0222003 	eor	r2, r2, r3
    b87c:	e51b3014 	ldr	r3, [fp, #-20]
    b880:	e0222003 	eor	r2, r2, r3
    b884:	e51b3054 	ldr	r3, [fp, #-84]	; 0x54
    b888:	e0822003 	add	r2, r2, r3
    b88c:	e51b3008 	ldr	r3, [fp, #-8]
    b890:	e0822003 	add	r2, r2, r3
    b894:	e59f3404 	ldr	r3, [pc, #1028]	; bca0 <md4_process+0x1230>
    b898:	e0823003 	add	r3, r2, r3
    b89c:	e50b3008 	str	r3, [fp, #-8]
    b8a0:	e51b3008 	ldr	r3, [fp, #-8]
    b8a4:	e1a03ee3 	ror	r3, r3, #29
    b8a8:	e50b3008 	str	r3, [fp, #-8]
    b8ac:	e51b2008 	ldr	r2, [fp, #-8]
    b8b0:	e51b300c 	ldr	r3, [fp, #-12]
    b8b4:	e0222003 	eor	r2, r2, r3
    b8b8:	e51b3010 	ldr	r3, [fp, #-16]
    b8bc:	e0222003 	eor	r2, r2, r3
    b8c0:	e51b3034 	ldr	r3, [fp, #-52]	; 0x34
    b8c4:	e0822003 	add	r2, r2, r3
    b8c8:	e51b3014 	ldr	r3, [fp, #-20]
    b8cc:	e0822003 	add	r2, r2, r3
    b8d0:	e59f33c8 	ldr	r3, [pc, #968]	; bca0 <md4_process+0x1230>
    b8d4:	e0823003 	add	r3, r2, r3
    b8d8:	e50b3014 	str	r3, [fp, #-20]
    b8dc:	e51b3014 	ldr	r3, [fp, #-20]
    b8e0:	e1a03be3 	ror	r3, r3, #23
    b8e4:	e50b3014 	str	r3, [fp, #-20]
    b8e8:	e51b2014 	ldr	r2, [fp, #-20]
    b8ec:	e51b3008 	ldr	r3, [fp, #-8]
    b8f0:	e0222003 	eor	r2, r2, r3
    b8f4:	e51b300c 	ldr	r3, [fp, #-12]
    b8f8:	e0222003 	eor	r2, r2, r3
    b8fc:	e51b3044 	ldr	r3, [fp, #-68]	; 0x44
    b900:	e0822003 	add	r2, r2, r3
    b904:	e51b3010 	ldr	r3, [fp, #-16]
    b908:	e0822003 	add	r2, r2, r3
    b90c:	e59f338c 	ldr	r3, [pc, #908]	; bca0 <md4_process+0x1230>
    b910:	e0823003 	add	r3, r2, r3
    b914:	e50b3010 	str	r3, [fp, #-16]
    b918:	e51b3010 	ldr	r3, [fp, #-16]
    b91c:	e1a03ae3 	ror	r3, r3, #21
    b920:	e50b3010 	str	r3, [fp, #-16]
    b924:	e51b2010 	ldr	r2, [fp, #-16]
    b928:	e51b3014 	ldr	r3, [fp, #-20]
    b92c:	e0222003 	eor	r2, r2, r3
    b930:	e51b3008 	ldr	r3, [fp, #-8]
    b934:	e0222003 	eor	r2, r2, r3
    b938:	e51b3024 	ldr	r3, [fp, #-36]	; 0x24
    b93c:	e0822003 	add	r2, r2, r3
    b940:	e51b300c 	ldr	r3, [fp, #-12]
    b944:	e0822003 	add	r2, r2, r3
    b948:	e59f3350 	ldr	r3, [pc, #848]	; bca0 <md4_process+0x1230>
    b94c:	e0823003 	add	r3, r2, r3
    b950:	e50b300c 	str	r3, [fp, #-12]
    b954:	e51b300c 	ldr	r3, [fp, #-12]
    b958:	e1a038e3 	ror	r3, r3, #17
    b95c:	e50b300c 	str	r3, [fp, #-12]
    b960:	e51b200c 	ldr	r2, [fp, #-12]
    b964:	e51b3010 	ldr	r3, [fp, #-16]
    b968:	e0222003 	eor	r2, r2, r3
    b96c:	e51b3014 	ldr	r3, [fp, #-20]
    b970:	e0222003 	eor	r2, r2, r3
    b974:	e51b304c 	ldr	r3, [fp, #-76]	; 0x4c
    b978:	e0822003 	add	r2, r2, r3
    b97c:	e51b3008 	ldr	r3, [fp, #-8]
    b980:	e0822003 	add	r2, r2, r3
    b984:	e59f3314 	ldr	r3, [pc, #788]	; bca0 <md4_process+0x1230>
    b988:	e0823003 	add	r3, r2, r3
    b98c:	e50b3008 	str	r3, [fp, #-8]
    b990:	e51b3008 	ldr	r3, [fp, #-8]
    b994:	e1a03ee3 	ror	r3, r3, #29
    b998:	e50b3008 	str	r3, [fp, #-8]
    b99c:	e51b2008 	ldr	r2, [fp, #-8]
    b9a0:	e51b300c 	ldr	r3, [fp, #-12]
    b9a4:	e0222003 	eor	r2, r2, r3
    b9a8:	e51b3010 	ldr	r3, [fp, #-16]
    b9ac:	e0222003 	eor	r2, r2, r3
    b9b0:	e51b302c 	ldr	r3, [fp, #-44]	; 0x2c
    b9b4:	e0822003 	add	r2, r2, r3
    b9b8:	e51b3014 	ldr	r3, [fp, #-20]
    b9bc:	e0822003 	add	r2, r2, r3
    b9c0:	e59f32d8 	ldr	r3, [pc, #728]	; bca0 <md4_process+0x1230>
    b9c4:	e0823003 	add	r3, r2, r3
    b9c8:	e50b3014 	str	r3, [fp, #-20]
    b9cc:	e51b3014 	ldr	r3, [fp, #-20]
    b9d0:	e1a03be3 	ror	r3, r3, #23
    b9d4:	e50b3014 	str	r3, [fp, #-20]
    b9d8:	e51b2014 	ldr	r2, [fp, #-20]
    b9dc:	e51b3008 	ldr	r3, [fp, #-8]
    b9e0:	e0222003 	eor	r2, r2, r3
    b9e4:	e51b300c 	ldr	r3, [fp, #-12]
    b9e8:	e0222003 	eor	r2, r2, r3
    b9ec:	e51b303c 	ldr	r3, [fp, #-60]	; 0x3c
    b9f0:	e0822003 	add	r2, r2, r3
    b9f4:	e51b3010 	ldr	r3, [fp, #-16]
    b9f8:	e0822003 	add	r2, r2, r3
    b9fc:	e59f329c 	ldr	r3, [pc, #668]	; bca0 <md4_process+0x1230>
    ba00:	e0823003 	add	r3, r2, r3
    ba04:	e50b3010 	str	r3, [fp, #-16]
    ba08:	e51b3010 	ldr	r3, [fp, #-16]
    ba0c:	e1a03ae3 	ror	r3, r3, #21
    ba10:	e50b3010 	str	r3, [fp, #-16]
    ba14:	e51b2010 	ldr	r2, [fp, #-16]
    ba18:	e51b3014 	ldr	r3, [fp, #-20]
    ba1c:	e0222003 	eor	r2, r2, r3
    ba20:	e51b3008 	ldr	r3, [fp, #-8]
    ba24:	e0222003 	eor	r2, r2, r3
    ba28:	e51b301c 	ldr	r3, [fp, #-28]
    ba2c:	e0822003 	add	r2, r2, r3
    ba30:	e51b300c 	ldr	r3, [fp, #-12]
    ba34:	e0822003 	add	r2, r2, r3
    ba38:	e59f3260 	ldr	r3, [pc, #608]	; bca0 <md4_process+0x1230>
    ba3c:	e0823003 	add	r3, r2, r3
    ba40:	e50b300c 	str	r3, [fp, #-12]
    ba44:	e51b300c 	ldr	r3, [fp, #-12]
    ba48:	e1a038e3 	ror	r3, r3, #17
    ba4c:	e50b300c 	str	r3, [fp, #-12]
    ba50:	e51b200c 	ldr	r2, [fp, #-12]
    ba54:	e51b3010 	ldr	r3, [fp, #-16]
    ba58:	e0222003 	eor	r2, r2, r3
    ba5c:	e51b3014 	ldr	r3, [fp, #-20]
    ba60:	e0222003 	eor	r2, r2, r3
    ba64:	e51b3050 	ldr	r3, [fp, #-80]	; 0x50
    ba68:	e0822003 	add	r2, r2, r3
    ba6c:	e51b3008 	ldr	r3, [fp, #-8]
    ba70:	e0822003 	add	r2, r2, r3
    ba74:	e59f3224 	ldr	r3, [pc, #548]	; bca0 <md4_process+0x1230>
    ba78:	e0823003 	add	r3, r2, r3
    ba7c:	e50b3008 	str	r3, [fp, #-8]
    ba80:	e51b3008 	ldr	r3, [fp, #-8]
    ba84:	e1a03ee3 	ror	r3, r3, #29
    ba88:	e50b3008 	str	r3, [fp, #-8]
    ba8c:	e51b2008 	ldr	r2, [fp, #-8]
    ba90:	e51b300c 	ldr	r3, [fp, #-12]
    ba94:	e0222003 	eor	r2, r2, r3
    ba98:	e51b3010 	ldr	r3, [fp, #-16]
    ba9c:	e0222003 	eor	r2, r2, r3
    baa0:	e51b3030 	ldr	r3, [fp, #-48]	; 0x30
    baa4:	e0822003 	add	r2, r2, r3
    baa8:	e51b3014 	ldr	r3, [fp, #-20]
    baac:	e0822003 	add	r2, r2, r3
    bab0:	e59f31e8 	ldr	r3, [pc, #488]	; bca0 <md4_process+0x1230>
    bab4:	e0823003 	add	r3, r2, r3
    bab8:	e50b3014 	str	r3, [fp, #-20]
    babc:	e51b3014 	ldr	r3, [fp, #-20]
    bac0:	e1a03be3 	ror	r3, r3, #23
    bac4:	e50b3014 	str	r3, [fp, #-20]
    bac8:	e51b2014 	ldr	r2, [fp, #-20]
    bacc:	e51b3008 	ldr	r3, [fp, #-8]
    bad0:	e0222003 	eor	r2, r2, r3
    bad4:	e51b300c 	ldr	r3, [fp, #-12]
    bad8:	e0222003 	eor	r2, r2, r3
    badc:	e51b3040 	ldr	r3, [fp, #-64]	; 0x40
    bae0:	e0822003 	add	r2, r2, r3
    bae4:	e51b3010 	ldr	r3, [fp, #-16]
    bae8:	e0822003 	add	r2, r2, r3
    baec:	e59f31ac 	ldr	r3, [pc, #428]	; bca0 <md4_process+0x1230>
    baf0:	e0823003 	add	r3, r2, r3
    baf4:	e50b3010 	str	r3, [fp, #-16]
    baf8:	e51b3010 	ldr	r3, [fp, #-16]
    bafc:	e1a03ae3 	ror	r3, r3, #21
    bb00:	e50b3010 	str	r3, [fp, #-16]
    bb04:	e51b2010 	ldr	r2, [fp, #-16]
    bb08:	e51b3014 	ldr	r3, [fp, #-20]
    bb0c:	e0222003 	eor	r2, r2, r3
    bb10:	e51b3008 	ldr	r3, [fp, #-8]
    bb14:	e0222003 	eor	r2, r2, r3
    bb18:	e51b3020 	ldr	r3, [fp, #-32]
    bb1c:	e0822003 	add	r2, r2, r3
    bb20:	e51b300c 	ldr	r3, [fp, #-12]
    bb24:	e0822003 	add	r2, r2, r3
    bb28:	e59f3170 	ldr	r3, [pc, #368]	; bca0 <md4_process+0x1230>
    bb2c:	e0823003 	add	r3, r2, r3
    bb30:	e50b300c 	str	r3, [fp, #-12]
    bb34:	e51b300c 	ldr	r3, [fp, #-12]
    bb38:	e1a038e3 	ror	r3, r3, #17
    bb3c:	e50b300c 	str	r3, [fp, #-12]
    bb40:	e51b200c 	ldr	r2, [fp, #-12]
    bb44:	e51b3010 	ldr	r3, [fp, #-16]
    bb48:	e0222003 	eor	r2, r2, r3
    bb4c:	e51b3014 	ldr	r3, [fp, #-20]
    bb50:	e0222003 	eor	r2, r2, r3
    bb54:	e51b3048 	ldr	r3, [fp, #-72]	; 0x48
    bb58:	e0822003 	add	r2, r2, r3
    bb5c:	e51b3008 	ldr	r3, [fp, #-8]
    bb60:	e0822003 	add	r2, r2, r3
    bb64:	e59f3134 	ldr	r3, [pc, #308]	; bca0 <md4_process+0x1230>
    bb68:	e0823003 	add	r3, r2, r3
    bb6c:	e50b3008 	str	r3, [fp, #-8]
    bb70:	e51b3008 	ldr	r3, [fp, #-8]
    bb74:	e1a03ee3 	ror	r3, r3, #29
    bb78:	e50b3008 	str	r3, [fp, #-8]
    bb7c:	e51b2008 	ldr	r2, [fp, #-8]
    bb80:	e51b300c 	ldr	r3, [fp, #-12]
    bb84:	e0222003 	eor	r2, r2, r3
    bb88:	e51b3010 	ldr	r3, [fp, #-16]
    bb8c:	e0222003 	eor	r2, r2, r3
    bb90:	e51b3028 	ldr	r3, [fp, #-40]	; 0x28
    bb94:	e0822003 	add	r2, r2, r3
    bb98:	e51b3014 	ldr	r3, [fp, #-20]
    bb9c:	e0822003 	add	r2, r2, r3
    bba0:	e59f30f8 	ldr	r3, [pc, #248]	; bca0 <md4_process+0x1230>
    bba4:	e0823003 	add	r3, r2, r3
    bba8:	e50b3014 	str	r3, [fp, #-20]
    bbac:	e51b3014 	ldr	r3, [fp, #-20]
    bbb0:	e1a03be3 	ror	r3, r3, #23
    bbb4:	e50b3014 	str	r3, [fp, #-20]
    bbb8:	e51b2014 	ldr	r2, [fp, #-20]
    bbbc:	e51b3008 	ldr	r3, [fp, #-8]
    bbc0:	e0222003 	eor	r2, r2, r3
    bbc4:	e51b300c 	ldr	r3, [fp, #-12]
    bbc8:	e0222003 	eor	r2, r2, r3
    bbcc:	e51b3038 	ldr	r3, [fp, #-56]	; 0x38
    bbd0:	e0822003 	add	r2, r2, r3
    bbd4:	e51b3010 	ldr	r3, [fp, #-16]
    bbd8:	e0822003 	add	r2, r2, r3
    bbdc:	e59f30bc 	ldr	r3, [pc, #188]	; bca0 <md4_process+0x1230>
    bbe0:	e0823003 	add	r3, r2, r3
    bbe4:	e50b3010 	str	r3, [fp, #-16]
    bbe8:	e51b3010 	ldr	r3, [fp, #-16]
    bbec:	e1a03ae3 	ror	r3, r3, #21
    bbf0:	e50b3010 	str	r3, [fp, #-16]
    bbf4:	e51b2010 	ldr	r2, [fp, #-16]
    bbf8:	e51b3014 	ldr	r3, [fp, #-20]
    bbfc:	e0222003 	eor	r2, r2, r3
    bc00:	e51b3008 	ldr	r3, [fp, #-8]
    bc04:	e0222003 	eor	r2, r2, r3
    bc08:	e51b3018 	ldr	r3, [fp, #-24]
    bc0c:	e0822003 	add	r2, r2, r3
    bc10:	e51b300c 	ldr	r3, [fp, #-12]
    bc14:	e0822003 	add	r2, r2, r3
    bc18:	e59f3080 	ldr	r3, [pc, #128]	; bca0 <md4_process+0x1230>
    bc1c:	e0823003 	add	r3, r2, r3
    bc20:	e50b300c 	str	r3, [fp, #-12]
    bc24:	e51b300c 	ldr	r3, [fp, #-12]
    bc28:	e1a038e3 	ror	r3, r3, #17
    bc2c:	e50b300c 	str	r3, [fp, #-12]
    bc30:	e51b3058 	ldr	r3, [fp, #-88]	; 0x58
    bc34:	e5932008 	ldr	r2, [r3, #8]
    bc38:	e51b3008 	ldr	r3, [fp, #-8]
    bc3c:	e0822003 	add	r2, r2, r3
    bc40:	e51b3058 	ldr	r3, [fp, #-88]	; 0x58
    bc44:	e5832008 	str	r2, [r3, #8]
    bc48:	e51b3058 	ldr	r3, [fp, #-88]	; 0x58
    bc4c:	e593200c 	ldr	r2, [r3, #12]
    bc50:	e51b300c 	ldr	r3, [fp, #-12]
    bc54:	e0822003 	add	r2, r2, r3
    bc58:	e51b3058 	ldr	r3, [fp, #-88]	; 0x58
    bc5c:	e583200c 	str	r2, [r3, #12]
    bc60:	e51b3058 	ldr	r3, [fp, #-88]	; 0x58
    bc64:	e5932010 	ldr	r2, [r3, #16]
    bc68:	e51b3010 	ldr	r3, [fp, #-16]
    bc6c:	e0822003 	add	r2, r2, r3
    bc70:	e51b3058 	ldr	r3, [fp, #-88]	; 0x58
    bc74:	e5832010 	str	r2, [r3, #16]
    bc78:	e51b3058 	ldr	r3, [fp, #-88]	; 0x58
    bc7c:	e5932014 	ldr	r2, [r3, #20]
    bc80:	e51b3014 	ldr	r3, [fp, #-20]
    bc84:	e0822003 	add	r2, r2, r3
    bc88:	e51b3058 	ldr	r3, [fp, #-88]	; 0x58
    bc8c:	e5832014 	str	r2, [r3, #20]
    bc90:	e28bd000 	add	sp, fp, #0
    bc94:	e8bd0800 	pop	{fp}
    bc98:	e12fff1e 	bx	lr
    bc9c:	5a827999 	.word	0x5a827999
    bca0:	6ed9eba1 	.word	0x6ed9eba1

0000bca4 <md4_starts>:
    bca4:	e52db004 	push	{fp}		; (str fp, [sp, #-4]!)
    bca8:	e28db000 	add	fp, sp, #0
    bcac:	e24dd00c 	sub	sp, sp, #12
    bcb0:	e50b0008 	str	r0, [fp, #-8]
    bcb4:	e51b3008 	ldr	r3, [fp, #-8]
    bcb8:	e3a02000 	mov	r2, #0
    bcbc:	e5832000 	str	r2, [r3]
    bcc0:	e51b3008 	ldr	r3, [fp, #-8]
    bcc4:	e3a02000 	mov	r2, #0
    bcc8:	e5832004 	str	r2, [r3, #4]
    bccc:	e51b3008 	ldr	r3, [fp, #-8]
    bcd0:	e59f2030 	ldr	r2, [pc, #48]	; bd08 <md4_starts+0x64>
    bcd4:	e5832008 	str	r2, [r3, #8]
    bcd8:	e51b3008 	ldr	r3, [fp, #-8]
    bcdc:	e59f2028 	ldr	r2, [pc, #40]	; bd0c <md4_starts+0x68>
    bce0:	e583200c 	str	r2, [r3, #12]
    bce4:	e51b3008 	ldr	r3, [fp, #-8]
    bce8:	e59f2020 	ldr	r2, [pc, #32]	; bd10 <md4_starts+0x6c>
    bcec:	e5832010 	str	r2, [r3, #16]
    bcf0:	e51b3008 	ldr	r3, [fp, #-8]
    bcf4:	e59f2018 	ldr	r2, [pc, #24]	; bd14 <md4_starts+0x70>
    bcf8:	e5832014 	str	r2, [r3, #20]
    bcfc:	e28bd000 	add	sp, fp, #0
    bd00:	e8bd0800 	pop	{fp}
    bd04:	e12fff1e 	bx	lr
    bd08:	67452301 	.word	0x67452301
    bd0c:	efcdab89 	.word	0xefcdab89
    bd10:	98badcfe 	.word	0x98badcfe
    bd14:	10325476 	.word	0x10325476

0000bd18 <md4_update>:
    bd18:	e92d4800 	push	{fp, lr}
    bd1c:	e28db004 	add	fp, sp, #4
    bd20:	e24dd018 	sub	sp, sp, #24
    bd24:	e50b0010 	str	r0, [fp, #-16]
    bd28:	e50b1014 	str	r1, [fp, #-20]
    bd2c:	e50b2018 	str	r2, [fp, #-24]
    bd30:	e51b3018 	ldr	r3, [fp, #-24]
    bd34:	e3530000 	cmp	r3, #0
    bd38:	0a000059 	beq	bea4 <md4_update+0x18c>
    bd3c:	e51b3010 	ldr	r3, [fp, #-16]
    bd40:	e5933000 	ldr	r3, [r3]
    bd44:	e203303f 	and	r3, r3, #63	; 0x3f
    bd48:	e50b3008 	str	r3, [fp, #-8]
    bd4c:	e51b3008 	ldr	r3, [fp, #-8]
    bd50:	e2633040 	rsb	r3, r3, #64	; 0x40
    bd54:	e50b300c 	str	r3, [fp, #-12]
    bd58:	e51b3010 	ldr	r3, [fp, #-16]
    bd5c:	e5932000 	ldr	r2, [r3]
    bd60:	e51b3018 	ldr	r3, [fp, #-24]
    bd64:	e0822003 	add	r2, r2, r3
    bd68:	e51b3010 	ldr	r3, [fp, #-16]
    bd6c:	e5832000 	str	r2, [r3]
    bd70:	e51b3010 	ldr	r3, [fp, #-16]
    bd74:	e5932000 	ldr	r2, [r3]
    bd78:	e51b3010 	ldr	r3, [fp, #-16]
    bd7c:	e5832000 	str	r2, [r3]
    bd80:	e51b3010 	ldr	r3, [fp, #-16]
    bd84:	e5932000 	ldr	r2, [r3]
    bd88:	e51b3018 	ldr	r3, [fp, #-24]
    bd8c:	e1520003 	cmp	r2, r3
    bd90:	2a000004 	bcs	bda8 <md4_update+0x90>
    bd94:	e51b3010 	ldr	r3, [fp, #-16]
    bd98:	e5933004 	ldr	r3, [r3, #4]
    bd9c:	e2832001 	add	r2, r3, #1
    bda0:	e51b3010 	ldr	r3, [fp, #-16]
    bda4:	e5832004 	str	r2, [r3, #4]
    bda8:	e51b3008 	ldr	r3, [fp, #-8]
    bdac:	e3530000 	cmp	r3, #0
    bdb0:	0a000028 	beq	be58 <md4_update+0x140>
    bdb4:	e51b2018 	ldr	r2, [fp, #-24]
    bdb8:	e51b300c 	ldr	r3, [fp, #-12]
    bdbc:	e1520003 	cmp	r2, r3
    bdc0:	3a000024 	bcc	be58 <md4_update+0x140>
    bdc4:	e51b3010 	ldr	r3, [fp, #-16]
    bdc8:	e2832018 	add	r2, r3, #24
    bdcc:	e51b3008 	ldr	r3, [fp, #-8]
    bdd0:	e0822003 	add	r2, r2, r3
    bdd4:	e51b3014 	ldr	r3, [fp, #-20]
    bdd8:	e1a01002 	mov	r1, r2
    bddc:	e1a02003 	mov	r2, r3
    bde0:	e51b300c 	ldr	r3, [fp, #-12]
    bde4:	e1a00001 	mov	r0, r1
    bde8:	e1a01002 	mov	r1, r2
    bdec:	e1a02003 	mov	r2, r3
    bdf0:	ebfff360 	bl	8b78 <_init+0x74>
    bdf4:	e51b3010 	ldr	r3, [fp, #-16]
    bdf8:	e2833018 	add	r3, r3, #24
    bdfc:	e51b0010 	ldr	r0, [fp, #-16]
    be00:	e1a01003 	mov	r1, r3
    be04:	ebfffb19 	bl	aa70 <md4_process>
    be08:	e51b2014 	ldr	r2, [fp, #-20]
    be0c:	e51b300c 	ldr	r3, [fp, #-12]
    be10:	e0823003 	add	r3, r2, r3
    be14:	e50b3014 	str	r3, [fp, #-20]
    be18:	e51b2018 	ldr	r2, [fp, #-24]
    be1c:	e51b300c 	ldr	r3, [fp, #-12]
    be20:	e0633002 	rsb	r3, r3, r2
    be24:	e50b3018 	str	r3, [fp, #-24]
    be28:	e3a03000 	mov	r3, #0
    be2c:	e50b3008 	str	r3, [fp, #-8]
    be30:	ea000008 	b	be58 <md4_update+0x140>
    be34:	e51b0010 	ldr	r0, [fp, #-16]
    be38:	e51b1014 	ldr	r1, [fp, #-20]
    be3c:	ebfffb0b 	bl	aa70 <md4_process>
    be40:	e51b3014 	ldr	r3, [fp, #-20]
    be44:	e2833040 	add	r3, r3, #64	; 0x40
    be48:	e50b3014 	str	r3, [fp, #-20]
    be4c:	e51b3018 	ldr	r3, [fp, #-24]
    be50:	e2433040 	sub	r3, r3, #64	; 0x40
    be54:	e50b3018 	str	r3, [fp, #-24]
    be58:	e51b3018 	ldr	r3, [fp, #-24]
    be5c:	e353003f 	cmp	r3, #63	; 0x3f
    be60:	8afffff3 	bhi	be34 <md4_update+0x11c>
    be64:	e51b3018 	ldr	r3, [fp, #-24]
    be68:	e3530000 	cmp	r3, #0
    be6c:	0a00000d 	beq	bea8 <md4_update+0x190>
    be70:	e51b3010 	ldr	r3, [fp, #-16]
    be74:	e2832018 	add	r2, r3, #24
    be78:	e51b3008 	ldr	r3, [fp, #-8]
    be7c:	e0822003 	add	r2, r2, r3
    be80:	e51b3014 	ldr	r3, [fp, #-20]
    be84:	e1a01002 	mov	r1, r2
    be88:	e1a02003 	mov	r2, r3
    be8c:	e51b3018 	ldr	r3, [fp, #-24]
    be90:	e1a00001 	mov	r0, r1
    be94:	e1a01002 	mov	r1, r2
    be98:	e1a02003 	mov	r2, r3
    be9c:	ebfff335 	bl	8b78 <_init+0x74>
    bea0:	ea000000 	b	bea8 <md4_update+0x190>
    bea4:	e1a00000 	nop			; (mov r0, r0)
    bea8:	e24bd004 	sub	sp, fp, #4
    beac:	e8bd8800 	pop	{fp, pc}

0000beb0 <md4>:
    beb0:	e92d4800 	push	{fp, lr}
    beb4:	e28db004 	add	fp, sp, #4
    beb8:	e24dd0e8 	sub	sp, sp, #232	; 0xe8
    bebc:	e50b00e0 	str	r0, [fp, #-224]	; 0xe0
    bec0:	e50b10e4 	str	r1, [fp, #-228]	; 0xe4
    bec4:	e50b20e8 	str	r2, [fp, #-232]	; 0xe8
    bec8:	e24b30dc 	sub	r3, fp, #220	; 0xdc
    becc:	e1a00003 	mov	r0, r3
    bed0:	ebffff73 	bl	bca4 <md4_starts>
    bed4:	e24b30dc 	sub	r3, fp, #220	; 0xdc
    bed8:	e1a00003 	mov	r0, r3
    bedc:	e51b10e0 	ldr	r1, [fp, #-224]	; 0xe0
    bee0:	e51b20e4 	ldr	r2, [fp, #-228]	; 0xe4
    bee4:	ebffff8b 	bl	bd18 <md4_update>
    bee8:	e24b30dc 	sub	r3, fp, #220	; 0xdc
    beec:	e1a00003 	mov	r0, r3
    bef0:	e51b10e8 	ldr	r1, [fp, #-232]	; 0xe8
    bef4:	ebfffa2a 	bl	a7a4 <md4_finish>
    bef8:	e24b30dc 	sub	r3, fp, #220	; 0xdc
    befc:	e1a02003 	mov	r2, r3
    bf00:	e3a030d8 	mov	r3, #216	; 0xd8
    bf04:	e1a00002 	mov	r0, r2
    bf08:	e3a01000 	mov	r1, #0
    bf0c:	e1a02003 	mov	r2, r3
    bf10:	ebfff360 	bl	8c98 <_init+0x194>
    bf14:	e24bd004 	sub	sp, fp, #4
    bf18:	e8bd8800 	pop	{fp, pc}

0000bf1c <md5_starts>:
    bf1c:	e52db004 	push	{fp}		; (str fp, [sp, #-4]!)
    bf20:	e28db000 	add	fp, sp, #0
    bf24:	e24dd00c 	sub	sp, sp, #12
    bf28:	e50b0008 	str	r0, [fp, #-8]
    bf2c:	e51b3008 	ldr	r3, [fp, #-8]
    bf30:	e3a02000 	mov	r2, #0
    bf34:	e5832000 	str	r2, [r3]
    bf38:	e51b3008 	ldr	r3, [fp, #-8]
    bf3c:	e3a02000 	mov	r2, #0
    bf40:	e5832004 	str	r2, [r3, #4]
    bf44:	e51b3008 	ldr	r3, [fp, #-8]
    bf48:	e59f2030 	ldr	r2, [pc, #48]	; bf80 <md5_starts+0x64>
    bf4c:	e5832008 	str	r2, [r3, #8]
    bf50:	e51b3008 	ldr	r3, [fp, #-8]
    bf54:	e59f2028 	ldr	r2, [pc, #40]	; bf84 <md5_starts+0x68>
    bf58:	e583200c 	str	r2, [r3, #12]
    bf5c:	e51b3008 	ldr	r3, [fp, #-8]
    bf60:	e59f2020 	ldr	r2, [pc, #32]	; bf88 <md5_starts+0x6c>
    bf64:	e5832010 	str	r2, [r3, #16]
    bf68:	e51b3008 	ldr	r3, [fp, #-8]
    bf6c:	e59f2018 	ldr	r2, [pc, #24]	; bf8c <md5_starts+0x70>
    bf70:	e5832014 	str	r2, [r3, #20]
    bf74:	e28bd000 	add	sp, fp, #0
    bf78:	e8bd0800 	pop	{fp}
    bf7c:	e12fff1e 	bx	lr
    bf80:	67452301 	.word	0x67452301
    bf84:	efcdab89 	.word	0xefcdab89
    bf88:	98badcfe 	.word	0x98badcfe
    bf8c:	10325476 	.word	0x10325476

0000bf90 <md5_process>:
    bf90:	e52db004 	push	{fp}		; (str fp, [sp, #-4]!)
    bf94:	e28db000 	add	fp, sp, #0
    bf98:	e24dd05c 	sub	sp, sp, #92	; 0x5c
    bf9c:	e50b0058 	str	r0, [fp, #-88]	; 0x58
    bfa0:	e50b105c 	str	r1, [fp, #-92]	; 0x5c
    bfa4:	e51b305c 	ldr	r3, [fp, #-92]	; 0x5c
    bfa8:	e5d33000 	ldrb	r3, [r3]
    bfac:	e1a02003 	mov	r2, r3
    bfb0:	e51b305c 	ldr	r3, [fp, #-92]	; 0x5c
    bfb4:	e2833001 	add	r3, r3, #1
    bfb8:	e5d33000 	ldrb	r3, [r3]
    bfbc:	e1a03403 	lsl	r3, r3, #8
    bfc0:	e1822003 	orr	r2, r2, r3
    bfc4:	e51b305c 	ldr	r3, [fp, #-92]	; 0x5c
    bfc8:	e2833002 	add	r3, r3, #2
    bfcc:	e5d33000 	ldrb	r3, [r3]
    bfd0:	e1a03803 	lsl	r3, r3, #16
    bfd4:	e1822003 	orr	r2, r2, r3
    bfd8:	e51b305c 	ldr	r3, [fp, #-92]	; 0x5c
    bfdc:	e2833003 	add	r3, r3, #3
    bfe0:	e5d33000 	ldrb	r3, [r3]
    bfe4:	e1a03c03 	lsl	r3, r3, #24
    bfe8:	e1823003 	orr	r3, r2, r3
    bfec:	e50b3054 	str	r3, [fp, #-84]	; 0x54
    bff0:	e51b305c 	ldr	r3, [fp, #-92]	; 0x5c
    bff4:	e2833004 	add	r3, r3, #4
    bff8:	e5d33000 	ldrb	r3, [r3]
    bffc:	e1a02003 	mov	r2, r3
    c000:	e51b305c 	ldr	r3, [fp, #-92]	; 0x5c
    c004:	e2833005 	add	r3, r3, #5
    c008:	e5d33000 	ldrb	r3, [r3]
    c00c:	e1a03403 	lsl	r3, r3, #8
    c010:	e1822003 	orr	r2, r2, r3
    c014:	e51b305c 	ldr	r3, [fp, #-92]	; 0x5c
    c018:	e2833006 	add	r3, r3, #6
    c01c:	e5d33000 	ldrb	r3, [r3]
    c020:	e1a03803 	lsl	r3, r3, #16
    c024:	e1822003 	orr	r2, r2, r3
    c028:	e51b305c 	ldr	r3, [fp, #-92]	; 0x5c
    c02c:	e2833007 	add	r3, r3, #7
    c030:	e5d33000 	ldrb	r3, [r3]
    c034:	e1a03c03 	lsl	r3, r3, #24
    c038:	e1823003 	orr	r3, r2, r3
    c03c:	e50b3050 	str	r3, [fp, #-80]	; 0x50
    c040:	e51b305c 	ldr	r3, [fp, #-92]	; 0x5c
    c044:	e2833008 	add	r3, r3, #8
    c048:	e5d33000 	ldrb	r3, [r3]
    c04c:	e1a02003 	mov	r2, r3
    c050:	e51b305c 	ldr	r3, [fp, #-92]	; 0x5c
    c054:	e2833009 	add	r3, r3, #9
    c058:	e5d33000 	ldrb	r3, [r3]
    c05c:	e1a03403 	lsl	r3, r3, #8
    c060:	e1822003 	orr	r2, r2, r3
    c064:	e51b305c 	ldr	r3, [fp, #-92]	; 0x5c
    c068:	e283300a 	add	r3, r3, #10
    c06c:	e5d33000 	ldrb	r3, [r3]
    c070:	e1a03803 	lsl	r3, r3, #16
    c074:	e1822003 	orr	r2, r2, r3
    c078:	e51b305c 	ldr	r3, [fp, #-92]	; 0x5c
    c07c:	e283300b 	add	r3, r3, #11
    c080:	e5d33000 	ldrb	r3, [r3]
    c084:	e1a03c03 	lsl	r3, r3, #24
    c088:	e1823003 	orr	r3, r2, r3
    c08c:	e50b304c 	str	r3, [fp, #-76]	; 0x4c
    c090:	e51b305c 	ldr	r3, [fp, #-92]	; 0x5c
    c094:	e283300c 	add	r3, r3, #12
    c098:	e5d33000 	ldrb	r3, [r3]
    c09c:	e1a02003 	mov	r2, r3
    c0a0:	e51b305c 	ldr	r3, [fp, #-92]	; 0x5c
    c0a4:	e283300d 	add	r3, r3, #13
    c0a8:	e5d33000 	ldrb	r3, [r3]
    c0ac:	e1a03403 	lsl	r3, r3, #8
    c0b0:	e1822003 	orr	r2, r2, r3
    c0b4:	e51b305c 	ldr	r3, [fp, #-92]	; 0x5c
    c0b8:	e283300e 	add	r3, r3, #14
    c0bc:	e5d33000 	ldrb	r3, [r3]
    c0c0:	e1a03803 	lsl	r3, r3, #16
    c0c4:	e1822003 	orr	r2, r2, r3
    c0c8:	e51b305c 	ldr	r3, [fp, #-92]	; 0x5c
    c0cc:	e283300f 	add	r3, r3, #15
    c0d0:	e5d33000 	ldrb	r3, [r3]
    c0d4:	e1a03c03 	lsl	r3, r3, #24
    c0d8:	e1823003 	orr	r3, r2, r3
    c0dc:	e50b3048 	str	r3, [fp, #-72]	; 0x48
    c0e0:	e51b305c 	ldr	r3, [fp, #-92]	; 0x5c
    c0e4:	e2833010 	add	r3, r3, #16
    c0e8:	e5d33000 	ldrb	r3, [r3]
    c0ec:	e1a02003 	mov	r2, r3
    c0f0:	e51b305c 	ldr	r3, [fp, #-92]	; 0x5c
    c0f4:	e2833011 	add	r3, r3, #17
    c0f8:	e5d33000 	ldrb	r3, [r3]
    c0fc:	e1a03403 	lsl	r3, r3, #8
    c100:	e1822003 	orr	r2, r2, r3
    c104:	e51b305c 	ldr	r3, [fp, #-92]	; 0x5c
    c108:	e2833012 	add	r3, r3, #18
    c10c:	e5d33000 	ldrb	r3, [r3]
    c110:	e1a03803 	lsl	r3, r3, #16
    c114:	e1822003 	orr	r2, r2, r3
    c118:	e51b305c 	ldr	r3, [fp, #-92]	; 0x5c
    c11c:	e2833013 	add	r3, r3, #19
    c120:	e5d33000 	ldrb	r3, [r3]
    c124:	e1a03c03 	lsl	r3, r3, #24
    c128:	e1823003 	orr	r3, r2, r3
    c12c:	e50b3044 	str	r3, [fp, #-68]	; 0x44
    c130:	e51b305c 	ldr	r3, [fp, #-92]	; 0x5c
    c134:	e2833014 	add	r3, r3, #20
    c138:	e5d33000 	ldrb	r3, [r3]
    c13c:	e1a02003 	mov	r2, r3
    c140:	e51b305c 	ldr	r3, [fp, #-92]	; 0x5c
    c144:	e2833015 	add	r3, r3, #21
    c148:	e5d33000 	ldrb	r3, [r3]
    c14c:	e1a03403 	lsl	r3, r3, #8
    c150:	e1822003 	orr	r2, r2, r3
    c154:	e51b305c 	ldr	r3, [fp, #-92]	; 0x5c
    c158:	e2833016 	add	r3, r3, #22
    c15c:	e5d33000 	ldrb	r3, [r3]
    c160:	e1a03803 	lsl	r3, r3, #16
    c164:	e1822003 	orr	r2, r2, r3
    c168:	e51b305c 	ldr	r3, [fp, #-92]	; 0x5c
    c16c:	e2833017 	add	r3, r3, #23
    c170:	e5d33000 	ldrb	r3, [r3]
    c174:	e1a03c03 	lsl	r3, r3, #24
    c178:	e1823003 	orr	r3, r2, r3
    c17c:	e50b3040 	str	r3, [fp, #-64]	; 0x40
    c180:	e51b305c 	ldr	r3, [fp, #-92]	; 0x5c
    c184:	e2833018 	add	r3, r3, #24
    c188:	e5d33000 	ldrb	r3, [r3]
    c18c:	e1a02003 	mov	r2, r3
    c190:	e51b305c 	ldr	r3, [fp, #-92]	; 0x5c
    c194:	e2833019 	add	r3, r3, #25
    c198:	e5d33000 	ldrb	r3, [r3]
    c19c:	e1a03403 	lsl	r3, r3, #8
    c1a0:	e1822003 	orr	r2, r2, r3
    c1a4:	e51b305c 	ldr	r3, [fp, #-92]	; 0x5c
    c1a8:	e283301a 	add	r3, r3, #26
    c1ac:	e5d33000 	ldrb	r3, [r3]
    c1b0:	e1a03803 	lsl	r3, r3, #16
    c1b4:	e1822003 	orr	r2, r2, r3
    c1b8:	e51b305c 	ldr	r3, [fp, #-92]	; 0x5c
    c1bc:	e283301b 	add	r3, r3, #27
    c1c0:	e5d33000 	ldrb	r3, [r3]
    c1c4:	e1a03c03 	lsl	r3, r3, #24
    c1c8:	e1823003 	orr	r3, r2, r3
    c1cc:	e50b303c 	str	r3, [fp, #-60]	; 0x3c
    c1d0:	e51b305c 	ldr	r3, [fp, #-92]	; 0x5c
    c1d4:	e283301c 	add	r3, r3, #28
    c1d8:	e5d33000 	ldrb	r3, [r3]
    c1dc:	e1a02003 	mov	r2, r3
    c1e0:	e51b305c 	ldr	r3, [fp, #-92]	; 0x5c
    c1e4:	e283301d 	add	r3, r3, #29
    c1e8:	e5d33000 	ldrb	r3, [r3]
    c1ec:	e1a03403 	lsl	r3, r3, #8
    c1f0:	e1822003 	orr	r2, r2, r3
    c1f4:	e51b305c 	ldr	r3, [fp, #-92]	; 0x5c
    c1f8:	e283301e 	add	r3, r3, #30
    c1fc:	e5d33000 	ldrb	r3, [r3]
    c200:	e1a03803 	lsl	r3, r3, #16
    c204:	e1822003 	orr	r2, r2, r3
    c208:	e51b305c 	ldr	r3, [fp, #-92]	; 0x5c
    c20c:	e283301f 	add	r3, r3, #31
    c210:	e5d33000 	ldrb	r3, [r3]
    c214:	e1a03c03 	lsl	r3, r3, #24
    c218:	e1823003 	orr	r3, r2, r3
    c21c:	e50b3038 	str	r3, [fp, #-56]	; 0x38
    c220:	e51b305c 	ldr	r3, [fp, #-92]	; 0x5c
    c224:	e2833020 	add	r3, r3, #32
    c228:	e5d33000 	ldrb	r3, [r3]
    c22c:	e1a02003 	mov	r2, r3
    c230:	e51b305c 	ldr	r3, [fp, #-92]	; 0x5c
    c234:	e2833021 	add	r3, r3, #33	; 0x21
    c238:	e5d33000 	ldrb	r3, [r3]
    c23c:	e1a03403 	lsl	r3, r3, #8
    c240:	e1822003 	orr	r2, r2, r3
    c244:	e51b305c 	ldr	r3, [fp, #-92]	; 0x5c
    c248:	e2833022 	add	r3, r3, #34	; 0x22
    c24c:	e5d33000 	ldrb	r3, [r3]
    c250:	e1a03803 	lsl	r3, r3, #16
    c254:	e1822003 	orr	r2, r2, r3
    c258:	e51b305c 	ldr	r3, [fp, #-92]	; 0x5c
    c25c:	e2833023 	add	r3, r3, #35	; 0x23
    c260:	e5d33000 	ldrb	r3, [r3]
    c264:	e1a03c03 	lsl	r3, r3, #24
    c268:	e1823003 	orr	r3, r2, r3
    c26c:	e50b3034 	str	r3, [fp, #-52]	; 0x34
    c270:	e51b305c 	ldr	r3, [fp, #-92]	; 0x5c
    c274:	e2833024 	add	r3, r3, #36	; 0x24
    c278:	e5d33000 	ldrb	r3, [r3]
    c27c:	e1a02003 	mov	r2, r3
    c280:	e51b305c 	ldr	r3, [fp, #-92]	; 0x5c
    c284:	e2833025 	add	r3, r3, #37	; 0x25
    c288:	e5d33000 	ldrb	r3, [r3]
    c28c:	e1a03403 	lsl	r3, r3, #8
    c290:	e1822003 	orr	r2, r2, r3
    c294:	e51b305c 	ldr	r3, [fp, #-92]	; 0x5c
    c298:	e2833026 	add	r3, r3, #38	; 0x26
    c29c:	e5d33000 	ldrb	r3, [r3]
    c2a0:	e1a03803 	lsl	r3, r3, #16
    c2a4:	e1822003 	orr	r2, r2, r3
    c2a8:	e51b305c 	ldr	r3, [fp, #-92]	; 0x5c
    c2ac:	e2833027 	add	r3, r3, #39	; 0x27
    c2b0:	e5d33000 	ldrb	r3, [r3]
    c2b4:	e1a03c03 	lsl	r3, r3, #24
    c2b8:	e1823003 	orr	r3, r2, r3
    c2bc:	e50b3030 	str	r3, [fp, #-48]	; 0x30
    c2c0:	e51b305c 	ldr	r3, [fp, #-92]	; 0x5c
    c2c4:	e2833028 	add	r3, r3, #40	; 0x28
    c2c8:	e5d33000 	ldrb	r3, [r3]
    c2cc:	e1a02003 	mov	r2, r3
    c2d0:	e51b305c 	ldr	r3, [fp, #-92]	; 0x5c
    c2d4:	e2833029 	add	r3, r3, #41	; 0x29
    c2d8:	e5d33000 	ldrb	r3, [r3]
    c2dc:	e1a03403 	lsl	r3, r3, #8
    c2e0:	e1822003 	orr	r2, r2, r3
    c2e4:	e51b305c 	ldr	r3, [fp, #-92]	; 0x5c
    c2e8:	e283302a 	add	r3, r3, #42	; 0x2a
    c2ec:	e5d33000 	ldrb	r3, [r3]
    c2f0:	e1a03803 	lsl	r3, r3, #16
    c2f4:	e1822003 	orr	r2, r2, r3
    c2f8:	e51b305c 	ldr	r3, [fp, #-92]	; 0x5c
    c2fc:	e283302b 	add	r3, r3, #43	; 0x2b
    c300:	e5d33000 	ldrb	r3, [r3]
    c304:	e1a03c03 	lsl	r3, r3, #24
    c308:	e1823003 	orr	r3, r2, r3
    c30c:	e50b302c 	str	r3, [fp, #-44]	; 0x2c
    c310:	e51b305c 	ldr	r3, [fp, #-92]	; 0x5c
    c314:	e283302c 	add	r3, r3, #44	; 0x2c
    c318:	e5d33000 	ldrb	r3, [r3]
    c31c:	e1a02003 	mov	r2, r3
    c320:	e51b305c 	ldr	r3, [fp, #-92]	; 0x5c
    c324:	e283302d 	add	r3, r3, #45	; 0x2d
    c328:	e5d33000 	ldrb	r3, [r3]
    c32c:	e1a03403 	lsl	r3, r3, #8
    c330:	e1822003 	orr	r2, r2, r3
    c334:	e51b305c 	ldr	r3, [fp, #-92]	; 0x5c
    c338:	e283302e 	add	r3, r3, #46	; 0x2e
    c33c:	e5d33000 	ldrb	r3, [r3]
    c340:	e1a03803 	lsl	r3, r3, #16
    c344:	e1822003 	orr	r2, r2, r3
    c348:	e51b305c 	ldr	r3, [fp, #-92]	; 0x5c
    c34c:	e283302f 	add	r3, r3, #47	; 0x2f
    c350:	e5d33000 	ldrb	r3, [r3]
    c354:	e1a03c03 	lsl	r3, r3, #24
    c358:	e1823003 	orr	r3, r2, r3
    c35c:	e50b3028 	str	r3, [fp, #-40]	; 0x28
    c360:	e51b305c 	ldr	r3, [fp, #-92]	; 0x5c
    c364:	e2833030 	add	r3, r3, #48	; 0x30
    c368:	e5d33000 	ldrb	r3, [r3]
    c36c:	e1a02003 	mov	r2, r3
    c370:	e51b305c 	ldr	r3, [fp, #-92]	; 0x5c
    c374:	e2833031 	add	r3, r3, #49	; 0x31
    c378:	e5d33000 	ldrb	r3, [r3]
    c37c:	e1a03403 	lsl	r3, r3, #8
    c380:	e1822003 	orr	r2, r2, r3
    c384:	e51b305c 	ldr	r3, [fp, #-92]	; 0x5c
    c388:	e2833032 	add	r3, r3, #50	; 0x32
    c38c:	e5d33000 	ldrb	r3, [r3]
    c390:	e1a03803 	lsl	r3, r3, #16
    c394:	e1822003 	orr	r2, r2, r3
    c398:	e51b305c 	ldr	r3, [fp, #-92]	; 0x5c
    c39c:	e2833033 	add	r3, r3, #51	; 0x33
    c3a0:	e5d33000 	ldrb	r3, [r3]
    c3a4:	e1a03c03 	lsl	r3, r3, #24
    c3a8:	e1823003 	orr	r3, r2, r3
    c3ac:	e50b3024 	str	r3, [fp, #-36]	; 0x24
    c3b0:	e51b305c 	ldr	r3, [fp, #-92]	; 0x5c
    c3b4:	e2833034 	add	r3, r3, #52	; 0x34
    c3b8:	e5d33000 	ldrb	r3, [r3]
    c3bc:	e1a02003 	mov	r2, r3
    c3c0:	e51b305c 	ldr	r3, [fp, #-92]	; 0x5c
    c3c4:	e2833035 	add	r3, r3, #53	; 0x35
    c3c8:	e5d33000 	ldrb	r3, [r3]
    c3cc:	e1a03403 	lsl	r3, r3, #8
    c3d0:	e1822003 	orr	r2, r2, r3
    c3d4:	e51b305c 	ldr	r3, [fp, #-92]	; 0x5c
    c3d8:	e2833036 	add	r3, r3, #54	; 0x36
    c3dc:	e5d33000 	ldrb	r3, [r3]
    c3e0:	e1a03803 	lsl	r3, r3, #16
    c3e4:	e1822003 	orr	r2, r2, r3
    c3e8:	e51b305c 	ldr	r3, [fp, #-92]	; 0x5c
    c3ec:	e2833037 	add	r3, r3, #55	; 0x37
    c3f0:	e5d33000 	ldrb	r3, [r3]
    c3f4:	e1a03c03 	lsl	r3, r3, #24
    c3f8:	e1823003 	orr	r3, r2, r3
    c3fc:	e50b3020 	str	r3, [fp, #-32]
    c400:	e51b305c 	ldr	r3, [fp, #-92]	; 0x5c
    c404:	e2833038 	add	r3, r3, #56	; 0x38
    c408:	e5d33000 	ldrb	r3, [r3]
    c40c:	e1a02003 	mov	r2, r3
    c410:	e51b305c 	ldr	r3, [fp, #-92]	; 0x5c
    c414:	e2833039 	add	r3, r3, #57	; 0x39
    c418:	e5d33000 	ldrb	r3, [r3]
    c41c:	e1a03403 	lsl	r3, r3, #8
    c420:	e1822003 	orr	r2, r2, r3
    c424:	e51b305c 	ldr	r3, [fp, #-92]	; 0x5c
    c428:	e283303a 	add	r3, r3, #58	; 0x3a
    c42c:	e5d33000 	ldrb	r3, [r3]
    c430:	e1a03803 	lsl	r3, r3, #16
    c434:	e1822003 	orr	r2, r2, r3
    c438:	e51b305c 	ldr	r3, [fp, #-92]	; 0x5c
    c43c:	e283303b 	add	r3, r3, #59	; 0x3b
    c440:	e5d33000 	ldrb	r3, [r3]
    c444:	e1a03c03 	lsl	r3, r3, #24
    c448:	e1823003 	orr	r3, r2, r3
    c44c:	e50b301c 	str	r3, [fp, #-28]
    c450:	e51b305c 	ldr	r3, [fp, #-92]	; 0x5c
    c454:	e283303c 	add	r3, r3, #60	; 0x3c
    c458:	e5d33000 	ldrb	r3, [r3]
    c45c:	e1a02003 	mov	r2, r3
    c460:	e51b305c 	ldr	r3, [fp, #-92]	; 0x5c
    c464:	e283303d 	add	r3, r3, #61	; 0x3d
    c468:	e5d33000 	ldrb	r3, [r3]
    c46c:	e1a03403 	lsl	r3, r3, #8
    c470:	e1822003 	orr	r2, r2, r3
    c474:	e51b305c 	ldr	r3, [fp, #-92]	; 0x5c
    c478:	e283303e 	add	r3, r3, #62	; 0x3e
    c47c:	e5d33000 	ldrb	r3, [r3]
    c480:	e1a03803 	lsl	r3, r3, #16
    c484:	e1822003 	orr	r2, r2, r3
    c488:	e51b305c 	ldr	r3, [fp, #-92]	; 0x5c
    c48c:	e283303f 	add	r3, r3, #63	; 0x3f
    c490:	e5d33000 	ldrb	r3, [r3]
    c494:	e1a03c03 	lsl	r3, r3, #24
    c498:	e1823003 	orr	r3, r2, r3
    c49c:	e50b3018 	str	r3, [fp, #-24]
    c4a0:	e51b3058 	ldr	r3, [fp, #-88]	; 0x58
    c4a4:	e5933008 	ldr	r3, [r3, #8]
    c4a8:	e50b3008 	str	r3, [fp, #-8]
    c4ac:	e51b3058 	ldr	r3, [fp, #-88]	; 0x58
    c4b0:	e593300c 	ldr	r3, [r3, #12]
    c4b4:	e50b300c 	str	r3, [fp, #-12]
    c4b8:	e51b3058 	ldr	r3, [fp, #-88]	; 0x58
    c4bc:	e5933010 	ldr	r3, [r3, #16]
    c4c0:	e50b3010 	str	r3, [fp, #-16]
    c4c4:	e51b3058 	ldr	r3, [fp, #-88]	; 0x58
    c4c8:	e5933014 	ldr	r3, [r3, #20]
    c4cc:	e50b3014 	str	r3, [fp, #-20]
    c4d0:	e51b2010 	ldr	r2, [fp, #-16]
    c4d4:	e51b3014 	ldr	r3, [fp, #-20]
    c4d8:	e0222003 	eor	r2, r2, r3
    c4dc:	e51b300c 	ldr	r3, [fp, #-12]
    c4e0:	e0022003 	and	r2, r2, r3
    c4e4:	e51b3014 	ldr	r3, [fp, #-20]
    c4e8:	e0222003 	eor	r2, r2, r3
    c4ec:	e51b3054 	ldr	r3, [fp, #-84]	; 0x54
    c4f0:	e0822003 	add	r2, r2, r3
    c4f4:	e51b3008 	ldr	r3, [fp, #-8]
    c4f8:	e0822003 	add	r2, r2, r3
    c4fc:	e59f3ff8 	ldr	r3, [pc, #4088]	; d4fc <md5_process+0x156c>
    c500:	e0823003 	add	r3, r2, r3
    c504:	e50b3008 	str	r3, [fp, #-8]
    c508:	e51b3008 	ldr	r3, [fp, #-8]
    c50c:	e1a02ce3 	ror	r2, r3, #25
    c510:	e51b300c 	ldr	r3, [fp, #-12]
    c514:	e0823003 	add	r3, r2, r3
    c518:	e50b3008 	str	r3, [fp, #-8]
    c51c:	e51b200c 	ldr	r2, [fp, #-12]
    c520:	e51b3010 	ldr	r3, [fp, #-16]
    c524:	e0222003 	eor	r2, r2, r3
    c528:	e51b3008 	ldr	r3, [fp, #-8]
    c52c:	e0022003 	and	r2, r2, r3
    c530:	e51b3010 	ldr	r3, [fp, #-16]
    c534:	e0222003 	eor	r2, r2, r3
    c538:	e51b3050 	ldr	r3, [fp, #-80]	; 0x50
    c53c:	e0822003 	add	r2, r2, r3
    c540:	e51b3014 	ldr	r3, [fp, #-20]
    c544:	e0822003 	add	r2, r2, r3
    c548:	e59f3fb0 	ldr	r3, [pc, #4016]	; d500 <md5_process+0x1570>
    c54c:	e0823003 	add	r3, r2, r3
    c550:	e50b3014 	str	r3, [fp, #-20]
    c554:	e51b3014 	ldr	r3, [fp, #-20]
    c558:	e1a02a63 	ror	r2, r3, #20
    c55c:	e51b3008 	ldr	r3, [fp, #-8]
    c560:	e0823003 	add	r3, r2, r3
    c564:	e50b3014 	str	r3, [fp, #-20]
    c568:	e51b2008 	ldr	r2, [fp, #-8]
    c56c:	e51b300c 	ldr	r3, [fp, #-12]
    c570:	e0222003 	eor	r2, r2, r3
    c574:	e51b3014 	ldr	r3, [fp, #-20]
    c578:	e0022003 	and	r2, r2, r3
    c57c:	e51b300c 	ldr	r3, [fp, #-12]
    c580:	e0222003 	eor	r2, r2, r3
    c584:	e51b304c 	ldr	r3, [fp, #-76]	; 0x4c
    c588:	e0822003 	add	r2, r2, r3
    c58c:	e51b3010 	ldr	r3, [fp, #-16]
    c590:	e0822003 	add	r2, r2, r3
    c594:	e59f3f68 	ldr	r3, [pc, #3944]	; d504 <md5_process+0x1574>
    c598:	e0823003 	add	r3, r2, r3
    c59c:	e50b3010 	str	r3, [fp, #-16]
    c5a0:	e51b3010 	ldr	r3, [fp, #-16]
    c5a4:	e1a027e3 	ror	r2, r3, #15
    c5a8:	e51b3014 	ldr	r3, [fp, #-20]
    c5ac:	e0823003 	add	r3, r2, r3
    c5b0:	e50b3010 	str	r3, [fp, #-16]
    c5b4:	e51b2014 	ldr	r2, [fp, #-20]
    c5b8:	e51b3008 	ldr	r3, [fp, #-8]
    c5bc:	e0222003 	eor	r2, r2, r3
    c5c0:	e51b3010 	ldr	r3, [fp, #-16]
    c5c4:	e0022003 	and	r2, r2, r3
    c5c8:	e51b3008 	ldr	r3, [fp, #-8]
    c5cc:	e0222003 	eor	r2, r2, r3
    c5d0:	e51b3048 	ldr	r3, [fp, #-72]	; 0x48
    c5d4:	e0822003 	add	r2, r2, r3
    c5d8:	e51b300c 	ldr	r3, [fp, #-12]
    c5dc:	e0822003 	add	r2, r2, r3
    c5e0:	e59f3f20 	ldr	r3, [pc, #3872]	; d508 <md5_process+0x1578>
    c5e4:	e0823003 	add	r3, r2, r3
    c5e8:	e50b300c 	str	r3, [fp, #-12]
    c5ec:	e51b300c 	ldr	r3, [fp, #-12]
    c5f0:	e1a02563 	ror	r2, r3, #10
    c5f4:	e51b3010 	ldr	r3, [fp, #-16]
    c5f8:	e0823003 	add	r3, r2, r3
    c5fc:	e50b300c 	str	r3, [fp, #-12]
    c600:	e51b2010 	ldr	r2, [fp, #-16]
    c604:	e51b3014 	ldr	r3, [fp, #-20]
    c608:	e0222003 	eor	r2, r2, r3
    c60c:	e51b300c 	ldr	r3, [fp, #-12]
    c610:	e0022003 	and	r2, r2, r3
    c614:	e51b3014 	ldr	r3, [fp, #-20]
    c618:	e0222003 	eor	r2, r2, r3
    c61c:	e51b3044 	ldr	r3, [fp, #-68]	; 0x44
    c620:	e0822003 	add	r2, r2, r3
    c624:	e51b3008 	ldr	r3, [fp, #-8]
    c628:	e0822003 	add	r2, r2, r3
    c62c:	e59f3ed8 	ldr	r3, [pc, #3800]	; d50c <md5_process+0x157c>
    c630:	e0823003 	add	r3, r2, r3
    c634:	e50b3008 	str	r3, [fp, #-8]
    c638:	e51b3008 	ldr	r3, [fp, #-8]
    c63c:	e1a02ce3 	ror	r2, r3, #25
    c640:	e51b300c 	ldr	r3, [fp, #-12]
    c644:	e0823003 	add	r3, r2, r3
    c648:	e50b3008 	str	r3, [fp, #-8]
    c64c:	e51b200c 	ldr	r2, [fp, #-12]
    c650:	e51b3010 	ldr	r3, [fp, #-16]
    c654:	e0222003 	eor	r2, r2, r3
    c658:	e51b3008 	ldr	r3, [fp, #-8]
    c65c:	e0022003 	and	r2, r2, r3
    c660:	e51b3010 	ldr	r3, [fp, #-16]
    c664:	e0222003 	eor	r2, r2, r3
    c668:	e51b3040 	ldr	r3, [fp, #-64]	; 0x40
    c66c:	e0822003 	add	r2, r2, r3
    c670:	e51b3014 	ldr	r3, [fp, #-20]
    c674:	e0822003 	add	r2, r2, r3
    c678:	e59f3e90 	ldr	r3, [pc, #3728]	; d510 <md5_process+0x1580>
    c67c:	e0823003 	add	r3, r2, r3
    c680:	e50b3014 	str	r3, [fp, #-20]
    c684:	e51b3014 	ldr	r3, [fp, #-20]
    c688:	e1a02a63 	ror	r2, r3, #20
    c68c:	e51b3008 	ldr	r3, [fp, #-8]
    c690:	e0823003 	add	r3, r2, r3
    c694:	e50b3014 	str	r3, [fp, #-20]
    c698:	e51b2008 	ldr	r2, [fp, #-8]
    c69c:	e51b300c 	ldr	r3, [fp, #-12]
    c6a0:	e0222003 	eor	r2, r2, r3
    c6a4:	e51b3014 	ldr	r3, [fp, #-20]
    c6a8:	e0022003 	and	r2, r2, r3
    c6ac:	e51b300c 	ldr	r3, [fp, #-12]
    c6b0:	e0222003 	eor	r2, r2, r3
    c6b4:	e51b303c 	ldr	r3, [fp, #-60]	; 0x3c
    c6b8:	e0822003 	add	r2, r2, r3
    c6bc:	e51b3010 	ldr	r3, [fp, #-16]
    c6c0:	e0822003 	add	r2, r2, r3
    c6c4:	e59f3e48 	ldr	r3, [pc, #3656]	; d514 <md5_process+0x1584>
    c6c8:	e0823003 	add	r3, r2, r3
    c6cc:	e50b3010 	str	r3, [fp, #-16]
    c6d0:	e51b3010 	ldr	r3, [fp, #-16]
    c6d4:	e1a027e3 	ror	r2, r3, #15
    c6d8:	e51b3014 	ldr	r3, [fp, #-20]
    c6dc:	e0823003 	add	r3, r2, r3
    c6e0:	e50b3010 	str	r3, [fp, #-16]
    c6e4:	e51b2014 	ldr	r2, [fp, #-20]
    c6e8:	e51b3008 	ldr	r3, [fp, #-8]
    c6ec:	e0222003 	eor	r2, r2, r3
    c6f0:	e51b3010 	ldr	r3, [fp, #-16]
    c6f4:	e0022003 	and	r2, r2, r3
    c6f8:	e51b3008 	ldr	r3, [fp, #-8]
    c6fc:	e0222003 	eor	r2, r2, r3
    c700:	e51b3038 	ldr	r3, [fp, #-56]	; 0x38
    c704:	e0822003 	add	r2, r2, r3
    c708:	e51b300c 	ldr	r3, [fp, #-12]
    c70c:	e0822003 	add	r2, r2, r3
    c710:	e59f3e00 	ldr	r3, [pc, #3584]	; d518 <md5_process+0x1588>
    c714:	e0823003 	add	r3, r2, r3
    c718:	e50b300c 	str	r3, [fp, #-12]
    c71c:	e51b300c 	ldr	r3, [fp, #-12]
    c720:	e1a02563 	ror	r2, r3, #10
    c724:	e51b3010 	ldr	r3, [fp, #-16]
    c728:	e0823003 	add	r3, r2, r3
    c72c:	e50b300c 	str	r3, [fp, #-12]
    c730:	e51b2010 	ldr	r2, [fp, #-16]
    c734:	e51b3014 	ldr	r3, [fp, #-20]
    c738:	e0222003 	eor	r2, r2, r3
    c73c:	e51b300c 	ldr	r3, [fp, #-12]
    c740:	e0022003 	and	r2, r2, r3
    c744:	e51b3014 	ldr	r3, [fp, #-20]
    c748:	e0222003 	eor	r2, r2, r3
    c74c:	e51b3034 	ldr	r3, [fp, #-52]	; 0x34
    c750:	e0822003 	add	r2, r2, r3
    c754:	e51b3008 	ldr	r3, [fp, #-8]
    c758:	e0822003 	add	r2, r2, r3
    c75c:	e59f3db8 	ldr	r3, [pc, #3512]	; d51c <md5_process+0x158c>
    c760:	e0823003 	add	r3, r2, r3
    c764:	e50b3008 	str	r3, [fp, #-8]
    c768:	e51b3008 	ldr	r3, [fp, #-8]
    c76c:	e1a02ce3 	ror	r2, r3, #25
    c770:	e51b300c 	ldr	r3, [fp, #-12]
    c774:	e0823003 	add	r3, r2, r3
    c778:	e50b3008 	str	r3, [fp, #-8]
    c77c:	e51b200c 	ldr	r2, [fp, #-12]
    c780:	e51b3010 	ldr	r3, [fp, #-16]
    c784:	e0222003 	eor	r2, r2, r3
    c788:	e51b3008 	ldr	r3, [fp, #-8]
    c78c:	e0022003 	and	r2, r2, r3
    c790:	e51b3010 	ldr	r3, [fp, #-16]
    c794:	e0222003 	eor	r2, r2, r3
    c798:	e51b3030 	ldr	r3, [fp, #-48]	; 0x30
    c79c:	e0822003 	add	r2, r2, r3
    c7a0:	e51b3014 	ldr	r3, [fp, #-20]
    c7a4:	e0822003 	add	r2, r2, r3
    c7a8:	e59f3d70 	ldr	r3, [pc, #3440]	; d520 <md5_process+0x1590>
    c7ac:	e0823003 	add	r3, r2, r3
    c7b0:	e50b3014 	str	r3, [fp, #-20]
    c7b4:	e51b3014 	ldr	r3, [fp, #-20]
    c7b8:	e1a02a63 	ror	r2, r3, #20
    c7bc:	e51b3008 	ldr	r3, [fp, #-8]
    c7c0:	e0823003 	add	r3, r2, r3
    c7c4:	e50b3014 	str	r3, [fp, #-20]
    c7c8:	e51b2008 	ldr	r2, [fp, #-8]
    c7cc:	e51b300c 	ldr	r3, [fp, #-12]
    c7d0:	e0222003 	eor	r2, r2, r3
    c7d4:	e51b3014 	ldr	r3, [fp, #-20]
    c7d8:	e0022003 	and	r2, r2, r3
    c7dc:	e51b300c 	ldr	r3, [fp, #-12]
    c7e0:	e0222003 	eor	r2, r2, r3
    c7e4:	e51b302c 	ldr	r3, [fp, #-44]	; 0x2c
    c7e8:	e0822003 	add	r2, r2, r3
    c7ec:	e51b3010 	ldr	r3, [fp, #-16]
    c7f0:	e0823003 	add	r3, r2, r3
    c7f4:	e2433b29 	sub	r3, r3, #41984	; 0xa400
    c7f8:	e243304f 	sub	r3, r3, #79	; 0x4f
    c7fc:	e50b3010 	str	r3, [fp, #-16]
    c800:	e51b3010 	ldr	r3, [fp, #-16]
    c804:	e1a027e3 	ror	r2, r3, #15
    c808:	e51b3014 	ldr	r3, [fp, #-20]
    c80c:	e0823003 	add	r3, r2, r3
    c810:	e50b3010 	str	r3, [fp, #-16]
    c814:	e51b2014 	ldr	r2, [fp, #-20]
    c818:	e51b3008 	ldr	r3, [fp, #-8]
    c81c:	e0222003 	eor	r2, r2, r3
    c820:	e51b3010 	ldr	r3, [fp, #-16]
    c824:	e0022003 	and	r2, r2, r3
    c828:	e51b3008 	ldr	r3, [fp, #-8]
    c82c:	e0222003 	eor	r2, r2, r3
    c830:	e51b3028 	ldr	r3, [fp, #-40]	; 0x28
    c834:	e0822003 	add	r2, r2, r3
    c838:	e51b300c 	ldr	r3, [fp, #-12]
    c83c:	e0822003 	add	r2, r2, r3
    c840:	e59f3cdc 	ldr	r3, [pc, #3292]	; d524 <md5_process+0x1594>
    c844:	e0823003 	add	r3, r2, r3
    c848:	e50b300c 	str	r3, [fp, #-12]
    c84c:	e51b300c 	ldr	r3, [fp, #-12]
    c850:	e1a02563 	ror	r2, r3, #10
    c854:	e51b3010 	ldr	r3, [fp, #-16]
    c858:	e0823003 	add	r3, r2, r3
    c85c:	e50b300c 	str	r3, [fp, #-12]
    c860:	e51b2010 	ldr	r2, [fp, #-16]
    c864:	e51b3014 	ldr	r3, [fp, #-20]
    c868:	e0222003 	eor	r2, r2, r3
    c86c:	e51b300c 	ldr	r3, [fp, #-12]
    c870:	e0022003 	and	r2, r2, r3
    c874:	e51b3014 	ldr	r3, [fp, #-20]
    c878:	e0222003 	eor	r2, r2, r3
    c87c:	e51b3024 	ldr	r3, [fp, #-36]	; 0x24
    c880:	e0822003 	add	r2, r2, r3
    c884:	e51b3008 	ldr	r3, [fp, #-8]
    c888:	e0822003 	add	r2, r2, r3
    c88c:	e59f3c94 	ldr	r3, [pc, #3220]	; d528 <md5_process+0x1598>
    c890:	e0823003 	add	r3, r2, r3
    c894:	e50b3008 	str	r3, [fp, #-8]
    c898:	e51b3008 	ldr	r3, [fp, #-8]
    c89c:	e1a02ce3 	ror	r2, r3, #25
    c8a0:	e51b300c 	ldr	r3, [fp, #-12]
    c8a4:	e0823003 	add	r3, r2, r3
    c8a8:	e50b3008 	str	r3, [fp, #-8]
    c8ac:	e51b200c 	ldr	r2, [fp, #-12]
    c8b0:	e51b3010 	ldr	r3, [fp, #-16]
    c8b4:	e0222003 	eor	r2, r2, r3
    c8b8:	e51b3008 	ldr	r3, [fp, #-8]
    c8bc:	e0022003 	and	r2, r2, r3
    c8c0:	e51b3010 	ldr	r3, [fp, #-16]
    c8c4:	e0222003 	eor	r2, r2, r3
    c8c8:	e51b3020 	ldr	r3, [fp, #-32]
    c8cc:	e0822003 	add	r2, r2, r3
    c8d0:	e51b3014 	ldr	r3, [fp, #-20]
    c8d4:	e0822003 	add	r2, r2, r3
    c8d8:	e59f3c4c 	ldr	r3, [pc, #3148]	; d52c <md5_process+0x159c>
    c8dc:	e0823003 	add	r3, r2, r3
    c8e0:	e50b3014 	str	r3, [fp, #-20]
    c8e4:	e51b3014 	ldr	r3, [fp, #-20]
    c8e8:	e1a02a63 	ror	r2, r3, #20
    c8ec:	e51b3008 	ldr	r3, [fp, #-8]
    c8f0:	e0823003 	add	r3, r2, r3
    c8f4:	e50b3014 	str	r3, [fp, #-20]
    c8f8:	e51b2008 	ldr	r2, [fp, #-8]
    c8fc:	e51b300c 	ldr	r3, [fp, #-12]
    c900:	e0222003 	eor	r2, r2, r3
    c904:	e51b3014 	ldr	r3, [fp, #-20]
    c908:	e0022003 	and	r2, r2, r3
    c90c:	e51b300c 	ldr	r3, [fp, #-12]
    c910:	e0222003 	eor	r2, r2, r3
    c914:	e51b301c 	ldr	r3, [fp, #-28]
    c918:	e0822003 	add	r2, r2, r3
    c91c:	e51b3010 	ldr	r3, [fp, #-16]
    c920:	e0822003 	add	r2, r2, r3
    c924:	e59f3c04 	ldr	r3, [pc, #3076]	; d530 <md5_process+0x15a0>
    c928:	e0823003 	add	r3, r2, r3
    c92c:	e50b3010 	str	r3, [fp, #-16]
    c930:	e51b3010 	ldr	r3, [fp, #-16]
    c934:	e1a027e3 	ror	r2, r3, #15
    c938:	e51b3014 	ldr	r3, [fp, #-20]
    c93c:	e0823003 	add	r3, r2, r3
    c940:	e50b3010 	str	r3, [fp, #-16]
    c944:	e51b2014 	ldr	r2, [fp, #-20]
    c948:	e51b3008 	ldr	r3, [fp, #-8]
    c94c:	e0222003 	eor	r2, r2, r3
    c950:	e51b3010 	ldr	r3, [fp, #-16]
    c954:	e0022003 	and	r2, r2, r3
    c958:	e51b3008 	ldr	r3, [fp, #-8]
    c95c:	e0222003 	eor	r2, r2, r3
    c960:	e51b3018 	ldr	r3, [fp, #-24]
    c964:	e0822003 	add	r2, r2, r3
    c968:	e51b300c 	ldr	r3, [fp, #-12]
    c96c:	e0822003 	add	r2, r2, r3
    c970:	e59f3bbc 	ldr	r3, [pc, #3004]	; d534 <md5_process+0x15a4>
    c974:	e0823003 	add	r3, r2, r3
    c978:	e50b300c 	str	r3, [fp, #-12]
    c97c:	e51b300c 	ldr	r3, [fp, #-12]
    c980:	e1a02563 	ror	r2, r3, #10
    c984:	e51b3010 	ldr	r3, [fp, #-16]
    c988:	e0823003 	add	r3, r2, r3
    c98c:	e50b300c 	str	r3, [fp, #-12]
    c990:	e51b200c 	ldr	r2, [fp, #-12]
    c994:	e51b3010 	ldr	r3, [fp, #-16]
    c998:	e0222003 	eor	r2, r2, r3
    c99c:	e51b3014 	ldr	r3, [fp, #-20]
    c9a0:	e0022003 	and	r2, r2, r3
    c9a4:	e51b3010 	ldr	r3, [fp, #-16]
    c9a8:	e0222003 	eor	r2, r2, r3
    c9ac:	e51b3050 	ldr	r3, [fp, #-80]	; 0x50
    c9b0:	e0822003 	add	r2, r2, r3
    c9b4:	e51b3008 	ldr	r3, [fp, #-8]
    c9b8:	e0822003 	add	r2, r2, r3
    c9bc:	e59f3b74 	ldr	r3, [pc, #2932]	; d538 <md5_process+0x15a8>
    c9c0:	e0823003 	add	r3, r2, r3
    c9c4:	e50b3008 	str	r3, [fp, #-8]
    c9c8:	e51b3008 	ldr	r3, [fp, #-8]
    c9cc:	e1a02de3 	ror	r2, r3, #27
    c9d0:	e51b300c 	ldr	r3, [fp, #-12]
    c9d4:	e0823003 	add	r3, r2, r3
    c9d8:	e50b3008 	str	r3, [fp, #-8]
    c9dc:	e51b2008 	ldr	r2, [fp, #-8]
    c9e0:	e51b300c 	ldr	r3, [fp, #-12]
    c9e4:	e0222003 	eor	r2, r2, r3
    c9e8:	e51b3010 	ldr	r3, [fp, #-16]
    c9ec:	e0022003 	and	r2, r2, r3
    c9f0:	e51b300c 	ldr	r3, [fp, #-12]
    c9f4:	e0222003 	eor	r2, r2, r3
    c9f8:	e51b303c 	ldr	r3, [fp, #-60]	; 0x3c
    c9fc:	e0822003 	add	r2, r2, r3
    ca00:	e51b3014 	ldr	r3, [fp, #-20]
    ca04:	e0822003 	add	r2, r2, r3
    ca08:	e59f3b2c 	ldr	r3, [pc, #2860]	; d53c <md5_process+0x15ac>
    ca0c:	e0823003 	add	r3, r2, r3
    ca10:	e50b3014 	str	r3, [fp, #-20]
    ca14:	e51b3014 	ldr	r3, [fp, #-20]
    ca18:	e1a02be3 	ror	r2, r3, #23
    ca1c:	e51b3008 	ldr	r3, [fp, #-8]
    ca20:	e0823003 	add	r3, r2, r3
    ca24:	e50b3014 	str	r3, [fp, #-20]
    ca28:	e51b2014 	ldr	r2, [fp, #-20]
    ca2c:	e51b3008 	ldr	r3, [fp, #-8]
    ca30:	e0222003 	eor	r2, r2, r3
    ca34:	e51b300c 	ldr	r3, [fp, #-12]
    ca38:	e0022003 	and	r2, r2, r3
    ca3c:	e51b3008 	ldr	r3, [fp, #-8]
    ca40:	e0222003 	eor	r2, r2, r3
    ca44:	e51b3028 	ldr	r3, [fp, #-40]	; 0x28
    ca48:	e0822003 	add	r2, r2, r3
    ca4c:	e51b3010 	ldr	r3, [fp, #-16]
    ca50:	e0822003 	add	r2, r2, r3
    ca54:	e59f3ae4 	ldr	r3, [pc, #2788]	; d540 <md5_process+0x15b0>
    ca58:	e0823003 	add	r3, r2, r3
    ca5c:	e50b3010 	str	r3, [fp, #-16]
    ca60:	e51b3010 	ldr	r3, [fp, #-16]
    ca64:	e1a02963 	ror	r2, r3, #18
    ca68:	e51b3014 	ldr	r3, [fp, #-20]
    ca6c:	e0823003 	add	r3, r2, r3
    ca70:	e50b3010 	str	r3, [fp, #-16]
    ca74:	e51b2010 	ldr	r2, [fp, #-16]
    ca78:	e51b3014 	ldr	r3, [fp, #-20]
    ca7c:	e0222003 	eor	r2, r2, r3
    ca80:	e51b3008 	ldr	r3, [fp, #-8]
    ca84:	e0022003 	and	r2, r2, r3
    ca88:	e51b3014 	ldr	r3, [fp, #-20]
    ca8c:	e0222003 	eor	r2, r2, r3
    ca90:	e51b3054 	ldr	r3, [fp, #-84]	; 0x54
    ca94:	e0822003 	add	r2, r2, r3
    ca98:	e51b300c 	ldr	r3, [fp, #-12]
    ca9c:	e0822003 	add	r2, r2, r3
    caa0:	e59f3a9c 	ldr	r3, [pc, #2716]	; d544 <md5_process+0x15b4>
    caa4:	e0823003 	add	r3, r2, r3
    caa8:	e50b300c 	str	r3, [fp, #-12]
    caac:	e51b300c 	ldr	r3, [fp, #-12]
    cab0:	e1a02663 	ror	r2, r3, #12
    cab4:	e51b3010 	ldr	r3, [fp, #-16]
    cab8:	e0823003 	add	r3, r2, r3
    cabc:	e50b300c 	str	r3, [fp, #-12]
    cac0:	e51b200c 	ldr	r2, [fp, #-12]
    cac4:	e51b3010 	ldr	r3, [fp, #-16]
    cac8:	e0222003 	eor	r2, r2, r3
    cacc:	e51b3014 	ldr	r3, [fp, #-20]
    cad0:	e0022003 	and	r2, r2, r3
    cad4:	e51b3010 	ldr	r3, [fp, #-16]
    cad8:	e0222003 	eor	r2, r2, r3
    cadc:	e51b3040 	ldr	r3, [fp, #-64]	; 0x40
    cae0:	e0822003 	add	r2, r2, r3
    cae4:	e51b3008 	ldr	r3, [fp, #-8]
    cae8:	e0822003 	add	r2, r2, r3
    caec:	e59f3a54 	ldr	r3, [pc, #2644]	; d548 <md5_process+0x15b8>
    caf0:	e0823003 	add	r3, r2, r3
    caf4:	e50b3008 	str	r3, [fp, #-8]
    caf8:	e51b3008 	ldr	r3, [fp, #-8]
    cafc:	e1a02de3 	ror	r2, r3, #27
    cb00:	e51b300c 	ldr	r3, [fp, #-12]
    cb04:	e0823003 	add	r3, r2, r3
    cb08:	e50b3008 	str	r3, [fp, #-8]
    cb0c:	e51b2008 	ldr	r2, [fp, #-8]
    cb10:	e51b300c 	ldr	r3, [fp, #-12]
    cb14:	e0222003 	eor	r2, r2, r3
    cb18:	e51b3010 	ldr	r3, [fp, #-16]
    cb1c:	e0022003 	and	r2, r2, r3
    cb20:	e51b300c 	ldr	r3, [fp, #-12]
    cb24:	e0222003 	eor	r2, r2, r3
    cb28:	e51b302c 	ldr	r3, [fp, #-44]	; 0x2c
    cb2c:	e0822003 	add	r2, r2, r3
    cb30:	e51b3014 	ldr	r3, [fp, #-20]
    cb34:	e0822003 	add	r2, r2, r3
    cb38:	e59f3a0c 	ldr	r3, [pc, #2572]	; d54c <md5_process+0x15bc>
    cb3c:	e0823003 	add	r3, r2, r3
    cb40:	e50b3014 	str	r3, [fp, #-20]
    cb44:	e51b3014 	ldr	r3, [fp, #-20]
    cb48:	e1a02be3 	ror	r2, r3, #23
    cb4c:	e51b3008 	ldr	r3, [fp, #-8]
    cb50:	e0823003 	add	r3, r2, r3
    cb54:	e50b3014 	str	r3, [fp, #-20]
    cb58:	e51b2014 	ldr	r2, [fp, #-20]
    cb5c:	e51b3008 	ldr	r3, [fp, #-8]
    cb60:	e0222003 	eor	r2, r2, r3
    cb64:	e51b300c 	ldr	r3, [fp, #-12]
    cb68:	e0022003 	and	r2, r2, r3
    cb6c:	e51b3008 	ldr	r3, [fp, #-8]
    cb70:	e0222003 	eor	r2, r2, r3
    cb74:	e51b3018 	ldr	r3, [fp, #-24]
    cb78:	e0822003 	add	r2, r2, r3
    cb7c:	e51b3010 	ldr	r3, [fp, #-16]
    cb80:	e0822003 	add	r2, r2, r3
    cb84:	e59f39c4 	ldr	r3, [pc, #2500]	; d550 <md5_process+0x15c0>
    cb88:	e0823003 	add	r3, r2, r3
    cb8c:	e50b3010 	str	r3, [fp, #-16]
    cb90:	e51b3010 	ldr	r3, [fp, #-16]
    cb94:	e1a02963 	ror	r2, r3, #18
    cb98:	e51b3014 	ldr	r3, [fp, #-20]
    cb9c:	e0823003 	add	r3, r2, r3
    cba0:	e50b3010 	str	r3, [fp, #-16]
    cba4:	e51b2010 	ldr	r2, [fp, #-16]
    cba8:	e51b3014 	ldr	r3, [fp, #-20]
    cbac:	e0222003 	eor	r2, r2, r3
    cbb0:	e51b3008 	ldr	r3, [fp, #-8]
    cbb4:	e0022003 	and	r2, r2, r3
    cbb8:	e51b3014 	ldr	r3, [fp, #-20]
    cbbc:	e0222003 	eor	r2, r2, r3
    cbc0:	e51b3044 	ldr	r3, [fp, #-68]	; 0x44
    cbc4:	e0822003 	add	r2, r2, r3
    cbc8:	e51b300c 	ldr	r3, [fp, #-12]
    cbcc:	e0822003 	add	r2, r2, r3
    cbd0:	e59f397c 	ldr	r3, [pc, #2428]	; d554 <md5_process+0x15c4>
    cbd4:	e0823003 	add	r3, r2, r3
    cbd8:	e50b300c 	str	r3, [fp, #-12]
    cbdc:	e51b300c 	ldr	r3, [fp, #-12]
    cbe0:	e1a02663 	ror	r2, r3, #12
    cbe4:	e51b3010 	ldr	r3, [fp, #-16]
    cbe8:	e0823003 	add	r3, r2, r3
    cbec:	e50b300c 	str	r3, [fp, #-12]
    cbf0:	e51b200c 	ldr	r2, [fp, #-12]
    cbf4:	e51b3010 	ldr	r3, [fp, #-16]
    cbf8:	e0222003 	eor	r2, r2, r3
    cbfc:	e51b3014 	ldr	r3, [fp, #-20]
    cc00:	e0022003 	and	r2, r2, r3
    cc04:	e51b3010 	ldr	r3, [fp, #-16]
    cc08:	e0222003 	eor	r2, r2, r3
    cc0c:	e51b3030 	ldr	r3, [fp, #-48]	; 0x30
    cc10:	e0822003 	add	r2, r2, r3
    cc14:	e51b3008 	ldr	r3, [fp, #-8]
    cc18:	e0822003 	add	r2, r2, r3
    cc1c:	e59f3934 	ldr	r3, [pc, #2356]	; d558 <md5_process+0x15c8>
    cc20:	e0823003 	add	r3, r2, r3
    cc24:	e50b3008 	str	r3, [fp, #-8]
    cc28:	e51b3008 	ldr	r3, [fp, #-8]
    cc2c:	e1a02de3 	ror	r2, r3, #27
    cc30:	e51b300c 	ldr	r3, [fp, #-12]
    cc34:	e0823003 	add	r3, r2, r3
    cc38:	e50b3008 	str	r3, [fp, #-8]
    cc3c:	e51b2008 	ldr	r2, [fp, #-8]
    cc40:	e51b300c 	ldr	r3, [fp, #-12]
    cc44:	e0222003 	eor	r2, r2, r3
    cc48:	e51b3010 	ldr	r3, [fp, #-16]
    cc4c:	e0022003 	and	r2, r2, r3
    cc50:	e51b300c 	ldr	r3, [fp, #-12]
    cc54:	e0222003 	eor	r2, r2, r3
    cc58:	e51b301c 	ldr	r3, [fp, #-28]
    cc5c:	e0822003 	add	r2, r2, r3
    cc60:	e51b3014 	ldr	r3, [fp, #-20]
    cc64:	e0822003 	add	r2, r2, r3
    cc68:	e59f38ec 	ldr	r3, [pc, #2284]	; d55c <md5_process+0x15cc>
    cc6c:	e0823003 	add	r3, r2, r3
    cc70:	e50b3014 	str	r3, [fp, #-20]
    cc74:	e51b3014 	ldr	r3, [fp, #-20]
    cc78:	e1a02be3 	ror	r2, r3, #23
    cc7c:	e51b3008 	ldr	r3, [fp, #-8]
    cc80:	e0823003 	add	r3, r2, r3
    cc84:	e50b3014 	str	r3, [fp, #-20]
    cc88:	e51b2014 	ldr	r2, [fp, #-20]
    cc8c:	e51b3008 	ldr	r3, [fp, #-8]
    cc90:	e0222003 	eor	r2, r2, r3
    cc94:	e51b300c 	ldr	r3, [fp, #-12]
    cc98:	e0022003 	and	r2, r2, r3
    cc9c:	e51b3008 	ldr	r3, [fp, #-8]
    cca0:	e0222003 	eor	r2, r2, r3
    cca4:	e51b3048 	ldr	r3, [fp, #-72]	; 0x48
    cca8:	e0822003 	add	r2, r2, r3
    ccac:	e51b3010 	ldr	r3, [fp, #-16]
    ccb0:	e0822003 	add	r2, r2, r3
    ccb4:	e59f38a4 	ldr	r3, [pc, #2212]	; d560 <md5_process+0x15d0>
    ccb8:	e0823003 	add	r3, r2, r3
    ccbc:	e50b3010 	str	r3, [fp, #-16]
    ccc0:	e51b3010 	ldr	r3, [fp, #-16]
    ccc4:	e1a02963 	ror	r2, r3, #18
    ccc8:	e51b3014 	ldr	r3, [fp, #-20]
    cccc:	e0823003 	add	r3, r2, r3
    ccd0:	e50b3010 	str	r3, [fp, #-16]
    ccd4:	e51b2010 	ldr	r2, [fp, #-16]
    ccd8:	e51b3014 	ldr	r3, [fp, #-20]
    ccdc:	e0222003 	eor	r2, r2, r3
    cce0:	e51b3008 	ldr	r3, [fp, #-8]
    cce4:	e0022003 	and	r2, r2, r3
    cce8:	e51b3014 	ldr	r3, [fp, #-20]
    ccec:	e0222003 	eor	r2, r2, r3
    ccf0:	e51b3034 	ldr	r3, [fp, #-52]	; 0x34
    ccf4:	e0822003 	add	r2, r2, r3
    ccf8:	e51b300c 	ldr	r3, [fp, #-12]
    ccfc:	e0822003 	add	r2, r2, r3
    cd00:	e59f385c 	ldr	r3, [pc, #2140]	; d564 <md5_process+0x15d4>
    cd04:	e0823003 	add	r3, r2, r3
    cd08:	e50b300c 	str	r3, [fp, #-12]
    cd0c:	e51b300c 	ldr	r3, [fp, #-12]
    cd10:	e1a02663 	ror	r2, r3, #12
    cd14:	e51b3010 	ldr	r3, [fp, #-16]
    cd18:	e0823003 	add	r3, r2, r3
    cd1c:	e50b300c 	str	r3, [fp, #-12]
    cd20:	e51b200c 	ldr	r2, [fp, #-12]
    cd24:	e51b3010 	ldr	r3, [fp, #-16]
    cd28:	e0222003 	eor	r2, r2, r3
    cd2c:	e51b3014 	ldr	r3, [fp, #-20]
    cd30:	e0022003 	and	r2, r2, r3
    cd34:	e51b3010 	ldr	r3, [fp, #-16]
    cd38:	e0222003 	eor	r2, r2, r3
    cd3c:	e51b3020 	ldr	r3, [fp, #-32]
    cd40:	e0822003 	add	r2, r2, r3
    cd44:	e51b3008 	ldr	r3, [fp, #-8]
    cd48:	e0822003 	add	r2, r2, r3
    cd4c:	e59f3814 	ldr	r3, [pc, #2068]	; d568 <md5_process+0x15d8>
    cd50:	e0823003 	add	r3, r2, r3
    cd54:	e50b3008 	str	r3, [fp, #-8]
    cd58:	e51b3008 	ldr	r3, [fp, #-8]
    cd5c:	e1a02de3 	ror	r2, r3, #27
    cd60:	e51b300c 	ldr	r3, [fp, #-12]
    cd64:	e0823003 	add	r3, r2, r3
    cd68:	e50b3008 	str	r3, [fp, #-8]
    cd6c:	e51b2008 	ldr	r2, [fp, #-8]
    cd70:	e51b300c 	ldr	r3, [fp, #-12]
    cd74:	e0222003 	eor	r2, r2, r3
    cd78:	e51b3010 	ldr	r3, [fp, #-16]
    cd7c:	e0022003 	and	r2, r2, r3
    cd80:	e51b300c 	ldr	r3, [fp, #-12]
    cd84:	e0222003 	eor	r2, r2, r3
    cd88:	e51b304c 	ldr	r3, [fp, #-76]	; 0x4c
    cd8c:	e0822003 	add	r2, r2, r3
    cd90:	e51b3014 	ldr	r3, [fp, #-20]
    cd94:	e0822003 	add	r2, r2, r3
    cd98:	e59f37cc 	ldr	r3, [pc, #1996]	; d56c <md5_process+0x15dc>
    cd9c:	e0823003 	add	r3, r2, r3
    cda0:	e50b3014 	str	r3, [fp, #-20]
    cda4:	e51b3014 	ldr	r3, [fp, #-20]
    cda8:	e1a02be3 	ror	r2, r3, #23
    cdac:	e51b3008 	ldr	r3, [fp, #-8]
    cdb0:	e0823003 	add	r3, r2, r3
    cdb4:	e50b3014 	str	r3, [fp, #-20]
    cdb8:	e51b2014 	ldr	r2, [fp, #-20]
    cdbc:	e51b3008 	ldr	r3, [fp, #-8]
    cdc0:	e0222003 	eor	r2, r2, r3
    cdc4:	e51b300c 	ldr	r3, [fp, #-12]
    cdc8:	e0022003 	and	r2, r2, r3
    cdcc:	e51b3008 	ldr	r3, [fp, #-8]
    cdd0:	e0222003 	eor	r2, r2, r3
    cdd4:	e51b3038 	ldr	r3, [fp, #-56]	; 0x38
    cdd8:	e0822003 	add	r2, r2, r3
    cddc:	e51b3010 	ldr	r3, [fp, #-16]
    cde0:	e0822003 	add	r2, r2, r3
    cde4:	e59f3784 	ldr	r3, [pc, #1924]	; d570 <md5_process+0x15e0>
    cde8:	e0823003 	add	r3, r2, r3
    cdec:	e50b3010 	str	r3, [fp, #-16]
    cdf0:	e51b3010 	ldr	r3, [fp, #-16]
    cdf4:	e1a02963 	ror	r2, r3, #18
    cdf8:	e51b3014 	ldr	r3, [fp, #-20]
    cdfc:	e0823003 	add	r3, r2, r3
    ce00:	e50b3010 	str	r3, [fp, #-16]
    ce04:	e51b2010 	ldr	r2, [fp, #-16]
    ce08:	e51b3014 	ldr	r3, [fp, #-20]
    ce0c:	e0222003 	eor	r2, r2, r3
    ce10:	e51b3008 	ldr	r3, [fp, #-8]
    ce14:	e0022003 	and	r2, r2, r3
    ce18:	e51b3014 	ldr	r3, [fp, #-20]
    ce1c:	e0222003 	eor	r2, r2, r3
    ce20:	e51b3024 	ldr	r3, [fp, #-36]	; 0x24
    ce24:	e0822003 	add	r2, r2, r3
    ce28:	e51b300c 	ldr	r3, [fp, #-12]
    ce2c:	e0822003 	add	r2, r2, r3
    ce30:	e59f373c 	ldr	r3, [pc, #1852]	; d574 <md5_process+0x15e4>
    ce34:	e0823003 	add	r3, r2, r3
    ce38:	e50b300c 	str	r3, [fp, #-12]
    ce3c:	e51b300c 	ldr	r3, [fp, #-12]
    ce40:	e1a02663 	ror	r2, r3, #12
    ce44:	e51b3010 	ldr	r3, [fp, #-16]
    ce48:	e0823003 	add	r3, r2, r3
    ce4c:	e50b300c 	str	r3, [fp, #-12]
    ce50:	e51b200c 	ldr	r2, [fp, #-12]
    ce54:	e51b3010 	ldr	r3, [fp, #-16]
    ce58:	e0222003 	eor	r2, r2, r3
    ce5c:	e51b3014 	ldr	r3, [fp, #-20]
    ce60:	e0222003 	eor	r2, r2, r3
    ce64:	e51b3040 	ldr	r3, [fp, #-64]	; 0x40
    ce68:	e0822003 	add	r2, r2, r3
    ce6c:	e51b3008 	ldr	r3, [fp, #-8]
    ce70:	e0822003 	add	r2, r2, r3
    ce74:	e59f36fc 	ldr	r3, [pc, #1788]	; d578 <md5_process+0x15e8>
    ce78:	e0823003 	add	r3, r2, r3
    ce7c:	e50b3008 	str	r3, [fp, #-8]
    ce80:	e51b3008 	ldr	r3, [fp, #-8]
    ce84:	e1a02e63 	ror	r2, r3, #28
    ce88:	e51b300c 	ldr	r3, [fp, #-12]
    ce8c:	e0823003 	add	r3, r2, r3
    ce90:	e50b3008 	str	r3, [fp, #-8]
    ce94:	e51b2008 	ldr	r2, [fp, #-8]
    ce98:	e51b300c 	ldr	r3, [fp, #-12]
    ce9c:	e0222003 	eor	r2, r2, r3
    cea0:	e51b3010 	ldr	r3, [fp, #-16]
    cea4:	e0222003 	eor	r2, r2, r3
    cea8:	e51b3034 	ldr	r3, [fp, #-52]	; 0x34
    ceac:	e0822003 	add	r2, r2, r3
    ceb0:	e51b3014 	ldr	r3, [fp, #-20]
    ceb4:	e0822003 	add	r2, r2, r3
    ceb8:	e59f36bc 	ldr	r3, [pc, #1724]	; d57c <md5_process+0x15ec>
    cebc:	e0823003 	add	r3, r2, r3
    cec0:	e50b3014 	str	r3, [fp, #-20]
    cec4:	e51b3014 	ldr	r3, [fp, #-20]
    cec8:	e1a02ae3 	ror	r2, r3, #21
    cecc:	e51b3008 	ldr	r3, [fp, #-8]
    ced0:	e0823003 	add	r3, r2, r3
    ced4:	e50b3014 	str	r3, [fp, #-20]
    ced8:	e51b2014 	ldr	r2, [fp, #-20]
    cedc:	e51b3008 	ldr	r3, [fp, #-8]
    cee0:	e0222003 	eor	r2, r2, r3
    cee4:	e51b300c 	ldr	r3, [fp, #-12]
    cee8:	e0222003 	eor	r2, r2, r3
    ceec:	e51b3028 	ldr	r3, [fp, #-40]	; 0x28
    cef0:	e0822003 	add	r2, r2, r3
    cef4:	e51b3010 	ldr	r3, [fp, #-16]
    cef8:	e0822003 	add	r2, r2, r3
    cefc:	e59f367c 	ldr	r3, [pc, #1660]	; d580 <md5_process+0x15f0>
    cf00:	e0823003 	add	r3, r2, r3
    cf04:	e50b3010 	str	r3, [fp, #-16]
    cf08:	e51b3010 	ldr	r3, [fp, #-16]
    cf0c:	e1a02863 	ror	r2, r3, #16
    cf10:	e51b3014 	ldr	r3, [fp, #-20]
    cf14:	e0823003 	add	r3, r2, r3
    cf18:	e50b3010 	str	r3, [fp, #-16]
    cf1c:	e51b2010 	ldr	r2, [fp, #-16]
    cf20:	e51b3014 	ldr	r3, [fp, #-20]
    cf24:	e0222003 	eor	r2, r2, r3
    cf28:	e51b3008 	ldr	r3, [fp, #-8]
    cf2c:	e0222003 	eor	r2, r2, r3
    cf30:	e51b301c 	ldr	r3, [fp, #-28]
    cf34:	e0822003 	add	r2, r2, r3
    cf38:	e51b300c 	ldr	r3, [fp, #-12]
    cf3c:	e0822003 	add	r2, r2, r3
    cf40:	e59f363c 	ldr	r3, [pc, #1596]	; d584 <md5_process+0x15f4>
    cf44:	e0823003 	add	r3, r2, r3
    cf48:	e50b300c 	str	r3, [fp, #-12]
    cf4c:	e51b300c 	ldr	r3, [fp, #-12]
    cf50:	e1a024e3 	ror	r2, r3, #9
    cf54:	e51b3010 	ldr	r3, [fp, #-16]
    cf58:	e0823003 	add	r3, r2, r3
    cf5c:	e50b300c 	str	r3, [fp, #-12]
    cf60:	e51b200c 	ldr	r2, [fp, #-12]
    cf64:	e51b3010 	ldr	r3, [fp, #-16]
    cf68:	e0222003 	eor	r2, r2, r3
    cf6c:	e51b3014 	ldr	r3, [fp, #-20]
    cf70:	e0222003 	eor	r2, r2, r3
    cf74:	e51b3050 	ldr	r3, [fp, #-80]	; 0x50
    cf78:	e0822003 	add	r2, r2, r3
    cf7c:	e51b3008 	ldr	r3, [fp, #-8]
    cf80:	e0822003 	add	r2, r2, r3
    cf84:	e59f35fc 	ldr	r3, [pc, #1532]	; d588 <md5_process+0x15f8>
    cf88:	e0823003 	add	r3, r2, r3
    cf8c:	e50b3008 	str	r3, [fp, #-8]
    cf90:	e51b3008 	ldr	r3, [fp, #-8]
    cf94:	e1a02e63 	ror	r2, r3, #28
    cf98:	e51b300c 	ldr	r3, [fp, #-12]
    cf9c:	e0823003 	add	r3, r2, r3
    cfa0:	e50b3008 	str	r3, [fp, #-8]
    cfa4:	e51b2008 	ldr	r2, [fp, #-8]
    cfa8:	e51b300c 	ldr	r3, [fp, #-12]
    cfac:	e0222003 	eor	r2, r2, r3
    cfb0:	e51b3010 	ldr	r3, [fp, #-16]
    cfb4:	e0222003 	eor	r2, r2, r3
    cfb8:	e51b3044 	ldr	r3, [fp, #-68]	; 0x44
    cfbc:	e0822003 	add	r2, r2, r3
    cfc0:	e51b3014 	ldr	r3, [fp, #-20]
    cfc4:	e0822003 	add	r2, r2, r3
    cfc8:	e59f35bc 	ldr	r3, [pc, #1468]	; d58c <md5_process+0x15fc>
    cfcc:	e0823003 	add	r3, r2, r3
    cfd0:	e50b3014 	str	r3, [fp, #-20]
    cfd4:	e51b3014 	ldr	r3, [fp, #-20]
    cfd8:	e1a02ae3 	ror	r2, r3, #21
    cfdc:	e51b3008 	ldr	r3, [fp, #-8]
    cfe0:	e0823003 	add	r3, r2, r3
    cfe4:	e50b3014 	str	r3, [fp, #-20]
    cfe8:	e51b2014 	ldr	r2, [fp, #-20]
    cfec:	e51b3008 	ldr	r3, [fp, #-8]
    cff0:	e0222003 	eor	r2, r2, r3
    cff4:	e51b300c 	ldr	r3, [fp, #-12]
    cff8:	e0222003 	eor	r2, r2, r3
    cffc:	e51b3038 	ldr	r3, [fp, #-56]	; 0x38
    d000:	e0822003 	add	r2, r2, r3
    d004:	e51b3010 	ldr	r3, [fp, #-16]
    d008:	e0822003 	add	r2, r2, r3
    d00c:	e59f357c 	ldr	r3, [pc, #1404]	; d590 <md5_process+0x1600>
    d010:	e0823003 	add	r3, r2, r3
    d014:	e50b3010 	str	r3, [fp, #-16]
    d018:	e51b3010 	ldr	r3, [fp, #-16]
    d01c:	e1a02863 	ror	r2, r3, #16
    d020:	e51b3014 	ldr	r3, [fp, #-20]
    d024:	e0823003 	add	r3, r2, r3
    d028:	e50b3010 	str	r3, [fp, #-16]
    d02c:	e51b2010 	ldr	r2, [fp, #-16]
    d030:	e51b3014 	ldr	r3, [fp, #-20]
    d034:	e0222003 	eor	r2, r2, r3
    d038:	e51b3008 	ldr	r3, [fp, #-8]
    d03c:	e0222003 	eor	r2, r2, r3
    d040:	e51b302c 	ldr	r3, [fp, #-44]	; 0x2c
    d044:	e0822003 	add	r2, r2, r3
    d048:	e51b300c 	ldr	r3, [fp, #-12]
    d04c:	e0822003 	add	r2, r2, r3
    d050:	e59f353c 	ldr	r3, [pc, #1340]	; d594 <md5_process+0x1604>
    d054:	e0823003 	add	r3, r2, r3
    d058:	e50b300c 	str	r3, [fp, #-12]
    d05c:	e51b300c 	ldr	r3, [fp, #-12]
    d060:	e1a024e3 	ror	r2, r3, #9
    d064:	e51b3010 	ldr	r3, [fp, #-16]
    d068:	e0823003 	add	r3, r2, r3
    d06c:	e50b300c 	str	r3, [fp, #-12]
    d070:	e51b200c 	ldr	r2, [fp, #-12]
    d074:	e51b3010 	ldr	r3, [fp, #-16]
    d078:	e0222003 	eor	r2, r2, r3
    d07c:	e51b3014 	ldr	r3, [fp, #-20]
    d080:	e0222003 	eor	r2, r2, r3
    d084:	e51b3020 	ldr	r3, [fp, #-32]
    d088:	e0822003 	add	r2, r2, r3
    d08c:	e51b3008 	ldr	r3, [fp, #-8]
    d090:	e0822003 	add	r2, r2, r3
    d094:	e59f34fc 	ldr	r3, [pc, #1276]	; d598 <md5_process+0x1608>
    d098:	e0823003 	add	r3, r2, r3
    d09c:	e50b3008 	str	r3, [fp, #-8]
    d0a0:	e51b3008 	ldr	r3, [fp, #-8]
    d0a4:	e1a02e63 	ror	r2, r3, #28
    d0a8:	e51b300c 	ldr	r3, [fp, #-12]
    d0ac:	e0823003 	add	r3, r2, r3
    d0b0:	e50b3008 	str	r3, [fp, #-8]
    d0b4:	e51b2008 	ldr	r2, [fp, #-8]
    d0b8:	e51b300c 	ldr	r3, [fp, #-12]
    d0bc:	e0222003 	eor	r2, r2, r3
    d0c0:	e51b3010 	ldr	r3, [fp, #-16]
    d0c4:	e0222003 	eor	r2, r2, r3
    d0c8:	e51b3054 	ldr	r3, [fp, #-84]	; 0x54
    d0cc:	e0822003 	add	r2, r2, r3
    d0d0:	e51b3014 	ldr	r3, [fp, #-20]
    d0d4:	e0822003 	add	r2, r2, r3
    d0d8:	e59f34bc 	ldr	r3, [pc, #1212]	; d59c <md5_process+0x160c>
    d0dc:	e0823003 	add	r3, r2, r3
    d0e0:	e50b3014 	str	r3, [fp, #-20]
    d0e4:	e51b3014 	ldr	r3, [fp, #-20]
    d0e8:	e1a02ae3 	ror	r2, r3, #21
    d0ec:	e51b3008 	ldr	r3, [fp, #-8]
    d0f0:	e0823003 	add	r3, r2, r3
    d0f4:	e50b3014 	str	r3, [fp, #-20]
    d0f8:	e51b2014 	ldr	r2, [fp, #-20]
    d0fc:	e51b3008 	ldr	r3, [fp, #-8]
    d100:	e0222003 	eor	r2, r2, r3
    d104:	e51b300c 	ldr	r3, [fp, #-12]
    d108:	e0222003 	eor	r2, r2, r3
    d10c:	e51b3048 	ldr	r3, [fp, #-72]	; 0x48
    d110:	e0822003 	add	r2, r2, r3
    d114:	e51b3010 	ldr	r3, [fp, #-16]
    d118:	e0822003 	add	r2, r2, r3
    d11c:	e59f347c 	ldr	r3, [pc, #1148]	; d5a0 <md5_process+0x1610>
    d120:	e0823003 	add	r3, r2, r3
    d124:	e50b3010 	str	r3, [fp, #-16]
    d128:	e51b3010 	ldr	r3, [fp, #-16]
    d12c:	e1a02863 	ror	r2, r3, #16
    d130:	e51b3014 	ldr	r3, [fp, #-20]
    d134:	e0823003 	add	r3, r2, r3
    d138:	e50b3010 	str	r3, [fp, #-16]
    d13c:	e51b2010 	ldr	r2, [fp, #-16]
    d140:	e51b3014 	ldr	r3, [fp, #-20]
    d144:	e0222003 	eor	r2, r2, r3
    d148:	e51b3008 	ldr	r3, [fp, #-8]
    d14c:	e0222003 	eor	r2, r2, r3
    d150:	e51b303c 	ldr	r3, [fp, #-60]	; 0x3c
    d154:	e0822003 	add	r2, r2, r3
    d158:	e51b300c 	ldr	r3, [fp, #-12]
    d15c:	e0822003 	add	r2, r2, r3
    d160:	e59f343c 	ldr	r3, [pc, #1084]	; d5a4 <md5_process+0x1614>
    d164:	e0823003 	add	r3, r2, r3
    d168:	e50b300c 	str	r3, [fp, #-12]
    d16c:	e51b300c 	ldr	r3, [fp, #-12]
    d170:	e1a024e3 	ror	r2, r3, #9
    d174:	e51b3010 	ldr	r3, [fp, #-16]
    d178:	e0823003 	add	r3, r2, r3
    d17c:	e50b300c 	str	r3, [fp, #-12]
    d180:	e51b200c 	ldr	r2, [fp, #-12]
    d184:	e51b3010 	ldr	r3, [fp, #-16]
    d188:	e0222003 	eor	r2, r2, r3
    d18c:	e51b3014 	ldr	r3, [fp, #-20]
    d190:	e0222003 	eor	r2, r2, r3
    d194:	e51b3030 	ldr	r3, [fp, #-48]	; 0x30
    d198:	e0822003 	add	r2, r2, r3
    d19c:	e51b3008 	ldr	r3, [fp, #-8]
    d1a0:	e0822003 	add	r2, r2, r3
    d1a4:	e59f33fc 	ldr	r3, [pc, #1020]	; d5a8 <md5_process+0x1618>
    d1a8:	e0823003 	add	r3, r2, r3
    d1ac:	e50b3008 	str	r3, [fp, #-8]
    d1b0:	e51b3008 	ldr	r3, [fp, #-8]
    d1b4:	e1a02e63 	ror	r2, r3, #28
    d1b8:	e51b300c 	ldr	r3, [fp, #-12]
    d1bc:	e0823003 	add	r3, r2, r3
    d1c0:	e50b3008 	str	r3, [fp, #-8]
    d1c4:	e51b2008 	ldr	r2, [fp, #-8]
    d1c8:	e51b300c 	ldr	r3, [fp, #-12]
    d1cc:	e0222003 	eor	r2, r2, r3
    d1d0:	e51b3010 	ldr	r3, [fp, #-16]
    d1d4:	e0222003 	eor	r2, r2, r3
    d1d8:	e51b3024 	ldr	r3, [fp, #-36]	; 0x24
    d1dc:	e0822003 	add	r2, r2, r3
    d1e0:	e51b3014 	ldr	r3, [fp, #-20]
    d1e4:	e0822003 	add	r2, r2, r3
    d1e8:	e59f33bc 	ldr	r3, [pc, #956]	; d5ac <md5_process+0x161c>
    d1ec:	e0823003 	add	r3, r2, r3
    d1f0:	e50b3014 	str	r3, [fp, #-20]
    d1f4:	e51b3014 	ldr	r3, [fp, #-20]
    d1f8:	e1a02ae3 	ror	r2, r3, #21
    d1fc:	e51b3008 	ldr	r3, [fp, #-8]
    d200:	e0823003 	add	r3, r2, r3
    d204:	e50b3014 	str	r3, [fp, #-20]
    d208:	e51b2014 	ldr	r2, [fp, #-20]
    d20c:	e51b3008 	ldr	r3, [fp, #-8]
    d210:	e0222003 	eor	r2, r2, r3
    d214:	e51b300c 	ldr	r3, [fp, #-12]
    d218:	e0222003 	eor	r2, r2, r3
    d21c:	e51b3018 	ldr	r3, [fp, #-24]
    d220:	e0822003 	add	r2, r2, r3
    d224:	e51b3010 	ldr	r3, [fp, #-16]
    d228:	e0822003 	add	r2, r2, r3
    d22c:	e59f337c 	ldr	r3, [pc, #892]	; d5b0 <md5_process+0x1620>
    d230:	e0823003 	add	r3, r2, r3
    d234:	e50b3010 	str	r3, [fp, #-16]
    d238:	e51b3010 	ldr	r3, [fp, #-16]
    d23c:	e1a02863 	ror	r2, r3, #16
    d240:	e51b3014 	ldr	r3, [fp, #-20]
    d244:	e0823003 	add	r3, r2, r3
    d248:	e50b3010 	str	r3, [fp, #-16]
    d24c:	e51b2010 	ldr	r2, [fp, #-16]
    d250:	e51b3014 	ldr	r3, [fp, #-20]
    d254:	e0222003 	eor	r2, r2, r3
    d258:	e51b3008 	ldr	r3, [fp, #-8]
    d25c:	e0222003 	eor	r2, r2, r3
    d260:	e51b304c 	ldr	r3, [fp, #-76]	; 0x4c
    d264:	e0822003 	add	r2, r2, r3
    d268:	e51b300c 	ldr	r3, [fp, #-12]
    d26c:	e0822003 	add	r2, r2, r3
    d270:	e59f333c 	ldr	r3, [pc, #828]	; d5b4 <md5_process+0x1624>
    d274:	e0823003 	add	r3, r2, r3
    d278:	e50b300c 	str	r3, [fp, #-12]
    d27c:	e51b300c 	ldr	r3, [fp, #-12]
    d280:	e1a024e3 	ror	r2, r3, #9
    d284:	e51b3010 	ldr	r3, [fp, #-16]
    d288:	e0823003 	add	r3, r2, r3
    d28c:	e50b300c 	str	r3, [fp, #-12]
    d290:	e51b3014 	ldr	r3, [fp, #-20]
    d294:	e1e02003 	mvn	r2, r3
    d298:	e51b300c 	ldr	r3, [fp, #-12]
    d29c:	e1822003 	orr	r2, r2, r3
    d2a0:	e51b3010 	ldr	r3, [fp, #-16]
    d2a4:	e0222003 	eor	r2, r2, r3
    d2a8:	e51b3054 	ldr	r3, [fp, #-84]	; 0x54
    d2ac:	e0822003 	add	r2, r2, r3
    d2b0:	e51b3008 	ldr	r3, [fp, #-8]
    d2b4:	e0822003 	add	r2, r2, r3
    d2b8:	e59f32f8 	ldr	r3, [pc, #760]	; d5b8 <md5_process+0x1628>
    d2bc:	e0823003 	add	r3, r2, r3
    d2c0:	e50b3008 	str	r3, [fp, #-8]
    d2c4:	e51b3008 	ldr	r3, [fp, #-8]
    d2c8:	e1a02d63 	ror	r2, r3, #26
    d2cc:	e51b300c 	ldr	r3, [fp, #-12]
    d2d0:	e0823003 	add	r3, r2, r3
    d2d4:	e50b3008 	str	r3, [fp, #-8]
    d2d8:	e51b3010 	ldr	r3, [fp, #-16]
    d2dc:	e1e02003 	mvn	r2, r3
    d2e0:	e51b3008 	ldr	r3, [fp, #-8]
    d2e4:	e1822003 	orr	r2, r2, r3
    d2e8:	e51b300c 	ldr	r3, [fp, #-12]
    d2ec:	e0222003 	eor	r2, r2, r3
    d2f0:	e51b3038 	ldr	r3, [fp, #-56]	; 0x38
    d2f4:	e0822003 	add	r2, r2, r3
    d2f8:	e51b3014 	ldr	r3, [fp, #-20]
    d2fc:	e0822003 	add	r2, r2, r3
    d300:	e59f32b4 	ldr	r3, [pc, #692]	; d5bc <md5_process+0x162c>
    d304:	e0823003 	add	r3, r2, r3
    d308:	e50b3014 	str	r3, [fp, #-20]
    d30c:	e51b3014 	ldr	r3, [fp, #-20]
    d310:	e1a02b63 	ror	r2, r3, #22
    d314:	e51b3008 	ldr	r3, [fp, #-8]
    d318:	e0823003 	add	r3, r2, r3
    d31c:	e50b3014 	str	r3, [fp, #-20]
    d320:	e51b300c 	ldr	r3, [fp, #-12]
    d324:	e1e02003 	mvn	r2, r3
    d328:	e51b3014 	ldr	r3, [fp, #-20]
    d32c:	e1822003 	orr	r2, r2, r3
    d330:	e51b3008 	ldr	r3, [fp, #-8]
    d334:	e0222003 	eor	r2, r2, r3
    d338:	e51b301c 	ldr	r3, [fp, #-28]
    d33c:	e0822003 	add	r2, r2, r3
    d340:	e51b3010 	ldr	r3, [fp, #-16]
    d344:	e0822003 	add	r2, r2, r3
    d348:	e59f3270 	ldr	r3, [pc, #624]	; d5c0 <md5_process+0x1630>
    d34c:	e0823003 	add	r3, r2, r3
    d350:	e50b3010 	str	r3, [fp, #-16]
    d354:	e51b3010 	ldr	r3, [fp, #-16]
    d358:	e1a028e3 	ror	r2, r3, #17
    d35c:	e51b3014 	ldr	r3, [fp, #-20]
    d360:	e0823003 	add	r3, r2, r3
    d364:	e50b3010 	str	r3, [fp, #-16]
    d368:	e51b3008 	ldr	r3, [fp, #-8]
    d36c:	e1e02003 	mvn	r2, r3
    d370:	e51b3010 	ldr	r3, [fp, #-16]
    d374:	e1822003 	orr	r2, r2, r3
    d378:	e51b3014 	ldr	r3, [fp, #-20]
    d37c:	e0222003 	eor	r2, r2, r3
    d380:	e51b3040 	ldr	r3, [fp, #-64]	; 0x40
    d384:	e0822003 	add	r2, r2, r3
    d388:	e51b300c 	ldr	r3, [fp, #-12]
    d38c:	e0822003 	add	r2, r2, r3
    d390:	e59f322c 	ldr	r3, [pc, #556]	; d5c4 <md5_process+0x1634>
    d394:	e0823003 	add	r3, r2, r3
    d398:	e50b300c 	str	r3, [fp, #-12]
    d39c:	e51b300c 	ldr	r3, [fp, #-12]
    d3a0:	e1a025e3 	ror	r2, r3, #11
    d3a4:	e51b3010 	ldr	r3, [fp, #-16]
    d3a8:	e0823003 	add	r3, r2, r3
    d3ac:	e50b300c 	str	r3, [fp, #-12]
    d3b0:	e51b3014 	ldr	r3, [fp, #-20]
    d3b4:	e1e02003 	mvn	r2, r3
    d3b8:	e51b300c 	ldr	r3, [fp, #-12]
    d3bc:	e1822003 	orr	r2, r2, r3
    d3c0:	e51b3010 	ldr	r3, [fp, #-16]
    d3c4:	e0222003 	eor	r2, r2, r3
    d3c8:	e51b3024 	ldr	r3, [fp, #-36]	; 0x24
    d3cc:	e0822003 	add	r2, r2, r3
    d3d0:	e51b3008 	ldr	r3, [fp, #-8]
    d3d4:	e0822003 	add	r2, r2, r3
    d3d8:	e59f31e8 	ldr	r3, [pc, #488]	; d5c8 <md5_process+0x1638>
    d3dc:	e0823003 	add	r3, r2, r3
    d3e0:	e50b3008 	str	r3, [fp, #-8]
    d3e4:	e51b3008 	ldr	r3, [fp, #-8]
    d3e8:	e1a02d63 	ror	r2, r3, #26
    d3ec:	e51b300c 	ldr	r3, [fp, #-12]
    d3f0:	e0823003 	add	r3, r2, r3
    d3f4:	e50b3008 	str	r3, [fp, #-8]
    d3f8:	e51b3010 	ldr	r3, [fp, #-16]
    d3fc:	e1e02003 	mvn	r2, r3
    d400:	e51b3008 	ldr	r3, [fp, #-8]
    d404:	e1822003 	orr	r2, r2, r3
    d408:	e51b300c 	ldr	r3, [fp, #-12]
    d40c:	e0222003 	eor	r2, r2, r3
    d410:	e51b3048 	ldr	r3, [fp, #-72]	; 0x48
    d414:	e0822003 	add	r2, r2, r3
    d418:	e51b3014 	ldr	r3, [fp, #-20]
    d41c:	e0822003 	add	r2, r2, r3
    d420:	e59f31a4 	ldr	r3, [pc, #420]	; d5cc <md5_process+0x163c>
    d424:	e0823003 	add	r3, r2, r3
    d428:	e50b3014 	str	r3, [fp, #-20]
    d42c:	e51b3014 	ldr	r3, [fp, #-20]
    d430:	e1a02b63 	ror	r2, r3, #22
    d434:	e51b3008 	ldr	r3, [fp, #-8]
    d438:	e0823003 	add	r3, r2, r3
    d43c:	e50b3014 	str	r3, [fp, #-20]
    d440:	e51b300c 	ldr	r3, [fp, #-12]
    d444:	e1e02003 	mvn	r2, r3
    d448:	e51b3014 	ldr	r3, [fp, #-20]
    d44c:	e1822003 	orr	r2, r2, r3
    d450:	e51b3008 	ldr	r3, [fp, #-8]
    d454:	e0222003 	eor	r2, r2, r3
    d458:	e51b302c 	ldr	r3, [fp, #-44]	; 0x2c
    d45c:	e0822003 	add	r2, r2, r3
    d460:	e51b3010 	ldr	r3, [fp, #-16]
    d464:	e0822003 	add	r2, r2, r3
    d468:	e59f3160 	ldr	r3, [pc, #352]	; d5d0 <md5_process+0x1640>
    d46c:	e0823003 	add	r3, r2, r3
    d470:	e50b3010 	str	r3, [fp, #-16]
    d474:	e51b3010 	ldr	r3, [fp, #-16]
    d478:	e1a028e3 	ror	r2, r3, #17
    d47c:	e51b3014 	ldr	r3, [fp, #-20]
    d480:	e0823003 	add	r3, r2, r3
    d484:	e50b3010 	str	r3, [fp, #-16]
    d488:	e51b3008 	ldr	r3, [fp, #-8]
    d48c:	e1e02003 	mvn	r2, r3
    d490:	e51b3010 	ldr	r3, [fp, #-16]
    d494:	e1822003 	orr	r2, r2, r3
    d498:	e51b3014 	ldr	r3, [fp, #-20]
    d49c:	e0222003 	eor	r2, r2, r3
    d4a0:	e51b3050 	ldr	r3, [fp, #-80]	; 0x50
    d4a4:	e0822003 	add	r2, r2, r3
    d4a8:	e51b300c 	ldr	r3, [fp, #-12]
    d4ac:	e0822003 	add	r2, r2, r3
    d4b0:	e59f311c 	ldr	r3, [pc, #284]	; d5d4 <md5_process+0x1644>
    d4b4:	e0823003 	add	r3, r2, r3
    d4b8:	e50b300c 	str	r3, [fp, #-12]
    d4bc:	e51b300c 	ldr	r3, [fp, #-12]
    d4c0:	e1a025e3 	ror	r2, r3, #11
    d4c4:	e51b3010 	ldr	r3, [fp, #-16]
    d4c8:	e0823003 	add	r3, r2, r3
    d4cc:	e50b300c 	str	r3, [fp, #-12]
    d4d0:	e51b3014 	ldr	r3, [fp, #-20]
    d4d4:	e1e02003 	mvn	r2, r3
    d4d8:	e51b300c 	ldr	r3, [fp, #-12]
    d4dc:	e1822003 	orr	r2, r2, r3
    d4e0:	e51b3010 	ldr	r3, [fp, #-16]
    d4e4:	e0222003 	eor	r2, r2, r3
    d4e8:	e51b3034 	ldr	r3, [fp, #-52]	; 0x34
    d4ec:	e0822003 	add	r2, r2, r3
    d4f0:	e51b3008 	ldr	r3, [fp, #-8]
    d4f4:	e0822003 	add	r2, r2, r3
    d4f8:	ea00003e 	b	d5f8 <md5_process+0x1668>
    d4fc:	d76aa478 	.word	0xd76aa478
    d500:	e8c7b756 	.word	0xe8c7b756
    d504:	242070db 	.word	0x242070db
    d508:	c1bdceee 	.word	0xc1bdceee
    d50c:	f57c0faf 	.word	0xf57c0faf
    d510:	4787c62a 	.word	0x4787c62a
    d514:	a8304613 	.word	0xa8304613
    d518:	fd469501 	.word	0xfd469501
    d51c:	698098d8 	.word	0x698098d8
    d520:	8b44f7af 	.word	0x8b44f7af
    d524:	895cd7be 	.word	0x895cd7be
    d528:	6b901122 	.word	0x6b901122
    d52c:	fd987193 	.word	0xfd987193
    d530:	a679438e 	.word	0xa679438e
    d534:	49b40821 	.word	0x49b40821
    d538:	f61e2562 	.word	0xf61e2562
    d53c:	c040b340 	.word	0xc040b340
    d540:	265e5a51 	.word	0x265e5a51
    d544:	e9b6c7aa 	.word	0xe9b6c7aa
    d548:	d62f105d 	.word	0xd62f105d
    d54c:	02441453 	.word	0x02441453
    d550:	d8a1e681 	.word	0xd8a1e681
    d554:	e7d3fbc8 	.word	0xe7d3fbc8
    d558:	21e1cde6 	.word	0x21e1cde6
    d55c:	c33707d6 	.word	0xc33707d6
    d560:	f4d50d87 	.word	0xf4d50d87
    d564:	455a14ed 	.word	0x455a14ed
    d568:	a9e3e905 	.word	0xa9e3e905
    d56c:	fcefa3f8 	.word	0xfcefa3f8
    d570:	676f02d9 	.word	0x676f02d9
    d574:	8d2a4c8a 	.word	0x8d2a4c8a
    d578:	fffa3942 	.word	0xfffa3942
    d57c:	8771f681 	.word	0x8771f681
    d580:	6d9d6122 	.word	0x6d9d6122
    d584:	fde5380c 	.word	0xfde5380c
    d588:	a4beea44 	.word	0xa4beea44
    d58c:	4bdecfa9 	.word	0x4bdecfa9
    d590:	f6bb4b60 	.word	0xf6bb4b60
    d594:	bebfbc70 	.word	0xbebfbc70
    d598:	289b7ec6 	.word	0x289b7ec6
    d59c:	eaa127fa 	.word	0xeaa127fa
    d5a0:	d4ef3085 	.word	0xd4ef3085
    d5a4:	04881d05 	.word	0x04881d05
    d5a8:	d9d4d039 	.word	0xd9d4d039
    d5ac:	e6db99e5 	.word	0xe6db99e5
    d5b0:	1fa27cf8 	.word	0x1fa27cf8
    d5b4:	c4ac5665 	.word	0xc4ac5665
    d5b8:	f4292244 	.word	0xf4292244
    d5bc:	432aff97 	.word	0x432aff97
    d5c0:	ab9423a7 	.word	0xab9423a7
    d5c4:	fc93a039 	.word	0xfc93a039
    d5c8:	655b59c3 	.word	0x655b59c3
    d5cc:	8f0ccc92 	.word	0x8f0ccc92
    d5d0:	ffeff47d 	.word	0xffeff47d
    d5d4:	85845dd1 	.word	0x85845dd1
    d5d8:	6fa87e4f 	.word	0x6fa87e4f
    d5dc:	fe2ce6e0 	.word	0xfe2ce6e0
    d5e0:	a3014314 	.word	0xa3014314
    d5e4:	4e0811a1 	.word	0x4e0811a1
    d5e8:	f7537e82 	.word	0xf7537e82
    d5ec:	bd3af235 	.word	0xbd3af235
    d5f0:	2ad7d2bb 	.word	0x2ad7d2bb
    d5f4:	eb86d391 	.word	0xeb86d391
    d5f8:	e51f3028 	ldr	r3, [pc, #-40]	; d5d8 <md5_process+0x1648>
    d5fc:	e0823003 	add	r3, r2, r3
    d600:	e50b3008 	str	r3, [fp, #-8]
    d604:	e51b3008 	ldr	r3, [fp, #-8]
    d608:	e1a02d63 	ror	r2, r3, #26
    d60c:	e51b300c 	ldr	r3, [fp, #-12]
    d610:	e0823003 	add	r3, r2, r3
    d614:	e50b3008 	str	r3, [fp, #-8]
    d618:	e51b3010 	ldr	r3, [fp, #-16]
    d61c:	e1e02003 	mvn	r2, r3
    d620:	e51b3008 	ldr	r3, [fp, #-8]
    d624:	e1822003 	orr	r2, r2, r3
    d628:	e51b300c 	ldr	r3, [fp, #-12]
    d62c:	e0222003 	eor	r2, r2, r3
    d630:	e51b3018 	ldr	r3, [fp, #-24]
    d634:	e0822003 	add	r2, r2, r3
    d638:	e51b3014 	ldr	r3, [fp, #-20]
    d63c:	e0822003 	add	r2, r2, r3
    d640:	e51f306c 	ldr	r3, [pc, #-108]	; d5dc <md5_process+0x164c>
    d644:	e0823003 	add	r3, r2, r3
    d648:	e50b3014 	str	r3, [fp, #-20]
    d64c:	e51b3014 	ldr	r3, [fp, #-20]
    d650:	e1a02b63 	ror	r2, r3, #22
    d654:	e51b3008 	ldr	r3, [fp, #-8]
    d658:	e0823003 	add	r3, r2, r3
    d65c:	e50b3014 	str	r3, [fp, #-20]
    d660:	e51b300c 	ldr	r3, [fp, #-12]
    d664:	e1e02003 	mvn	r2, r3
    d668:	e51b3014 	ldr	r3, [fp, #-20]
    d66c:	e1822003 	orr	r2, r2, r3
    d670:	e51b3008 	ldr	r3, [fp, #-8]
    d674:	e0222003 	eor	r2, r2, r3
    d678:	e51b303c 	ldr	r3, [fp, #-60]	; 0x3c
    d67c:	e0822003 	add	r2, r2, r3
    d680:	e51b3010 	ldr	r3, [fp, #-16]
    d684:	e0822003 	add	r2, r2, r3
    d688:	e51f30b0 	ldr	r3, [pc, #-176]	; d5e0 <md5_process+0x1650>
    d68c:	e0823003 	add	r3, r2, r3
    d690:	e50b3010 	str	r3, [fp, #-16]
    d694:	e51b3010 	ldr	r3, [fp, #-16]
    d698:	e1a028e3 	ror	r2, r3, #17
    d69c:	e51b3014 	ldr	r3, [fp, #-20]
    d6a0:	e0823003 	add	r3, r2, r3
    d6a4:	e50b3010 	str	r3, [fp, #-16]
    d6a8:	e51b3008 	ldr	r3, [fp, #-8]
    d6ac:	e1e02003 	mvn	r2, r3
    d6b0:	e51b3010 	ldr	r3, [fp, #-16]
    d6b4:	e1822003 	orr	r2, r2, r3
    d6b8:	e51b3014 	ldr	r3, [fp, #-20]
    d6bc:	e0222003 	eor	r2, r2, r3
    d6c0:	e51b3020 	ldr	r3, [fp, #-32]
    d6c4:	e0822003 	add	r2, r2, r3
    d6c8:	e51b300c 	ldr	r3, [fp, #-12]
    d6cc:	e0822003 	add	r2, r2, r3
    d6d0:	e51f30f4 	ldr	r3, [pc, #-244]	; d5e4 <md5_process+0x1654>
    d6d4:	e0823003 	add	r3, r2, r3
    d6d8:	e50b300c 	str	r3, [fp, #-12]
    d6dc:	e51b300c 	ldr	r3, [fp, #-12]
    d6e0:	e1a025e3 	ror	r2, r3, #11
    d6e4:	e51b3010 	ldr	r3, [fp, #-16]
    d6e8:	e0823003 	add	r3, r2, r3
    d6ec:	e50b300c 	str	r3, [fp, #-12]
    d6f0:	e51b3014 	ldr	r3, [fp, #-20]
    d6f4:	e1e02003 	mvn	r2, r3
    d6f8:	e51b300c 	ldr	r3, [fp, #-12]
    d6fc:	e1822003 	orr	r2, r2, r3
    d700:	e51b3010 	ldr	r3, [fp, #-16]
    d704:	e0222003 	eor	r2, r2, r3
    d708:	e51b3044 	ldr	r3, [fp, #-68]	; 0x44
    d70c:	e0822003 	add	r2, r2, r3
    d710:	e51b3008 	ldr	r3, [fp, #-8]
    d714:	e0822003 	add	r2, r2, r3
    d718:	e51f3138 	ldr	r3, [pc, #-312]	; d5e8 <md5_process+0x1658>
    d71c:	e0823003 	add	r3, r2, r3
    d720:	e50b3008 	str	r3, [fp, #-8]
    d724:	e51b3008 	ldr	r3, [fp, #-8]
    d728:	e1a02d63 	ror	r2, r3, #26
    d72c:	e51b300c 	ldr	r3, [fp, #-12]
    d730:	e0823003 	add	r3, r2, r3
    d734:	e50b3008 	str	r3, [fp, #-8]
    d738:	e51b3010 	ldr	r3, [fp, #-16]
    d73c:	e1e02003 	mvn	r2, r3
    d740:	e51b3008 	ldr	r3, [fp, #-8]
    d744:	e1822003 	orr	r2, r2, r3
    d748:	e51b300c 	ldr	r3, [fp, #-12]
    d74c:	e0222003 	eor	r2, r2, r3
    d750:	e51b3028 	ldr	r3, [fp, #-40]	; 0x28
    d754:	e0822003 	add	r2, r2, r3
    d758:	e51b3014 	ldr	r3, [fp, #-20]
    d75c:	e0822003 	add	r2, r2, r3
    d760:	e51f317c 	ldr	r3, [pc, #-380]	; d5ec <md5_process+0x165c>
    d764:	e0823003 	add	r3, r2, r3
    d768:	e50b3014 	str	r3, [fp, #-20]
    d76c:	e51b3014 	ldr	r3, [fp, #-20]
    d770:	e1a02b63 	ror	r2, r3, #22
    d774:	e51b3008 	ldr	r3, [fp, #-8]
    d778:	e0823003 	add	r3, r2, r3
    d77c:	e50b3014 	str	r3, [fp, #-20]
    d780:	e51b300c 	ldr	r3, [fp, #-12]
    d784:	e1e02003 	mvn	r2, r3
    d788:	e51b3014 	ldr	r3, [fp, #-20]
    d78c:	e1822003 	orr	r2, r2, r3
    d790:	e51b3008 	ldr	r3, [fp, #-8]
    d794:	e0222003 	eor	r2, r2, r3
    d798:	e51b304c 	ldr	r3, [fp, #-76]	; 0x4c
    d79c:	e0822003 	add	r2, r2, r3
    d7a0:	e51b3010 	ldr	r3, [fp, #-16]
    d7a4:	e0822003 	add	r2, r2, r3
    d7a8:	e51f31c0 	ldr	r3, [pc, #-448]	; d5f0 <md5_process+0x1660>
    d7ac:	e0823003 	add	r3, r2, r3
    d7b0:	e50b3010 	str	r3, [fp, #-16]
    d7b4:	e51b3010 	ldr	r3, [fp, #-16]
    d7b8:	e1a028e3 	ror	r2, r3, #17
    d7bc:	e51b3014 	ldr	r3, [fp, #-20]
    d7c0:	e0823003 	add	r3, r2, r3
    d7c4:	e50b3010 	str	r3, [fp, #-16]
    d7c8:	e51b3008 	ldr	r3, [fp, #-8]
    d7cc:	e1e02003 	mvn	r2, r3
    d7d0:	e51b3010 	ldr	r3, [fp, #-16]
    d7d4:	e1822003 	orr	r2, r2, r3
    d7d8:	e51b3014 	ldr	r3, [fp, #-20]
    d7dc:	e0222003 	eor	r2, r2, r3
    d7e0:	e51b3030 	ldr	r3, [fp, #-48]	; 0x30
    d7e4:	e0822003 	add	r2, r2, r3
    d7e8:	e51b300c 	ldr	r3, [fp, #-12]
    d7ec:	e0822003 	add	r2, r2, r3
    d7f0:	e51f3204 	ldr	r3, [pc, #-516]	; d5f4 <md5_process+0x1664>
    d7f4:	e0823003 	add	r3, r2, r3
    d7f8:	e50b300c 	str	r3, [fp, #-12]
    d7fc:	e51b300c 	ldr	r3, [fp, #-12]
    d800:	e1a025e3 	ror	r2, r3, #11
    d804:	e51b3010 	ldr	r3, [fp, #-16]
    d808:	e0823003 	add	r3, r2, r3
    d80c:	e50b300c 	str	r3, [fp, #-12]
    d810:	e51b3058 	ldr	r3, [fp, #-88]	; 0x58
    d814:	e5932008 	ldr	r2, [r3, #8]
    d818:	e51b3008 	ldr	r3, [fp, #-8]
    d81c:	e0822003 	add	r2, r2, r3
    d820:	e51b3058 	ldr	r3, [fp, #-88]	; 0x58
    d824:	e5832008 	str	r2, [r3, #8]
    d828:	e51b3058 	ldr	r3, [fp, #-88]	; 0x58
    d82c:	e593200c 	ldr	r2, [r3, #12]
    d830:	e51b300c 	ldr	r3, [fp, #-12]
    d834:	e0822003 	add	r2, r2, r3
    d838:	e51b3058 	ldr	r3, [fp, #-88]	; 0x58
    d83c:	e583200c 	str	r2, [r3, #12]
    d840:	e51b3058 	ldr	r3, [fp, #-88]	; 0x58
    d844:	e5932010 	ldr	r2, [r3, #16]
    d848:	e51b3010 	ldr	r3, [fp, #-16]
    d84c:	e0822003 	add	r2, r2, r3
    d850:	e51b3058 	ldr	r3, [fp, #-88]	; 0x58
    d854:	e5832010 	str	r2, [r3, #16]
    d858:	e51b3058 	ldr	r3, [fp, #-88]	; 0x58
    d85c:	e5932014 	ldr	r2, [r3, #20]
    d860:	e51b3014 	ldr	r3, [fp, #-20]
    d864:	e0822003 	add	r2, r2, r3
    d868:	e51b3058 	ldr	r3, [fp, #-88]	; 0x58
    d86c:	e5832014 	str	r2, [r3, #20]
    d870:	e28bd000 	add	sp, fp, #0
    d874:	e8bd0800 	pop	{fp}
    d878:	e12fff1e 	bx	lr

0000d87c <md5_update>:
    d87c:	e92d4800 	push	{fp, lr}
    d880:	e28db004 	add	fp, sp, #4
    d884:	e24dd018 	sub	sp, sp, #24
    d888:	e50b0010 	str	r0, [fp, #-16]
    d88c:	e50b1014 	str	r1, [fp, #-20]
    d890:	e50b2018 	str	r2, [fp, #-24]
    d894:	e51b3018 	ldr	r3, [fp, #-24]
    d898:	e3530000 	cmp	r3, #0
    d89c:	0a000059 	beq	da08 <md5_update+0x18c>
    d8a0:	e51b3010 	ldr	r3, [fp, #-16]
    d8a4:	e5933000 	ldr	r3, [r3]
    d8a8:	e203303f 	and	r3, r3, #63	; 0x3f
    d8ac:	e50b3008 	str	r3, [fp, #-8]
    d8b0:	e51b3008 	ldr	r3, [fp, #-8]
    d8b4:	e2633040 	rsb	r3, r3, #64	; 0x40
    d8b8:	e50b300c 	str	r3, [fp, #-12]
    d8bc:	e51b3010 	ldr	r3, [fp, #-16]
    d8c0:	e5932000 	ldr	r2, [r3]
    d8c4:	e51b3018 	ldr	r3, [fp, #-24]
    d8c8:	e0822003 	add	r2, r2, r3
    d8cc:	e51b3010 	ldr	r3, [fp, #-16]
    d8d0:	e5832000 	str	r2, [r3]
    d8d4:	e51b3010 	ldr	r3, [fp, #-16]
    d8d8:	e5932000 	ldr	r2, [r3]
    d8dc:	e51b3010 	ldr	r3, [fp, #-16]
    d8e0:	e5832000 	str	r2, [r3]
    d8e4:	e51b3010 	ldr	r3, [fp, #-16]
    d8e8:	e5932000 	ldr	r2, [r3]
    d8ec:	e51b3018 	ldr	r3, [fp, #-24]
    d8f0:	e1520003 	cmp	r2, r3
    d8f4:	2a000004 	bcs	d90c <md5_update+0x90>
    d8f8:	e51b3010 	ldr	r3, [fp, #-16]
    d8fc:	e5933004 	ldr	r3, [r3, #4]
    d900:	e2832001 	add	r2, r3, #1
    d904:	e51b3010 	ldr	r3, [fp, #-16]
    d908:	e5832004 	str	r2, [r3, #4]
    d90c:	e51b3008 	ldr	r3, [fp, #-8]
    d910:	e3530000 	cmp	r3, #0
    d914:	0a000028 	beq	d9bc <md5_update+0x140>
    d918:	e51b2018 	ldr	r2, [fp, #-24]
    d91c:	e51b300c 	ldr	r3, [fp, #-12]
    d920:	e1520003 	cmp	r2, r3
    d924:	3a000024 	bcc	d9bc <md5_update+0x140>
    d928:	e51b3010 	ldr	r3, [fp, #-16]
    d92c:	e2832018 	add	r2, r3, #24
    d930:	e51b3008 	ldr	r3, [fp, #-8]
    d934:	e0822003 	add	r2, r2, r3
    d938:	e51b3014 	ldr	r3, [fp, #-20]
    d93c:	e1a01002 	mov	r1, r2
    d940:	e1a02003 	mov	r2, r3
    d944:	e51b300c 	ldr	r3, [fp, #-12]
    d948:	e1a00001 	mov	r0, r1
    d94c:	e1a01002 	mov	r1, r2
    d950:	e1a02003 	mov	r2, r3
    d954:	ebffec87 	bl	8b78 <_init+0x74>
    d958:	e51b3010 	ldr	r3, [fp, #-16]
    d95c:	e2833018 	add	r3, r3, #24
    d960:	e51b0010 	ldr	r0, [fp, #-16]
    d964:	e1a01003 	mov	r1, r3
    d968:	ebfff988 	bl	bf90 <md5_process>
    d96c:	e51b2014 	ldr	r2, [fp, #-20]
    d970:	e51b300c 	ldr	r3, [fp, #-12]
    d974:	e0823003 	add	r3, r2, r3
    d978:	e50b3014 	str	r3, [fp, #-20]
    d97c:	e51b2018 	ldr	r2, [fp, #-24]
    d980:	e51b300c 	ldr	r3, [fp, #-12]
    d984:	e0633002 	rsb	r3, r3, r2
    d988:	e50b3018 	str	r3, [fp, #-24]
    d98c:	e3a03000 	mov	r3, #0
    d990:	e50b3008 	str	r3, [fp, #-8]
    d994:	ea000008 	b	d9bc <md5_update+0x140>
    d998:	e51b0010 	ldr	r0, [fp, #-16]
    d99c:	e51b1014 	ldr	r1, [fp, #-20]
    d9a0:	ebfff97a 	bl	bf90 <md5_process>
    d9a4:	e51b3014 	ldr	r3, [fp, #-20]
    d9a8:	e2833040 	add	r3, r3, #64	; 0x40
    d9ac:	e50b3014 	str	r3, [fp, #-20]
    d9b0:	e51b3018 	ldr	r3, [fp, #-24]
    d9b4:	e2433040 	sub	r3, r3, #64	; 0x40
    d9b8:	e50b3018 	str	r3, [fp, #-24]
    d9bc:	e51b3018 	ldr	r3, [fp, #-24]
    d9c0:	e353003f 	cmp	r3, #63	; 0x3f
    d9c4:	8afffff3 	bhi	d998 <md5_update+0x11c>
    d9c8:	e51b3018 	ldr	r3, [fp, #-24]
    d9cc:	e3530000 	cmp	r3, #0
    d9d0:	0a00000d 	beq	da0c <md5_update+0x190>
    d9d4:	e51b3010 	ldr	r3, [fp, #-16]
    d9d8:	e2832018 	add	r2, r3, #24
    d9dc:	e51b3008 	ldr	r3, [fp, #-8]
    d9e0:	e0822003 	add	r2, r2, r3
    d9e4:	e51b3014 	ldr	r3, [fp, #-20]
    d9e8:	e1a01002 	mov	r1, r2
    d9ec:	e1a02003 	mov	r2, r3
    d9f0:	e51b3018 	ldr	r3, [fp, #-24]
    d9f4:	e1a00001 	mov	r0, r1
    d9f8:	e1a01002 	mov	r1, r2
    d9fc:	e1a02003 	mov	r2, r3
    da00:	ebffec5c 	bl	8b78 <_init+0x74>
    da04:	ea000000 	b	da0c <md5_update+0x190>
    da08:	e1a00000 	nop			; (mov r0, r0)
    da0c:	e24bd004 	sub	sp, fp, #4
    da10:	e8bd8800 	pop	{fp, pc}

0000da14 <md5_finish>:
    da14:	e92d4800 	push	{fp, lr}
    da18:	e28db004 	add	fp, sp, #4
    da1c:	e24dd020 	sub	sp, sp, #32
    da20:	e50b0020 	str	r0, [fp, #-32]
    da24:	e50b1024 	str	r1, [fp, #-36]	; 0x24
    da28:	e51b3020 	ldr	r3, [fp, #-32]
    da2c:	e5933000 	ldr	r3, [r3]
    da30:	e1a02ea3 	lsr	r2, r3, #29
    da34:	e51b3020 	ldr	r3, [fp, #-32]
    da38:	e5933004 	ldr	r3, [r3, #4]
    da3c:	e1a03183 	lsl	r3, r3, #3
    da40:	e1823003 	orr	r3, r2, r3
    da44:	e50b3008 	str	r3, [fp, #-8]
    da48:	e51b3020 	ldr	r3, [fp, #-32]
    da4c:	e5933000 	ldr	r3, [r3]
    da50:	e1a03183 	lsl	r3, r3, #3
    da54:	e50b300c 	str	r3, [fp, #-12]
    da58:	e51b300c 	ldr	r3, [fp, #-12]
    da5c:	e6ef3073 	uxtb	r3, r3
    da60:	e54b301c 	strb	r3, [fp, #-28]
    da64:	e51b300c 	ldr	r3, [fp, #-12]
    da68:	e1a03423 	lsr	r3, r3, #8
    da6c:	e6ef3073 	uxtb	r3, r3
    da70:	e54b301b 	strb	r3, [fp, #-27]
    da74:	e51b300c 	ldr	r3, [fp, #-12]
    da78:	e1a03823 	lsr	r3, r3, #16
    da7c:	e6ef3073 	uxtb	r3, r3
    da80:	e54b301a 	strb	r3, [fp, #-26]
    da84:	e51b300c 	ldr	r3, [fp, #-12]
    da88:	e1a03c23 	lsr	r3, r3, #24
    da8c:	e6ef3073 	uxtb	r3, r3
    da90:	e54b3019 	strb	r3, [fp, #-25]
    da94:	e51b3008 	ldr	r3, [fp, #-8]
    da98:	e6ef3073 	uxtb	r3, r3
    da9c:	e54b3018 	strb	r3, [fp, #-24]
    daa0:	e51b3008 	ldr	r3, [fp, #-8]
    daa4:	e1a03423 	lsr	r3, r3, #8
    daa8:	e6ef3073 	uxtb	r3, r3
    daac:	e54b3017 	strb	r3, [fp, #-23]
    dab0:	e51b3008 	ldr	r3, [fp, #-8]
    dab4:	e1a03823 	lsr	r3, r3, #16
    dab8:	e6ef3073 	uxtb	r3, r3
    dabc:	e54b3016 	strb	r3, [fp, #-22]
    dac0:	e51b3008 	ldr	r3, [fp, #-8]
    dac4:	e1a03c23 	lsr	r3, r3, #24
    dac8:	e6ef3073 	uxtb	r3, r3
    dacc:	e54b3015 	strb	r3, [fp, #-21]
    dad0:	e51b3020 	ldr	r3, [fp, #-32]
    dad4:	e5933000 	ldr	r3, [r3]
    dad8:	e203303f 	and	r3, r3, #63	; 0x3f
    dadc:	e50b3010 	str	r3, [fp, #-16]
    dae0:	e51b3010 	ldr	r3, [fp, #-16]
    dae4:	e3530037 	cmp	r3, #55	; 0x37
    dae8:	8a000002 	bhi	daf8 <md5_finish+0xe4>
    daec:	e51b3010 	ldr	r3, [fp, #-16]
    daf0:	e2633038 	rsb	r3, r3, #56	; 0x38
    daf4:	ea000001 	b	db00 <md5_finish+0xec>
    daf8:	e51b3010 	ldr	r3, [fp, #-16]
    dafc:	e2633078 	rsb	r3, r3, #120	; 0x78
    db00:	e50b3014 	str	r3, [fp, #-20]
    db04:	e51b0020 	ldr	r0, [fp, #-32]
    db08:	e59f11cc 	ldr	r1, [pc, #460]	; dcdc <md5_finish+0x2c8>
    db0c:	e51b2014 	ldr	r2, [fp, #-20]
    db10:	ebffff59 	bl	d87c <md5_update>
    db14:	e24b301c 	sub	r3, fp, #28
    db18:	e51b0020 	ldr	r0, [fp, #-32]
    db1c:	e1a01003 	mov	r1, r3
    db20:	e3a02008 	mov	r2, #8
    db24:	ebffff54 	bl	d87c <md5_update>
    db28:	e51b3020 	ldr	r3, [fp, #-32]
    db2c:	e5933008 	ldr	r3, [r3, #8]
    db30:	e6ef2073 	uxtb	r2, r3
    db34:	e51b3024 	ldr	r3, [fp, #-36]	; 0x24
    db38:	e5c32000 	strb	r2, [r3]
    db3c:	e51b3024 	ldr	r3, [fp, #-36]	; 0x24
    db40:	e2833001 	add	r3, r3, #1
    db44:	e51b2020 	ldr	r2, [fp, #-32]
    db48:	e5922008 	ldr	r2, [r2, #8]
    db4c:	e1a02422 	lsr	r2, r2, #8
    db50:	e6ef2072 	uxtb	r2, r2
    db54:	e5c32000 	strb	r2, [r3]
    db58:	e51b3024 	ldr	r3, [fp, #-36]	; 0x24
    db5c:	e2833002 	add	r3, r3, #2
    db60:	e51b2020 	ldr	r2, [fp, #-32]
    db64:	e5922008 	ldr	r2, [r2, #8]
    db68:	e1a02822 	lsr	r2, r2, #16
    db6c:	e6ef2072 	uxtb	r2, r2
    db70:	e5c32000 	strb	r2, [r3]
    db74:	e51b3024 	ldr	r3, [fp, #-36]	; 0x24
    db78:	e2833003 	add	r3, r3, #3
    db7c:	e51b2020 	ldr	r2, [fp, #-32]
    db80:	e5922008 	ldr	r2, [r2, #8]
    db84:	e1a02c22 	lsr	r2, r2, #24
    db88:	e6ef2072 	uxtb	r2, r2
    db8c:	e5c32000 	strb	r2, [r3]
    db90:	e51b3024 	ldr	r3, [fp, #-36]	; 0x24
    db94:	e2833004 	add	r3, r3, #4
    db98:	e51b2020 	ldr	r2, [fp, #-32]
    db9c:	e592200c 	ldr	r2, [r2, #12]
    dba0:	e6ef2072 	uxtb	r2, r2
    dba4:	e5c32000 	strb	r2, [r3]
    dba8:	e51b3024 	ldr	r3, [fp, #-36]	; 0x24
    dbac:	e2833005 	add	r3, r3, #5
    dbb0:	e51b2020 	ldr	r2, [fp, #-32]
    dbb4:	e592200c 	ldr	r2, [r2, #12]
    dbb8:	e1a02422 	lsr	r2, r2, #8
    dbbc:	e6ef2072 	uxtb	r2, r2
    dbc0:	e5c32000 	strb	r2, [r3]
    dbc4:	e51b3024 	ldr	r3, [fp, #-36]	; 0x24
    dbc8:	e2833006 	add	r3, r3, #6
    dbcc:	e51b2020 	ldr	r2, [fp, #-32]
    dbd0:	e592200c 	ldr	r2, [r2, #12]
    dbd4:	e1a02822 	lsr	r2, r2, #16
    dbd8:	e6ef2072 	uxtb	r2, r2
    dbdc:	e5c32000 	strb	r2, [r3]
    dbe0:	e51b3024 	ldr	r3, [fp, #-36]	; 0x24
    dbe4:	e2833007 	add	r3, r3, #7
    dbe8:	e51b2020 	ldr	r2, [fp, #-32]
    dbec:	e592200c 	ldr	r2, [r2, #12]
    dbf0:	e1a02c22 	lsr	r2, r2, #24
    dbf4:	e6ef2072 	uxtb	r2, r2
    dbf8:	e5c32000 	strb	r2, [r3]
    dbfc:	e51b3024 	ldr	r3, [fp, #-36]	; 0x24
    dc00:	e2833008 	add	r3, r3, #8
    dc04:	e51b2020 	ldr	r2, [fp, #-32]
    dc08:	e5922010 	ldr	r2, [r2, #16]
    dc0c:	e6ef2072 	uxtb	r2, r2
    dc10:	e5c32000 	strb	r2, [r3]
    dc14:	e51b3024 	ldr	r3, [fp, #-36]	; 0x24
    dc18:	e2833009 	add	r3, r3, #9
    dc1c:	e51b2020 	ldr	r2, [fp, #-32]
    dc20:	e5922010 	ldr	r2, [r2, #16]
    dc24:	e1a02422 	lsr	r2, r2, #8
    dc28:	e6ef2072 	uxtb	r2, r2
    dc2c:	e5c32000 	strb	r2, [r3]
    dc30:	e51b3024 	ldr	r3, [fp, #-36]	; 0x24
    dc34:	e283300a 	add	r3, r3, #10
    dc38:	e51b2020 	ldr	r2, [fp, #-32]
    dc3c:	e5922010 	ldr	r2, [r2, #16]
    dc40:	e1a02822 	lsr	r2, r2, #16
    dc44:	e6ef2072 	uxtb	r2, r2
    dc48:	e5c32000 	strb	r2, [r3]
    dc4c:	e51b3024 	ldr	r3, [fp, #-36]	; 0x24
    dc50:	e283300b 	add	r3, r3, #11
    dc54:	e51b2020 	ldr	r2, [fp, #-32]
    dc58:	e5922010 	ldr	r2, [r2, #16]
    dc5c:	e1a02c22 	lsr	r2, r2, #24
    dc60:	e6ef2072 	uxtb	r2, r2
    dc64:	e5c32000 	strb	r2, [r3]
    dc68:	e51b3024 	ldr	r3, [fp, #-36]	; 0x24
    dc6c:	e283300c 	add	r3, r3, #12
    dc70:	e51b2020 	ldr	r2, [fp, #-32]
    dc74:	e5922014 	ldr	r2, [r2, #20]
    dc78:	e6ef2072 	uxtb	r2, r2
    dc7c:	e5c32000 	strb	r2, [r3]
    dc80:	e51b3024 	ldr	r3, [fp, #-36]	; 0x24
    dc84:	e283300d 	add	r3, r3, #13
    dc88:	e51b2020 	ldr	r2, [fp, #-32]
    dc8c:	e5922014 	ldr	r2, [r2, #20]
    dc90:	e1a02422 	lsr	r2, r2, #8
    dc94:	e6ef2072 	uxtb	r2, r2
    dc98:	e5c32000 	strb	r2, [r3]
    dc9c:	e51b3024 	ldr	r3, [fp, #-36]	; 0x24
    dca0:	e283300e 	add	r3, r3, #14
    dca4:	e51b2020 	ldr	r2, [fp, #-32]
    dca8:	e5922014 	ldr	r2, [r2, #20]
    dcac:	e1a02822 	lsr	r2, r2, #16
    dcb0:	e6ef2072 	uxtb	r2, r2
    dcb4:	e5c32000 	strb	r2, [r3]
    dcb8:	e51b3024 	ldr	r3, [fp, #-36]	; 0x24
    dcbc:	e283300f 	add	r3, r3, #15
    dcc0:	e51b2020 	ldr	r2, [fp, #-32]
    dcc4:	e5922014 	ldr	r2, [r2, #20]
    dcc8:	e1a02c22 	lsr	r2, r2, #24
    dccc:	e6ef2072 	uxtb	r2, r2
    dcd0:	e5c32000 	strb	r2, [r3]
    dcd4:	e24bd004 	sub	sp, fp, #4
    dcd8:	e8bd8800 	pop	{fp, pc}
    dcdc:	0001e788 	.word	0x0001e788

0000dce0 <md5>:
    dce0:	e92d4800 	push	{fp, lr}
    dce4:	e28db004 	add	fp, sp, #4
    dce8:	e24dd0e8 	sub	sp, sp, #232	; 0xe8
    dcec:	e50b00e0 	str	r0, [fp, #-224]	; 0xe0
    dcf0:	e50b10e4 	str	r1, [fp, #-228]	; 0xe4
    dcf4:	e50b20e8 	str	r2, [fp, #-232]	; 0xe8
    dcf8:	e24b30dc 	sub	r3, fp, #220	; 0xdc
    dcfc:	e1a00003 	mov	r0, r3
    dd00:	ebfff885 	bl	bf1c <md5_starts>
    dd04:	e24b30dc 	sub	r3, fp, #220	; 0xdc
    dd08:	e1a00003 	mov	r0, r3
    dd0c:	e51b10e0 	ldr	r1, [fp, #-224]	; 0xe0
    dd10:	e51b20e4 	ldr	r2, [fp, #-228]	; 0xe4
    dd14:	ebfffed8 	bl	d87c <md5_update>
    dd18:	e24b30dc 	sub	r3, fp, #220	; 0xdc
    dd1c:	e1a00003 	mov	r0, r3
    dd20:	e51b10e8 	ldr	r1, [fp, #-232]	; 0xe8
    dd24:	ebffff3a 	bl	da14 <md5_finish>
    dd28:	e24b30dc 	sub	r3, fp, #220	; 0xdc
    dd2c:	e1a02003 	mov	r2, r3
    dd30:	e3a030d8 	mov	r3, #216	; 0xd8
    dd34:	e1a00002 	mov	r0, r2
    dd38:	e3a01000 	mov	r1, #0
    dd3c:	e1a02003 	mov	r2, r3
    dd40:	ebffebd4 	bl	8c98 <_init+0x194>
    dd44:	e24bd004 	sub	sp, fp, #4
    dd48:	e8bd8800 	pop	{fp, pc}

0000dd4c <crc16_ccitt>:
    dd4c:	e92d4800 	push	{fp, lr}
    dd50:	e28db004 	add	fp, sp, #4
    dd54:	e24dd018 	sub	sp, sp, #24
    dd58:	e50b0010 	str	r0, [fp, #-16]
    dd5c:	e50b1014 	str	r1, [fp, #-20]
    dd60:	e50b2018 	str	r2, [fp, #-24]
    dd64:	e3a03000 	mov	r3, #0
    dd68:	e14b30ba 	strh	r3, [fp, #-10]
    dd6c:	e3a03000 	mov	r3, #0
    dd70:	e50b3008 	str	r3, [fp, #-8]
    dd74:	ea000019 	b	dde0 <crc16_ccitt+0x94>
    dd78:	e15b30ba 	ldrh	r3, [fp, #-10]
    dd7c:	e1a03403 	lsl	r3, r3, #8
    dd80:	e6ff2073 	uxth	r2, r3
    dd84:	e15b30ba 	ldrh	r3, [fp, #-10]
    dd88:	e1a03423 	lsr	r3, r3, #8
    dd8c:	e6ff3073 	uxth	r3, r3
    dd90:	e1a01003 	mov	r1, r3
    dd94:	e51b3010 	ldr	r3, [fp, #-16]
    dd98:	e5d33000 	ldrb	r3, [r3]
    dd9c:	e0213003 	eor	r3, r1, r3
    dda0:	e6ef3073 	uxtb	r3, r3
    dda4:	e59f1070 	ldr	r1, [pc, #112]	; de1c <crc16_ccitt+0xd0>
    dda8:	e1a03083 	lsl	r3, r3, #1
    ddac:	e0813003 	add	r3, r1, r3
    ddb0:	e1d330b0 	ldrh	r3, [r3]
    ddb4:	e6ff3073 	uxth	r3, r3
    ddb8:	e0223003 	eor	r3, r2, r3
    ddbc:	e6ff3073 	uxth	r3, r3
    ddc0:	e6ff3073 	uxth	r3, r3
    ddc4:	e14b30ba 	strh	r3, [fp, #-10]
    ddc8:	e51b3010 	ldr	r3, [fp, #-16]
    ddcc:	e2833001 	add	r3, r3, #1
    ddd0:	e50b3010 	str	r3, [fp, #-16]
    ddd4:	e51b3008 	ldr	r3, [fp, #-8]
    ddd8:	e2833001 	add	r3, r3, #1
    dddc:	e50b3008 	str	r3, [fp, #-8]
    dde0:	e51b2008 	ldr	r2, [fp, #-8]
    dde4:	e51b3014 	ldr	r3, [fp, #-20]
    dde8:	e1520003 	cmp	r2, r3
    ddec:	3affffe1 	bcc	dd78 <crc16_ccitt+0x2c>
    ddf0:	e51b2018 	ldr	r2, [fp, #-24]
    ddf4:	e24b300a 	sub	r3, fp, #10
    ddf8:	e1a01002 	mov	r1, r2
    ddfc:	e1a02003 	mov	r2, r3
    de00:	e3a03002 	mov	r3, #2
    de04:	e1a00001 	mov	r0, r1
    de08:	e1a01002 	mov	r1, r2
    de0c:	e1a02003 	mov	r2, r3
    de10:	ebffeb58 	bl	8b78 <_init+0x74>
    de14:	e24bd004 	sub	sp, fp, #4
    de18:	e8bd8800 	pop	{fp, pc}
    de1c:	0001e7c8 	.word	0x0001e7c8

0000de20 <crc32>:
    de20:	e92d4800 	push	{fp, lr}
    de24:	e28db004 	add	fp, sp, #4
    de28:	e24dd018 	sub	sp, sp, #24
    de2c:	e50b0010 	str	r0, [fp, #-16]
    de30:	e50b1014 	str	r1, [fp, #-20]
    de34:	e50b2018 	str	r2, [fp, #-24]
    de38:	e3e03000 	mvn	r3, #0
    de3c:	e50b300c 	str	r3, [fp, #-12]
    de40:	e51b3010 	ldr	r3, [fp, #-16]
    de44:	e50b3008 	str	r3, [fp, #-8]
    de48:	ea00000e 	b	de88 <crc32+0x68>
    de4c:	e51b3008 	ldr	r3, [fp, #-8]
    de50:	e5d33000 	ldrb	r3, [r3]
    de54:	e1a02003 	mov	r2, r3
    de58:	e51b300c 	ldr	r3, [fp, #-12]
    de5c:	e0223003 	eor	r3, r2, r3
    de60:	e6ef2073 	uxtb	r2, r3
    de64:	e59f307c 	ldr	r3, [pc, #124]	; dee8 <crc32+0xc8>
    de68:	e7932102 	ldr	r2, [r3, r2, lsl #2]
    de6c:	e51b300c 	ldr	r3, [fp, #-12]
    de70:	e1a03423 	lsr	r3, r3, #8
    de74:	e0223003 	eor	r3, r2, r3
    de78:	e50b300c 	str	r3, [fp, #-12]
    de7c:	e51b3008 	ldr	r3, [fp, #-8]
    de80:	e2833001 	add	r3, r3, #1
    de84:	e50b3008 	str	r3, [fp, #-8]
    de88:	e51b3014 	ldr	r3, [fp, #-20]
    de8c:	e3530000 	cmp	r3, #0
    de90:	03a03000 	moveq	r3, #0
    de94:	13a03001 	movne	r3, #1
    de98:	e6ef3073 	uxtb	r3, r3
    de9c:	e51b2014 	ldr	r2, [fp, #-20]
    dea0:	e2422001 	sub	r2, r2, #1
    dea4:	e50b2014 	str	r2, [fp, #-20]
    dea8:	e3530000 	cmp	r3, #0
    deac:	1affffe6 	bne	de4c <crc32+0x2c>
    deb0:	e51b300c 	ldr	r3, [fp, #-12]
    deb4:	e1e03003 	mvn	r3, r3
    deb8:	e50b300c 	str	r3, [fp, #-12]
    debc:	e51b2018 	ldr	r2, [fp, #-24]
    dec0:	e24b300c 	sub	r3, fp, #12
    dec4:	e1a01002 	mov	r1, r2
    dec8:	e1a02003 	mov	r2, r3
    decc:	e3a03004 	mov	r3, #4
    ded0:	e1a00001 	mov	r0, r1
    ded4:	e1a01002 	mov	r1, r2
    ded8:	e1a02003 	mov	r2, r3
    dedc:	ebffeb25 	bl	8b78 <_init+0x74>
    dee0:	e24bd004 	sub	sp, fp, #4
    dee4:	e8bd8800 	pop	{fp, pc}
    dee8:	000271d8 	.word	0x000271d8

0000deec <sum8>:
    deec:	e52db004 	push	{fp}		; (str fp, [sp, #-4]!)
    def0:	e28db000 	add	fp, sp, #0
    def4:	e24dd01c 	sub	sp, sp, #28
    def8:	e50b0010 	str	r0, [fp, #-16]
    defc:	e50b1014 	str	r1, [fp, #-20]
    df00:	e50b2018 	str	r2, [fp, #-24]
    df04:	e3a03000 	mov	r3, #0
    df08:	e54b3006 	strb	r3, [fp, #-6]
    df0c:	e3a03000 	mov	r3, #0
    df10:	e54b3005 	strb	r3, [fp, #-5]
    df14:	ea00000a 	b	df44 <sum8+0x58>
    df18:	e55b3005 	ldrb	r3, [fp, #-5]
    df1c:	e51b2010 	ldr	r2, [fp, #-16]
    df20:	e0823003 	add	r3, r2, r3
    df24:	e5d32000 	ldrb	r2, [r3]
    df28:	e55b3006 	ldrb	r3, [fp, #-6]
    df2c:	e0823003 	add	r3, r2, r3
    df30:	e6ef3073 	uxtb	r3, r3
    df34:	e54b3006 	strb	r3, [fp, #-6]
    df38:	e55b3005 	ldrb	r3, [fp, #-5]
    df3c:	e2833001 	add	r3, r3, #1
    df40:	e54b3005 	strb	r3, [fp, #-5]
    df44:	e55b2005 	ldrb	r2, [fp, #-5]
    df48:	e51b3014 	ldr	r3, [fp, #-20]
    df4c:	e1520003 	cmp	r2, r3
    df50:	3afffff0 	bcc	df18 <sum8+0x2c>
    df54:	e24b3006 	sub	r3, fp, #6
    df58:	e5d32000 	ldrb	r2, [r3]
    df5c:	e51b3018 	ldr	r3, [fp, #-24]
    df60:	e5c32000 	strb	r2, [r3]
    df64:	e28bd000 	add	sp, fp, #0
    df68:	e8bd0800 	pop	{fp}
    df6c:	e12fff1e 	bx	lr

0000df70 <sum16>:
    df70:	e92d4800 	push	{fp, lr}
    df74:	e28db004 	add	fp, sp, #4
    df78:	e24dd018 	sub	sp, sp, #24
    df7c:	e50b0010 	str	r0, [fp, #-16]
    df80:	e50b1014 	str	r1, [fp, #-20]
    df84:	e50b2018 	str	r2, [fp, #-24]
    df88:	e3a03000 	mov	r3, #0
    df8c:	e14b30b6 	strh	r3, [fp, #-6]
    df90:	ea00000b 	b	dfc4 <sum16+0x54>
    df94:	e51b3010 	ldr	r3, [fp, #-16]
    df98:	e1d320b0 	ldrh	r2, [r3]
    df9c:	e15b30b6 	ldrh	r3, [fp, #-6]
    dfa0:	e0823003 	add	r3, r2, r3
    dfa4:	e6ff3073 	uxth	r3, r3
    dfa8:	e14b30b6 	strh	r3, [fp, #-6]
    dfac:	e51b3010 	ldr	r3, [fp, #-16]
    dfb0:	e2833002 	add	r3, r3, #2
    dfb4:	e50b3010 	str	r3, [fp, #-16]
    dfb8:	e51b3014 	ldr	r3, [fp, #-20]
    dfbc:	e2433002 	sub	r3, r3, #2
    dfc0:	e50b3014 	str	r3, [fp, #-20]
    dfc4:	e51b3014 	ldr	r3, [fp, #-20]
    dfc8:	e3530001 	cmp	r3, #1
    dfcc:	8afffff0 	bhi	df94 <sum16+0x24>
    dfd0:	e51b3014 	ldr	r3, [fp, #-20]
    dfd4:	e3530000 	cmp	r3, #0
    dfd8:	0a000006 	beq	dff8 <sum16+0x88>
    dfdc:	e51b3010 	ldr	r3, [fp, #-16]
    dfe0:	e5d33000 	ldrb	r3, [r3]
    dfe4:	e1a02003 	mov	r2, r3
    dfe8:	e15b30b6 	ldrh	r3, [fp, #-6]
    dfec:	e0823003 	add	r3, r2, r3
    dff0:	e6ff3073 	uxth	r3, r3
    dff4:	e14b30b6 	strh	r3, [fp, #-6]
    dff8:	e51b2018 	ldr	r2, [fp, #-24]
    dffc:	e24b3006 	sub	r3, fp, #6
    e000:	e1a01002 	mov	r1, r2
    e004:	e1a02003 	mov	r2, r3
    e008:	e3a03002 	mov	r3, #2
    e00c:	e1a00001 	mov	r0, r1
    e010:	e1a01002 	mov	r1, r2
    e014:	e1a02003 	mov	r2, r3
    e018:	ebffead6 	bl	8b78 <_init+0x74>
    e01c:	e24bd004 	sub	sp, fp, #4
    e020:	e8bd8800 	pop	{fp, pc}

0000e024 <sum32>:
    e024:	e92d4800 	push	{fp, lr}
    e028:	e28db004 	add	fp, sp, #4
    e02c:	e24dd018 	sub	sp, sp, #24
    e030:	e50b0010 	str	r0, [fp, #-16]
    e034:	e50b1014 	str	r1, [fp, #-20]
    e038:	e50b2018 	str	r2, [fp, #-24]
    e03c:	e3a03000 	mov	r3, #0
    e040:	e50b3008 	str	r3, [fp, #-8]
    e044:	ea00000a 	b	e074 <sum32+0x50>
    e048:	e51b3010 	ldr	r3, [fp, #-16]
    e04c:	e5932000 	ldr	r2, [r3]
    e050:	e51b3008 	ldr	r3, [fp, #-8]
    e054:	e0823003 	add	r3, r2, r3
    e058:	e50b3008 	str	r3, [fp, #-8]
    e05c:	e51b3010 	ldr	r3, [fp, #-16]
    e060:	e2833004 	add	r3, r3, #4
    e064:	e50b3010 	str	r3, [fp, #-16]
    e068:	e51b3014 	ldr	r3, [fp, #-20]
    e06c:	e2433004 	sub	r3, r3, #4
    e070:	e50b3014 	str	r3, [fp, #-20]
    e074:	e51b3014 	ldr	r3, [fp, #-20]
    e078:	e3530003 	cmp	r3, #3
    e07c:	8afffff1 	bhi	e048 <sum32+0x24>
    e080:	e51b3014 	ldr	r3, [fp, #-20]
    e084:	e3530000 	cmp	r3, #0
    e088:	0a000005 	beq	e0a4 <sum32+0x80>
    e08c:	e51b3010 	ldr	r3, [fp, #-16]
    e090:	e5933000 	ldr	r3, [r3]
    e094:	e3c324ff 	bic	r2, r3, #-16777216	; 0xff000000
    e098:	e51b3008 	ldr	r3, [fp, #-8]
    e09c:	e0823003 	add	r3, r2, r3
    e0a0:	e50b3008 	str	r3, [fp, #-8]
    e0a4:	e51b2018 	ldr	r2, [fp, #-24]
    e0a8:	e24b3008 	sub	r3, fp, #8
    e0ac:	e1a01002 	mov	r1, r2
    e0b0:	e1a02003 	mov	r2, r3
    e0b4:	e3a03004 	mov	r3, #4
    e0b8:	e1a00001 	mov	r0, r1
    e0bc:	e1a01002 	mov	r1, r2
    e0c0:	e1a02003 	mov	r2, r3
    e0c4:	ebffeaab 	bl	8b78 <_init+0x74>
    e0c8:	e24bd004 	sub	sp, fp, #4
    e0cc:	e8bd8800 	pop	{fp, pc}

0000e0d0 <fletcher16>:
    e0d0:	e92d4800 	push	{fp, lr}
    e0d4:	e28db004 	add	fp, sp, #4
    e0d8:	e24dd018 	sub	sp, sp, #24
    e0dc:	e50b0010 	str	r0, [fp, #-16]
    e0e0:	e50b1014 	str	r1, [fp, #-20]
    e0e4:	e50b2018 	str	r2, [fp, #-24]
    e0e8:	e3a03000 	mov	r3, #0
    e0ec:	e14b30b6 	strh	r3, [fp, #-6]
    e0f0:	e3a03000 	mov	r3, #0
    e0f4:	e14b30ba 	strh	r3, [fp, #-10]
    e0f8:	e3a03000 	mov	r3, #0
    e0fc:	e14b30b8 	strh	r3, [fp, #-8]
    e100:	ea000023 	b	e194 <fletcher16+0xc4>
    e104:	e15b20b6 	ldrh	r2, [fp, #-6]
    e108:	e15b30b8 	ldrh	r3, [fp, #-8]
    e10c:	e51b1010 	ldr	r1, [fp, #-16]
    e110:	e0813003 	add	r3, r1, r3
    e114:	e5d33000 	ldrb	r3, [r3]
    e118:	e0821003 	add	r1, r2, r3
    e11c:	e59f30cc 	ldr	r3, [pc, #204]	; e1f0 <fletcher16+0x120>
    e120:	e0c32193 	smull	r2, r3, r3, r1
    e124:	e0833001 	add	r3, r3, r1
    e128:	e1a023c3 	asr	r2, r3, #7
    e12c:	e1a03fc1 	asr	r3, r1, #31
    e130:	e0632002 	rsb	r2, r3, r2
    e134:	e1a03002 	mov	r3, r2
    e138:	e1a03403 	lsl	r3, r3, #8
    e13c:	e0623003 	rsb	r3, r2, r3
    e140:	e0632001 	rsb	r2, r3, r1
    e144:	e14b20b6 	strh	r2, [fp, #-6]
    e148:	e15b30b8 	ldrh	r3, [fp, #-8]
    e14c:	e2833001 	add	r3, r3, #1
    e150:	e14b30b8 	strh	r3, [fp, #-8]
    e154:	e15b30ba 	ldrh	r3, [fp, #-10]
    e158:	e1a02003 	mov	r2, r3
    e15c:	e15b30b6 	ldrh	r3, [fp, #-6]
    e160:	e0821003 	add	r1, r2, r3
    e164:	e59f3084 	ldr	r3, [pc, #132]	; e1f0 <fletcher16+0x120>
    e168:	e0c32193 	smull	r2, r3, r3, r1
    e16c:	e0833001 	add	r3, r3, r1
    e170:	e1a023c3 	asr	r2, r3, #7
    e174:	e1a03fc1 	asr	r3, r1, #31
    e178:	e0632002 	rsb	r2, r3, r2
    e17c:	e1a03002 	mov	r3, r2
    e180:	e1a03403 	lsl	r3, r3, #8
    e184:	e0623003 	rsb	r3, r2, r3
    e188:	e0632001 	rsb	r2, r3, r1
    e18c:	e6ff3072 	uxth	r3, r2
    e190:	e14b30ba 	strh	r3, [fp, #-10]
    e194:	e15b20b8 	ldrh	r2, [fp, #-8]
    e198:	e51b3014 	ldr	r3, [fp, #-20]
    e19c:	e1520003 	cmp	r2, r3
    e1a0:	3affffd7 	bcc	e104 <fletcher16+0x34>
    e1a4:	e15b30ba 	ldrh	r3, [fp, #-10]
    e1a8:	e1a03403 	lsl	r3, r3, #8
    e1ac:	e6ff2073 	uxth	r2, r3
    e1b0:	e15b30b6 	ldrh	r3, [fp, #-6]
    e1b4:	e1823003 	orr	r3, r2, r3
    e1b8:	e6ff3073 	uxth	r3, r3
    e1bc:	e6ff3073 	uxth	r3, r3
    e1c0:	e14b30ba 	strh	r3, [fp, #-10]
    e1c4:	e51b2018 	ldr	r2, [fp, #-24]
    e1c8:	e24b300a 	sub	r3, fp, #10
    e1cc:	e1a01002 	mov	r1, r2
    e1d0:	e1a02003 	mov	r2, r3
    e1d4:	e3a03002 	mov	r3, #2
    e1d8:	e1a00001 	mov	r0, r1
    e1dc:	e1a01002 	mov	r1, r2
    e1e0:	e1a02003 	mov	r2, r3
    e1e4:	ebffea63 	bl	8b78 <_init+0x74>
    e1e8:	e24bd004 	sub	sp, fp, #4
    e1ec:	e8bd8800 	pop	{fp, pc}
    e1f0:	80808081 	.word	0x80808081

0000e1f4 <fletcher32>:
    e1f4:	e92d4800 	push	{fp, lr}
    e1f8:	e28db004 	add	fp, sp, #4
    e1fc:	e24dd018 	sub	sp, sp, #24
    e200:	e50b0010 	str	r0, [fp, #-16]
    e204:	e50b1014 	str	r1, [fp, #-20]
    e208:	e50b2018 	str	r2, [fp, #-24]
    e20c:	e59f3170 	ldr	r3, [pc, #368]	; e384 <fletcher32+0x190>
    e210:	e50b3008 	str	r3, [fp, #-8]
    e214:	e59f3168 	ldr	r3, [pc, #360]	; e384 <fletcher32+0x190>
    e218:	e50b300c 	str	r3, [fp, #-12]
    e21c:	ea00001c 	b	e294 <fletcher32+0xa0>
    e220:	e51b3010 	ldr	r3, [fp, #-16]
    e224:	e1d330b0 	ldrh	r3, [r3]
    e228:	e51b2008 	ldr	r2, [fp, #-8]
    e22c:	e0823003 	add	r3, r2, r3
    e230:	e50b3008 	str	r3, [fp, #-8]
    e234:	e51b3010 	ldr	r3, [fp, #-16]
    e238:	e2833002 	add	r3, r3, #2
    e23c:	e50b3010 	str	r3, [fp, #-16]
    e240:	e51b3014 	ldr	r3, [fp, #-20]
    e244:	e2433002 	sub	r3, r3, #2
    e248:	e50b3014 	str	r3, [fp, #-20]
    e24c:	e51b200c 	ldr	r2, [fp, #-12]
    e250:	e51b3008 	ldr	r3, [fp, #-8]
    e254:	e0823003 	add	r3, r2, r3
    e258:	e50b300c 	str	r3, [fp, #-12]
    e25c:	e51b3008 	ldr	r3, [fp, #-8]
    e260:	e1a03803 	lsl	r3, r3, #16
    e264:	e1a03823 	lsr	r3, r3, #16
    e268:	e51b2008 	ldr	r2, [fp, #-8]
    e26c:	e1a02822 	lsr	r2, r2, #16
    e270:	e0833002 	add	r3, r3, r2
    e274:	e50b3008 	str	r3, [fp, #-8]
    e278:	e51b300c 	ldr	r3, [fp, #-12]
    e27c:	e1a03803 	lsl	r3, r3, #16
    e280:	e1a03823 	lsr	r3, r3, #16
    e284:	e51b200c 	ldr	r2, [fp, #-12]
    e288:	e1a02822 	lsr	r2, r2, #16
    e28c:	e0833002 	add	r3, r3, r2
    e290:	e50b300c 	str	r3, [fp, #-12]
    e294:	e51b3014 	ldr	r3, [fp, #-20]
    e298:	e3530001 	cmp	r3, #1
    e29c:	8affffdf 	bhi	e220 <fletcher32+0x2c>
    e2a0:	e51b3014 	ldr	r3, [fp, #-20]
    e2a4:	e3530000 	cmp	r3, #0
    e2a8:	0a000017 	beq	e30c <fletcher32+0x118>
    e2ac:	e51b3010 	ldr	r3, [fp, #-16]
    e2b0:	e5d33000 	ldrb	r3, [r3]
    e2b4:	e1a02003 	mov	r2, r3
    e2b8:	e51b3008 	ldr	r3, [fp, #-8]
    e2bc:	e0822003 	add	r2, r2, r3
    e2c0:	e59f30c0 	ldr	r3, [pc, #192]	; e388 <fletcher32+0x194>
    e2c4:	e0831293 	umull	r1, r3, r3, r2
    e2c8:	e1a017a3 	lsr	r1, r3, #15
    e2cc:	e1a03001 	mov	r3, r1
    e2d0:	e1a03803 	lsl	r3, r3, #16
    e2d4:	e0613003 	rsb	r3, r1, r3
    e2d8:	e0633002 	rsb	r3, r3, r2
    e2dc:	e50b3008 	str	r3, [fp, #-8]
    e2e0:	e51b200c 	ldr	r2, [fp, #-12]
    e2e4:	e51b3008 	ldr	r3, [fp, #-8]
    e2e8:	e0821003 	add	r1, r2, r3
    e2ec:	e59f3094 	ldr	r3, [pc, #148]	; e388 <fletcher32+0x194>
    e2f0:	e0832193 	umull	r2, r3, r3, r1
    e2f4:	e1a027a3 	lsr	r2, r3, #15
    e2f8:	e1a03002 	mov	r3, r2
    e2fc:	e1a03803 	lsl	r3, r3, #16
    e300:	e0623003 	rsb	r3, r2, r3
    e304:	e0632001 	rsb	r2, r3, r1
    e308:	e50b200c 	str	r2, [fp, #-12]
    e30c:	e51b3008 	ldr	r3, [fp, #-8]
    e310:	e1a03803 	lsl	r3, r3, #16
    e314:	e1a03823 	lsr	r3, r3, #16
    e318:	e51b2008 	ldr	r2, [fp, #-8]
    e31c:	e1a02822 	lsr	r2, r2, #16
    e320:	e0833002 	add	r3, r3, r2
    e324:	e50b3008 	str	r3, [fp, #-8]
    e328:	e51b300c 	ldr	r3, [fp, #-12]
    e32c:	e1a03803 	lsl	r3, r3, #16
    e330:	e1a03823 	lsr	r3, r3, #16
    e334:	e51b200c 	ldr	r2, [fp, #-12]
    e338:	e1a02822 	lsr	r2, r2, #16
    e33c:	e0833002 	add	r3, r3, r2
    e340:	e50b300c 	str	r3, [fp, #-12]
    e344:	e51b300c 	ldr	r3, [fp, #-12]
    e348:	e1a02803 	lsl	r2, r3, #16
    e34c:	e51b3008 	ldr	r3, [fp, #-8]
    e350:	e1823003 	orr	r3, r2, r3
    e354:	e50b300c 	str	r3, [fp, #-12]
    e358:	e51b2018 	ldr	r2, [fp, #-24]
    e35c:	e24b300c 	sub	r3, fp, #12
    e360:	e1a01002 	mov	r1, r2
    e364:	e1a02003 	mov	r2, r3
    e368:	e3a03004 	mov	r3, #4
    e36c:	e1a00001 	mov	r0, r1
    e370:	e1a01002 	mov	r1, r2
    e374:	e1a02003 	mov	r2, r3
    e378:	ebffe9fe 	bl	8b78 <_init+0x74>
    e37c:	e24bd004 	sub	sp, fp, #4
    e380:	e8bd8800 	pop	{fp, pc}
    e384:	0000ffff 	.word	0x0000ffff
    e388:	80008001 	.word	0x80008001

0000e38c <adler32>:
    e38c:	e92d4800 	push	{fp, lr}
    e390:	e28db004 	add	fp, sp, #4
    e394:	e24dd020 	sub	sp, sp, #32
    e398:	e50b0018 	str	r0, [fp, #-24]
    e39c:	e50b101c 	str	r1, [fp, #-28]
    e3a0:	e50b2020 	str	r2, [fp, #-32]
    e3a4:	e3a03001 	mov	r3, #1
    e3a8:	e50b3008 	str	r3, [fp, #-8]
    e3ac:	e3a03000 	mov	r3, #0
    e3b0:	e50b3010 	str	r3, [fp, #-16]
    e3b4:	e3a03000 	mov	r3, #0
    e3b8:	e50b300c 	str	r3, [fp, #-12]
    e3bc:	ea00001a 	b	e42c <adler32+0xa0>
    e3c0:	e51b300c 	ldr	r3, [fp, #-12]
    e3c4:	e51b2018 	ldr	r2, [fp, #-24]
    e3c8:	e0823003 	add	r3, r2, r3
    e3cc:	e5d33000 	ldrb	r3, [r3]
    e3d0:	e1a02003 	mov	r2, r3
    e3d4:	e51b3008 	ldr	r3, [fp, #-8]
    e3d8:	e0822003 	add	r2, r2, r3
    e3dc:	e59f3098 	ldr	r3, [pc, #152]	; e47c <adler32+0xf0>
    e3e0:	e5933000 	ldr	r3, [r3]
    e3e4:	e1a00002 	mov	r0, r2
    e3e8:	e1a01003 	mov	r1, r3
    e3ec:	eb003fdb 	bl	1e360 <__aeabi_uidivmod>
    e3f0:	e1a03001 	mov	r3, r1
    e3f4:	e50b3008 	str	r3, [fp, #-8]
    e3f8:	e51b2010 	ldr	r2, [fp, #-16]
    e3fc:	e51b3008 	ldr	r3, [fp, #-8]
    e400:	e0822003 	add	r2, r2, r3
    e404:	e59f3070 	ldr	r3, [pc, #112]	; e47c <adler32+0xf0>
    e408:	e5933000 	ldr	r3, [r3]
    e40c:	e1a00002 	mov	r0, r2
    e410:	e1a01003 	mov	r1, r3
    e414:	eb003fd1 	bl	1e360 <__aeabi_uidivmod>
    e418:	e1a03001 	mov	r3, r1
    e41c:	e50b3010 	str	r3, [fp, #-16]
    e420:	e51b300c 	ldr	r3, [fp, #-12]
    e424:	e2833001 	add	r3, r3, #1
    e428:	e50b300c 	str	r3, [fp, #-12]
    e42c:	e51b200c 	ldr	r2, [fp, #-12]
    e430:	e51b301c 	ldr	r3, [fp, #-28]
    e434:	e1520003 	cmp	r2, r3
    e438:	3affffe0 	bcc	e3c0 <adler32+0x34>
    e43c:	e51b3010 	ldr	r3, [fp, #-16]
    e440:	e1a02803 	lsl	r2, r3, #16
    e444:	e51b3008 	ldr	r3, [fp, #-8]
    e448:	e1823003 	orr	r3, r2, r3
    e44c:	e50b3010 	str	r3, [fp, #-16]
    e450:	e51b2020 	ldr	r2, [fp, #-32]
    e454:	e24b3010 	sub	r3, fp, #16
    e458:	e1a01002 	mov	r1, r2
    e45c:	e1a02003 	mov	r2, r3
    e460:	e3a03004 	mov	r3, #4
    e464:	e1a00001 	mov	r0, r1
    e468:	e1a01002 	mov	r1, r2
    e46c:	e1a02003 	mov	r2, r3
    e470:	ebffe9c0 	bl	8b78 <_init+0x74>
    e474:	e24bd004 	sub	sp, fp, #4
    e478:	e8bd8800 	pop	{fp, pc}
    e47c:	0001e9c8 	.word	0x0001e9c8

0000e480 <adler16>:
    e480:	e92d4800 	push	{fp, lr}
    e484:	e28db004 	add	fp, sp, #4
    e488:	e24dd020 	sub	sp, sp, #32
    e48c:	e50b0018 	str	r0, [fp, #-24]
    e490:	e50b101c 	str	r1, [fp, #-28]
    e494:	e50b2020 	str	r2, [fp, #-32]
    e498:	e3a03001 	mov	r3, #1
    e49c:	e50b3008 	str	r3, [fp, #-8]
    e4a0:	e3a03000 	mov	r3, #0
    e4a4:	e50b3010 	str	r3, [fp, #-16]
    e4a8:	e3a03000 	mov	r3, #0
    e4ac:	e50b300c 	str	r3, [fp, #-12]
    e4b0:	ea00001a 	b	e520 <adler16+0xa0>
    e4b4:	e51b300c 	ldr	r3, [fp, #-12]
    e4b8:	e51b2018 	ldr	r2, [fp, #-24]
    e4bc:	e0823003 	add	r3, r2, r3
    e4c0:	e5d33000 	ldrb	r3, [r3]
    e4c4:	e1a02003 	mov	r2, r3
    e4c8:	e51b3008 	ldr	r3, [fp, #-8]
    e4cc:	e0822003 	add	r2, r2, r3
    e4d0:	e59f3098 	ldr	r3, [pc, #152]	; e570 <adler16+0xf0>
    e4d4:	e5933000 	ldr	r3, [r3]
    e4d8:	e1a00002 	mov	r0, r2
    e4dc:	e1a01003 	mov	r1, r3
    e4e0:	eb003f9e 	bl	1e360 <__aeabi_uidivmod>
    e4e4:	e1a03001 	mov	r3, r1
    e4e8:	e50b3008 	str	r3, [fp, #-8]
    e4ec:	e51b2010 	ldr	r2, [fp, #-16]
    e4f0:	e51b3008 	ldr	r3, [fp, #-8]
    e4f4:	e0822003 	add	r2, r2, r3
    e4f8:	e59f3070 	ldr	r3, [pc, #112]	; e570 <adler16+0xf0>
    e4fc:	e5933000 	ldr	r3, [r3]
    e500:	e1a00002 	mov	r0, r2
    e504:	e1a01003 	mov	r1, r3
    e508:	eb003f94 	bl	1e360 <__aeabi_uidivmod>
    e50c:	e1a03001 	mov	r3, r1
    e510:	e50b3010 	str	r3, [fp, #-16]
    e514:	e51b300c 	ldr	r3, [fp, #-12]
    e518:	e2833001 	add	r3, r3, #1
    e51c:	e50b300c 	str	r3, [fp, #-12]
    e520:	e51b200c 	ldr	r2, [fp, #-12]
    e524:	e51b301c 	ldr	r3, [fp, #-28]
    e528:	e1520003 	cmp	r2, r3
    e52c:	3affffe0 	bcc	e4b4 <adler16+0x34>
    e530:	e51b3010 	ldr	r3, [fp, #-16]
    e534:	e1a02403 	lsl	r2, r3, #8
    e538:	e51b3008 	ldr	r3, [fp, #-8]
    e53c:	e1823003 	orr	r3, r2, r3
    e540:	e50b3010 	str	r3, [fp, #-16]
    e544:	e51b2020 	ldr	r2, [fp, #-32]
    e548:	e24b3010 	sub	r3, fp, #16
    e54c:	e1a01002 	mov	r1, r2
    e550:	e1a02003 	mov	r2, r3
    e554:	e3a03002 	mov	r3, #2
    e558:	e1a00001 	mov	r0, r1
    e55c:	e1a01002 	mov	r1, r2
    e560:	e1a02003 	mov	r2, r3
    e564:	ebffe983 	bl	8b78 <_init+0x74>
    e568:	e24bd004 	sub	sp, fp, #4
    e56c:	e8bd8800 	pop	{fp, pc}
    e570:	0001e9cc 	.word	0x0001e9cc

0000e574 <adler8>:
    e574:	e92d4800 	push	{fp, lr}
    e578:	e28db004 	add	fp, sp, #4
    e57c:	e24dd020 	sub	sp, sp, #32
    e580:	e50b0018 	str	r0, [fp, #-24]
    e584:	e50b101c 	str	r1, [fp, #-28]
    e588:	e50b2020 	str	r2, [fp, #-32]
    e58c:	e3a03001 	mov	r3, #1
    e590:	e50b3008 	str	r3, [fp, #-8]
    e594:	e3a03000 	mov	r3, #0
    e598:	e50b3010 	str	r3, [fp, #-16]
    e59c:	e3a03000 	mov	r3, #0
    e5a0:	e50b300c 	str	r3, [fp, #-12]
    e5a4:	ea00001a 	b	e614 <adler8+0xa0>
    e5a8:	e51b300c 	ldr	r3, [fp, #-12]
    e5ac:	e51b2018 	ldr	r2, [fp, #-24]
    e5b0:	e0823003 	add	r3, r2, r3
    e5b4:	e5d33000 	ldrb	r3, [r3]
    e5b8:	e1a02003 	mov	r2, r3
    e5bc:	e51b3008 	ldr	r3, [fp, #-8]
    e5c0:	e0822003 	add	r2, r2, r3
    e5c4:	e59f3084 	ldr	r3, [pc, #132]	; e650 <adler8+0xdc>
    e5c8:	e5933000 	ldr	r3, [r3]
    e5cc:	e1a00002 	mov	r0, r2
    e5d0:	e1a01003 	mov	r1, r3
    e5d4:	eb003f61 	bl	1e360 <__aeabi_uidivmod>
    e5d8:	e1a03001 	mov	r3, r1
    e5dc:	e50b3008 	str	r3, [fp, #-8]
    e5e0:	e51b2010 	ldr	r2, [fp, #-16]
    e5e4:	e51b3008 	ldr	r3, [fp, #-8]
    e5e8:	e0822003 	add	r2, r2, r3
    e5ec:	e59f305c 	ldr	r3, [pc, #92]	; e650 <adler8+0xdc>
    e5f0:	e5933000 	ldr	r3, [r3]
    e5f4:	e1a00002 	mov	r0, r2
    e5f8:	e1a01003 	mov	r1, r3
    e5fc:	eb003f57 	bl	1e360 <__aeabi_uidivmod>
    e600:	e1a03001 	mov	r3, r1
    e604:	e50b3010 	str	r3, [fp, #-16]
    e608:	e51b300c 	ldr	r3, [fp, #-12]
    e60c:	e2833001 	add	r3, r3, #1
    e610:	e50b300c 	str	r3, [fp, #-12]
    e614:	e51b200c 	ldr	r2, [fp, #-12]
    e618:	e51b301c 	ldr	r3, [fp, #-28]
    e61c:	e1520003 	cmp	r2, r3
    e620:	3affffe0 	bcc	e5a8 <adler8+0x34>
    e624:	e51b3010 	ldr	r3, [fp, #-16]
    e628:	e1a02203 	lsl	r2, r3, #4
    e62c:	e51b3008 	ldr	r3, [fp, #-8]
    e630:	e1823003 	orr	r3, r2, r3
    e634:	e50b3010 	str	r3, [fp, #-16]
    e638:	e51b3020 	ldr	r3, [fp, #-32]
    e63c:	e24b2010 	sub	r2, fp, #16
    e640:	e5d22000 	ldrb	r2, [r2]
    e644:	e5c32000 	strb	r2, [r3]
    e648:	e24bd004 	sub	sp, fp, #4
    e64c:	e8bd8800 	pop	{fp, pc}
    e650:	0001e9d0 	.word	0x0001e9d0

0000e654 <aphash>:
    e654:	e92d4800 	push	{fp, lr}
    e658:	e28db004 	add	fp, sp, #4
    e65c:	e24dd018 	sub	sp, sp, #24
    e660:	e50b0010 	str	r0, [fp, #-16]
    e664:	e50b1014 	str	r1, [fp, #-20]
    e668:	e50b2018 	str	r2, [fp, #-24]
    e66c:	e59f30d0 	ldr	r3, [pc, #208]	; e744 <aphash+0xf0>
    e670:	e50b300c 	str	r3, [fp, #-12]
    e674:	e3a03000 	mov	r3, #0
    e678:	e50b3008 	str	r3, [fp, #-8]
    e67c:	e3a03000 	mov	r3, #0
    e680:	e50b3008 	str	r3, [fp, #-8]
    e684:	ea00001f 	b	e708 <aphash+0xb4>
    e688:	e51b3008 	ldr	r3, [fp, #-8]
    e68c:	e2033001 	and	r3, r3, #1
    e690:	e3530000 	cmp	r3, #0
    e694:	1a000008 	bne	e6bc <aphash+0x68>
    e698:	e51b300c 	ldr	r3, [fp, #-12]
    e69c:	e1a02383 	lsl	r2, r3, #7
    e6a0:	e51b3010 	ldr	r3, [fp, #-16]
    e6a4:	e5d33000 	ldrb	r3, [r3]
    e6a8:	e51b100c 	ldr	r1, [fp, #-12]
    e6ac:	e1a011a1 	lsr	r1, r1, #3
    e6b0:	e0030391 	mul	r3, r1, r3
    e6b4:	e0223003 	eor	r3, r2, r3
    e6b8:	ea000009 	b	e6e4 <aphash+0x90>
    e6bc:	e51b300c 	ldr	r3, [fp, #-12]
    e6c0:	e1a02583 	lsl	r2, r3, #11
    e6c4:	e51b3010 	ldr	r3, [fp, #-16]
    e6c8:	e5d33000 	ldrb	r3, [r3]
    e6cc:	e1a01003 	mov	r1, r3
    e6d0:	e51b300c 	ldr	r3, [fp, #-12]
    e6d4:	e1a032a3 	lsr	r3, r3, #5
    e6d8:	e0213003 	eor	r3, r1, r3
    e6dc:	e0823003 	add	r3, r2, r3
    e6e0:	e1e03003 	mvn	r3, r3
    e6e4:	e51b200c 	ldr	r2, [fp, #-12]
    e6e8:	e0233002 	eor	r3, r3, r2
    e6ec:	e50b300c 	str	r3, [fp, #-12]
    e6f0:	e51b3010 	ldr	r3, [fp, #-16]
    e6f4:	e2833001 	add	r3, r3, #1
    e6f8:	e50b3010 	str	r3, [fp, #-16]
    e6fc:	e51b3008 	ldr	r3, [fp, #-8]
    e700:	e2833001 	add	r3, r3, #1
    e704:	e50b3008 	str	r3, [fp, #-8]
    e708:	e51b2008 	ldr	r2, [fp, #-8]
    e70c:	e51b3014 	ldr	r3, [fp, #-20]
    e710:	e1520003 	cmp	r2, r3
    e714:	3affffdb 	bcc	e688 <aphash+0x34>
    e718:	e51b2018 	ldr	r2, [fp, #-24]
    e71c:	e24b300c 	sub	r3, fp, #12
    e720:	e1a01002 	mov	r1, r2
    e724:	e1a02003 	mov	r2, r3
    e728:	e3a03004 	mov	r3, #4
    e72c:	e1a00001 	mov	r0, r1
    e730:	e1a01002 	mov	r1, r2
    e734:	e1a02003 	mov	r2, r3
    e738:	ebffe90e 	bl	8b78 <_init+0x74>
    e73c:	e24bd004 	sub	sp, fp, #4
    e740:	e8bd8800 	pop	{fp, pc}
    e744:	aaaaaaaa 	.word	0xaaaaaaaa

0000e748 <rshash>:
    e748:	e92d4800 	push	{fp, lr}
    e74c:	e28db004 	add	fp, sp, #4
    e750:	e24dd020 	sub	sp, sp, #32
    e754:	e50b0018 	str	r0, [fp, #-24]
    e758:	e50b101c 	str	r1, [fp, #-28]
    e75c:	e50b2020 	str	r2, [fp, #-32]
    e760:	e59f30a4 	ldr	r3, [pc, #164]	; e80c <rshash+0xc4>
    e764:	e50b3010 	str	r3, [fp, #-16]
    e768:	e59f30a0 	ldr	r3, [pc, #160]	; e810 <rshash+0xc8>
    e76c:	e50b3008 	str	r3, [fp, #-8]
    e770:	e3a03000 	mov	r3, #0
    e774:	e50b3014 	str	r3, [fp, #-20]
    e778:	e3a03000 	mov	r3, #0
    e77c:	e50b300c 	str	r3, [fp, #-12]
    e780:	e3a03000 	mov	r3, #0
    e784:	e50b300c 	str	r3, [fp, #-12]
    e788:	ea000010 	b	e7d0 <rshash+0x88>
    e78c:	e51b3014 	ldr	r3, [fp, #-20]
    e790:	e51b2008 	ldr	r2, [fp, #-8]
    e794:	e0020392 	mul	r2, r2, r3
    e798:	e51b3018 	ldr	r3, [fp, #-24]
    e79c:	e5d33000 	ldrb	r3, [r3]
    e7a0:	e0823003 	add	r3, r2, r3
    e7a4:	e50b3014 	str	r3, [fp, #-20]
    e7a8:	e51b3008 	ldr	r3, [fp, #-8]
    e7ac:	e51b2010 	ldr	r2, [fp, #-16]
    e7b0:	e0030392 	mul	r3, r2, r3
    e7b4:	e50b3008 	str	r3, [fp, #-8]
    e7b8:	e51b3018 	ldr	r3, [fp, #-24]
    e7bc:	e2833001 	add	r3, r3, #1
    e7c0:	e50b3018 	str	r3, [fp, #-24]
    e7c4:	e51b300c 	ldr	r3, [fp, #-12]
    e7c8:	e2833001 	add	r3, r3, #1
    e7cc:	e50b300c 	str	r3, [fp, #-12]
    e7d0:	e51b200c 	ldr	r2, [fp, #-12]
    e7d4:	e51b301c 	ldr	r3, [fp, #-28]
    e7d8:	e1520003 	cmp	r2, r3
    e7dc:	3affffea 	bcc	e78c <rshash+0x44>
    e7e0:	e51b2020 	ldr	r2, [fp, #-32]
    e7e4:	e24b3014 	sub	r3, fp, #20
    e7e8:	e1a01002 	mov	r1, r2
    e7ec:	e1a02003 	mov	r2, r3
    e7f0:	e3a03004 	mov	r3, #4
    e7f4:	e1a00001 	mov	r0, r1
    e7f8:	e1a01002 	mov	r1, r2
    e7fc:	e1a02003 	mov	r2, r3
    e800:	ebffe8dc 	bl	8b78 <_init+0x74>
    e804:	e24bd004 	sub	sp, fp, #4
    e808:	e8bd8800 	pop	{fp, pc}
    e80c:	0005c6b7 	.word	0x0005c6b7
    e810:	0000f8c9 	.word	0x0000f8c9

0000e814 <jshash>:
    e814:	e92d4800 	push	{fp, lr}
    e818:	e28db004 	add	fp, sp, #4
    e81c:	e24dd018 	sub	sp, sp, #24
    e820:	e50b0010 	str	r0, [fp, #-16]
    e824:	e50b1014 	str	r1, [fp, #-20]
    e828:	e50b2018 	str	r2, [fp, #-24]
    e82c:	e59f3094 	ldr	r3, [pc, #148]	; e8c8 <jshash+0xb4>
    e830:	e50b300c 	str	r3, [fp, #-12]
    e834:	e3a03000 	mov	r3, #0
    e838:	e50b3008 	str	r3, [fp, #-8]
    e83c:	e3a03000 	mov	r3, #0
    e840:	e50b3008 	str	r3, [fp, #-8]
    e844:	ea000010 	b	e88c <jshash+0x78>
    e848:	e51b300c 	ldr	r3, [fp, #-12]
    e84c:	e1a02283 	lsl	r2, r3, #5
    e850:	e51b3010 	ldr	r3, [fp, #-16]
    e854:	e5d33000 	ldrb	r3, [r3]
    e858:	e0822003 	add	r2, r2, r3
    e85c:	e51b300c 	ldr	r3, [fp, #-12]
    e860:	e1a03123 	lsr	r3, r3, #2
    e864:	e0822003 	add	r2, r2, r3
    e868:	e51b300c 	ldr	r3, [fp, #-12]
    e86c:	e0223003 	eor	r3, r2, r3
    e870:	e50b300c 	str	r3, [fp, #-12]
    e874:	e51b3010 	ldr	r3, [fp, #-16]
    e878:	e2833001 	add	r3, r3, #1
    e87c:	e50b3010 	str	r3, [fp, #-16]
    e880:	e51b3008 	ldr	r3, [fp, #-8]
    e884:	e2833001 	add	r3, r3, #1
    e888:	e50b3008 	str	r3, [fp, #-8]
    e88c:	e51b2008 	ldr	r2, [fp, #-8]
    e890:	e51b3014 	ldr	r3, [fp, #-20]
    e894:	e1520003 	cmp	r2, r3
    e898:	3affffea 	bcc	e848 <jshash+0x34>
    e89c:	e51b2018 	ldr	r2, [fp, #-24]
    e8a0:	e24b300c 	sub	r3, fp, #12
    e8a4:	e1a01002 	mov	r1, r2
    e8a8:	e1a02003 	mov	r2, r3
    e8ac:	e3a03004 	mov	r3, #4
    e8b0:	e1a00001 	mov	r0, r1
    e8b4:	e1a01002 	mov	r1, r2
    e8b8:	e1a02003 	mov	r2, r3
    e8bc:	ebffe8ad 	bl	8b78 <_init+0x74>
    e8c0:	e24bd004 	sub	sp, fp, #4
    e8c4:	e8bd8800 	pop	{fp, pc}
    e8c8:	4e67c6a7 	.word	0x4e67c6a7

0000e8cc <pjwhash>:
    e8cc:	e92d4800 	push	{fp, lr}
    e8d0:	e28db004 	add	fp, sp, #4
    e8d4:	e24dd030 	sub	sp, sp, #48	; 0x30
    e8d8:	e50b0028 	str	r0, [fp, #-40]	; 0x28
    e8dc:	e50b102c 	str	r1, [fp, #-44]	; 0x2c
    e8e0:	e50b2030 	str	r2, [fp, #-48]	; 0x30
    e8e4:	e3a03020 	mov	r3, #32
    e8e8:	e50b300c 	str	r3, [fp, #-12]
    e8ec:	e51b200c 	ldr	r2, [fp, #-12]
    e8f0:	e1a03002 	mov	r3, r2
    e8f4:	e1a03083 	lsl	r3, r3, #1
    e8f8:	e0833002 	add	r3, r3, r2
    e8fc:	e1a03123 	lsr	r3, r3, #2
    e900:	e50b3010 	str	r3, [fp, #-16]
    e904:	e51b300c 	ldr	r3, [fp, #-12]
    e908:	e1a031a3 	lsr	r3, r3, #3
    e90c:	e50b3014 	str	r3, [fp, #-20]
    e910:	e51b200c 	ldr	r2, [fp, #-12]
    e914:	e51b3014 	ldr	r3, [fp, #-20]
    e918:	e0633002 	rsb	r3, r3, r2
    e91c:	e3e02000 	mvn	r2, #0
    e920:	e1a03312 	lsl	r3, r2, r3
    e924:	e50b3018 	str	r3, [fp, #-24]
    e928:	e3a03000 	mov	r3, #0
    e92c:	e50b3020 	str	r3, [fp, #-32]
    e930:	e3a03000 	mov	r3, #0
    e934:	e50b301c 	str	r3, [fp, #-28]
    e938:	e3a03000 	mov	r3, #0
    e93c:	e50b3008 	str	r3, [fp, #-8]
    e940:	e3a03000 	mov	r3, #0
    e944:	e50b3008 	str	r3, [fp, #-8]
    e948:	ea00001c 	b	e9c0 <pjwhash+0xf4>
    e94c:	e51b2020 	ldr	r2, [fp, #-32]
    e950:	e51b3014 	ldr	r3, [fp, #-20]
    e954:	e1a02312 	lsl	r2, r2, r3
    e958:	e51b3028 	ldr	r3, [fp, #-40]	; 0x28
    e95c:	e5d33000 	ldrb	r3, [r3]
    e960:	e0823003 	add	r3, r2, r3
    e964:	e50b3020 	str	r3, [fp, #-32]
    e968:	e51b2020 	ldr	r2, [fp, #-32]
    e96c:	e51b3018 	ldr	r3, [fp, #-24]
    e970:	e0023003 	and	r3, r2, r3
    e974:	e50b301c 	str	r3, [fp, #-28]
    e978:	e51b301c 	ldr	r3, [fp, #-28]
    e97c:	e3530000 	cmp	r3, #0
    e980:	0a000008 	beq	e9a8 <pjwhash+0xdc>
    e984:	e51b3010 	ldr	r3, [fp, #-16]
    e988:	e51b201c 	ldr	r2, [fp, #-28]
    e98c:	e1a02332 	lsr	r2, r2, r3
    e990:	e51b3020 	ldr	r3, [fp, #-32]
    e994:	e0222003 	eor	r2, r2, r3
    e998:	e51b3018 	ldr	r3, [fp, #-24]
    e99c:	e1e03003 	mvn	r3, r3
    e9a0:	e0023003 	and	r3, r2, r3
    e9a4:	e50b3020 	str	r3, [fp, #-32]
    e9a8:	e51b3028 	ldr	r3, [fp, #-40]	; 0x28
    e9ac:	e2833001 	add	r3, r3, #1
    e9b0:	e50b3028 	str	r3, [fp, #-40]	; 0x28
    e9b4:	e51b3008 	ldr	r3, [fp, #-8]
    e9b8:	e2833001 	add	r3, r3, #1
    e9bc:	e50b3008 	str	r3, [fp, #-8]
    e9c0:	e51b2008 	ldr	r2, [fp, #-8]
    e9c4:	e51b302c 	ldr	r3, [fp, #-44]	; 0x2c
    e9c8:	e1520003 	cmp	r2, r3
    e9cc:	3affffde 	bcc	e94c <pjwhash+0x80>
    e9d0:	e51b2030 	ldr	r2, [fp, #-48]	; 0x30
    e9d4:	e24b3020 	sub	r3, fp, #32
    e9d8:	e1a01002 	mov	r1, r2
    e9dc:	e1a02003 	mov	r2, r3
    e9e0:	e3a03004 	mov	r3, #4
    e9e4:	e1a00001 	mov	r0, r1
    e9e8:	e1a01002 	mov	r1, r2
    e9ec:	e1a02003 	mov	r2, r3
    e9f0:	ebffe860 	bl	8b78 <_init+0x74>
    e9f4:	e24bd004 	sub	sp, fp, #4
    e9f8:	e8bd8800 	pop	{fp, pc}

0000e9fc <elfhash>:
    e9fc:	e92d4800 	push	{fp, lr}
    ea00:	e28db004 	add	fp, sp, #4
    ea04:	e24dd020 	sub	sp, sp, #32
    ea08:	e50b0018 	str	r0, [fp, #-24]
    ea0c:	e50b101c 	str	r1, [fp, #-28]
    ea10:	e50b2020 	str	r2, [fp, #-32]
    ea14:	e3a03000 	mov	r3, #0
    ea18:	e50b3010 	str	r3, [fp, #-16]
    ea1c:	e3a03000 	mov	r3, #0
    ea20:	e50b300c 	str	r3, [fp, #-12]
    ea24:	e3a03000 	mov	r3, #0
    ea28:	e50b3008 	str	r3, [fp, #-8]
    ea2c:	e3a03000 	mov	r3, #0
    ea30:	e50b3008 	str	r3, [fp, #-8]
    ea34:	ea00001b 	b	eaa8 <elfhash+0xac>
    ea38:	e51b3010 	ldr	r3, [fp, #-16]
    ea3c:	e1a02203 	lsl	r2, r3, #4
    ea40:	e51b3018 	ldr	r3, [fp, #-24]
    ea44:	e5d33000 	ldrb	r3, [r3]
    ea48:	e0823003 	add	r3, r2, r3
    ea4c:	e50b3010 	str	r3, [fp, #-16]
    ea50:	e51b3010 	ldr	r3, [fp, #-16]
    ea54:	e203320f 	and	r3, r3, #-268435456	; 0xf0000000
    ea58:	e50b300c 	str	r3, [fp, #-12]
    ea5c:	e51b300c 	ldr	r3, [fp, #-12]
    ea60:	e3530000 	cmp	r3, #0
    ea64:	0a000004 	beq	ea7c <elfhash+0x80>
    ea68:	e51b300c 	ldr	r3, [fp, #-12]
    ea6c:	e1a02c23 	lsr	r2, r3, #24
    ea70:	e51b3010 	ldr	r3, [fp, #-16]
    ea74:	e0223003 	eor	r3, r2, r3
    ea78:	e50b3010 	str	r3, [fp, #-16]
    ea7c:	e51b300c 	ldr	r3, [fp, #-12]
    ea80:	e1e02003 	mvn	r2, r3
    ea84:	e51b3010 	ldr	r3, [fp, #-16]
    ea88:	e0023003 	and	r3, r2, r3
    ea8c:	e50b3010 	str	r3, [fp, #-16]
    ea90:	e51b3018 	ldr	r3, [fp, #-24]
    ea94:	e2833001 	add	r3, r3, #1
    ea98:	e50b3018 	str	r3, [fp, #-24]
    ea9c:	e51b3008 	ldr	r3, [fp, #-8]
    eaa0:	e2833001 	add	r3, r3, #1
    eaa4:	e50b3008 	str	r3, [fp, #-8]
    eaa8:	e51b2008 	ldr	r2, [fp, #-8]
    eaac:	e51b301c 	ldr	r3, [fp, #-28]
    eab0:	e1520003 	cmp	r2, r3
    eab4:	3affffdf 	bcc	ea38 <elfhash+0x3c>
    eab8:	e51b2020 	ldr	r2, [fp, #-32]
    eabc:	e24b3010 	sub	r3, fp, #16
    eac0:	e1a01002 	mov	r1, r2
    eac4:	e1a02003 	mov	r2, r3
    eac8:	e3a03004 	mov	r3, #4
    eacc:	e1a00001 	mov	r0, r1
    ead0:	e1a01002 	mov	r1, r2
    ead4:	e1a02003 	mov	r2, r3
    ead8:	ebffe826 	bl	8b78 <_init+0x74>
    eadc:	e24bd004 	sub	sp, fp, #4
    eae0:	e8bd8800 	pop	{fp, pc}

0000eae4 <bkdrhash>:
    eae4:	e92d4800 	push	{fp, lr}
    eae8:	e28db004 	add	fp, sp, #4
    eaec:	e24dd020 	sub	sp, sp, #32
    eaf0:	e50b0018 	str	r0, [fp, #-24]
    eaf4:	e50b101c 	str	r1, [fp, #-28]
    eaf8:	e50b2020 	str	r2, [fp, #-32]
    eafc:	e3a03083 	mov	r3, #131	; 0x83
    eb00:	e50b300c 	str	r3, [fp, #-12]
    eb04:	e3a03000 	mov	r3, #0
    eb08:	e50b3010 	str	r3, [fp, #-16]
    eb0c:	e3a03000 	mov	r3, #0
    eb10:	e50b3008 	str	r3, [fp, #-8]
    eb14:	e3a03000 	mov	r3, #0
    eb18:	e50b3008 	str	r3, [fp, #-8]
    eb1c:	ea00000c 	b	eb54 <bkdrhash+0x70>
    eb20:	e51b3010 	ldr	r3, [fp, #-16]
    eb24:	e51b200c 	ldr	r2, [fp, #-12]
    eb28:	e0020392 	mul	r2, r2, r3
    eb2c:	e51b3018 	ldr	r3, [fp, #-24]
    eb30:	e5d33000 	ldrb	r3, [r3]
    eb34:	e0823003 	add	r3, r2, r3
    eb38:	e50b3010 	str	r3, [fp, #-16]
    eb3c:	e51b3018 	ldr	r3, [fp, #-24]
    eb40:	e2833001 	add	r3, r3, #1
    eb44:	e50b3018 	str	r3, [fp, #-24]
    eb48:	e51b3008 	ldr	r3, [fp, #-8]
    eb4c:	e2833001 	add	r3, r3, #1
    eb50:	e50b3008 	str	r3, [fp, #-8]
    eb54:	e51b2008 	ldr	r2, [fp, #-8]
    eb58:	e51b301c 	ldr	r3, [fp, #-28]
    eb5c:	e1520003 	cmp	r2, r3
    eb60:	3affffee 	bcc	eb20 <bkdrhash+0x3c>
    eb64:	e51b2020 	ldr	r2, [fp, #-32]
    eb68:	e24b3010 	sub	r3, fp, #16
    eb6c:	e1a01002 	mov	r1, r2
    eb70:	e1a02003 	mov	r2, r3
    eb74:	e3a03004 	mov	r3, #4
    eb78:	e1a00001 	mov	r0, r1
    eb7c:	e1a01002 	mov	r1, r2
    eb80:	e1a02003 	mov	r2, r3
    eb84:	ebffe7fb 	bl	8b78 <_init+0x74>
    eb88:	e24bd004 	sub	sp, fp, #4
    eb8c:	e8bd8800 	pop	{fp, pc}

0000eb90 <sdbmhash>:
    eb90:	e92d4800 	push	{fp, lr}
    eb94:	e28db004 	add	fp, sp, #4
    eb98:	e24dd018 	sub	sp, sp, #24
    eb9c:	e50b0010 	str	r0, [fp, #-16]
    eba0:	e50b1014 	str	r1, [fp, #-20]
    eba4:	e50b2018 	str	r2, [fp, #-24]
    eba8:	e3a03000 	mov	r3, #0
    ebac:	e50b300c 	str	r3, [fp, #-12]
    ebb0:	e3a03000 	mov	r3, #0
    ebb4:	e50b3008 	str	r3, [fp, #-8]
    ebb8:	e3a03000 	mov	r3, #0
    ebbc:	e50b3008 	str	r3, [fp, #-8]
    ebc0:	ea000011 	b	ec0c <sdbmhash+0x7c>
    ebc4:	e51b3010 	ldr	r3, [fp, #-16]
    ebc8:	e5d33000 	ldrb	r3, [r3]
    ebcc:	e1a02003 	mov	r2, r3
    ebd0:	e51b300c 	ldr	r3, [fp, #-12]
    ebd4:	e1a03303 	lsl	r3, r3, #6
    ebd8:	e0822003 	add	r2, r2, r3
    ebdc:	e51b300c 	ldr	r3, [fp, #-12]
    ebe0:	e1a03803 	lsl	r3, r3, #16
    ebe4:	e0822003 	add	r2, r2, r3
    ebe8:	e51b300c 	ldr	r3, [fp, #-12]
    ebec:	e0633002 	rsb	r3, r3, r2
    ebf0:	e50b300c 	str	r3, [fp, #-12]
    ebf4:	e51b3010 	ldr	r3, [fp, #-16]
    ebf8:	e2833001 	add	r3, r3, #1
    ebfc:	e50b3010 	str	r3, [fp, #-16]
    ec00:	e51b3008 	ldr	r3, [fp, #-8]
    ec04:	e2833001 	add	r3, r3, #1
    ec08:	e50b3008 	str	r3, [fp, #-8]
    ec0c:	e51b2008 	ldr	r2, [fp, #-8]
    ec10:	e51b3014 	ldr	r3, [fp, #-20]
    ec14:	e1520003 	cmp	r2, r3
    ec18:	3affffe9 	bcc	ebc4 <sdbmhash+0x34>
    ec1c:	e51b2018 	ldr	r2, [fp, #-24]
    ec20:	e24b300c 	sub	r3, fp, #12
    ec24:	e1a01002 	mov	r1, r2
    ec28:	e1a02003 	mov	r2, r3
    ec2c:	e3a03004 	mov	r3, #4
    ec30:	e1a00001 	mov	r0, r1
    ec34:	e1a01002 	mov	r1, r2
    ec38:	e1a02003 	mov	r2, r3
    ec3c:	ebffe7cd 	bl	8b78 <_init+0x74>
    ec40:	e24bd004 	sub	sp, fp, #4
    ec44:	e8bd8800 	pop	{fp, pc}

0000ec48 <djbhash>:
    ec48:	e92d4800 	push	{fp, lr}
    ec4c:	e28db004 	add	fp, sp, #4
    ec50:	e24dd018 	sub	sp, sp, #24
    ec54:	e50b0010 	str	r0, [fp, #-16]
    ec58:	e50b1014 	str	r1, [fp, #-20]
    ec5c:	e50b2018 	str	r2, [fp, #-24]
    ec60:	e59f3088 	ldr	r3, [pc, #136]	; ecf0 <djbhash+0xa8>
    ec64:	e50b300c 	str	r3, [fp, #-12]
    ec68:	e3a03000 	mov	r3, #0
    ec6c:	e50b3008 	str	r3, [fp, #-8]
    ec70:	e3a03000 	mov	r3, #0
    ec74:	e50b3008 	str	r3, [fp, #-8]
    ec78:	ea00000d 	b	ecb4 <djbhash+0x6c>
    ec7c:	e51b300c 	ldr	r3, [fp, #-12]
    ec80:	e1a02283 	lsl	r2, r3, #5
    ec84:	e51b300c 	ldr	r3, [fp, #-12]
    ec88:	e0822003 	add	r2, r2, r3
    ec8c:	e51b3010 	ldr	r3, [fp, #-16]
    ec90:	e5d33000 	ldrb	r3, [r3]
    ec94:	e0823003 	add	r3, r2, r3
    ec98:	e50b300c 	str	r3, [fp, #-12]
    ec9c:	e51b3010 	ldr	r3, [fp, #-16]
    eca0:	e2833001 	add	r3, r3, #1
    eca4:	e50b3010 	str	r3, [fp, #-16]
    eca8:	e51b3008 	ldr	r3, [fp, #-8]
    ecac:	e2833001 	add	r3, r3, #1
    ecb0:	e50b3008 	str	r3, [fp, #-8]
    ecb4:	e51b2008 	ldr	r2, [fp, #-8]
    ecb8:	e51b3014 	ldr	r3, [fp, #-20]
    ecbc:	e1520003 	cmp	r2, r3
    ecc0:	3affffed 	bcc	ec7c <djbhash+0x34>
    ecc4:	e51b2018 	ldr	r2, [fp, #-24]
    ecc8:	e24b300c 	sub	r3, fp, #12
    eccc:	e1a01002 	mov	r1, r2
    ecd0:	e1a02003 	mov	r2, r3
    ecd4:	e3a03004 	mov	r3, #4
    ecd8:	e1a00001 	mov	r0, r1
    ecdc:	e1a01002 	mov	r1, r2
    ece0:	e1a02003 	mov	r2, r3
    ece4:	ebffe7a3 	bl	8b78 <_init+0x74>
    ece8:	e24bd004 	sub	sp, fp, #4
    ecec:	e8bd8800 	pop	{fp, pc}
    ecf0:	00001505 	.word	0x00001505

0000ecf4 <dekhash>:
    ecf4:	e92d4800 	push	{fp, lr}
    ecf8:	e28db004 	add	fp, sp, #4
    ecfc:	e24dd018 	sub	sp, sp, #24
    ed00:	e50b0010 	str	r0, [fp, #-16]
    ed04:	e50b1014 	str	r1, [fp, #-20]
    ed08:	e50b2018 	str	r2, [fp, #-24]
    ed0c:	e51b3014 	ldr	r3, [fp, #-20]
    ed10:	e50b300c 	str	r3, [fp, #-12]
    ed14:	e3a03000 	mov	r3, #0
    ed18:	e50b3008 	str	r3, [fp, #-8]
    ed1c:	e3a03000 	mov	r3, #0
    ed20:	e50b3008 	str	r3, [fp, #-8]
    ed24:	ea00000b 	b	ed58 <dekhash+0x64>
    ed28:	e51b300c 	ldr	r3, [fp, #-12]
    ed2c:	e1a02de3 	ror	r2, r3, #27
    ed30:	e51b3010 	ldr	r3, [fp, #-16]
    ed34:	e5d33000 	ldrb	r3, [r3]
    ed38:	e0223003 	eor	r3, r2, r3
    ed3c:	e50b300c 	str	r3, [fp, #-12]
    ed40:	e51b3010 	ldr	r3, [fp, #-16]
    ed44:	e2833001 	add	r3, r3, #1
    ed48:	e50b3010 	str	r3, [fp, #-16]
    ed4c:	e51b3008 	ldr	r3, [fp, #-8]
    ed50:	e2833001 	add	r3, r3, #1
    ed54:	e50b3008 	str	r3, [fp, #-8]
    ed58:	e51b2008 	ldr	r2, [fp, #-8]
    ed5c:	e51b3014 	ldr	r3, [fp, #-20]
    ed60:	e1520003 	cmp	r2, r3
    ed64:	3affffef 	bcc	ed28 <dekhash+0x34>
    ed68:	e51b2018 	ldr	r2, [fp, #-24]
    ed6c:	e24b300c 	sub	r3, fp, #12
    ed70:	e1a01002 	mov	r1, r2
    ed74:	e1a02003 	mov	r2, r3
    ed78:	e3a03004 	mov	r3, #4
    ed7c:	e1a00001 	mov	r0, r1
    ed80:	e1a01002 	mov	r1, r2
    ed84:	e1a02003 	mov	r2, r3
    ed88:	ebffe77a 	bl	8b78 <_init+0x74>
    ed8c:	e24bd004 	sub	sp, fp, #4
    ed90:	e8bd8800 	pop	{fp, pc}

0000ed94 <bphash>:
    ed94:	e92d4800 	push	{fp, lr}
    ed98:	e28db004 	add	fp, sp, #4
    ed9c:	e24dd018 	sub	sp, sp, #24
    eda0:	e50b0010 	str	r0, [fp, #-16]
    eda4:	e50b1014 	str	r1, [fp, #-20]
    eda8:	e50b2018 	str	r2, [fp, #-24]
    edac:	e3a03000 	mov	r3, #0
    edb0:	e50b300c 	str	r3, [fp, #-12]
    edb4:	e3a03000 	mov	r3, #0
    edb8:	e50b3008 	str	r3, [fp, #-8]
    edbc:	e3a03000 	mov	r3, #0
    edc0:	e50b3008 	str	r3, [fp, #-8]
    edc4:	ea00000b 	b	edf8 <bphash+0x64>
    edc8:	e51b300c 	ldr	r3, [fp, #-12]
    edcc:	e1a02383 	lsl	r2, r3, #7
    edd0:	e51b3010 	ldr	r3, [fp, #-16]
    edd4:	e5d33000 	ldrb	r3, [r3]
    edd8:	e0223003 	eor	r3, r2, r3
    eddc:	e50b300c 	str	r3, [fp, #-12]
    ede0:	e51b3010 	ldr	r3, [fp, #-16]
    ede4:	e2833001 	add	r3, r3, #1
    ede8:	e50b3010 	str	r3, [fp, #-16]
    edec:	e51b3008 	ldr	r3, [fp, #-8]
    edf0:	e2833001 	add	r3, r3, #1
    edf4:	e50b3008 	str	r3, [fp, #-8]
    edf8:	e51b2008 	ldr	r2, [fp, #-8]
    edfc:	e51b3014 	ldr	r3, [fp, #-20]
    ee00:	e1520003 	cmp	r2, r3
    ee04:	3affffef 	bcc	edc8 <bphash+0x34>
    ee08:	e51b2018 	ldr	r2, [fp, #-24]
    ee0c:	e24b300c 	sub	r3, fp, #12
    ee10:	e1a01002 	mov	r1, r2
    ee14:	e1a02003 	mov	r2, r3
    ee18:	e3a03004 	mov	r3, #4
    ee1c:	e1a00001 	mov	r0, r1
    ee20:	e1a01002 	mov	r1, r2
    ee24:	e1a02003 	mov	r2, r3
    ee28:	ebffe752 	bl	8b78 <_init+0x74>
    ee2c:	e24bd004 	sub	sp, fp, #4
    ee30:	e8bd8800 	pop	{fp, pc}

0000ee34 <fnvhash>:
    ee34:	e92d4800 	push	{fp, lr}
    ee38:	e28db004 	add	fp, sp, #4
    ee3c:	e24dd020 	sub	sp, sp, #32
    ee40:	e50b0018 	str	r0, [fp, #-24]
    ee44:	e50b101c 	str	r1, [fp, #-28]
    ee48:	e50b2020 	str	r2, [fp, #-32]
    ee4c:	e59f3098 	ldr	r3, [pc, #152]	; eeec <fnvhash+0xb8>
    ee50:	e50b300c 	str	r3, [fp, #-12]
    ee54:	e3a03000 	mov	r3, #0
    ee58:	e50b3010 	str	r3, [fp, #-16]
    ee5c:	e3a03000 	mov	r3, #0
    ee60:	e50b3008 	str	r3, [fp, #-8]
    ee64:	e3a03000 	mov	r3, #0
    ee68:	e50b3008 	str	r3, [fp, #-8]
    ee6c:	ea00000f 	b	eeb0 <fnvhash+0x7c>
    ee70:	e51b3010 	ldr	r3, [fp, #-16]
    ee74:	e51b200c 	ldr	r2, [fp, #-12]
    ee78:	e0030392 	mul	r3, r2, r3
    ee7c:	e50b3010 	str	r3, [fp, #-16]
    ee80:	e51b3018 	ldr	r3, [fp, #-24]
    ee84:	e5d33000 	ldrb	r3, [r3]
    ee88:	e1a02003 	mov	r2, r3
    ee8c:	e51b3010 	ldr	r3, [fp, #-16]
    ee90:	e0223003 	eor	r3, r2, r3
    ee94:	e50b3010 	str	r3, [fp, #-16]
    ee98:	e51b3018 	ldr	r3, [fp, #-24]
    ee9c:	e2833001 	add	r3, r3, #1
    eea0:	e50b3018 	str	r3, [fp, #-24]
    eea4:	e51b3008 	ldr	r3, [fp, #-8]
    eea8:	e2833001 	add	r3, r3, #1
    eeac:	e50b3008 	str	r3, [fp, #-8]
    eeb0:	e51b2008 	ldr	r2, [fp, #-8]
    eeb4:	e51b301c 	ldr	r3, [fp, #-28]
    eeb8:	e1520003 	cmp	r2, r3
    eebc:	3affffeb 	bcc	ee70 <fnvhash+0x3c>
    eec0:	e51b2020 	ldr	r2, [fp, #-32]
    eec4:	e24b3010 	sub	r3, fp, #16
    eec8:	e1a01002 	mov	r1, r2
    eecc:	e1a02003 	mov	r2, r3
    eed0:	e3a03004 	mov	r3, #4
    eed4:	e1a00001 	mov	r0, r1
    eed8:	e1a01002 	mov	r1, r2
    eedc:	e1a02003 	mov	r2, r3
    eee0:	ebffe724 	bl	8b78 <_init+0x74>
    eee4:	e24bd004 	sub	sp, fp, #4
    eee8:	e8bd8800 	pop	{fp, pc}
    eeec:	811c9dc5 	.word	0x811c9dc5

0000eef0 <xor8>:
    eef0:	e52db004 	push	{fp}		; (str fp, [sp, #-4]!)
    eef4:	e28db000 	add	fp, sp, #0
    eef8:	e24dd01c 	sub	sp, sp, #28
    eefc:	e50b0010 	str	r0, [fp, #-16]
    ef00:	e50b1014 	str	r1, [fp, #-20]
    ef04:	e50b2018 	str	r2, [fp, #-24]
    ef08:	e3e03000 	mvn	r3, #0
    ef0c:	e54b3009 	strb	r3, [fp, #-9]
    ef10:	e3a03000 	mov	r3, #0
    ef14:	e50b3008 	str	r3, [fp, #-8]
    ef18:	ea00000a 	b	ef48 <xor8+0x58>
    ef1c:	e51b2010 	ldr	r2, [fp, #-16]
    ef20:	e51b3008 	ldr	r3, [fp, #-8]
    ef24:	e0823003 	add	r3, r2, r3
    ef28:	e5d32000 	ldrb	r2, [r3]
    ef2c:	e55b3009 	ldrb	r3, [fp, #-9]
    ef30:	e0223003 	eor	r3, r2, r3
    ef34:	e6ef3073 	uxtb	r3, r3
    ef38:	e54b3009 	strb	r3, [fp, #-9]
    ef3c:	e51b3008 	ldr	r3, [fp, #-8]
    ef40:	e2833001 	add	r3, r3, #1
    ef44:	e50b3008 	str	r3, [fp, #-8]
    ef48:	e51b2008 	ldr	r2, [fp, #-8]
    ef4c:	e51b3014 	ldr	r3, [fp, #-20]
    ef50:	e1520003 	cmp	r2, r3
    ef54:	3afffff0 	bcc	ef1c <xor8+0x2c>
    ef58:	e24b3009 	sub	r3, fp, #9
    ef5c:	e5d32000 	ldrb	r2, [r3]
    ef60:	e51b3018 	ldr	r3, [fp, #-24]
    ef64:	e5c32000 	strb	r2, [r3]
    ef68:	e28bd000 	add	sp, fp, #0
    ef6c:	e8bd0800 	pop	{fp}
    ef70:	e12fff1e 	bx	lr

0000ef74 <xor16>:
    ef74:	e92d4800 	push	{fp, lr}
    ef78:	e28db004 	add	fp, sp, #4
    ef7c:	e24dd018 	sub	sp, sp, #24
    ef80:	e50b0010 	str	r0, [fp, #-16]
    ef84:	e50b1014 	str	r1, [fp, #-20]
    ef88:	e50b2018 	str	r2, [fp, #-24]
    ef8c:	e3e03000 	mvn	r3, #0
    ef90:	e14b30ba 	strh	r3, [fp, #-10]
    ef94:	e3a03000 	mov	r3, #0
    ef98:	e50b3008 	str	r3, [fp, #-8]
    ef9c:	ea00000b 	b	efd0 <xor16+0x5c>
    efa0:	e51b3010 	ldr	r3, [fp, #-16]
    efa4:	e1d320b0 	ldrh	r2, [r3]
